(dp1
S'YBR177C'
p2
S''
sS'YIL140W'
p3
S''
sS'YLR268W'
p4
S'SNARE interactions in vesicular transport'
p5
sS'YLR357W'
p6
S'Chromosome-related'
p7
sS'YJL155C'
p8
S'Carbohydrate metabolism'
p9
sS'YLR197W'
p10
S'Ribosome biogenesis in eukaryotes'
p11
sS'YAL008W'
p12
S''
sS'YBR255W'
p13
S''
sS'YJL122W'
p14
S''
sS'YAL056W'
p15
S''
sS'YGR148C'
p16
S'Ribosome'
p17
sS'YJR122W'
p18
S''
sS'YPL040C'
p19
S'tRNA loading'
p20
sS'YLR244C'
p21
S'Peptidases'
p22
sS'YPL144W'
p23
S''
sS'YBR111W-A'
p24
S'Chromosome-related'
p25
sS'YJR084W'
p26
S''
sS'YLR233C'
p27
S'DNA replication control'
p28
sS'YBR160W'
p29
S'Cell cycle'
p30
sS'YNR007C'
p31
S'Ubiquitin labeling'
p32
sS'YJL082W'
p33
S''
sS'YHR007C'
p34
S'Lipid and steroid metabolism'
p35
sS'YIL095W'
p36
S''
sS'YIR004W'
p37
S''
sS'YPR133W-A'
p38
S''
sS'YPL191C'
p39
S''
sS'YKL190W'
p40
S''
sS'YLR395C'
p41
S'Oxidative phosphorylation'
p42
sS'YDR312W'
p43
S''
sS'YLR348C'
p44
S''
sS'YBR248C'
p45
S'Amino acid metabolism'
p46
sS'YAL023C'
p47
S'Glycan metabolism'
p48
sS'YNR067C'
p49
S'Cell wall'
p50
sS'YNL152W'
p51
S''
sS'YLR382C'
p52
S'tRNA loading'
p53
sS'YKL063C'
p54
S''
sS'YFL045C'
p55
S'Carbohydrate metabolism'
p56
sS'YFL010C'
p57
S''
sS'YDR141C'
p58
S''
sS'YJL131C'
p59
S''
sS'YDL170W'
p60
S'Transcription factors'
p61
sS'YBR117C'
p62
S'Pentose phosphate metabolism'
p63
sS'YIL124W'
p64
S'Lipid and steroid metabolism'
p65
sS'YLR219W'
p66
S''
sS'YKL048C'
p67
S'Other enzymes'
p68
sS'YDR083W'
p69
S''
sS'YMR009W'
p70
S'Amino acid metabolism'
p71
sS'YOR123C'
p72
S''
sS'YJL179W'
p73
S'Chaperones and folding catalysts'
p74
sS'YKL183W'
p75
S''
sS'YLR189C'
p76
S'Glycan metabolism'
p77
sS'YFL021W'
p78
S'Transcription factors'
p79
sS'YLR362W'
p80
S'MAPK signaling pathway'
p81
sS'YOR377W'
p82
S'Other enzymes'
p83
sS'YMR283C'
p84
S'Other enzymes'
p85
sS'YKL134C'
p86
S'Peptidases'
p87
sS'YKL029C'
p88
S'Glycolysis'
p89
sS'YNL163C'
p90
S'Translation factors'
p91
sS'YBR273C'
p92
S''
sS'YFR005C'
p93
S'Spliceosome'
p94
sS'YHR009C'
p95
S''
sS'YAL026C'
p96
S'Other enzymes'
p97
sS'YOL034W'
p98
S''
sS'YJR135W-A'
p99
S''
sS'YFR050C'
p100
S'Proteasome'
p101
sS'YBL008W'
p102
S'Chromosome-related'
p103
sS'YLR447C'
p104
S'Phagosome'
p105
sS'YGR089W'
p106
S''
sS'YGL237C'
p107
S''
sS'YOL058W'
p108
S'Amino acid metabolism'
p109
sS'YIL062C'
p110
S'Regulation of actin cytoskeleton'
p111
sS'YNL295W'
p112
S''
sS'YAR035W'
p113
S'Peroxisome'
p114
sS'YNR032C-A'
p115
S''
sS'YDR299W'
p116
S''
sS'YML129C'
p117
S''
sS'YDR196C'
p118
S'Cofactor biosynthesis'
p119
sS'YBR202W'
p120
S'DNA replication complex'
p121
sS'YNL239W'
p122
S'Peptidases'
p123
sS'YDR410C'
p124
S'Other enzymes'
p125
sS'YNL255C'
p126
S'Transcription factors'
p127
sS'YGR020C'
p128
S'Phagosome'
p129
sS'YNR045W'
p130
S''
sS'YML105C'
p131
S'Protein export'
p132
sS'YLL040C'
p133
S''
sS'YIL091C'
p134
S''
sS'YMR172W'
p135
S''
sS'YNL137C'
p136
S''
sS'YPL104W'
p137
S'tRNA loading'
p138
sS'YNL103W'
p139
S''
sS'YAL046C'
p140
S''
sS'YDR198C'
p141
S''
sS'YAL039C'
p142
S'Cofactor biosynthesis'
p143
sS'YNR018W'
p144
S''
sS'YKL059C'
p145
S'mRNA surveillance pathway'
p146
sS'YDL185W'
p147
S'Oxidative phosphorylation'
p148
sS'YFR047C'
p149
S'Cofactor biosynthesis'
p150
sS'YGR100W'
p151
S''
sS'YFR037C'
p152
S'Chromosome-related'
p153
sS'YNL240C'
p154
S''
sS'YBR159W'
p155
S'Lipid and steroid metabolism'
p156
sS'YML127W'
p157
S'Chromosome-related'
p158
sS'YCL030C'
p159
S'Amino acid metabolism'
p160
sS'YHR078W'
p161
S''
sS'YGR084C'
p162
S''
sS'YAL049C'
p163
S''
sS'YDR399W'
p164
S''
sS'YHR141C'
p165
S'Ribosome'
p166
sS'YLR355C'
p167
S'Amino acid metabolism'
p168
sS'YJR110W'
p169
S''
sS'YGL157W'
p170
S''
sS'YPL128C'
p171
S''
sS'YBL015W'
p172
S'Pyruvate metabolism'
p173
sS'YOL090W'
p174
S'Mismatch repair'
p175
sS'YLR300W'
p176
S'Cell wall'
p177
sS'YJL091C'
p178
S'Glycan metabolism'
p179
sS'YJR140C'
p180
S''
sS'YJR095W'
p181
S''
sS'YNR021W'
p182
S''
sS'YPL067C'
p183
S''
sS'YDR380W'
p184
S'Amino acid metabolism'
p185
sS'YGR191W'
p186
S''
sS'YBR094W'
p187
S''
sS'YHR112C'
p188
S''
sS'YDR035W'
p189
S'Amino acid metabolism'
p190
sS'YMR224C'
p191
S'DNA replication control'
p192
sS'YPL156C'
p193
S''
sS'YDR485C'
p194
S'Chromosome-related'
p195
sS'YGR077C'
p196
S''
sS'YNL321W'
p197
S''
sS'YIL044C'
p198
S'Endocytosis'
p199
sS'YPL239W'
p200
S''
sS'YNL197C'
p201
S''
sS'YPR183W'
p202
S'Glycan metabolism'
p203
sS'YOR206W'
p204
S''
sS'YOR018W'
p205
S''
sS'YLR133W'
p206
S'Lipid and steroid metabolism'
p207
sS'YNL091W'
p208
S''
sS'YCR046C'
p209
S''
sS'YLR059C'
p210
S'Ribosome biogenesis in eukaryotes'
p211
sS'YLR075W'
p212
S'Ribosome'
p213
sS'YBR054W'
p214
S''
sS'YDR507C'
p215
S'Cell cycle'
p216
sS'YPL224C'
p217
S''
sS'YEL007W'
p218
S''
sS'YLR020C'
p219
S''
sS'YNL217W'
p220
S''
sS'YKL204W'
p221
S''
sS'YER067W'
p222
S''
sS'YDL042C'
p223
S'Cofactor biosynthesis'
p224
sS'YBR096W'
p225
S''
sS'YDR531W'
p226
S'Cofactor biosynthesis'
p227
sS'YMR233W'
p228
S''
sS'YPL206C'
p229
S'Lipid and steroid metabolism'
p230
sS'YLR406C'
p231
S'Ribosome'
p232
sS'YDL060W'
p233
S''
sS'YLR002C'
p234
S''
sS'YDR393W'
p235
S''
sS'YGL171W'
p236
S''
sS'YIR022W'
p237
S'Protein export'
p238
sS'YNR052C'
p239
S'RNA degradation'
p240
sS'YGR019W'
p241
S'Butanoate metabolism'
p242
sS'YMR194W'
p243
S'Ribosome'
p244
sS'YEL032W'
p245
S'DNA replication'
p246
sS'YOL076W'
p247
S''
sS'YER145C'
p248
S''
sS'YER110C'
p249
S''
sS'YOR236W'
p250
S'Other central metabolism enzymes'
p251
sS'YBL033C'
p252
S'Cofactor biosynthesis'
p253
sS'YKL074C'
p254
S''
sS'YPL266W'
p255
S'Ribosome biogenesis'
p256
sS'YMR026C'
p257
S'Peroxisome'
p258
sS'YHR203C'
p259
S'Ribosome'
p260
sS'YER050C'
p261
S''
sS'YOR304W'
p262
S''
sS'YBR212W'
p263
S''
sS'YJR133W'
p264
S''
sS'YER129W'
p265
S'Other enzymes'
p266
sS'YML112W'
p267
S'Other enzymes'
p268
sS'YGL062W'
p269
S'TCA cycle and anaplerotic enzymes'
p270
sS'YGR183C'
p271
S'Oxidative phosphorylation'
p272
sS'YER169W'
p273
S''
sS'YOL016C'
p274
S'Other enzymes'
p275
sS'YOR226C'
p276
S''
sS'YGL241W'
p277
S''
sS'YNL277W'
p278
S'Amino acid metabolism'
p279
sS'YLR108C'
p280
S''
sS'YNL186W'
p281
S'Ubiquitin labeling'
p282
sS'YPR176C'
p283
S'Cofactor biosynthesis'
p284
sS'YCL044C'
p285
S''
sS'YKR008W'
p286
S'Chromosome-related'
p287
sS'YMR146C'
p288
S'Translation factors'
p289
sS'YPR165W'
p290
S'GTP-binding signaling proteins'
p291
sS'YDR226W'
p292
S'Purine metabolism'
p293
sS'YMR266W'
p294
S''
sS'YKL100C'
p295
S''
sS'YGL159W'
p296
S''
sS'YCR060W'
p297
S''
sS'YJL036W'
p298
S''
sS'YGR277C'
p299
S'Cofactor biosynthesis'
p300
sS'YER009W'
p301
S''
sS'YBR036C'
p302
S''
sS'YLR292C'
p303
S'Secretion system'
p304
sS'YDL139C'
p305
S''
sS'YDR246W'
p306
S''
sS'YOR288C'
p307
S'Chaperones and folding catalysts'
p308
sS'YGR241C'
p309
S''
sS'YMR079W'
p310
S''
sS'YLR115W'
p311
S'mRNA surveillance pathway'
p312
sS'YNL288W'
p313
S'RNA degradation'
p314
sS'YGR056W'
p315
S'Chromosome-related'
p316
sS'YML054C'
p317
S'Glycolysis'
p318
sS'YLR179C'
p319
S''
sS'YGL014W'
p320
S''
sS'YOR301W'
p321
S''
sS'YLR068W'
p322
S''
sS'YOR245C'
p323
S''
sS'YER007W'
p324
S''
sS'YOR141C'
p325
S'Chromosome-related'
p326
sS'YER027C'
p327
S''
sS'YMR104C'
p328
S'Other enzymes'
p329
sS'YPR056W'
p330
S'Basal transcription factors'
p331
sS'YER107C'
p332
S'RNA transport'
p333
sS'YDL195W'
p334
S'Protein processing in endoplasmic reticulum'
p335
sS'YNL199C'
p336
S''
sS'YJR011C'
p337
S''
sS'YDR117C'
p338
S''
sS'YOR196C'
p339
S'Cofactor biosynthesis'
p340
sS'YMR246W'
p341
S'Other enzymes'
p342
sS'YGL173C'
p343
S'Ribosome biogenesis in eukaryotes'
p344
sS'YEL047C'
p345
S''
sS'YPR036W'
p346
S'Phagosome'
p347
sS'YPR016C'
p348
S'Translation factors'
p349
sS'YCR087C-A'
p350
S''
sS'YGR235C'
p351
S''
sS'YDR068W'
p352
S''
sS'YDL055C'
p353
S'Carbohydrate metabolism'
p354
sS'YBR009C'
p355
S'Chromosome-related'
p356
sS'YEL043W'
p357
S''
sS'YML009C'
p358
S''
sS'YML072C'
p359
S''
sS'YHR052W'
p360
S''
sS'YDR142C'
p361
S'Peroxisome'
p362
sS'YKR026C'
p363
S'Translation factors'
p364
sS'YFL044C'
p365
S'Protein processing in endoplasmic reticulum'
p366
sS'YJR043C'
p367
S'DNA replication complex'
p368
sS'YPL263C'
p369
S''
sS'YKL019W'
p370
S'Cofactor biosynthesis'
p371
sS'YJL130C'
p372
S'Pyrimidine metabolism'
p373
sS'YKL060C'
p374
S'Glycolysis'
p375
sS'YBL085W'
p376
S''
sS'YKL173W'
p377
S'Spliceosome'
p378
sS'YGR200C'
p379
S'Chromosome-related'
p380
sS'YLR383W'
p381
S''
sS'YKL035W'
p382
S'Carbohydrate metabolism'
p383
sS'YIL127C'
p384
S''
sS'YDR348C'
p385
S''
sS'YLR388W'
p386
S'Ribosome'
p387
sS'YKL182W'
p388
S'Lipid and steroid metabolism'
p389
sS'YDR469W'
p390
S''
sS'YDR333C'
p391
S''
sS'YKL018C-A'
p392
S''
sS'YNL160W'
p393
S''
sS'YDR143C'
p394
S''
sS'YMR013C'
p395
S'Glycan metabolism'
p396
sS'YLR223C'
p397
S''
sS'YKL135C'
p398
S''
sS'YDR326C'
p399
S''
sS'YLR363C'
p400
S''
sS'YJL046W'
p401
S'Cofactor biosynthesis'
p402
sS'YNR046W'
p403
S''
sS'YJL014W'
p404
S'Chaperones and folding catalysts'
p405
sS'YDR219C'
p406
S''
sS'YCR011C'
p407
S''
sS'YKR046C'
p408
S''
sS'YNL055C'
p409
S'Transport'
p410
sS'YJR005W'
p411
S''
sS'YMR031C'
p412
S''
sS'YNL072W'
p413
S'DNA replication complex'
p414
sS'YBL098W'
p415
S'Amino acid metabolism'
p416
sS'YDL095W'
p417
S'Glycan metabolism'
p418
sS'YOR174W'
p419
S''
sS'YDR466W'
p420
S''
sS'YFL002C'
p421
S''
sS'YDR155C'
p422
S'Other enzymes'
p423
sS'YIR026C'
p424
S'Other enzymes'
p425
sS'YJL176C'
p426
S'Chromosome-related'
p427
sS'YJR072C'
p428
S''
sS'YDR515W'
p429
S''
sS'YKR039W'
p430
S''
sS'YNL015W'
p431
S''
sS'YCR084C'
p432
S'Cell cycle'
p433
sS'YPL065W'
p434
S'Endocytosis'
p435
sS'YDR389W'
p436
S''
sS'YJL054W'
p437
S''
sS'YOR118W'
p438
S''
sS'YLR069C'
p439
S'Translation factors'
p440
sS'YDR268W'
p441
S'tRNA loading'
p442
sS'YMR022W'
p443
S'Protein processing in endoplasmic reticulum'
p444
sS'YPL170W'
p445
S''
sS'YPR001W'
p446
S'TCA cycle and anaplerotic enzymes'
p447
sS'YFL059W'
p448
S'Cofactor biosynthesis'
p449
sS'YML094W'
p450
S'Chaperones and folding catalysts'
p451
sS'YKR006C'
p452
S''
sS'YDL117W'
p453
S''
sS'YMR131C'
p454
S''
sS'YPR154W'
p455
S''
sS'YBR085C-A'
p456
S''
sS'YJL109C'
p457
S'Ribosome biogenesis in eukaryotes'
p458
sS'YMR293C'
p459
S'tRNA loading'
p460
sS'YER089C'
p461
S'Other enzymes'
p462
sS'YIL005W'
p463
S'Chaperones and folding catalysts'
p464
sS'YIL105C'
p465
S''
sS'YNL119W'
p466
S'Sulfur relay system'
p467
sS'YML126C'
p468
S'Butanoate metabolism'
p469
sS'YDR347W'
p470
S'Other enzymes'
p471
sS'YIL150C'
p472
S'DNA replication control'
p473
sS'YNR040W'
p474
S''
sS'YNR019W'
p475
S'Lipid and steroid metabolism'
p476
sS'YGR158C'
p477
S'RNA degradation'
p478
sS'YKL077W'
p479
S''
sS'YPL050C'
p480
S'Glycan metabolism'
p481
sS'YJR109C'
p482
S'Pyrimidine metabolism'
p483
sS'YKL025C'
p484
S'RNA degradation'
p485
sS'YGR085C'
p486
S'Ribosome'
p487
sS'YIL169C'
p488
S''
sS'YPL105C'
p489
S''
sS'YHR121W'
p490
S''
sS'YOL097C'
p491
S'tRNA loading'
p492
sS'YJL096W'
p493
S''
sS'YGR145W'
p494
S''
sS'YLR354C'
p495
S'Pentose phosphate metabolism'
p496
sS'YNR020C'
p497
S''
sS'YGL197W'
p498
S''
sS'YBR258C'
p499
S''
sS'YLR457C'
p500
S''
sS'YLR301W'
p501
S''
sS'YFR019W'
p502
S'Phosphatidylinositol signaling system'
p503
sS'YLR262C-A'
p504
S''
sS'YHR142W'
p505
S''
sS'YPL129W'
p506
S'Basal transcription factors'
p507
sS'YNL241C'
p508
S'Pentose phosphate metabolism'
p509
sS'YJL154C'
p510
S''
sS'YDR091C'
p511
S''
sS'YJL123C'
p512
S''
sS'YLR196W'
p513
S''
sS'YJL203W'
p514
S''
sS'YER086W'
p515
S'Amino acid metabolism'
p516
sS'YBR129C'
p517
S''
sS'YDL160C'
p518
S'RNA degradation'
p519
sS'YBR176W'
p520
S'Cofactor biosynthesis'
p521
sS'YOR359W'
p522
S''
sS'YJR123W'
p523
S'Ribosome'
p524
sS'YGR167W'
p525
S''
sS'YKL099C'
p526
S''
sS'YJL143W'
p527
S''
sS'YLR264W'
p528
S'Ribosome'
p529
sS'YNL002C'
p530
S'Ribosome'
p531
sS'YIL108W'
p532
S''
sS'YNL104C'
p533
S'Amino acid metabolism'
p534
sS'YPL145C'
p535
S''
sS'YIL118W'
p536
S'GTP-binding signaling proteins'
p537
sS'YDR322W'
p538
S''
sS'YNL151C'
p539
S'RNA polymerase'
p540
sS'YPL190C'
p541
S''
sS'YKL191W'
p542
S''
sS'YNR006W'
p543
S'Endocytosis'
p544
sS'YGL154C'
p545
S'Cofactor biosynthesis'
p546
sS'YIL045W'
p547
S''
sS'YHR120W'
p548
S''
sS'YDR443C'
p549
S''
sS'YGR106C'
p550
S''
sS'YHR025W'
p551
S'Amino acid metabolism'
p552
sS'YNL083W'
p553
S''
sS'YBL018C'
p554
S'Ribosome biogenesis in eukaryotes'
p555
sS'YOR267C'
p556
S''
sS'YOR357C'
p557
S''
sS'YDR530C'
p558
S'Purine metabolism'
p559
sS'YHR033W'
p560
S''
sS'YEL031W'
p561
S''
sS'YOL071W'
p562
S''
sS'YNR053C'
p563
S'Ribosome biogenesis in eukaryotes'
p564
sS'YDL063C'
p565
S''
sS'YER144C'
p566
S'Ubiquitin labeling'
p567
sS'YOL039W'
p568
S'Ribosome'
p569
sS'YOR385W'
p570
S''
sS'YGR185C'
p571
S'tRNA loading'
p572
sS'YPR137C-B'
p573
S''
sS'YMR238W'
p574
S'Other enzymes'
p575
sS'YER168C'
p576
S'RNA transport'
p577
sS'YPL265W'
p578
S''
sS'YIL083C'
p579
S'Cofactor biosynthesis'
p580
sS'YOR081C'
p581
S''
sS'YBR243C'
p582
S'Glycan metabolism'
p583
sS'YLL050C'
p584
S'Regulation of actin cytoskeleton'
p585
sS'YCL014W'
p586
S''
sS'YGL172W'
p587
S'RNA transport'
p588
sS'YLR180W'
p589
S'Amino acid metabolism'
p590
sS'YNL274C'
p591
S''
sS'YDR021W'
p592
S'Spliceosome'
p593
sS'YHL011C'
p594
S'Pentose phosphate metabolism'
p595
sS'YPL212C'
p596
S'Other enzymes'
p597
sS'YLR208W'
p598
S'RNA transport'
p599
sS'YFR011C'
p600
S''
sS'YOR101W'
p601
S'GTP-binding signaling proteins'
p602
sS'YHR008C'
p603
S'Other enzymes'
p604
sS'YGR081C'
p605
S''
sS'YLR330W'
p606
S''
sS'YOR310C'
p607
S'Ribosome biogenesis in eukaryotes'
p608
sS'YFR051C'
p609
S''
sS'YHR024C'
p610
S'Peptidases'
p611
sS'YDR188W'
p612
S'Chaperones and folding catalysts'
p613
sS'YGL236C'
p614
S'Chromosome-related'
p615
sS'YOL057W'
p616
S''
sS'YFR004W'
p617
S'Ubiquitin labeling'
p618
sS'YHR133C'
p619
S''
sS'YDR017C'
p620
S''
sS'YMR303C'
p621
S'Glycolysis'
p622
sS'YOR369C'
p623
S'Ribosome'
p624
sS'YDR334W'
p625
S'Chromosome-related'
p626
sS'YNL054W-B'
p627
S''
sS'YML128C'
p628
S''
sS'YDR411C'
p629
S'Protein processing in endoplasmic reticulum'
p630
sS'YBR283C'
p631
S'Protein export'
p632
sS'YIL090W'
p633
S''
sS'YBR205W'
p634
S'Glycan metabolism'
p635
sS'YOR321W'
p636
S'Glycan metabolism'
p637
sS'YML114C'
p638
S'Basal transcription factors'
p639
sS'YNR033W'
p640
S'Cofactor biosynthesis'
p641
sS'YDL004W'
p642
S'Oxidative phosphorylation'
p643
sS'YMR186W'
p644
S'Chaperones and folding catalysts'
p645
sS'YDR195W'
p646
S'mRNA surveillance pathway'
p647
sS'YNL256W'
p648
S'Cofactor biosynthesis'
p649
sS'YGR126W'
p650
S''
sS'YMR278W'
p651
S'Glycolysis'
p652
sS'YGR072W'
p653
S''
sS'YPR094W'
p654
S'Spliceosome'
p655
sS'YML039W'
p656
S''
sS'YMR207C'
p657
S''
sS'YML015C'
p658
S'Basal transcription factors'
p659
sS'YOR197W'
p660
S''
sS'YKR072C'
p661
S''
sS'YDL014W'
p662
S'Ribosome biogenesis in eukaryotes'
p663
sS'YLL032C'
p664
S''
sS'YJL020C'
p665
S''
sS'YBR039W'
p666
S'Oxidative phosphorylation'
p667
sS'YER024W'
p668
S''
sS'YDR116C'
p669
S''
sS'YOR230W'
p670
S'Cell cycle'
p671
sS'YBR068C'
p672
S''
sS'YLR090W'
p673
S''
sS'YDL056W'
p674
S'Cell cycle'
p675
sS'YGR234W'
p676
S'Other enzymes'
p677
sS'YJL112W'
p678
S''
sS'YMR178W'
p679
S''
sS'YPR017C'
p680
S''
sS'YGL115W'
p681
S''
sS'YEL044W'
p682
S'Chromosome-related'
p683
sS'YMR247C'
p684
S''
sS'YDR427W'
p685
S'Proteasome'
p686
sS'YML071C'
p687
S''
sS'YBR077C'
p688
S''
sS'YDR176W'
p689
S''
sS'YPL177C'
p690
S''
sS'YDR122W'
p691
S'Other enzymes'
p692
sS'YER120W'
p693
S''
sS'YNL090W'
p694
S'GTP-binding signaling proteins'
p695
sS'YBR042C'
p696
S''
sS'YOL062C'
p697
S''
sS'YDR381W'
p698
S'Spliceosome'
p699
sS'YGL103W'
p700
S'Ribosome'
p701
sS'YDR484W'
p702
S''
sS'YOR207C'
p703
S'RNA polymerase'
p704
sS'YMR098C'
p705
S''
sS'YOL022C'
p706
S''
sS'YGR192C'
p707
S'Glycolysis'
p708
sS'YBR095C'
p709
S''
sS'YHR111W'
p710
S'Ubiquitin labeling'
p711
sS'YBL045C'
p712
S'Oxidative phosphorylation'
p713
sS'YGL178W'
p714
S''
sS'YDR036C'
p715
S'Amino acid metabolism'
p716
sS'YGR043C'
p717
S'Pentose phosphate metabolism'
p718
sS'YPR184W'
p719
S'Carbohydrate metabolism'
p720
sS'YOR224C'
p721
S'RNA polymerase'
p722
sS'YDL070W'
p723
S'Chromosome-related'
p724
sS'YCR047C'
p725
S''
sS'YNL261W'
p726
S'DNA replication control'
p727
sS'YOR241W'
p728
S'Cofactor biosynthesis'
p729
sS'YOL002C'
p730
S''
sS'YML111W'
p731
S''
sS'YER142C'
p732
S'Base excision repair'
p733
sS'YLL021W'
p734
S''
sS'YKL205W'
p735
S'RNA transport'
p736
sS'YLR407W'
p737
S''
sS'YBR088C'
p738
S'DNA replication complex'
p739
sS'YBR055C'
p740
S'Spliceosome'
p741
sS'YOR175C'
p742
S'Lipid and steroid metabolism'
p743
sS'YNL329C'
p744
S'Peroxisome'
p745
sS'YFL005W'
p746
S'GTP-binding signaling proteins'
p747
sS'YCR010C'
p748
S''
sS'YKL110C'
p749
S''
sS'YPR040W'
p750
S''
sS'YHR040W'
p751
S''
sS'YMR152W'
p752
S''
sS'YML057W'
p753
S'MAPK signaling pathway'
p754
sS'YDR178W'
p755
S'TCA cycle and anaplerotic enzymes'
p756
sS'YKR038C'
p757
S'Peptidases'
p758
sS'YLR432W'
p759
S'Purine metabolism'
p760
sS'YJR031C'
p761
S''
sS'YCL026C-A'
p762
S''
sS'YPR070W'
p763
S''
sS'YJL115W'
p764
S'Chromosome-related'
p765
sS'YGL004C'
p766
S''
sS'YNL225C'
p767
S'Cytoskeleton proteins'
p768
sS'YML097C'
p769
S''
sS'YGR223C'
p770
S''
sS'YLR055C'
p771
S'Chromosome-related'
p772
sS'YJL055W'
p773
S''
sS'YHR193C'
p774
S'Translation factors'
p775
sS'YMR292W'
p776
S''
sS'YBL099W'
p777
S'Oxidative phosphorylation'
p778
sS'YMR132C'
p779
S''
sS'YDR303C'
p780
S'Chromosome-related'
p781
sS'YPL086C'
p782
S'Chromosome-related'
p783
sS'YDL116W'
p784
S'RNA transport'
p785
sS'YPL184C'
p786
S''
sS'YLR435W'
p787
S''
sS'YOR119C'
p788
S'Ribosome biogenesis in eukaryotes'
p789
sS'YJR076C'
p790
S''
sS'YER042W'
p791
S'Other enzymes'
p792
sS'YLR409C'
p793
S'Ribosome biogenesis in eukaryotes'
p794
sS'YOR157C'
p795
S'Proteasome'
p796
sS'YMR268C'
p797
S''
sS'YCL045C'
p798
S''
sS'YKR065C'
p799
S''
sS'YMR041C'
p800
S'Other enzymes'
p801
sS'YDR221W'
p802
S''
sS'YMR267W'
p803
S'Oxidative phosphorylation'
p804
sS'YLR109W'
p805
S'Sulfur relay system'
p806
sS'YKR009C'
p807
S'Carbohydrate metabolism'
p808
sS'YKL103C'
p809
S'Peptidases'
p810
sS'YMR109W'
p811
S''
sS'YMR078C'
p812
S'Chromosome-related'
p813
sS'YER043C'
p814
S'Amino acid metabolism'
p815
sS'YDR232W'
p816
S'Amino acid metabolism'
p817
sS'YDR245W'
p818
S'Glycan metabolism'
p819
sS'YHR088W'
p820
S''
sS'YLR114C'
p821
S''
sS'YBR017C'
p822
S''
sS'YER100W'
p823
S'Protein processing in endoplasmic reticulum'
p824
sS'YJR060W'
p825
S'Transcription factors'
p826
sS'YOR289W'
p827
S''
sS'YPR162C'
p828
S'DNA replication control'
p829
sS'YLR178C'
p830
S''
sS'YGR166W'
p831
S''
sS'YDL161W'
p832
S''
sS'YOR191W'
p833
S''
sS'YBR102C'
p834
S''
sS'YNL161W'
p835
S''
sS'YDR096W'
p836
S''
sS'YIR006C'
p837
S''
sS'YPL046C'
p838
S'Ubiquitin mediated proteolysis'
p839
sS'YGL099W'
p840
S'Ribosome biogenesis in eukaryotes'
p841
sS'YFL030W'
p842
S'Peroxisome'
p843
sS'YIL119C'
p844
S''
sS'YIL002W-A'
p845
S''
sS'YPL193W'
p846
S''
sS'YNL005C'
p847
S''
sS'YIL036W'
p848
S''
sS'YLR231C'
p849
S'Amino acid metabolism'
p850
sS'YDR255C'
p851
S''
sS'YFR021W'
p852
S''
sS'YNL129W'
p853
S'Cofactor biosynthesis'
p854
sS'YJR139C'
p855
S'Amino acid metabolism'
p856
sS'YKL016C'
p857
S'Oxidative phosphorylation'
p858
sS'YPL111W'
p859
S'Amino acid metabolism'
p860
sS'YFL049W'
p861
S'Chromosome-related'
p862
sS'YBR162C'
p863
S''
sS'YIL004C'
p864
S'SNARE interactions in vesicular transport'
p865
sS'YDR279W'
p866
S''
sS'YKL174C'
p867
S''
sS'YJR013W'
p868
S'Glycan metabolism'
p869
sS'YOR130C'
p870
S''
sS'YBL084C'
p871
S'Ubiquitin mediated proteolysis'
p872
sS'YPR072W'
p873
S''
sS'YBR111C'
p874
S'Purine metabolism'
p875
sS'YPR037C'
p876
S''
sS'YKL121W'
p877
S''
sS'YML036W'
p878
S''
sS'YKR027W'
p879
S''
sS'YFL047W'
p880
S''
sS'R0040C'
p881
S''
sS'YPR122W'
p882
S''
sS'YLR380W'
p883
S''
sS'YKL034W'
p884
S''
sS'YKL061W'
p885
S''
sS'YJR042W'
p886
S''
sS'YMR281W'
p887
S'Glycan metabolism'
p888
sS'YMR012W'
p889
S''
sS'YPL160W'
p890
S'tRNA loading'
p891
sS'YBR215W'
p892
S''
sS'YNL023C'
p893
S''
sS'YOR171C'
p894
S'VEGF signaling pathway'
p895
sS'YDR214W'
p896
S''
sS'YLR222C'
p897
S'Ribosome biogenesis in eukaryotes'
p898
sS'YIL106W'
p899
S'Hippo signaling pathway'
p900
sS'YLR201C'
p901
S''
sS'YLR295C'
p902
S'Oxidative phosphorylation'
p903
sS'YDL201W'
p904
S'Other enzymes'
p905
sS'YDR468C'
p906
S'SNARE interactions in vesicular transport'
p907
sS'YBL005W-B'
p908
S''
sS'YHR168W'
p909
S''
sS'YOL102C'
p910
S'Other enzymes'
p911
sS'YOR064C'
p912
S'Chromosome-related'
p913
sS'YKL017C'
p914
S''
sS'YOR159C'
p915
S'Spliceosome'
p916
sS'YBR130C'
p917
S''
sS'YNL297C'
p918
S''
sS'YIL033C'
p919
S''
sS'YOL036W'
p920
S''
sS'YGL148W'
p921
S'Amino acid metabolism'
p922
sS'YNR041C'
p923
S'Cofactor biosynthesis'
p924
sS'YIL048W'
p925
S'Other enzymes'
p926
sS'YDR189W'
p927
S''
sS'YLR441C'
p928
S'Ribosome'
p929
sS'YOL056W'
p930
S'Glycolysis'
p931
sS'YBR225W'
p932
S''
sS'YHL034C'
p933
S''
sS'YMR302C'
p934
S''
sS'YBR282W'
p935
S''
sS'YOR079C'
p936
S''
sS'YDR404C'
p937
S'RNA polymerase'
p938
sS'YHR132C'
p939
S'Peptidases'
p940
sS'YGR088W'
p941
S'Other enzymes'
p942
sS'YGL133W'
p943
S''
sS'YLR188W'
p944
S'Transport'
p945
sS'YGL073W'
p946
S'Transcription factors'
p947
sS'YBR257W'
p948
S'RNA transport'
p949
sS'YDR204W'
p950
S''
sS'YDR194C'
p951
S''
sS'YOL049W'
p952
S'Amino acid metabolism'
p953
sS'YMR244C-A'
p954
S''
sS'YNR030W'
p955
S'Glycan metabolism'
p956
sS'YMR189W'
p957
S'Amino acid metabolism'
p958
sS'YIL093C'
p959
S''
sS'YBR204C'
p960
S''
sS'YJL145W'
p961
S''
sS'YLR397C'
p962
S'Ribosome biogenesis in eukaryotes'
p963
sS'YFR045W'
p964
S''
sS'YIL104C'
p965
S''
sS'YOR076C'
p966
S'mRNA surveillance pathway'
p967
sS'YGL086W'
p968
S'Chromosome-related'
p969
sS'YGR159C'
p970
S'Ribosome biogenesis'
p971
sS'YDL223C'
p972
S''
sS'YAL044C'
p973
S'Amino acid metabolism'
p974
sS'YNL234W'
p975
S''
sS'YLR369W'
p976
S''
sS'YNL118C'
p977
S'RNA degradation'
p978
sS'YNR023W'
p979
S'Chromosome-related'
p980
sS'YOL096C'
p981
S'Cofactor biosynthesis'
p982
sS'YGL228W'
p983
S''
sS'YDR284C'
p984
S''
sS'YJR117W'
p985
S'Peptidases'
p986
sS'YJL097W'
p987
S'Lipid and steroid metabolism'
p988
sS'YNL302C'
p989
S'Ribosome'
p990
sS'YGR111W'
p991
S''
sS'YMR305C'
p992
S'Cell wall'
p993
sS'YOL019W'
p994
S''
sS'YDL157C'
p995
S''
sS'YOR048C'
p996
S'Ribosome biogenesis in eukaryotes'
p997
sS'YJR101W'
p998
S'Other enzymes'
p999
sS'YNL147W'
p1000
S'Spliceosome'
p1001
sS'YDR233C'
p1002
S'Protein processing in endoplasmic reticulum'
p1003
sS'YHR143W'
p1004
S'Cell wall'
p1005
sS'YBR222C'
p1006
S''
sS'YLR131C'
p1007
S'Transcription factors'
p1008
sS'YER034W'
p1009
S''
sS'YPR101W'
p1010
S''
sS'YER127W'
p1011
S''
sS'YHR069C'
p1012
S'RNA degradation'
p1013
sS'YER025W'
p1014
S'Translation factors'
p1015
sS'YMR037C'
p1016
S'Transcription factors'
p1017
sS'YKR095W-A'
p1018
S''
sS'YMR226C'
p1019
S''
sS'YJR093C'
p1020
S'mRNA surveillance pathway'
p1021
sS'YNL281W'
p1022
S''
sS'YLR017W'
p1023
S'Amino acid metabolism'
p1024
sS'YHR110W'
p1025
S''
sS'YBR041W'
p1026
S''
sS'YDR430C'
p1027
S''
sS'YGR193C'
p1028
S''
sS'YDR487C'
p1029
S'Cofactor biosynthesis'
p1030
sS'YPR185W'
p1031
S'Regulation of autophagy'
p1032
sS'YPL273W'
p1033
S'Amino acid metabolism'
p1034
sS'YNL327W'
p1035
S'Cell wall'
p1036
sS'YBR280C'
p1037
S''
sS'YBR185C'
p1038
S''
sS'YER065C'
p1039
S'TCA cycle and anaplerotic enzymes'
p1040
sS'YLR077W'
p1041
S''
sS'YBR056W'
p1042
S''
sS'YNL219C'
p1043
S'Glycan metabolism'
p1044
sS'YDR037W'
p1045
S'tRNA loading'
p1046
sS'YGR040W'
p1047
S'MAPK signaling pathway'
p1048
sS'YER178W'
p1049
S'Glycolysis'
p1050
sS'YLR057W'
p1051
S'Carbohydrate metabolism'
p1052
sS'YPL222W'
p1053
S''
sS'YJL140W'
p1054
S'RNA polymerase'
p1055
sS'YFR014C'
p1056
S'Other enzymes'
p1057
sS'YOR320C'
p1058
S''
sS'YDR473C'
p1059
S'Spliceosome'
p1060
sS'YHR034C'
p1061
S''
sS'YMR231W'
p1062
S''
sS'YOL070C'
p1063
S''
sS'YOL138C'
p1064
S''
sS'YJL085W'
p1065
S''
sS'YDR533C'
p1066
S''
sS'YOL148C'
p1067
S'Chromosome-related'
p1068
sS'YLR452C'
p1069
S''
sS'YNR054C'
p1070
S''
sS'YBL029C-A'
p1071
S''
sS'YIL015W'
p1072
S'Peptidases'
p1073
sS'YPR082C'
p1074
S'Spliceosome'
p1075
sS'YGR184C'
p1076
S'Ubiquitin labeling'
p1077
sS'YCR034W'
p1078
S'Lipid and steroid metabolism'
p1079
sS'YOL038W'
p1080
S'Proteasome'
p1081
sS'YLR393W'
p1082
S''
sS'YAR015W'
p1083
S'Purine metabolism'
p1084
sS'YOR086C'
p1085
S''
sS'YDR020C'
p1086
S''
sS'YHR201C'
p1087
S'Purine metabolism'
p1088
sS'YPL213W'
p1089
S'Spliceosome'
p1090
sS'YPR170W-B'
p1091
S''
sS'YOR347C'
p1092
S'Glycolysis'
p1093
sS'YDR395W'
p1094
S''
sS'YOR279C'
p1095
S''
sS'YGR008C'
p1096
S''
sS'YKL211C'
p1097
S'Amino acid metabolism'
p1098
sS'YGL060W'
p1099
S''
sS'YNL311C'
p1100
S''
sS'YJL030W'
p1101
S'Chromosome-related'
p1102
sS'YMR093W'
p1103
S'Ribosome biogenesis in eukaryotes'
p1104
sS'YKR066C'
p1105
S'Other enzymes'
p1106
sS'YDR079W'
p1107
S''
sS'YGR248W'
p1108
S'Pentose phosphate metabolism'
p1109
sS'YML070W'
p1110
S'Methane metabolism'
p1111
sS'YBR074W'
p1112
S''
sS'YGL100W'
p1113
S'RNA transport'
p1114
sS'YOR150W'
p1115
S'Ribosome'
p1116
sS'YMR106C'
p1117
S'Non-homologous end-joining'
p1118
sS'YDR055W'
p1119
S'Cell wall'
p1120
sS'YBL061C'
p1121
S''
sS'YGL203C'
p1122
S'Peptidases'
p1123
sS'YMR140W'
p1124
S''
sS'YLR095C'
p1125
S''
sS'YBR034C'
p1126
S'Chromosome-related'
p1127
sS'YMR108W'
p1128
S'Amino acid metabolism'
p1129
sS'YER062C'
p1130
S'Lipid and steroid metabolism'
p1131
sS'YPR114W'
p1132
S''
sS'YDL088C'
p1133
S''
sS'YHR096C'
p1134
S'Transport'
p1135
sS'YDL137W'
p1136
S'GTP-binding signaling proteins'
p1137
sS'YJR063W'
p1138
S'RNA polymerase'
p1139
sS'YLR113W'
p1140
S'MAPK signaling pathway'
p1141
sS'YMR161W'
p1142
S'Chaperones and folding catalysts'
p1143
sS'YLR142W'
p1144
S'Amino acid metabolism'
p1145
sS'YPR163C'
p1146
S'Translation factors'
p1147
sS'YJL184W'
p1148
S''
sS'YDL040C'
p1149
S'Other enzymes'
p1150
sS'YDL015C'
p1151
S'Lipid and steroid metabolism'
p1152
sS'YOR242C'
p1153
S''
sS'YKR086W'
p1154
S'Spliceosome'
p1155
sS'YCR004C'
p1156
S''
sS'YER078C'
p1157
S'Amino acid metabolism'
p1158
sS'YDR115W'
p1159
S''
sS'YDL160C-A'
p1160
S''
sS'YER165W'
p1161
S'RNA degradation'
p1162
sS'YML038C'
p1163
S''
sS'YCL059C'
p1164
S''
sS'YML014W'
p1165
S''
sS'YKR071C'
p1166
S''
sS'YGL112C'
p1167
S'Basal transcription factors'
p1168
sS'YGR196C'
p1169
S''
sS'YOR233W'
p1170
S''
sS'YLR011W'
p1171
S''
sS'YPR049C'
p1172
S'Regulation of autophagy'
p1173
sS'YGR257C'
p1174
S'Transport'
p1175
sS'YNL070W'
p1176
S''
sS'YIL078W'
p1177
S'tRNA loading'
p1178
sS'YPL235W'
p1179
S'Chromosome-related'
p1180
sS'YBL042C'
p1181
S''
sS'YDL008W'
p1182
S'Ubiquitin mediated proteolysis'
p1183
sS'YBL050W'
p1184
S''
sS'YGR102C'
p1185
S''
sS'YGR280C'
p1186
S'Ribosome biogenesis'
p1187
sS'YGR237C'
p1188
S''
sS'YDL159W'
p1189
S'MAPK signaling pathway'
p1190
sS'YBL087C'
p1191
S'Ribosome'
p1192
sS'YJR014W'
p1193
S''
sS'YLR205C'
p1194
S''
sS'YGL190C'
p1195
S'mRNA surveillance pathway'
p1196
sS'YBR110W'
p1197
S'Glycan metabolism'
p1198
sS'YDR144C'
p1199
S'Chaperones and folding catalysts'
p1200
sS'YOR180C'
p1201
S''
sS'YGL018C'
p1202
S'Chaperones and folding catalysts'
p1203
sS'YMR075W'
p1204
S''
sS'YGR202C'
p1205
S'Lipid and steroid metabolism'
p1206
sS'YKL120W'
p1207
S''
sS'YJR041C'
p1208
S''
sS'YKR028W'
p1209
S''
sS'YFL046W'
p1210
S''
sS'YDR379W'
p1211
S''
sS'YHR169W'
p1212
S'Other enzymes'
p1213
sS'YDL073W'
p1214
S''
sS'YOR103C'
p1215
S'Protein processing in endoplasmic reticulum'
p1216
sS'YMR011W'
p1217
S'Transport'
p1218
sS'YCR059C'
p1219
S''
sS'YGL246C'
p1220
S''
sS'YDR447C'
p1221
S'Ribosome'
p1222
sS'YNL059C'
p1223
S'Chromosome-related'
p1224
sS'YIR012W'
p1225
S''
sS'YNL022C'
p1226
S''
sS'YDL102W'
p1227
S'DNA replication complex'
p1228
sS'YJR009C'
p1229
S'Glycolysis'
p1230
sS'YPR145W'
p1231
S'Peptidases'
p1232
sS'YJL063C'
p1233
S''
sS'YLR214W'
p1234
S''
sS'YMR149W'
p1235
S'Protein processing in endoplasmic reticulum'
p1236
sS'YLR278C'
p1237
S''
sS'YML056C'
p1238
S'Purine metabolism'
p1239
sS'YGL029W'
p1240
S''
sS'YFL004W'
p1241
S''
sS'YOR040W'
p1242
S'Glycolysis'
p1243
sS'YCR069W'
p1244
S'Other enzymes'
p1245
sS'YDL128W'
p1246
S''
sS'YLR433C'
p1247
S'MAPK signaling pathway'
p1248
sS'YPL098C'
p1249
S''
sS'YMR153W'
p1250
S''
sS'YMR124W'
p1251
S''
sS'YBL103C'
p1252
S''
sS'YJL041W'
p1253
S''
sS'YJR070C'
p1254
S'Other enzymes'
p1255
sS'YMR033W'
p1256
S'Chromosome-related'
p1257
sS'YDL097C'
p1258
S'Proteasome'
p1259
sS'YGL005C'
p1260
S''
sS'YPL085W'
p1261
S''
sS'YDL111C'
p1262
S'RNA degradation'
p1263
sS'YDR202C'
p1264
S''
sS'YJL052W'
p1265
S'Glycolysis'
p1266
sS'YDR495C'
p1267
S''
sS'YLR203C'
p1268
S''
sS'YKL159C'
p1269
S''
sS'YGR215W'
p1270
S''
sS'YJR046W'
p1271
S'Cell cycle'
p1272
sS'YDR363W-A'
p1273
S'Proteasome'
p1274
sS'YML096W'
p1275
S''
sS'YHR192W'
p1276
S''
sS'YOR132W'
p1277
S''
sS'YDR300C'
p1278
S'Amino acid metabolism'
p1279
sS'YJL158C'
p1280
S'Cell wall'
p1281
sS'YOR001W'
p1282
S'RNA degradation'
p1283
sS'YIL003W'
p1284
S''
sS'YDR240C'
p1285
S''
sS'YBR245C'
p1286
S''
sS'YMR299C'
p1287
S''
sS'YDR465C'
p1288
S'Amino acid metabolism'
p1289
sS'YLR276C'
p1290
S'Other enzymes'
p1291
sS'YDL222C'
p1292
S''
sS'YKL079W'
p1293
S''
sS'YFR044C'
p1294
S'Peptidases'
p1295
sS'YGR105W'
p1296
S''
sS'YPL103C'
p1297
S''
sS'YIL103W'
p1298
S''
sS'YBR269C'
p1299
S''
sS'YFR033C'
p1300
S'Oxidative phosphorylation'
p1301
sS'YDR283C'
p1302
S'Protein processing in endoplasmic reticulum'
p1303
sS'YJR096W'
p1304
S''
sS'YAL010C'
p1305
S''
sS'YBR192W'
p1306
S''
sS'YGR143W'
p1307
S''
sS'YER007C-A'
p1308
S''
sS'YGR112W'
p1309
S''
sS'YNR022C'
p1310
S''
sS'YLR256W'
p1311
S'Transcription factors'
p1312
sS'YBL060W'
p1313
S''
sS'YBR125C'
p1314
S'Other enzymes'
p1315
sS'YLR356W'
p1316
S''
sS'YBR221C'
p1317
S'Glycolysis'
p1318
sS'YAL005C'
p1319
S'Chaperones and folding catalysts'
p1320
sS'YJL094C'
p1321
S''
sS'YKL057C'
p1322
S''
sS'YGL098W'
p1323
S'SNARE interactions in vesicular transport'
p1324
sS'YHR174W'
p1325
S'Glycolysis'
p1326
sS'YJL121C'
p1327
S'Pentose phosphate metabolism'
p1328
sS'YKL008C'
p1329
S'Lipid and steroid metabolism'
p1330
sS'YLR192C'
p1331
S'Translation factors'
p1332
sS'YPL069C'
p1333
S'Cofactor biosynthesis'
p1334
sS'YDL213C'
p1335
S''
sS'YIL145C'
p1336
S'Amino acid metabolism'
p1337
sS'YBR149W'
p1338
S'Other enzymes'
p1339
sS'YLR378C'
p1340
S'Protein export'
p1341
sS'YPL271W'
p1342
S'Oxidative phosphorylation'
p1343
sS'YPL032C'
p1344
S''
sS'YHR064C'
p1345
S'Chaperones and folding catalysts'
p1346
sS'YGL210W'
p1347
S'GTP-binding signaling proteins'
p1348
sS'YPL110C'
p1349
S''
sS'YGR083C'
p1350
S'Translation factors'
p1351
sS'YPL045W'
p1352
S''
sS'YLR314C'
p1353
S''
sS'YLR153C'
p1354
S'Glycolysis'
p1355
sS'YNL126W'
p1356
S'Cytoskeleton proteins'
p1357
sS'YBR132C'
p1358
S''
sS'YKL040C'
p1359
S''
sS'YLR249W'
p1360
S'Translation factors'
p1361
sS'YNL004W'
p1362
S''
sS'YOR327C'
p1363
S'SNARE interactions in vesicular transport'
p1364
sS'YFR015C'
p1365
S'Carbohydrate metabolism'
p1366
sS'YCR020C-A'
p1367
S''
sS'YOR265W'
p1368
S''
sS'YOL139C'
p1369
S'RNA transport'
p1370
sS'YBR207W'
p1371
S''
sS'YLR321C'
p1372
S'Chromosome-related'
p1373
sS'YOR266W'
p1374
S''
sS'YDR532C'
p1375
S'RNA transport'
p1376
sS'YHR200W'
p1377
S'Proteasome'
p1378
sS'YCL012C'
p1379
S''
sS'YDR184C'
p1380
S''
sS'YNR011C'
p1381
S'Spliceosome'
p1382
sS'YNL167C'
p1383
S'Transcription factors'
p1384
sS'YBR244W'
p1385
S'Cofactor biosynthesis'
p1386
sS'YKL210W'
p1387
S'Ubiquitin mediated proteolysis'
p1388
sS'YNL221C'
p1389
S'RNA transport'
p1390
sS'YOR278W'
p1391
S'Cofactor biosynthesis'
p1392
sS'YER146W'
p1393
S'Spliceosome'
p1394
sS'YDL244W'
p1395
S''
sS'YNL085W'
p1396
S''
sS'YGL061C'
p1397
S'Cytoskeleton proteins'
p1398
sS'YDR394W'
p1399
S'Proteasome'
p1400
sS'YPL210C'
p1401
S'Protein export'
p1402
sS'YBL097W'
p1403
S'Chromosome-related'
p1404
sS'YAR014C'
p1405
S''
sS'YOR087W'
p1406
S''
sS'YHR159W'
p1407
S''
sS'YPL132W'
p1408
S'Oxidative phosphorylation'
p1409
sS'YIL114C'
p1410
S''
sS'YGL234W'
p1411
S'Purine metabolism'
p1412
sS'YOL055C'
p1413
S'Cofactor biosynthesis'
p1414
sS'YAL029C'
p1415
S''
sS'YKL013C'
p1416
S'Regulation of actin cytoskeleton'
p1417
sS'YOR148C'
p1418
S''
sS'YNL108C'
p1419
S''
sS'YFR053C'
p1420
S'Glycolysis'
p1421
sS'YOR065W'
p1422
S'Oxidative phosphorylation'
p1423
sS'YMR286W'
p1424
S''
sS'YMR301C'
p1425
S'Transport'
p1426
sS'YGR186W'
p1427
S'Basal transcription factors'
p1428
sS'YDR294C'
p1429
S'Lipid and steroid metabolism'
p1430
sS'YGR271W'
p1431
S'Other enzymes'
p1432
sS'YFR002W'
p1433
S'RNA transport'
p1434
sS'YHR135C'
p1435
S'Other enzymes'
p1436
sS'YNL250W'
p1437
S'DNA replication control'
p1438
sS'YDL175C'
p1439
S'RNA degradation'
p1440
sS'YOR027W'
p1441
S'Chaperones and folding catalysts'
p1442
sS'YDR325W'
p1443
S'Chromosome-related'
p1444
sS'YBR181C'
p1445
S'Ribosome'
p1446
sS'YMR188C'
p1447
S''
sS'YNL131W'
p1448
S''
sS'YEL020W-A'
p1449
S''
sS'YKL137W'
p1450
S''
sS'YOR078W'
p1451
S''
sS'YNL048W'
p1452
S'Glycan metabolism'
p1453
sS'YOL125W'
p1454
S''
sS'YKL003C'
p1455
S''
sS'YOR243C'
p1456
S''
sS'YER022W'
p1457
S''
sS'YBR057C'
p1458
S''
sS'YDR513W'
p1459
S''
sS'YGL047W'
p1460
S'Glycan metabolism'
p1461
sS'YMR165C'
p1462
S'Lipid and steroid metabolism'
p1463
sS'YKR070W'
p1464
S''
sS'YMR205C'
p1465
S'Glycolysis'
p1466
sS'YGL225W'
p1467
S''
sS'YCR005C'
p1468
S'TCA cycle and anaplerotic enzymes'
p1469
sS'YGR296W'
p1470
S''
sS'YER164W'
p1471
S'Chromosome-related'
p1472
sS'YBL101C'
p1473
S''
sS'YPR055W'
p1474
S''
sS'YML017W'
p1475
S''
sS'YIL016W'
p1476
S'Protein processing in endoplasmic reticulum'
p1477
sS'YPL236C'
p1478
S''
sS'YOR274W'
p1479
S'Cofactor biosynthesis'
p1480
sS'YOR232W'
p1481
S'Chaperones and folding catalysts'
p1482
sS'YGR281W'
p1483
S''
sS'YLR089C'
p1484
S'Carbon fixation in photosynthetic organisms'
p1485
sS'YHR123W'
p1486
S'Lipid and steroid metabolism'
p1487
sS'YPL161C'
p1488
S''
sS'YNL115C'
p1489
S''
sS'YGR256W'
p1490
S'Pentose phosphate metabolism'
p1491
sS'YEL042W'
p1492
S'Other enzymes'
p1493
sS'YPR048W'
p1494
S''
sS'YBL027W'
p1495
S'Ribosome'
p1496
sS'YHL013C'
p1497
S''
sS'YOL060C'
p1498
S''
sS'YGR009C'
p1499
S'SNARE interactions in vesicular transport'
p1500
sS'YNR047W'
p1501
S''
sS'YGL105W'
p1502
S''
sS'YBR097W'
p1503
S'Regulation of autophagy'
p1504
sS'YDL076C'
p1505
S''
sS'YDR120C'
p1506
S'Other enzymes'
p1507
sS'YER126C'
p1508
S''
sS'YMR227C'
p1509
S'Basal transcription factors'
p1510
sS'YOR113W'
p1511
S''
sS'YGR194C'
p1512
S'Carbohydrate metabolism'
p1513
sS'YJL192C'
p1514
S''
sS'YHR117W'
p1515
S''
sS'YHR053C'
p1516
S''
sS'YOL130W'
p1517
S''
sS'YOR152C'
p1518
S''
sS'YOR238W'
p1519
S''
sS'YPL274W'
p1520
S''
sS'YNL257C'
p1521
S''
sS'YBL047C'
p1522
S''
sS'YNL293W'
p1523
S''
sS'YEL051W'
p1524
S'Phagosome'
p1525
sS'YLR207W'
p1526
S'Protein processing in endoplasmic reticulum'
p1527
sS'YLL023C'
p1528
S''
sS'YKL203C'
p1529
S'ErbB signaling pathway'
p1530
sS'YOL004W'
p1531
S'Chromosome-related'
p1532
sS'YPL209C'
p1533
S'Chromosome-related'
p1534
sS'YHR017W'
p1535
S''
sS'YGL050W'
p1536
S''
sS'YDL036C'
p1537
S''
sS'YAR027W'
p1538
S''
sS'YNR065C'
p1539
S''
sS'YFL007W'
p1540
S'Proteasome'
p1541
sS'YML059C'
p1542
S'Lipid and steroid metabolism'
p1543
sS'YGL219C'
p1544
S''
sS'YDR063W'
p1545
S''
sS'YPL099C'
p1546
S''
sS'YCR012W'
p1547
S'Glycolysis'
p1548
sS'YGL026C'
p1549
S'Amino acid metabolism'
p1550
sS'YDR201W'
p1551
S'Cytoskeleton proteins'
p1552
sS'YDR254W'
p1553
S'Chromosome-related'
p1554
sS'YPR128C'
p1555
S''
sS'YGR263C'
p1556
S''
sS'YNL045W'
p1557
S'Peptidases'
p1558
sS'YPL084W'
p1559
S''
sS'YNL010W'
p1560
S''
sS'YDR354W'
p1561
S'Amino acid metabolism'
p1562
sS'YMR134W'
p1563
S''
sS'YDR301W'
p1564
S'mRNA surveillance pathway'
p1565
sS'YJL053W'
p1566
S''
sS'YPR104C'
p1567
S''
sS'YHR042W'
p1568
S'Other enzymes'
p1569
sS'YPR002W'
p1570
S'Other central metabolism enzymes'
p1571
sS'YGL006W'
p1572
S'Transport'
p1573
sS'YPL006W'
p1574
S''
sS'YCR083W'
p1575
S''
sS'YKR067W'
p1576
S'Lipid and steroid metabolism'
p1577
sS'YOR151C'
p1578
S'RNA polymerase'
p1579
sS'YML028W'
p1580
S'Other enzymes'
p1581
sS'YEL039C'
p1582
S''
sS'YLL001W'
p1583
S'Endocytosis'
p1584
sS'YOR168W'
p1585
S'tRNA loading'
p1586
sS'YNL189W'
p1587
S''
sS'YPR173C'
p1588
S'Endocytosis'
p1589
sS'YCL047C'
p1590
S''
sS'YJL031C'
p1591
S'Cofactor biosynthesis'
p1592
sS'YML077W'
p1593
S''
sS'YER068W'
p1594
S'Ubiquitin labeling'
p1595
sS'YER013W'
p1596
S'Spliceosome'
p1597
sS'YMR269W'
p1598
S''
sS'YKL053C-A'
p1599
S''
sS'YMR092C'
p1600
S''
sS'YDL021W'
p1601
S'Glycolysis'
p1602
sS'YLR143W'
p1603
S''
sS'YLR043C'
p1604
S'Chaperones and folding catalysts'
p1605
sS'YJL008C'
p1606
S'Chaperones and folding catalysts'
p1607
sS'YDL018C'
p1608
S''
sS'YNR008W'
p1609
S'Lipid and steroid metabolism'
p1610
sS'YJR062C'
p1611
S'Other enzymes'
p1612
sS'YOR120W'
p1613
S'Carbohydrate metabolism'
p1614
sS'YBR035C'
p1615
S'Cofactor biosynthesis'
p1616
sS'YPR160W'
p1617
S'Carbohydrate metabolism'
p1618
sS'YPR073C'
p1619
S'Cofactor biosynthesis'
p1620
sS'YML035C'
p1621
S'Purine metabolism'
p1622
sS'YJR033C'
p1623
S''
sS'YLR050C'
p1624
S''
sS'YDR424C'
p1625
S'Cytoskeleton proteins'
p1626
sS'YDL136W'
p1627
S'Ribosome'
p1628
sS'YGR270W'
p1629
S''
sS'YPR171W'
p1630
S''
sS'YKL056C'
p1631
S'Ribosome'
p1632
sS'YGL008C'
p1633
S'Transport'
p1634
sS'YKL009W'
p1635
S''
sS'YKL161C'
p1636
S'Other enzymes'
p1637
sS'YLR414C'
p1638
S''
sS'YOR124C'
p1639
S'Ubiquitin labeling'
p1640
sS'YNL278W'
p1641
S'RNA degradation'
p1642
sS'YBL068W'
p1643
S'Pentose phosphate metabolism'
p1644
sS'YCR026C'
p1645
S''
sS'YJR057W'
p1646
S'Pyrimidine metabolism'
p1647
sS'YJL126W'
p1648
S''
sS'YKL150W'
p1649
S'Other central metabolism enzymes'
p1650
sS'YJL159W'
p1651
S'Cell wall'
p1652
sS'YIL133C'
p1653
S'Ribosome'
p1654
sS'YHR063C'
p1655
S'Cofactor biosynthesis'
p1656
sS'YJL200C'
p1657
S'TCA cycle and anaplerotic enzymes'
p1658
sS'YGL211W'
p1659
S'Sulfur relay system'
p1660
sS'YDR316W'
p1661
S''
sS'YCR033W'
p1662
S''
sS'YKL041W'
p1663
S'Endocytosis'
p1664
sS'YPL195W'
p1665
S''
sS'YNL107W'
p1666
S'Chromosome-related'
p1667
sS'YNL067W'
p1668
S'Ribosome'
p1669
sS'YDR067C'
p1670
S''
sS'YDR376W'
p1671
S'Other enzymes'
p1672
sS'YAL059W'
p1673
S''
sS'YNL007C'
p1674
S''
sS'YKL096W'
p1675
S'Cell wall'
p1676
sS'YJR137C'
p1677
S'Amino acid metabolism'
p1678
sS'YKL014C'
p1679
S''
sS'YLR237W'
p1680
S''
sS'YMR021C'
p1681
S''
sS'YJR040W'
p1682
S'Ion channels'
p1683
sS'YPR119W'
p1684
S'Cell cycle'
p1685
sS'YPR103W'
p1686
S'Proteasome'
p1687
sS'YHR051W'
p1688
S'Oxidative phosphorylation'
p1689
sS'YBL086C'
p1690
S''
sS'YNL069C'
p1691
S'Ribosome'
p1692
sS'YKR029C'
p1693
S''
sS'YGL191W'
p1694
S'Oxidative phosphorylation'
p1695
sS'YJL104W'
p1696
S''
sS'YPR010C-A'
p1697
S''
sS'YPL019C'
p1698
S''
sS'YFL041W'
p1699
S'Other enzymes'
p1700
sS'YGR233C'
p1701
S'Cell cycle'
p1702
sS'YJL168C'
p1703
S'Chromosome-related'
p1704
sS'YDR145W'
p1705
S'Basal transcription factors'
p1706
sS'YFL009W'
p1707
S'Ubiquitin mediated proteolysis'
p1708
sS'YDL174C'
p1709
S'Other central metabolism enzymes'
p1710
sS'YER091C'
p1711
S'Amino acid metabolism'
p1712
sS'YJL062W'
p1713
S'Carbohydrate metabolism'
p1714
sS'YHR043C'
p1715
S'Other enzymes'
p1716
sS'YDR244W'
p1717
S'Peroxisome'
p1718
sS'YDL103C'
p1719
S'Other central metabolism enzymes'
p1720
sS'YJR008W'
p1721
S''
sS'YDL203C'
p1722
S''
sS'YBR011C'
p1723
S'Oxidative phosphorylation'
p1724
sS'YLR087C'
p1725
S''
sS'YLR215C'
p1726
S''
sS'YML082W'
p1727
S'Amino acid metabolism'
p1728
sS'YLR363W-A'
p1729
S''
sS'YMR287C'
p1730
S''
sS'YDR216W'
p1731
S'Transcription factors'
p1732
sS'YKL130C'
p1733
S''
sS'YOR106W'
p1734
S'SNARE interactions in vesicular transport'
p1735
sS'YNL021W'
p1736
S'Chromosome-related'
p1737
sS'YOL054W'
p1738
S''
sS'YFR001W'
p1739
S'Biosynthesis of other secondary metabolites'
p1740
sS'YAR031W'
p1741
S''
sS'YBR220C'
p1742
S''
sS'YPL131W'
p1743
S'Ribosome'
p1744
sS'YIL115C'
p1745
S''
sS'YGL233W'
p1746
S''
sS'YJL088W'
p1747
S'Amino acid metabolism'
p1748
sS'YHR158C'
p1749
S''
sS'YLR319C'
p1750
S''
sS'YKL033W-A'
p1751
S''
sS'YOL053W'
p1752
S''
sS'YHR029C'
p1753
S''
sS'YPL091W'
p1754
S'Amino acid metabolism'
p1755
sS'YPR164W'
p1756
S''
sS'YDR295C'
p1757
S''
sS'YAL033W'
p1758
S'RNA transport'
p1759
sS'YLR104W'
p1760
S''
sS'YGR155W'
p1761
S'Amino acid metabolism'
p1762
sS'YMR300C'
p1763
S'Peptidases'
p1764
sS'YFR049W'
p1765
S''
sS'YNL130C'
p1766
S'Lipid and steroid metabolism'
p1767
sS'YNR036C'
p1768
S''
sS'YNR049C'
p1769
S''
sS'YDR192C'
p1770
S''
sS'YOL112W'
p1771
S''
sS'YML109W'
p1772
S''
sS'YLR342W'
p1773
S'Carbohydrate metabolism'
p1774
sS'YOL083W'
p1775
S''
sS'YLR335W'
p1776
S''
sS'YNL251C'
p1777
S''
sS'YOR020C'
p1778
S'Chaperones and folding catalysts'
p1779
sS'YBL028C'
p1780
S''
sS'YBL004W'
p1781
S''
sS'YBR164C'
p1782
S'GTP-binding signaling proteins'
p1783
sS'YIL153W'
p1784
S''
sS'YJR088C'
p1785
S''
sS'YHR074W'
p1786
S'Cofactor biosynthesis'
p1787
sS'YJL217W'
p1788
S''
sS'YLR399C'
p1789
S'Chromosome-related'
p1790
sS'YBR016W'
p1791
S''
sS'YFR030W'
p1792
S'Amino acid metabolism'
p1793
sS'YOR006C'
p1794
S''
sS'YML060W'
p1795
S'Base excision repair'
p1796
sS'YJL146W'
p1797
S''
sS'YLR277C'
p1798
S'mRNA surveillance pathway'
p1799
sS'YAL011W'
p1800
S'Chromosome-related'
p1801
sS'YGR173W'
p1802
S''
sS'YIL055C'
p1803
S''
sS'YPL053C'
p1804
S'Glycan metabolism'
p1805
sS'YKR092C'
p1806
S''
sS'YBR179C'
p1807
S''
sS'YDR282C'
p1808
S''
sS'YJR097W'
p1809
S''
sS'YLR351C'
p1810
S''
sS'YOL094C'
p1811
S'DNA replication complex'
p1812
sS'YPR116W'
p1813
S''
sS'YHR018C'
p1814
S'Amino acid metabolism'
p1815
sS'YDR408C'
p1816
S'Other central metabolism enzymes'
p1817
sS'YBR126C'
p1818
S'Carbohydrate metabolism'
p1819
sS'YOL149W'
p1820
S'RNA degradation'
p1821
sS'YLR257W'
p1822
S''
sS'YGL202W'
p1823
S'Amino acid metabolism'
p1824
sS'YOR046C'
p1825
S'Other enzymes'
p1826
sS'YKR035W-A'
p1827
S'Endocytosis'
p1828
sS'YNL141W'
p1829
S'Purine metabolism'
p1830
sS'YBL026W'
p1831
S'Spliceosome'
p1832
sS'YMR220W'
p1833
S'Cofactor biosynthesis'
p1834
sS'YPR187W'
p1835
S'RNA polymerase'
p1836
sS'YGL087C'
p1837
S'DNA repair and recombination proteins'
p1838
sS'YDR121W'
p1839
S'DNA replication complex'
p1840
sS'YER125W'
p1841
S'Ubiquitin mediated proteolysis'
p1842
sS'YDR432W'
p1843
S''
sS'YNL233W'
p1844
S''
sS'YPL211W'
p1845
S''
sS'YDL077C'
p1846
S''
sS'YOR222W'
p1847
S''
sS'YEL021W'
p1848
S'Pyrimidine metabolism'
p1849
sS'YOL061W'
p1850
S'Pentose phosphate metabolism'
p1851
sS'YER152C'
p1852
S''
sS'YLR015W'
p1853
S''
sS'YHR116W'
p1854
S''
sS'YPL259C'
p1855
S''
sS'YOL100W'
p1856
S''
sS'YNL283C'
p1857
S'MAPK signaling pathway'
p1858
sS'YLR008C'
p1859
S'Chaperones and folding catalysts'
p1860
sS'YJL191W'
p1861
S'Ribosome'
p1862
sS'YMR219W'
p1863
S''
sS'YLL022C'
p1864
S'Chromosome-related'
p1865
sS'YGR017W'
p1866
S''
sS'YDR031W'
p1867
S''
sS'YOR198C'
p1868
S''
sS'YOL005C'
p1869
S'RNA polymerase'
p1870
sS'YOR039W'
p1871
S'Ribosome biogenesis in eukaryotes'
p1872
sS'YEL050C'
p1873
S''
sS'YLR177W'
p1874
S''
sS'YFR016C'
p1875
S''
sS'YHR016C'
p1876
S''
sS'YLR450W'
p1877
S'Cofactor biosynthesis'
p1878
sS'YLR442C'
p1879
S'DNA replication control'
p1880
sS'YKL088W'
p1881
S'Cofactor biosynthesis'
p1882
sS'YHR084W'
p1883
S'Transcription factors'
p1884
sS'YGL224C'
p1885
S''
sS'YOR326W'
p1886
S''
sS'YDR527W'
p1887
S''
sS'YLR396C'
p1888
S''
sS'YOL123W'
p1889
S'mRNA surveillance pathway'
p1890
sS'YDR132C'
p1891
S''
sS'YML116W'
p1892
S'Transport'
p1893
sS'YNL084C'
p1894
S''
sS'YGL066W'
p1895
S'Chromosome-related'
p1896
sS'YGR156W'
p1897
S'mRNA surveillance pathway'
p1898
sS'YHR089C'
p1899
S'Ribosome biogenesis in eukaryotes'
p1900
sS'YOR386W'
p1901
S'DNA repair and recombination proteins'
p1902
sS'YAR042W'
p1903
S''
sS'YHR207C'
p1904
S''
sS'YHL038C'
p1905
S''
sS'YBR131W'
p1906
S''
sS'YOR051C'
p1907
S''
sS'YKL213C'
p1908
S'Protein processing in endoplasmic reticulum'
p1909
sS'YNL220W'
p1910
S'Purine metabolism'
p1911
sS'YGL169W'
p1912
S''
sS'YGR060W'
p1913
S'Lipid and steroid metabolism'
p1914
sS'YCL064C'
p1915
S'Amino acid metabolism'
p1916
sS'YML076C'
p1917
S''
sS'YER174C'
p1918
S''
sS'YML029W'
p1919
S'Protein processing in endoplasmic reticulum'
p1920
sS'YNL313C'
p1921
S''
sS'YDL240W'
p1922
S''
sS'YMR142C'
p1923
S'Ribosome'
p1924
sS'YGL031C'
p1925
S'Ribosome'
p1926
sS'YKL006C-A'
p1927
S'SNARE interactions in vesicular transport'
p1928
sS'YDL182W'
p1929
S'Pyruvate metabolism'
p1930
sS'YER069W'
p1931
S'Amino acid metabolism'
p1932
sS'YMR091C'
p1933
S'Chromosome-related'
p1934
sS'YER012W'
p1935
S'Proteasome'
p1936
sS'YPR172W'
p1937
S''
sS'YBL067C'
p1938
S'Ubiquitin labeling'
p1939
sS'YHR098C'
p1940
S''
sS'YDL019C'
p1941
S''
sS'YML034W'
p1942
S''
sS'YDL135C'
p1943
S''
sS'YPR023C'
p1944
S'Chromosome-related'
p1945
sS'YOR035C'
p1946
S''
sS'YCR093W'
p1947
S'RNA degradation'
p1948
sS'YLR144C'
p1949
S''
sS'YMR273C'
p1950
S''
sS'YPR058W'
p1951
S''
sS'YLL035W'
p1952
S''
sS'YDR168W'
p1953
S'Chaperones and folding catalysts'
p1954
sS'YML061C'
p1955
S''
sS'YGL080W'
p1956
S''
sS'YNL202W'
p1957
S'Peroxisome'
p1958
sS'YOR093C'
p1959
S''
sS'YJL186W'
p1960
S'Glycan metabolism'
p1961
sS'YER023W'
p1962
S'Amino acid metabolism'
p1963
sS'YER163C'
p1964
S''
sS'YLR344W'
p1965
S'Ribosome'
p1966
sS'YBR069C'
p1967
S''
sS'YML016C'
p1968
S'Other enzymes'
p1969
sS'YGL040C'
p1970
S'Cofactor biosynthesis'
p1971
sS'YKR084C'
p1972
S'Translation factors'
p1973
sS'YDL017W'
p1974
S'DNA replication control'
p1975
sS'YDR040C'
p1976
S''
sS'YDR113C'
p1977
S'Cell cycle'
p1978
sS'YLL031C'
p1979
S'Glycan metabolism'
p1980
sS'YLR033W'
p1981
S'Chromosome-related'
p1982
sS'YLR088W'
p1983
S'Glycan metabolism'
p1984
sS'YLR438C-A'
p1985
S'Spliceosome'
p1986
sS'YGR255C'
p1987
S'Cofactor biosynthesis'
p1988
sS'YGL110C'
p1989
S''
sS'YDL051W'
p1990
S''
sS'YMR242C'
p1991
S'Ribosome'
p1992
sS'YPL237W'
p1993
S'Translation factors'
p1994
sS'YGR282C'
p1995
S'Cell wall'
p1996
sS'YBR187W'
p1997
S''
sS'YBR079C'
p1998
S'Translation factors'
p1999
sS'YMR077C'
p2000
S'Endocytosis'
p2001
sS'YPL183C'
p2002
S''
sS'YDR166C'
p2003
S''
sS'YKR088C'
p2004
S''
sS'YPR118W'
p2005
S'Amino acid metabolism'
p2006
sS'YPL186C'
p2007
S''
sS'YGR204W'
p2008
S'Other central metabolism enzymes'
p2009
sS'YJR080C'
p2010
S''
sS'YJL005W'
p2011
S'Meiosis'
p2012
sS'YJL050W'
p2013
S'Ribosome biogenesis'
p2014
sS'YCR017C'
p2015
S''
sS'YDR182W'
p2016
S''
sS'YKR063C'
p2017
S''
sS'YHR056C'
p2018
S'Chromosome-related'
p2019
sS'YBR112C'
p2020
S'Cell cycle'
p2021
sS'YDR248C'
p2022
S'Pentose phosphate metabolism'
p2023
sS'YJR016C'
p2024
S'Amino acid metabolism'
p2025
sS'YDL202W'
p2026
S''
sS'YDL100C'
p2027
S'Other enzymes'
p2028
sS'YFL008W'
p2029
S'Chromosome-related'
p2030
sS'YDR337W'
p2031
S''
sS'YGL055W'
p2032
S'Lipid and steroid metabolism'
p2033
sS'YJL061W'
p2034
S''
sS'YLR216C'
p2035
S'Chaperones and folding catalysts'
p2036
sS'YPR147C'
p2037
S''
sS'YDR441C'
p2038
S'Purine metabolism'
p2039
sS'YPL094C'
p2040
S'Protein export'
p2041
sS'YNL020C'
p2042
S''
sS'YPL023C'
p2043
S'Other central metabolism enzymes'
p2044
sS'YLR290C'
p2045
S''
sS'YER090W'
p2046
S'Amino acid metabolism'
p2047
sS'YIL123W'
p2048
S'Cell wall'
p2049
sS'YPR161C'
p2050
S'Other enzymes'
p2051
sS'YOR291W'
p2052
S''
sS'YKL117W'
p2053
S'Chaperones and folding catalysts'
p2054
sS'YCR015C'
p2055
S''
sS'YDR159W'
p2056
S''
sS'YML005W'
p2057
S''
sS'YNL193W'
p2058
S''
sS'YMR059W'
p2059
S'Other enzymes'
p2060
sS'YDR062W'
p2061
S'Lipid and steroid metabolism'
p2062
sS'YBR268W'
p2063
S''
sS'YFL026W'
p2064
S'MAPK signaling pathway'
p2065
sS'YBR188C'
p2066
S''
sS'YGL027C'
p2067
S'Protein processing in endoplasmic reticulum'
p2068
sS'YOR165W'
p2069
S''
sS'YHR190W'
p2070
S'Lipid and steroid metabolism'
p2071
sS'YLR106C'
p2072
S'Ribosome biogenesis in eukaryotes'
p2073
sS'YKL157W'
p2074
S'Peptidases'
p2075
sS'YKR002W'
p2076
S'mRNA surveillance pathway'
p2077
sS'YBR003W'
p2078
S'Cofactor biosynthesis'
p2079
sS'YDR200C'
p2080
S''
sS'YPR105C'
p2081
S''
sS'YPR129W'
p2082
S''
sS'YDL113C'
p2083
S''
sS'YLR271W'
p2084
S''
sS'YDR538W'
p2085
S'Biosynthesis of other secondary metabolites'
p2086
sS'YDL099W'
p2087
S''
sS'YGL226C-A'
p2088
S'Protein processing in endoplasmic reticulum'
p2089
sS'YNL166C'
p2090
S''
sS'YHR082C'
p2091
S''
sS'YLR274W'
p2092
S'DNA replication complex'
p2093
sS'YBR247C'
p2094
S''
sS'YLR185W'
p2095
S'Ribosome'
p2096
sS'YJL210W'
p2097
S'Peroxisome'
p2098
sS'YDR235W'
p2099
S''
sS'YLR398C'
p2100
S'RNA degradation'
p2101
sS'YIL154C'
p2102
S''
sS'YOR007C'
p2103
S''
sS'YHR097C'
p2104
S''
sS'YDL220C'
p2105
S'DNA replication control'
p2106
sS'YLR239C'
p2107
S'Cofactor biosynthesis'
p2108
sS'YBR038W'
p2109
S'Other central metabolism enzymes'
p2110
sS'YNL142W'
p2111
S''
sS'YGR076C'
p2112
S''
sS'YGR099W'
p2113
S''
sS'YFR031C'
p2114
S'Chromosome-related'
p2115
sS'YPL154C'
p2116
S'Peptidases'
p2117
sS'YHR019C'
p2118
S'tRNA loading'
p2119
sS'YOR367W'
p2120
S''
sS'YAL003W'
p2121
S'Translation factors'
p2122
sS'YIL149C'
p2123
S'RNA transport'
p2124
sS'YPL101W'
p2125
S'Chromosome-related'
p2126
sS'YLR258W'
p2127
S'Carbohydrate metabolism'
p2128
sS'YNR015W'
p2129
S'Other enzymes'
p2130
sS'YJR098C'
p2131
S''
sS'YBR127C'
p2132
S'Phagosome'
p2133
sS'YLR350W'
p2134
S''
sS'YGL009C'
p2135
S'Amino acid metabolism'
p2136
sS'YHR176W'
p2137
S''
sS'YGR163W'
p2138
S''
sS'YDR497C'
p2139
S'Transport'
p2140
sS'YKL022C'
p2141
S'Ubiquitin mediated proteolysis'
p2142
sS'YEL040W'
p2143
S'Cell wall'
p2144
sS'YIL130W'
p2145
S''
sS'YBL092W'
p2146
S'Ribosome'
p2147
sS'YDR368W'
p2148
S'Carbohydrate metabolism'
p2149
sS'YBR101C'
p2150
S''
sS'YLR147C'
p2151
S'Spliceosome'
p2152
sS'YDL164C'
p2153
S'DNA replication complex'
p2154
sS'YDR177W'
p2155
S'Ubiquitin mediated proteolysis'
p2156
sS'YER061C'
p2157
S'Lipid and steroid metabolism'
p2158
sS'YDR375C'
p2159
S''
sS'YJL167W'
p2160
S'Cofactor biosynthesis'
p2161
sS'YKL195W'
p2162
S''
sS'YKL179C'
p2163
S'Transcription factors'
p2164
sS'YDR088C'
p2165
S'Spliceosome'
p2166
sS'YDR320C'
p2167
S''
sS'YKL042W'
p2168
S'Cytoskeleton proteins'
p2169
sS'YNL066W'
p2170
S'Cell wall'
p2171
sS'YPL112C'
p2172
S''
sS'YPL030W'
p2173
S''
sS'YAL058W'
p2174
S'Chaperones and folding catalysts'
p2175
sS'YDR452W'
p2176
S'Other enzymes'
p2177
sS'YLR316C'
p2178
S''
sS'YKL101W'
p2179
S'Cell cycle'
p2180
sS'YFL033C'
p2181
S'Meiosis'
p2182
sS'YNL124W'
p2183
S''
sS'YIL094C'
p2184
S'Amino acid metabolism'
p2185
sS'YHR037W'
p2186
S'Amino acid metabolism'
p2187
sS'YJL098W'
p2188
S''
sS'YIR021W'
p2189
S''
sS'YML108W'
p2190
S''
sS'YIL076W'
p2191
S''
sS'YNR034W-A'
p2192
S''
sS'YOR352W'
p2193
S''
sS'YHR148W'
p2194
S'Ribosome biogenesis in eukaryotes'
p2195
sS'YLR323C'
p2196
S''
sS'YBL038W'
p2197
S''
sS'YML117W'
p2198
S''
sS'YGR054W'
p2199
S''
sS'YHL039W'
p2200
S''
sS'YGR189C'
p2201
S'Cell wall'
p2202
sS'YOR332W'
p2203
S'Phagosome'
p2204
sS'YOR069W'
p2205
S''
sS'YGR038W'
p2206
S''
sS'YNL087W'
p2207
S''
sS'YBR104W'
p2208
S''
sS'YBR227C'
p2209
S'Chaperones and folding catalysts'
p2210
sS'YOR341W'
p2211
S'RNA polymerase'
p2212
sS'YNL024C-A'
p2213
S''
sS'YDR296W'
p2214
S''
sS'YGL232W'
p2215
S''
sS'YPR091C'
p2216
S''
sS'YGR141W'
p2217
S''
sS'YNL173C'
p2218
S''
sS'YIL116W'
p2219
S'Amino acid metabolism'
p2220
sS'YDR478W'
p2221
S''
sS'YGR094W'
p2222
S'tRNA loading'
p2223
sS'YJR138W'
p2224
S''
sS'YDR377W'
p2225
S'Oxidative phosphorylation'
p2226
sS'YNL133C'
p2227
S''
sS'YJR103W'
p2228
S'Pyrimidine metabolism'
p2229
sS'YHR028C'
p2230
S''
sS'YBR265W'
p2231
S'Lipid and steroid metabolism'
p2232
sS'YBL007C'
p2233
S''
sS'YNR037C'
p2234
S''
sS'YEL001C'
p2235
S''
sS'YCL024W'
p2236
S''
sS'YMR307W'
p2237
S'Cell wall'
p2238
sS'YAL032C'
p2239
S'Spliceosome'
p2240
sS'YGL145W'
p2241
S''
sS'YHR137W'
p2242
S'Amino acid metabolism'
p2243
sS'YOR021C'
p2244
S''
sS'YBR230C'
p2245
S''
sS'YNL252C'
p2246
S''
sS'YKL021C'
p2247
S''
sS'YER133W'
p2248
S'Regulation of actin cytoskeleton'
p2249
sS'YGL248W'
p2250
S'Purine metabolism'
p2251
sS'YKL197C'
p2252
S'Peroxisome'
p2253
sS'YOL006C'
p2254
S'DNA replication control'
p2255
sS'YDL066W'
p2256
S'TCA cycle and anaplerotic enzymes'
p2257
sS'YER020W'
p2258
S'GTP-binding signaling proteins'
p2259
sS'YER162C'
p2260
S'Nucleotide excision repair'
p2261
sS'YOR020W-A'
p2262
S''
sS'YDR511W'
p2263
S''
sS'YML011C'
p2264
S''
sS'YNL201C'
p2265
S''
sS'YDR398W'
p2266
S'Ribosome biogenesis in eukaryotes'
p2267
sS'YCR028C-A'
p2268
S''
sS'YHR102W'
p2269
S''
sS'YER112W'
p2270
S'Spliceosome'
p2271
sS'YMR250W'
p2272
S'Amino acid metabolism'
p2273
sS'YEL015W'
p2274
S'RNA degradation'
p2275
sS'YGR254W'
p2276
S'Glycolysis'
p2277
sS'YLR018C'
p2278
S''
sS'YKR085C'
p2279
S''
sS'YPR131C'
p2280
S'Other enzymes'
p2281
sS'YJL201W'
p2282
S''
sS'YLR418C'
p2283
S''
sS'YLR063W'
p2284
S''
sS'YER059W'
p2285
S''
sS'YOR234C'
p2286
S'Ribosome'
p2287
sS'YGL111W'
p2288
S''
sS'YKL087C'
p2289
S'Cofactor biosynthesis'
p2290
sS'YBR289W'
p2291
S'Chromosome-related'
p2292
sS'YPL153C'
p2293
S'DNA repair and recombination proteins'
p2294
sS'YKR093W'
p2295
S''
sS'YDL167C'
p2296
S''
sS'YOL066C'
p2297
S'Cofactor biosynthesis'
p2298
sS'YER082C'
p2299
S''
sS'YKL212W'
p2300
S''
sS'YJL071W'
p2301
S'Amino acid metabolism'
p2302
sS'YGL167C'
p2303
S'Transport'
p2304
sS'YHR115C'
p2305
S''
sS'YEL022W'
p2306
S''
sS'YPL188W'
p2307
S''
sS'YPR188C'
p2308
S''
sS'YIL053W'
p2309
S'Lipid and steroid metabolism'
p2310
sS'YDL074C'
p2311
S'Ubiquitin labeling'
p2312
sS'YNL073W'
p2313
S'tRNA loading'
p2314
sS'YOR374W'
p2315
S'Glycolysis'
p2316
sS'YJL190C'
p2317
S'Ribosome'
p2318
sS'YPL059W'
p2319
S'Chaperones and folding catalysts'
p2320
sS'YLR052W'
p2321
S'Chromosome-related'
p2322
sS'YGL107C'
p2323
S''
sS'YOR212W'
p2324
S'MAPK signaling pathway'
p2325
sS'YDR032C'
p2326
S''
sS'YMR221C'
p2327
S''
sS'YNL106C'
p2328
S'Phosphatidylinositol signaling system'
p2329
sS'YGL198W'
p2330
S''
sS'YEL053C'
p2331
S''
sS'YMR280C'
p2332
S'Transcription factors'
p2333
sS'YDR236C'
p2334
S'Cofactor biosynthesis'
p2335
sS'YJL042W'
p2336
S'Cytoskeleton proteins'
p2337
sS'YDR372C'
p2338
S''
sS'YER057C'
p2339
S''
sS'YNL301C'
p2340
S'Ribosome'
p2341
sS'YBR119W'
p2342
S''
sS'YJL111W'
p2343
S'Chaperones and folding catalysts'
p2344
sS'YIL066C'
p2345
S'DNA repair and recombination proteins'
p2346
sS'YMR211W'
p2347
S''
sS'YKR010C'
p2348
S''
sS'YDL043C'
p2349
S'Spliceosome'
p2350
sS'YNL192W'
p2351
S'Other central metabolism enzymes'
p2352
sS'YLL010C'
p2353
S''
sS'YMR058W'
p2354
S'Other enzymes'
p2355
sS'YDR061W'
p2356
S''
sS'YOR290C'
p2357
S'Chromosome-related'
p2358
sS'YMR129W'
p2359
S''
sS'YML093W'
p2360
S'Ribosome biogenesis in eukaryotes'
p2361
sS'YJR077C'
p2362
S''
sS'YHR197W'
p2363
S''
sS'YDL112W'
p2364
S''
sS'YBR002C'
p2365
S'Cofactor biosynthesis'
p2366
sS'YDR391C'
p2367
S''
sS'YPR004C'
p2368
S''
sS'YGR261C'
p2369
S''
sS'YKL154W'
p2370
S'Protein export'
p2371
sS'YGR180C'
p2372
S'Purine metabolism'
p2373
sS'YDR158W'
p2374
S'Amino acid metabolism'
p2375
sS'YKL092C'
p2376
S''
sS'YMR116C'
p2377
S'Ribosome'
p2378
sS'YPL004C'
p2379
S''
sS'YHR065C'
p2380
S'Other enzymes'
p2381
sS'YOR164C'
p2382
S''
sS'YPL082C'
p2383
S''
sS'YDR256C'
p2384
S'Other enzymes'
p2385
sS'YGL030W'
p2386
S'Ribosome'
p2387
sS'YGR283C'
p2388
S''
sS'YDL052C'
p2389
S'Lipid and steroid metabolism'
p2390
sS'YER175C'
p2391
S''
sS'YJL178C'
p2392
S''
sS'YMR174C'
p2393
S''
sS'YJL033W'
p2394
S'Other enzymes'
p2395
sS'YLR429W'
p2396
S''
sS'YMR308C'
p2397
S''
sS'YMR218C'
p2398
S''
sS'YDR050C'
p2399
S'Glycolysis'
p2400
sS'YGR061C'
p2401
S'Purine metabolism'
p2402
sS'YLL007C'
p2403
S''
sS'YNL265C'
p2404
S''
sS'YCR032W'
p2405
S''
sS'YNL312W'
p2406
S'DNA replication complex'
p2407
sS'YPL241C'
p2408
S''
sS'YGL120C'
p2409
S'Spliceosome'
p2410
sS'YGR271C-A'
p2411
S''
sS'YDR169C'
p2412
S''
sS'YMR183C'
p2413
S'SNARE interactions in vesicular transport'
p2414
sS'YMR090W'
p2415
S''
sS'YIR038C'
p2416
S'Cofactor biosynthesis'
p2417
sS'YHR099W'
p2418
S'Chromosome-related'
p2419
sS'YEL071W'
p2420
S''
sS'YMR272C'
p2421
S''
sS'YML062C'
p2422
S''
sS'YPR108W'
p2423
S'Proteasome'
p2424
sS'YNL041C'
p2425
S''
sS'YBR106W'
p2426
S''
sS'YBL093C'
p2427
S''
sS'YKL054C'
p2428
S''
sS'YAL062W'
p2429
S'Amino acid metabolism'
p2430
sS'YLR390W-A'
p2431
S'Cell wall'
p2432
sS'YHR171W'
p2433
S'Ubiquitin labeling'
p2434
sS'YGR162W'
p2435
S'RNA transport'
p2436
sS'YMR298W'
p2437
S''
sS'YBR291C'
p2438
S''
sS'YDR258C'
p2439
S''
sS'YDR520C'
p2440
S''
sS'YJL124C'
p2441
S'RNA degradation'
p2442
sS'YLR253W'
p2443
S''
sS'YKL023W'
p2444
S''
sS'YJR051W'
p2445
S''
sS'YKL094W'
p2446
S''
sS'YNL259C'
p2447
S''
sS'YDR261C'
p2448
S'Carbohydrate metabolism'
p2449
sS'YIL131C'
p2450
S''
sS'YKL143W'
p2451
S''
sS'YBR146W'
p2452
S''
sS'YPL031C'
p2453
S'Cell cycle'
p2454
sS'YAL044W-A'
p2455
S''
sS'YKL012W'
p2456
S'Spliceosome'
p2457
sS'YER080W'
p2458
S''
sS'YJL164C'
p2459
S'MAPK signaling pathway'
p2460
sS'YNL125C'
p2461
S''
sS'YJR019C'
p2462
S'Lipid and steroid metabolism'
p2463
sS'YLR191W'
p2464
S'Peroxisome'
p2465
sS'YDR321W'
p2466
S'Amino acid metabolism'
p2467
sS'YFR032C-A'
p2468
S'Ribosome'
p2469
sS'YNR001C'
p2470
S'TCA cycle and anaplerotic enzymes'
p2471
sS'YNL178W'
p2472
S'Ribosome'
p2473
sS'YDR147W'
p2474
S'Lipid and steroid metabolism'
p2475
sS'YJL004C'
p2476
S''
sS'YGR217W'
p2477
S''
sS'YGL243W'
p2478
S''
sS'YMR076C'
p2479
S'Chromosome-related'
p2480
sS'YJL006C'
p2481
S'Other enzymes'
p2482
sS'YDR356W'
p2483
S'Cytoskeleton proteins'
p2484
sS'YDL083C'
p2485
S'Ribosome'
p2486
sS'YJR017C'
p2487
S'Chaperones and folding catalysts'
p2488
sS'YPL180W'
p2489
S''
sS'YKL113C'
p2490
S'DNA replication complex'
p2491
sS'YNL027W'
p2492
S''
sS'YPL022W'
p2493
S'DNA replication control'
p2494
sS'YDR440W'
p2495
S'Chromosome-related'
p2496
sS'YJL060W'
p2497
S'Amino acid metabolism'
p2498
sS'YOR100C'
p2499
S''
sS'YDL205C'
p2500
S'Cofactor biosynthesis'
p2501
sS'YML080W'
p2502
S'Other enzymes'
p2503
sS'YNL116W'
p2504
S''
sS'YMR285C'
p2505
S''
sS'YLR291C'
p2506
S'Translation factors'
p2507
sS'YPR140W'
p2508
S'Lipid and steroid metabolism'
p2509
sS'YGR048W'
p2510
S'Protein processing in endoplasmic reticulum'
p2511
sS'YIR001C'
p2512
S'mRNA surveillance pathway'
p2513
sS'YDL230W'
p2514
S'Transport'
p2515
sS'YML115C'
p2516
S'Glycan metabolism'
p2517
sS'YJR113C'
p2518
S'Ribosome'
p2519
sS'YBR279W'
p2520
S''
sS'YOR281C'
p2521
S''
sS'YGL181W'
p2522
S''
sS'YOR340C'
p2523
S'Purine metabolism'
p2524
sS'YIL156W-B'
p2525
S''
sS'YKL032C'
p2526
S''
sS'YPL137C'
p2527
S''
sS'YOL158C'
p2528
S'Transport'
p2529
sS'YGR097W'
p2530
S''
sS'YOR122C'
p2531
S'Regulation of actin cytoskeleton'
p2532
sS'YBR151W'
p2533
S''
sS'YCL025C'
p2534
S''
sS'YNR034W'
p2535
S'Pentose phosphate metabolism'
p2536
sS'YGL231C'
p2537
S''
sS'YGR157W'
p2538
S'Lipid and steroid metabolism'
p2539
sS'YBR286W'
p2540
S'Peptidases'
p2541
sS'YJL165C'
p2542
S''
sS'YDR190C'
p2543
S'Chromosome-related'
p2544
sS'YAL031C'
p2545
S''
sS'YBL006C'
p2546
S'Chromosome-related'
p2547
sS'YLR340W'
p2548
S'Ribosome'
p2549
sS'YNL132W'
p2550
S'Ribosome biogenesis in eukaryotes'
p2551
sS'YMR070W'
p2552
S''
sS'YBR264C'
p2553
S'GTP-binding signaling proteins'
p2554
sS'YBR231C'
p2555
S''
sS'YBR246W'
p2556
S''
sS'YGR207C'
p2557
S''
sS'YLR275W'
p2558
S'Spliceosome'
p2559
sS'YMR230W'
p2560
S'Ribosome'
p2561
sS'YER095W'
p2562
S'Ubiquitin labeling'
p2563
sS'YHR076W'
p2564
S''
sS'YIL155C'
p2565
S'Lipid and steroid metabolism'
p2566
sS'YGR171C'
p2567
S'tRNA loading'
p2568
sS'YJL148W'
p2569
S'RNA polymerase'
p2570
sS'YAL048C'
p2571
S''
sS'YPL055C'
p2572
S''
sS'YAL013W'
p2573
S''
sS'YDR098C'
p2574
S''
sS'YPL009C'
p2575
S''
sS'YIL148W'
p2576
S'Ribosome'
p2577
sS'YNR016C'
p2578
S'Lipid and steroid metabolism'
p2579
sS'YJR099W'
p2580
S'Ubiquitin labeling'
p2581
sS'YLR259C'
p2582
S'Chaperones and folding catalysts'
p2583
sS'YNL052W'
p2584
S'Oxidative phosphorylation'
p2585
sS'YGL184C'
p2586
S'Amino acid metabolism'
p2587
sS'YKL005C'
p2588
S''
sS'YBR120C'
p2589
S''
sS'YLR085C'
p2590
S'Chromosome-related'
p2591
sS'YDR280W'
p2592
S'RNA degradation'
p2593
sS'YKL215C'
p2594
S'Amino acid metabolism'
p2595
sS'YDR418W'
p2596
S'Ribosome'
p2597
sS'YPL217C'
p2598
S'Ribosome biogenesis in eukaryotes'
p2599
sS'YHR114W'
p2600
S''
sS'YHR138C'
p2601
S''
sS'YBL024W'
p2602
S''
sS'YMR241W'
p2603
S''
sS'YPR189W'
p2604
S'RNA degradation'
p2605
sS'YGR028W'
p2606
S''
sS'YDL075W'
p2607
S'Ribosome'
p2608
sS'YDR127W'
p2609
S'Amino acid metabolism'
p2610
sS'YCL034W'
p2611
S''
sS'YDR118W'
p2612
S'Ubiquitin mediated proteolysis'
p2613
sS'YOL018C'
p2614
S'SNARE interactions in vesicular transport'
p2615
sS'YBR288C'
p2616
S''
sS'YOR220W'
p2617
S''
sS'YJR067C'
p2618
S''
sS'YOR259C'
p2619
S'Proteasome'
p2620
sS'YLL048C'
p2621
S''
sS'YNL264C'
p2622
S''
sS'YGR117C'
p2623
S''
sS'YER180C-A'
p2624
S''
sS'YGL174W'
p2625
S''
sS'YLL024C'
p2626
S'Chaperones and folding catalysts'
p2627
sS'YHL007C'
p2628
S'MAPK signaling pathway'
p2629
sS'YGL106W'
p2630
S''
sS'YOL027C'
p2631
S''
sS'YOR211C'
p2632
S''
sS'YCR002C'
p2633
S''
sS'YDR033W'
p2634
S''
sS'YPL120W'
p2635
S'Regulation of autophagy'
p2636
sS'YIL075C'
p2637
S'Proteasome'
p2638
sS'YOL145C'
p2639
S''
sS'YOR022C'
p2640
S''
sS'Q0065'
p2641
S'Oxidative phosphorylation'
p2642
sS'YHR038W'
p2643
S'Translation factors'
p2644
sS'YJL099W'
p2645
S''
sS'YHR149C'
p2646
S''
sS'YIL020C'
p2647
S'Amino acid metabolism'
p2648
sS'YOL098C'
p2649
S''
sS'YDR365W-A'
p2650
S''
sS'YBR208C'
p2651
S'Amino acid metabolism'
p2652
sS'YOR099W'
p2653
S'Glycan metabolism'
p2654
sS'YGL256W'
p2655
S'Glycolysis'
p2656
sS'YHL025W'
p2657
S'Chromosome-related'
p2658
sS'YIL097W'
p2659
S''
sS'YFR010W'
p2660
S'Ubiquitin labeling'
p2661
sS'YHL009C'
p2662
S''
sS'YMR311C'
p2663
S''
sS'YAL042W'
p2664
S''
sS'YDR251W'
p2665
S''
sS'YHR205W'
p2666
S''
sS'YKL052C'
p2667
S'Cytoskeleton proteins'
p2668
sS'YGR037C'
p2669
S''
sS'YLR304C'
p2670
S'TCA cycle and anaplerotic enzymes'
p2671
sS'YBL039C'
p2672
S'Pyrimidine metabolism'
p2673
sS'YER143W'
p2674
S''
sS'YOR362C'
p2675
S'Proteasome'
p2676
sS'YDL153C'
p2677
S''
sS'YGL064C'
p2678
S''
sS'YGR284C'
p2679
S''
sS'YDL053C'
p2680
S''
sS'YHR075C'
p2681
S'Peptidases'
p2682
sS'YMR240C'
p2683
S'Spliceosome'
p2684
sS'YAL038W'
p2685
S'Glycolysis'
p2686
sS'YML074C'
p2687
S'Other enzymes'
p2688
sS'YKR062W'
p2689
S'Basal transcription factors'
p2690
sS'YNL286W'
p2691
S''
sS'YPL150W'
p2692
S''
sS'YPR069C'
p2693
S'Amino acid metabolism'
p2694
sS'YLR200W'
p2695
S'Chaperones and folding catalysts'
p2696
sS'YMR215W'
p2697
S'Cell wall'
p2698
sS'YDR051C'
p2699
S''
sS'YGR062C'
p2700
S''
sS'YDL108W'
p2701
S'Basal transcription factors'
p2702
sS'YER176W'
p2703
S''
sS'YHL035C'
p2704
S''
sS'YKR003W'
p2705
S''
sS'YBR078W'
p2706
S'Cell wall'
p2707
sS'YMR097C'
p2708
S''
sS'YBR030W'
p2709
S''
sS'YLR336C'
p2710
S''
sS'YDL133W'
p2711
S''
sS'YPL240C'
p2712
S'Chaperones and folding catalysts'
p2713
sS'YDL022W'
p2714
S'Lipid and steroid metabolism'
p2715
sS'YPR021C'
p2716
S''
sS'YLR044C'
p2717
S'Glycolysis'
p2718
sS'YGR244C'
p2719
S'TCA cycle and anaplerotic enzymes'
p2720
sS'YIR033W'
p2721
S''
sS'YDR496C'
p2722
S''
sS'YLR099C'
p2723
S''
sS'YOR074C'
p2724
S'Other central metabolism enzymes'
p2725
sS'YOR298C-A'
p2726
S''
sS'YML032C'
p2727
S'Homologous recombination'
p2728
sS'YLR146C'
p2729
S'Amino acid metabolism'
p2730
sS'YPR110C'
p2731
S'RNA polymerase'
p2732
sS'YBR267W'
p2733
S''
sS'YDR429C'
p2734
S'Translation factors'
p2735
sS'YAL047C'
p2736
S'Cytoskeleton proteins'
p2737
sS'YDL035C'
p2738
S'G protein-coupled receptors'
p2739
sS'YML010W'
p2740
S''
sS'YDL193W'
p2741
S''
sS'YER074W'
p2742
S'Ribosome'
p2743
sS'YER021W'
p2744
S'Proteasome'
p2745
sS'YMR208W'
p2746
S'Peroxisome'
p2747
sS'YER134C'
p2748
S''
sS'YEL052W'
p2749
S''
sS'YNL088W'
p2750
S'DNA replication control'
p2751
sS'YER161C'
p2752
S''
sS'YJL180C'
p2753
S''
sS'YHR103W'
p2754
S''
sS'YNL200C'
p2755
S''
sS'YDR498C'
p2756
S'SNARE interactions in vesicular transport'
p2757
sS'YOR257W'
p2758
S'Cytoskeleton proteins'
p2759
sS'YGR002C'
p2760
S'Chromosome-related'
p2761
sS'YIL039W'
p2762
S''
sS'YGR075C'
p2763
S'Spliceosome'
p2764
sS'YBR058C-A'
p2765
S''
sS'YOL113W'
p2766
S''
sS'YDR111C'
p2767
S'Carbon fixation in photosynthetic organisms'
p2768
sS'YGR253C'
p2769
S'Proteasome'
p2770
sS'YDR510W'
p2771
S'RNA transport'
p2772
sS'YKR082W'
p2773
S'RNA transport'
p2774
sS'YLR228C'
p2775
S''
sS'YOL115W'
p2776
S'RNA degradation'
p2777
sS'YBR199W'
p2778
S'Glycan metabolism'
p2779
sS'YBR023C'
p2780
S'Other central metabolism enzymes'
p2781
sS'YPR045C'
p2782
S''
sS'YLR419W'
p2783
S''
sS'YPR010C'
p2784
S'RNA polymerase'
p2785
sS'YPL231W'
p2786
S'Lipid and steroid metabolism'
p2787
sS'YLR148W'
p2788
S''
sS'YDR164C'
p2789
S''
sS'YDL082W'
p2790
S'Ribosome'
p2791
sS'YKL155C'
p2792
S''
sS'YPL133C'
p2793
S''
sS'YJR069C'
p2794
S''
sS'YCL055W'
p2795
S''
sS'YNR031C'
p2796
S'MAPK signaling pathway'
p2797
sS'YKR055W'
p2798
S'GTP-binding signaling proteins'
p2799
sS'YFL042C'
p2800
S''
sS'YPL081W'
p2801
S'Ribosome'
p2802
sS'YIR035C'
p2803
S''
sS'YDR148C'
p2804
S'TCA cycle and anaplerotic enzymes'
p2805
sS'YJR034W'
p2806
S''
sS'YDL045W-A'
p2807
S''
sS'YPL096W'
p2808
S'Protein processing in endoplasmic reticulum'
p2809
sS'YDL204W'
p2810
S'Protein processing in endoplasmic reticulum'
p2811
sS'YDR335W'
p2812
S'RNA transport'
p2813
sS'YPR141C'
p2814
S'Cytoskeleton proteins'
p2815
sS'YHR081W'
p2816
S'RNA degradation'
p2817
sS'YKR031C'
p2818
S'Endocytosis'
p2819
sS'YDR541C'
p2820
S''
sS'YGL189C'
p2821
S'Ribosome'
p2822
sS'YML081W'
p2823
S''
sS'YHR181W'
p2824
S''
sS'YDR342C'
p2825
S'Transport'
p2826
sS'YPL078C'
p2827
S'Oxidative phosphorylation'
p2828
sS'YDR211W'
p2829
S'Translation factors'
p2830
sS'YCR095C'
p2831
S''
sS'YMR128W'
p2832
S''
sS'YLL011W'
p2833
S'Ribosome biogenesis'
p2834
sS'YCR077C'
p2835
S'RNA degradation'
p2836
sS'YML130C'
p2837
S''
sS'YJL029C'
p2838
S''
sS'YER056C'
p2839
S''
sS'YGL130W'
p2840
S'Other enzymes'
p2841
sS'YMR157C'
p2842
S''
sS'YML063W'
p2843
S'Ribosome'
p2844
sS'YNL306W'
p2845
S''
sS'YML075C'
p2846
S'Cofactor biosynthesis'
p2847
sS'YNL191W'
p2848
S''
sS'YDR237W'
p2849
S''
sS'YOR297C'
p2850
S''
sS'YDR060W'
p2851
S''
sS'YBL072C'
p2852
S'Ribosome'
p2853
sS'YMR080C'
p2854
S'RNA transport'
p2855
sS'YGL187C'
p2856
S'Oxidative phosphorylation'
p2857
sS'YBR001C'
p2858
S'Carbohydrate metabolism'
p2859
sS'YNL246W'
p2860
S''
sS'YDR407C'
p2861
S''
sS'YHR196W'
p2862
S'Ribosome biogenesis in eukaryotes'
p2863
sS'YPR067W'
p2864
S''
sS'YML092C'
p2865
S'Proteasome'
p2866
sS'YML025C'
p2867
S''
sS'YDL124W'
p2868
S''
sS'YDR257C'
p2869
S''
sS'YJR074W'
p2870
S''
sS'YPR127W'
p2871
S'Cofactor biosynthesis'
p2872
sS'YGR266W'
p2873
S''
sS'YDL148C'
p2874
S''
sS'YMR102C'
p2875
S''
sS'YAL012W'
p2876
S'Amino acid metabolism'
p2877
sS'YHR163W'
p2878
S'Pentose phosphate metabolism'
p2879
sS'YJR134C'
p2880
S''
sS'YMR288W'
p2881
S'Spliceosome'
p2882
sS'YKL080W'
p2883
S'Phagosome'
p2884
sS'YBR167C'
p2885
S'Ribosome biogenesis in eukaryotes'
p2886
sS'YIL156W'
p2887
S'Ubiquitin labeling'
p2888
sS'YDR384C'
p2889
S''
sS'YPL196W'
p2890
S''
sS'YDR518W'
p2891
S'Chaperones and folding catalysts'
p2892
sS'YLR272C'
p2893
S'Chromosome-related'
p2894
sS'YHR100C'
p2895
S''
sS'YDL226C'
p2896
S'Endocytosis'
p2897
sS'YNR017W'
p2898
S''
sS'YNL168C'
p2899
S''
sS'YGL092W'
p2900
S''
sS'YCL039W'
p2901
S''
sS'YHR077C'
p2902
S'RNA transport'
p2903
sS'YJL212C'
p2904
S''
sS'YGR136W'
p2905
S''
sS'YML007W'
p2906
S'Transcription factors'
p2907
sS'YOR008C'
p2908
S'MAPK signaling pathway'
p2909
sS'YOR153W'
p2910
S'Transport'
p2911
sS'YDR041W'
p2912
S''
sS'YGL201C'
p2913
S'DNA replication complex'
p2914
sS'YNL113W'
p2915
S'RNA polymerase'
p2916
sS'YDR099W'
p2917
S'Cell cycle'
p2918
sS'YBR121C'
p2919
S'tRNA loading'
p2920
sS'YLR229C'
p2921
S'MAPK signaling pathway'
p2922
sS'YNL079C'
p2923
S''
sS'YMR062C'
p2924
S'Amino acid metabolism'
p2925
sS'YMR015C'
p2926
S'Lipid and steroid metabolism'
p2927
sS'YKL020C'
p2928
S''
sS'YAL007C'
p2929
S''
sS'YHR170W'
p2930
S'RNA transport'
p2931
sS'YCL026C-B'
p2932
S''
sS'YJL125C'
p2933
S'Other enzymes'
p2934
sS'YLR312W-A'
p2935
S''
sS'YBL090W'
p2936
S''
sS'YKL068W'
p2937
S''
sS'YDL166C'
p2938
S'Basal transcription factors'
p2939
sS'YKL142W'
p2940
S''
sS'YPL049C'
p2941
S'MAPK signaling pathway'
p2942
sS'YNL064C'
p2943
S'Chaperones and folding catalysts'
p2944
sS'YOR110W'
p2945
S''
sS'YLR045C'
p2946
S'Cytoskeleton proteins'
p2947
sS'YER081W'
p2948
S'Amino acid metabolism'
p2949
sS'YIL136W'
p2950
S''
sS'YPL178W'
p2951
S'Spliceosome'
p2952
sS'YHL010C'
p2953
S'Ubiquitin labeling'
p2954
sS'YGL057C'
p2955
S''
sS'YIR003W'
p2956
S''
sS'YDR450W'
p2957
S'Ribosome'
p2958
sS'YNL008C'
p2959
S''
sS'YOL111C'
p2960
S''
sS'YOR098C'
p2961
S''
sS'YDL120W'
p2962
S''
sS'YGL227W'
p2963
S''
sS'YIL018W'
p2964
S'Ribosome'
p2965
sS'YIL074C'
p2966
S'Amino acid metabolism'
p2967
sS'YMR312W'
p2968
S'Chromosome-related'
p2969
sS'YCL033C'
p2970
S''
sS'YIL161W'
p2971
S''
sS'YOL144W'
p2972
S''
sS'YLR325C'
p2973
S'Ribosome'
p2974
sS'YHR039C'
p2975
S''
sS'YBR274W'
p2976
S'DNA repair and recombination proteins'
p2977
sS'YER131W'
p2978
S'Ribosome'
p2979
sS'YDL190C'
p2980
S'Protein processing in endoplasmic reticulum'
p2981
sS'YLR110C'
p2982
S'Cell wall'
p2983
sS'YCR042C'
p2984
S'Basal transcription factors'
p2985
sS'YDL188C'
p2986
S'mRNA surveillance pathway'
p2987
sS'YGR118W'
p2988
S'Ribosome'
p2989
sS'YCR035C'
p2990
S'RNA degradation'
p2991
sS'YGL065C'
p2992
S'Glycan metabolism'
p2993
sS'YOR052C'
p2994
S''
sS'YLR243W'
p2995
S''
sS'YAL001C'
p2996
S''
sS'YHR066W'
p2997
S''
sS'YAL054C'
p2998
S'Glycolysis'
p2999
sS'YOL051W'
p3000
S''
sS'YMR135C'
p3001
S''
sS'YLR032W'
p3002
S'Other enzymes'
p3003
sS'YOR045W'
p3004
S''
sS'YDR476C'
p3005
S''
sS'YDL046W'
p3006
S''
sS'YJR112W'
p3007
S'Chromosome-related'
p3008
sS'YBR252W'
p3009
S'DNA repair and recombination proteins'
p3010
sS'YGR116W'
p3011
S'Chromosome-related'
p3012
sS'YIL110W'
p3013
S''
sS'YJR083C'
p3014
S''
sS'YBR169C'
p3015
S'Chaperones and folding catalysts'
p3016
sS'YNL135C'
p3017
S'Chaperones and folding catalysts'
p3018
sS'YAL030W'
p3019
S'SNARE interactions in vesicular transport'
p3020
sS'YGL147C'
p3021
S'Ribosome'
p3022
sS'YBR263W'
p3023
S'Other central metabolism enzymes'
p3024
sS'YOL086C'
p3025
S'Glycolysis'
p3026
sS'YBL001C'
p3027
S''
sS'YNR035C'
p3028
S'Regulation of actin cytoskeleton'
p3029
sS'YDR019C'
p3030
S'Other central metabolism enzymes'
p3031
sS'YBL051C'
p3032
S''
sS'YGR150C'
p3033
S''
sS'YLR287C-A'
p3034
S'Ribosome'
p3035
sS'YJL003W'
p3036
S''
sS'YEL055C'
p3037
S'DNA repair and recombination proteins'
p3038
sS'YGR058W'
p3039
S''
sS'YPR193C'
p3040
S''
sS'YDR381C-A'
p3041
S''
sS'YMR196W'
p3042
S''
sS'YBR053C'
p3043
S''
sS'YML013W'
p3044
S'Protein processing in endoplasmic reticulum'
p3045
sS'YNL207W'
p3046
S'Ribosome biogenesis in eukaryotes'
p3047
sS'YDR428C'
p3048
S'TCA cycle and anaplerotic enzymes'
p3049
sS'YLR029C'
p3050
S'Ribosome'
p3051
sS'YBR082C'
p3052
S'Protein processing in endoplasmic reticulum'
p3053
sS'YOR210W'
p3054
S'RNA polymerase'
p3055
sS'YBL034C'
p3056
S'Cytoskeleton proteins'
p3057
sS'YJR022W'
p3058
S'Spliceosome'
p3059
sS'YOL008W'
p3060
S''
sS'YER077C'
p3061
S''
sS'YHR104W'
p3062
S'Carbohydrate metabolism'
p3063
sS'YBR089C-A'
p3064
S''
sS'YCR054C'
p3065
S''
sS'YDR045C'
p3066
S'RNA polymerase'
p3067
sS'YHR092C'
p3068
S'Transport'
p3069
sS'YPL232W'
p3070
S'SNARE interactions in vesicular transport'
p3071
sS'YKR083C'
p3072
S'Cytoskeleton proteins'
p3073
sS'YMR209C'
p3074
S''
sS'YEL017W'
p3075
S''
sS'YGR252W'
p3076
S'Chromosome-related'
p3077
sS'YDL003W'
p3078
S'Chromosome-related'
p3079
sS'YER128W'
p3080
S''
sS'YDL235C'
p3081
S'MAPK signaling pathway'
p3082
sS'YDL215C'
p3083
S'Amino acid metabolism'
p3084
sS'YJR029W'
p3085
S''
sS'YDL078C'
p3086
S'TCA cycle and anaplerotic enzymes'
p3087
sS'YGR003W'
p3088
S'Ubiquitin mediated proteolysis'
p3089
sS'YDR517W'
p3090
S''
sS'YGL043W'
p3091
S''
sS'YOR256C'
p3092
S''
sS'YPR011C'
p3093
S''
sS'YLL061W'
p3094
S''
sS'YDR110W'
p3095
S'Cell cycle'
p3096
sS'YLR061W'
p3097
S'Ribosome'
p3098
sS'YAR010C'
p3099
S''
sS'YKL214C'
p3100
S''
sS'YOL088C'
p3101
S''
sS'YOR361C'
p3102
S'Translation factors'
p3103
sS'YOR221C'
p3104
S'Lipid and steroid metabolism'
p3105
sS'YKR095W'
p3106
S'RNA transport'
p3107
sS'YMR223W'
p3108
S'Ubiquitin labeling'
p3109
sS'YMR107W'
p3110
S''
sS'YBR061C'
p3111
S'Ribosome biogenesis'
p3112
sS'YOL064C'
p3113
S'Amino acid metabolism'
p3114
sS'YBL023C'
p3115
S'DNA replication complex'
p3116
sS'YNR010W'
p3117
S''
sS'YGL078C'
p3118
S''
sS'YBR261C'
p3119
S''
sS'YDR435C'
p3120
S''
sS'YER151C'
p3121
S'Ubiquitin labeling'
p3122
sS'YIL098C'
p3123
S''
sS'YLR005W'
p3124
S'Basal transcription factors'
p3125
sS'YLL027W'
p3126
S''
sS'YDL171C'
p3127
S'Amino acid metabolism'
p3128
sS'YOR253W'
p3129
S''
sS'YNL267W'
p3130
S'Phosphatidylinositol signaling system'
p3131
sS'YCL001W'
p3132
S''
sS'YGR198W'
p3133
S''
sS'YKL189W'
p3134
S''
sS'YAR007C'
p3135
S'Transcription factors'
p3136
sS'YPL254W'
p3137
S'Chromosome-related'
p3138
sS'YGR010W'
p3139
S'Cofactor biosynthesis'
p3140
sS'YML064C'
p3141
S'Cell cycle'
p3142
sS'YEL020C'
p3143
S'Peroxisome'
p3144
sS'YER055C'
p3145
S'Amino acid metabolism'
p3146
sS'YNL307C'
p3147
S'Other enzymes'
p3148
sS'YCR016W'
p3149
S''
sS'YLR438W'
p3150
S'Amino acid metabolism'
p3151
sS'YGL238W'
p3152
S''
sS'YIL030C'
p3153
S'Protein processing in endoplasmic reticulum'
p3154
sS'YJL044C'
p3155
S''
sS'YCR094W'
p3156
S''
sS'YBR085W'
p3157
S''
sS'YGL186C'
p3158
S''
sS'YDR234W'
p3159
S'Amino acid metabolism'
p3160
sS'YGR218W'
p3161
S'RNA transport'
p3162
sS'YEL060C'
p3163
S'Chaperones and folding catalysts'
p3164
sS'YKR049C'
p3165
S''
sS'YML081C-A'
p3166
S'Oxidative phosphorylation'
p3167
sS'YPR179C'
p3168
S''
sS'YHR195W'
p3169
S''
sS'YGR267C'
p3170
S'Cofactor biosynthesis'
p3171
sS'YGL091C'
p3172
S''
sS'YDL125C'
p3173
S''
sS'YPR006C'
p3174
S'TCA cycle and anaplerotic enzymes'
p3175
sS'YGL022W'
p3176
S'Protein processing in endoplasmic reticulum'
p3177
sS'YML079W'
p3178
S''
sS'YJL153C'
p3179
S'Carbohydrate metabolism'
p3180
sS'YMR049C'
p3181
S''
sS'YDR229W'
p3182
S''
sS'YJR075W'
p3183
S'Glycan metabolism'
p3184
sS'YPR124W'
p3185
S''
sS'YLL029W'
p3186
S'Peptidases'
p3187
sS'YDL181W'
p3188
S''
sS'YGR285C'
p3189
S'Chaperones and folding catalysts'
p3190
sS'YNL232W'
p3191
S'RNA degradation'
p3192
sS'YCR079W'
p3193
S''
sS'YGL254W'
p3194
S''
sS'YER017C'
p3195
S'Chaperones and folding catalysts'
p3196
sS'YBR022W'
p3197
S''
sS'YMR214W'
p3198
S'Protein processing in endoplasmic reticulum'
p3199
sS'YCR030C'
p3200
S''
sS'YNR066C'
p3201
S''
sS'YER177W'
p3202
S'Cell cycle'
p3203
sS'YDR500C'
p3204
S'Ribosome'
p3205
sS'YER048C'
p3206
S''
sS'YPR020W'
p3207
S'Oxidative phosphorylation'
p3208
sS'YML048W'
p3209
S''
sS'YNL112W'
p3210
S'Spliceosome'
p3211
sS'YLR027C'
p3212
S'Amino acid metabolism'
p3213
sS'YBR031W'
p3214
S'Ribosome'
p3215
sS'YDL132W'
p3216
S'Protein processing in endoplasmic reticulum'
p3217
sS'YBL064C'
p3218
S'Other enzymes'
p3219
sS'YGR245C'
p3220
S''
sS'YNL009W'
p3221
S'TCA cycle and anaplerotic enzymes'
p3222
sS'YPL243W'
p3223
S'Protein export'
p3224
sS'YMR096W'
p3225
S'Cofactor biosynthesis'
p3226
sS'YDL025C'
p3227
S''
sS'YGR229C'
p3228
S''
sS'YLR167W'
p3229
S'Ribosome'
p3230
sS'YLR293C'
p3231
S'RNA transport'
p3232
sS'YDL147W'
p3233
S'Proteasome'
p3234
sS'YFL029C'
p3235
S'Cell cycle'
p3236
sS'YJL171C'
p3237
S''
sS'YBL091C'
p3238
S'Peptidases'
p3239
sS'YOR262W'
p3240
S''
sS'YMR014W'
p3241
S''
sS'YDR453C'
p3242
S'Other enzymes'
p3243
sS'YPL048W'
p3244
S'Translation factors'
p3245
sS'YPR133C'
p3246
S''
sS'YIL137C'
p3247
S''
sS'YKL069W'
p3248
S'Amino acid metabolism'
p3249
sS'YNL123W'
p3250
S''
sS'YEL018W'
p3251
S'Chromosome-related'
p3252
sS'YPL037C'
p3253
S'Translation factors'
p3254
sS'YKL145W'
p3255
S'Proteasome'
p3256
sS'YEL056W'
p3257
S'Chromosome-related'
p3258
sS'YLR373C'
p3259
S''
sS'YOR111W'
p3260
S''
sS'YFL016C'
p3261
S''
sS'YDR322C-A'
p3262
S''
sS'YJL162C'
p3263
S''
sS'YKL198C'
p3264
S''
sS'YLR260W'
p3265
S'VEGF signaling pathway'
p3266
sS'YPL117C'
p3267
S'Cofactor biosynthesis'
p3268
sS'YKL152C'
p3269
S'Glycolysis'
p3270
sS'YKR001C'
p3271
S''
sS'YGR227W'
p3272
S'Glycan metabolism'
p3273
sS'YJL100W'
p3274
S''
sS'YPL221W'
p3275
S''
sS'YBL082C'
p3276
S'Glycan metabolism'
p3277
sS'YDL081C'
p3278
S'Ribosome'
p3279
sS'YIR034C'
p3280
S'Amino acid metabolism'
p3281
sS'YDR165W'
p3282
S''
sS'YGL013C'
p3283
S''
sS'YFL018C'
p3284
S'Glycolysis'
p3285
sS'YJR068W'
p3286
S'DNA replication complex'
p3287
sS'YJL139C'
p3288
S'Glycan metabolism'
p3289
sS'YDL178W'
p3290
S''
sS'YDR212W'
p3291
S'Chaperones and folding catalysts'
p3292
sS'YLR170C'
p3293
S''
sS'YML086C'
p3294
S'Other enzymes'
p3295
sS'YPL097W'
p3296
S'tRNA loading'
p3297
sS'YDL207W'
p3298
S''
sS'YPL079W'
p3299
S'Ribosome'
p3300
sS'YPL015C'
p3301
S'Cofactor biosynthesis'
p3302
sS'YGL213C'
p3303
S'RNA degradation'
p3304
sS'YDR231C'
p3305
S''
sS'YMR038C'
p3306
S'Other enzymes'
p3307
sS'YJL066C'
p3308
S''
sS'YHR182W'
p3309
S''
sS'YDL107W'
p3310
S''
sS'YNR029C'
p3311
S''
sS'YGR091W'
p3312
S'Spliceosome'
p3313
sS'YHR001W'
p3314
S''
sS'YDR477W'
p3315
S'Meiosis'
p3316
sS'YOR042W'
p3317
S''
sS'YMR088C'
p3318
S''
sS'YJR148W'
p3319
S'Amino acid metabolism'
p3320
sS'YBR253W'
p3321
S''
sS'YIL042C'
p3322
S''
sS'YKL217W'
p3323
S'Transport'
p3324
sS'YIL035C'
p3325
S'Ribosome biogenesis in eukaryotes'
p3326
sS'YIL111W'
p3327
S'Oxidative phosphorylation'
p3328
sS'YBR153W'
p3329
S'Cofactor biosynthesis'
p3330
sS'YLL062C'
p3331
S''
sS'YML121W'
p3332
S''
sS'YOL087C'
p3333
S''
sS'YNL134C'
p3334
S''
sS'YPL215W'
p3335
S''
sS'YHR154W'
p3336
S''
sS'YPL135W'
p3337
S''
sS'YGR014W'
p3338
S''
sS'YHL014C'
p3339
S''
sS'YBR262C'
p3340
S''
sS'YMR304W'
p3341
S'Ubiquitin labeling'
p3342
sS'YKL010C'
p3343
S'Ubiquitin mediated proteolysis'
p3344
sS'YPL255W'
p3345
S'Cytoskeleton proteins'
p3346
sS'YMR289W'
p3347
S''
sS'YPL199C'
p3348
S''
sS'YFL036W'
p3349
S'Other enzymes'
p3350
sS'YGR177C'
p3351
S'Other enzymes'
p3352
sS'YDL209C'
p3353
S''
sS'YKL045W'
p3354
S'DNA replication complex'
p3355
sS'YMR239C'
p3356
S'Ribosome biogenesis'
p3357
sS'YML103C'
p3358
S'RNA transport'
p3359
sS'YMR243C'
p3360
S''
sS'YGR205W'
p3361
S'Amino acid metabolism'
p3362
sS'YIL051C'
p3363
S'Amino acid metabolism'
p3364
sS'YPL057C'
p3365
S''
sS'YNL074C'
p3366
S''
sS'YDR365C'
p3367
S''
sS'YPL151C'
p3368
S'Spliceosome'
p3369
sS'YKL007W'
p3370
S'Cytoskeleton proteins'
p3371
sS'YNL169C'
p3372
S'Lipid and steroid metabolism'
p3373
sS'YLR440C'
p3374
S''
sS'YGL206C'
p3375
S'Endocytosis'
p3376
sS'YDL225W'
p3377
S''
sS'YHR070W'
p3378
S''
sS'YDR460W'
p3379
S'Basal transcription factors'
p3380
sS'YOL025W'
p3381
S''
sS'YLR364W'
p3382
S''
sS'YKL085W'
p3383
S'TCA cycle and anaplerotic enzymes'
p3384
sS'YNR043W'
p3385
S'Cofactor biosynthesis'
p3386
sS'YOR360C'
p3387
S'Purine metabolism'
p3388
sS'YOR335C'
p3389
S'tRNA loading'
p3390
sS'YOL089C'
p3391
S''
sS'YMR099C'
p3392
S'Glycolysis'
p3393
sS'YLR193C'
p3394
S''
sS'YIL064W'
p3395
S''
sS'YOL065C'
p3396
S'Phosphatidylinositol signaling system'
p3397
sS'YDR097C'
p3398
S'Mismatch repair'
p3399
sS'YBL022C'
p3400
S'Peptidases'
p3401
sS'YGL164C'
p3402
S''
sS'YER156C'
p3403
S''
sS'YNL298W'
p3404
S''
sS'YGR013W'
p3405
S''
sS'YHR057C'
p3406
S'Other enzymes'
p3407
sS'YOR095C'
p3408
S'Pentose phosphate metabolism'
p3409
sS'YEL038W'
p3410
S'Amino acid metabolism'
p3411
sS'YDR392W'
p3412
S'Chromosome-related'
p3413
sS'YOR227W'
p3414
S''
sS'YLL026W'
p3415
S''
sS'YDR286C'
p3416
S''
sS'YGL108C'
p3417
S''
sS'YLR051C'
p3418
S''
sS'YDR388W'
p3419
S''
sS'YLR368W'
p3420
S''
sS'YMR028W'
p3421
S''
sS'YPL208W'
p3422
S''
sS'YOL147C'
p3423
S''
sS'YNL280C'
p3424
S'Lipid and steroid metabolism'
p3425
sS'YJR047C'
p3426
S'Translation factors'
p3427
sS'YGL083W'
p3428
S''
sS'YGL220W'
p3429
S''
sS'YPR089W'
p3430
S''
sS'YBR233W'
p3431
S''
sS'YPL122C'
p3432
S'Basal transcription factors'
p3433
sS'YGR082W'
p3434
S''
sS'YDL115C'
p3435
S''
sS'YDL086W'
p3436
S'Other enzymes'
p3437
sS'YHR012W'
p3438
S''
sS'YIL022W'
p3439
S''
sS'YNL248C'
p3440
S'RNA polymerase'
p3441
sS'YHR202W'
p3442
S''
sS'YDL140C'
p3443
S'RNA polymerase'
p3444
sS'YGR206W'
p3445
S'Endocytosis'
p3446
sS'YGR119C'
p3447
S''
sS'YOL127W'
p3448
S'Ribosome'
p3449
sS'YLR454W'
p3450
S''
sS'YNL224C'
p3451
S''
sS'YGR120C'
p3452
S''
sS'YDR539W'
p3453
S''
sS'YBR025C'
p3454
S''
sS'YML001W'
p3455
S'GTP-binding signaling proteins'
p3456
sS'YOR187W'
p3457
S'Translation factors'
p3458
sS'YER016W'
p3459
S'Cytoskeleton proteins'
p3460
sS'YJR100C'
p3461
S''
sS'YGR286C'
p3462
S'Cofactor biosynthesis'
p3463
sS'YDL101C'
p3464
S'DNA repair and recombination proteins'
p3465
sS'YCR037C'
p3466
S''
sS'YIR031C'
p3467
S'Glycolysis'
p3468
sS'YMR217W'
p3469
S'Peptidases'
p3470
sS'YOR239W'
p3471
S''
sS'YNL320W'
p3472
S''
sS'YCR086W'
p3473
S''
sS'YDR494W'
p3474
S''
sS'YLR026C'
p3475
S'SNARE interactions in vesicular transport'
p3476
sS'YLR139C'
p3477
S''
sS'YDL131W'
p3478
S'Pyruvate metabolism'
p3479
sS'YIL160C'
p3480
S'Lipid and steroid metabolism'
p3481
sS'YMR277W'
p3482
S'Other enzymes'
p3483
sS'Q0045'
p3484
S'Oxidative phosphorylation'
p3485
sS'YMR095C'
p3486
S'Cofactor biosynthesis'
p3487
sS'YML049C'
p3488
S'Spliceosome'
p3489
sS'YLR064W'
p3490
S''
sS'YER138C'
p3491
S''
sS'YLL004W'
p3492
S'DNA replication control'
p3493
sS'YER049W'
p3494
S''
sS'YGL125W'
p3495
S'Other central metabolism enzymes'
p3496
sS'YMR255W'
p3497
S''
sS'YGL068W'
p3498
S''
sS'YLR028C'
p3499
S'Other central metabolism enzymes'
p3500
sS'YER136W'
p3501
S''
sS'YER056C-A'
p3502
S'Ribosome'
p3503
sS'YDR028C'
p3504
S''
sS'YOR217W'
p3505
S'DNA replication complex'
p3506
sS'YBL035C'
p3507
S'DNA replication complex'
p3508
sS'YPL010W'
p3509
S''
sS'YCR057C'
p3510
S'Ribosome biogenesis in eukaryotes'
p3511
sS'YNL206C'
p3512
S''
sS'YMR197C'
p3513
S'SNARE interactions in vesicular transport'
p3514
sS'YAR071W'
p3515
S'Cofactor biosynthesis'
p3516
sS'YLR060W'
p3517
S'tRNA loading'
p3518
sS'YDR516C'
p3519
S''
sS'YPL233W'
p3520
S'Chromosome-related'
p3521
sS'YOR063W'
p3522
S'Ribosome'
p3523
sS'YGL059W'
p3524
S''
sS'YGR251W'
p3525
S''
sS'YPR047W'
p3526
S'tRNA loading'
p3527
sS'YKL219W'
p3528
S''
sS'YML091C'
p3529
S'RNA transport'
p3530
sS'YCL004W'
p3531
S'Lipid and steroid metabolism'
p3532
sS'YBR049C'
p3533
S'Transcription factors'
p3534
sS'YDR044W'
p3535
S'Cofactor biosynthesis'
p3536
sS'YOR193W'
p3537
S''
sS'YKR080W'
p3538
S'Other central metabolism enzymes'
p3539
sS'YDL079C'
p3540
S'Other enzymes'
p3541
sS'YKL078W'
p3542
S''
sS'YDL002C'
p3543
S'Chromosome-related'
p3544
sS'YDL110C'
p3545
S''
sS'YNL180C'
p3546
S'GTP-binding signaling proteins'
p3547
sS'YOR037W'
p3548
S''
sS'YIR037W'
p3549
S'Cofactor biosynthesis'
p3550
sS'YDR071C'
p3551
S'Cofactor biosynthesis'
p3552
sS'YDL098C'
p3553
S'Spliceosome'
p3554
sS'YGL012W'
p3555
S'Lipid and steroid metabolism'
p3556
sS'YGR129W'
p3557
S'Spliceosome'
p3558
sS'YJL101C'
p3559
S'Amino acid metabolism'
p3560
sS'YKL160W'
p3561
S''
sS'YBL069W'
p3562
S''
sS'YNL040W'
p3563
S''
sS'YDR353W'
p3564
S'Pyrimidine metabolism'
p3565
sS'YMR139W'
p3566
S'Meiosis'
p3567
sS'YJL001W'
p3568
S'Proteasome'
p3569
sS'YDL080C'
p3570
S'Glycolysis'
p3571
sS'YJL049W'
p3572
S'Endocytosis'
p3573
sS'YHR183W'
p3574
S'Pentose phosphate metabolism'
p3575
sS'YDL085C-A'
p3576
S''
sS'YJL138C'
p3577
S'RNA transport'
p3578
sS'YOR129C'
p3579
S''
sS'YPR143W'
p3580
S''
sS'YGL010W'
p3581
S''
sS'YOL080C'
p3582
S''
sS'YHR060W'
p3583
S''
sS'YBR010W'
p3584
S'Chromosome-related'
p3585
sS'YER094C'
p3586
S'Proteasome'
p3587
sS'YHR083W'
p3588
S''
sS'YGR208W'
p3589
S'Amino acid metabolism'
p3590
sS'YKL119C'
p3591
S''
sS'YPL016W'
p3592
S'Chromosome-related'
p3593
sS'YGR214W'
p3594
S'Ribosome'
p3595
sS'YBL058W'
p3596
S'Protein processing in endoplasmic reticulum'
p3597
sS'YER101C'
p3598
S''
sS'YKR079C'
p3599
S'RNA transport'
p3600
sS'YDR171W'
p3601
S'Chaperones and folding catalysts'
p3602
sS'YLR086W'
p3603
S'Chromosome-related'
p3604
sS'YLR439W'
p3605
S''
sS'YCR020C'
p3606
S''
sS'YML030W'
p3607
S''
sS'YCL051W'
p3608
S''
sS'YOR127W'
p3609
S''
sS'YER001W'
p3610
S'Glycan metabolism'
p3611
sS'YLL013C'
p3612
S''
sS'YOR319W'
p3613
S'Spliceosome'
p3614
sS'YPR125W'
p3615
S''
sS'YGL023C'
p3616
S''
sS'YHR049W'
p3617
S''
sS'YBR007C'
p3618
S''
sS'YMR115W'
p3619
S''
sS'YDL126C'
p3620
S'Protein processing in endoplasmic reticulum'
p3621
sS'YDR228C'
p3622
S'mRNA surveillance pathway'
p3623
sS'YOL052C'
p3624
S'Amino acid metabolism'
p3625
sS'YMR260C'
p3626
S'Translation factors'
p3627
sS'YGR264C'
p3628
S'tRNA loading'
p3629
sS'YML078W'
p3630
S'Other enzymes'
p3631
sS'YOR158W'
p3632
S''
sS'YGR140W'
p3633
S'Chromosome-related'
p3634
sS'YDL208W'
p3635
S'Ribosome biogenesis in eukaryotes'
p3636
sS'YPL074W'
p3637
S''
sS'YJR025C'
p3638
S'Amino acid metabolism'
p3639
sS'YDR475C'
p3640
S''
sS'YBR145W'
p3641
S'Glycolysis'
p3642
sS'YDR339C'
p3643
S'Ribosome biogenesis in eukaryotes'
p3644
sS'YNL310C'
p3645
S''
sS'YFL037W'
p3646
S'Cytoskeleton proteins'
p3647
sS'YJR132W'
p3648
S''
sS'YOR075W'
p3649
S'SNARE interactions in vesicular transport'
p3650
sS'YPL169C'
p3651
S'RNA transport'
p3652
sS'YPL116W'
p3653
S'Chromosome-related'
p3654
sS'YGR174C'
p3655
S''
sS'YDL224C'
p3656
S''
sS'YLR181C'
p3657
S'Endocytosis'
p3658
sS'YLR225C'
p3659
S''
sS'YGL207W'
p3660
S''
sS'YNL111C'
p3661
S''
sS'YCL067C'
p3662
S'Transcription factors'
p3663
sS'YPL058C'
p3664
S''
sS'YLR326W'
p3665
S''
sS'YGR134W'
p3666
S''
sS'YLR270W'
p3667
S'RNA degradation'
p3668
sS'YKL184W'
p3669
S'Amino acid metabolism'
p3670
sS'YML067C'
p3671
S''
sS'YLR309C'
p3672
S''
sS'YHR156C'
p3673
S''
sS'YPR086W'
p3674
S'Basal transcription factors'
p3675
sS'YJR125C'
p3676
S''
sS'YIL021W'
p3677
S'RNA polymerase'
p3678
sS'YMR060C'
p3679
S''
sS'YJL012C'
p3680
S''
sS'YMR170C'
p3681
S'Glycolysis'
p3682
sS'YLR149C'
p3683
S''
sS'YBR275C'
p3684
S'DNA replication control'
p3685
sS'YJR003C'
p3686
S''
sS'YKL026C'
p3687
S'Cofactor biosynthesis'
p3688
sS'YDL144C'
p3689
S''
sS'YFL028C'
p3690
S'RNA degradation'
p3691
sS'YJR078W'
p3692
S'Amino acid metabolism'
p3693
sS'YNL243W'
p3694
S''
sS'YLR080W'
p3695
S''
sS'YMR016C'
p3696
S'Meiosis'
p3697
sS'YKR020W'
p3698
S''
sS'YDR371W'
p3699
S'Carbohydrate metabolism'
p3700
sS'YDR456W'
p3701
S''
sS'YDR308C'
p3702
S''
sS'YLR372W'
p3703
S'Lipid and steroid metabolism'
p3704
sS'YNL062C'
p3705
S''
sS'YMR004W'
p3706
S''
sS'YER083C'
p3707
S''
sS'YHR050W'
p3708
S''
sS'YBR118W'
p3709
S'Translation factors'
p3710
sS'YDR324C'
p3711
S'Ribosome biogenesis in eukaryotes'
p3712
sS'YLR389C'
p3713
S'Peptidases'
p3714
sS'YJL072C'
p3715
S'DNA replication control'
p3716
sS'YHR172W'
p3717
S'Cytoskeleton proteins'
p3718
sS'YOR112W'
p3719
S''
sS'YFL017C'
p3720
S'Other central metabolism enzymes'
p3721
sS'YDL168W'
p3722
S'Glycolysis'
p3723
sS'YDR262W'
p3724
S''
sS'YKL144C'
p3725
S'RNA polymerase'
p3726
sS'YNL175C'
p3727
S''
sS'YKL091C'
p3728
S''
sS'YDR084C'
p3729
S''
sS'YBR234C'
p3730
S'Regulation of actin cytoskeleton'
p3731
sS'YJR143C'
p3732
S'Glycan metabolism'
p3733
sS'YOR356W'
p3734
S''
sS'YFR013W'
p3735
S''
sS'YNL182C'
p3736
S''
sS'YPR088C'
p3737
S'Protein export'
p3738
sS'YKL163W'
p3739
S'Cell wall'
p3740
sS'YHR013C'
p3741
S'Other enzymes'
p3742
sS'YBR196C'
p3743
S'Glycolysis'
p3744
sS'YOL040C'
p3745
S'Ribosome'
p3746
sS'YNL287W'
p3747
S''
sS'YOR308C'
p3748
S'Spliceosome'
p3749
sS'YOL146W'
p3750
S'DNA replication control'
p3751
sS'YGL221C'
p3752
S''
sS'YPL123C'
p3753
S'Other enzymes'
p3754
sS'YGR034W'
p3755
S'Ribosome'
p3756
sS'YBR229C'
p3757
S'Protein processing in endoplasmic reticulum'
p3758
sS'YDR297W'
p3759
S'Lipid and steroid metabolism'
p3760
sS'YNL290W'
p3761
S'DNA replication complex'
p3762
sS'YBL010C'
p3763
S''
sS'YOR131C'
p3764
S''
sS'YDR139C'
p3765
S''
sS'YOR372C'
p3766
S''
sS'YGR123C'
p3767
S'MAPK signaling pathway'
p3768
sS'YMR314W'
p3769
S'Proteasome'
p3770
sS'YLR455W'
p3771
S''
sS'YAL021C'
p3772
S'RNA degradation'
p3773
sS'YNL247W'
p3774
S'tRNA loading'
p3775
sS'YHR128W'
p3776
S'Pyrimidine metabolism'
p3777
sS'YGL122C'
p3778
S''
sS'YOR316C'
p3779
S''
sS'YCL011C'
p3780
S''
sS'YNL227C'
p3781
S'Ribosome biogenesis'
p3782
sS'YBR123C'
p3783
S''
sS'YBR198C'
p3784
S'Basal transcription factors'
p3785
sS'YGR090W'
p3786
S'Ribosome biogenesis in eukaryotes'
p3787
sS'YFR028C'
p3788
S'Cell cycle'
p3789
sS'YOR043W'
p3790
S''
sS'YDR470C'
p3791
S''
sS'YIL034C'
p3792
S''
sS'YJR149W'
p3793
S'Amino acid metabolism'
p3794
sS'YIL043C'
p3795
S'Other central metabolism enzymes'
p3796
sS'YKL071W'
p3797
S''
sS'YPL134C'
p3798
S''
sS'YIR032C'
p3799
S'Purine metabolism'
p3800
sS'YGL141W'
p3801
S'Ubiquitin mediated proteolysis'
p3802
sS'YBR152W'
p3803
S''
sS'YJL087C'
p3804
S'Other enzymes'
p3805
sS'YLR347C'
p3806
S'RNA transport'
p3807
sS'YLR460C'
p3808
S''
sS'YDR292C'
p3809
S'Protein export'
p3810
sS'YNL157W'
p3811
S''
sS'YHR206W'
p3812
S''
sS'YPL143W'
p3813
S'Ribosome'
p3814
sS'YBR218C'
p3815
S'TCA cycle and anaplerotic enzymes'
p3816
sS'YAL036C'
p3817
S''
sS'YCL028W'
p3818
S''
sS'YML120C'
p3819
S'Oxidative phosphorylation'
p3820
sS'YHR005C-A'
p3821
S''
sS'YHR106W'
p3822
S'Pyrimidine metabolism'
p3823
sS'YOR216C'
p3824
S''
sS'YNL164C'
p3825
S''
sS'YHR208W'
p3826
S'Amino acid metabolism'
p3827
sS'YDL065C'
p3828
S'Peroxisome'
p3829
sS'YGL244W'
p3830
S''
sS'YDL156W'
p3831
S''
sS'YMR167W'
p3832
S'Mismatch repair'
p3833
sS'YBL036C'
p3834
S''
sS'YNL229C'
p3835
S'Cofactor biosynthesis'
p3836
sS'YBR080C'
p3837
S'Other enzymes'
p3838
sS'YPR191W'
p3839
S'Oxidative phosphorylation'
p3840
sS'YCR027C'
p3841
S'GTP-binding signaling proteins'
p3842
sS'YER137C'
p3843
S''
sS'YDL030W'
p3844
S'Spliceosome'
p3845
sS'YDR027C'
p3846
S''
sS'YIL063C'
p3847
S''
sS'YHR068W'
p3848
S'Other enzymes'
p3849
sS'YER071C'
p3850
S''
sS'YNL272C'
p3851
S''
sS'YBR048W'
p3852
S'Ribosome'
p3853
sS'YKL218C'
p3854
S''
sS'YKR081C'
p3855
S''
sS'YEL011W'
p3856
S'Carbohydrate metabolism'
p3857
sS'YGR001C'
p3858
S''
sS'YDL001W'
p3859
S''
sS'YBL107C'
p3860
S''
sS'YNL003C'
p3861
S''
sS'YJL183W'
p3862
S'Glycan metabolism'
p3863
sS'YPL218W'
p3864
S'Protein processing in endoplasmic reticulum'
p3865
sS'YGR250C'
p3866
S''
sS'YDR047W'
p3867
S'Cofactor biosynthesis'
p3868
sS'YOR254C'
p3869
S'Chaperones and folding catalysts'
p3870
sS'YOR201C'
p3871
S'Amino acid metabolism'
p3872
sS'YOR276W'
p3873
S'Translation factors'
p3874
sS'YMR309C'
p3875
S'Translation factors'
p3876
sS'YOR089C'
p3877
S'GTP-binding signaling proteins'
p3878
sS'YMR023C'
p3879
S''
sS'YIL065C'
p3880
S''
sS'YOL031C'
p3881
S'Protein processing in endoplasmic reticulum'
p3882
sS'YBR071W'
p3883
S''
sS'YLR186W'
p3884
S'Ribosome biogenesis in eukaryotes'
p3885
sS'YNL258C'
p3886
S''
sS'YOR336W'
p3887
S'Protein processing in endoplasmic reticulum'
p3888
sS'YJR094W-A'
p3889
S'Ribosome'
p3890
sS'YKL216W'
p3891
S'Pyrimidine metabolism'
p3892
sS'YML021C'
p3893
S'Base excision repair'
p3894
sS'YGR012W'
p3895
S'Amino acid metabolism'
p3896
sS'YHL004W'
p3897
S'Ribosome'
p3898
sS'YLL045C'
p3899
S'Ribosome'
p3900
sS'YOR209C'
p3901
S'Cofactor biosynthesis'
p3902
sS'YJL205C'
p3903
S''
sS'YNL098C'
p3904
S'GTP-binding signaling proteins'
p3905
sS'YOR307C'
p3906
S''
sS'YKR097W'
p3907
S'Glycolysis'
p3908
sS'YOR094W'
p3909
S'GTP-binding signaling proteins'
p3910
sS'YER157W'
p3911
S''
sS'YOR370C'
p3912
S''
sS'YCR090C'
p3913
S''
sS'YEL037C'
p3914
S'Protein processing in endoplasmic reticulum'
p3915
sS'YHR094C'
p3916
S'Transport'
p3917
sS'YHR062C'
p3918
S'RNA transport'
p3919
sS'YBR141C'
p3920
S''
sS'YMR054W'
p3921
S'Oxidative phosphorylation'
p3922
sS'YMR322C'
p3923
S''
sS'YBL059W'
p3924
S''
sS'YDL027C'
p3925
S''
sS'YER053C'
p3926
S''
sS'YPL051W'
p3927
S'GTP-binding signaling proteins'
p3928
sS'YDL217C'
p3929
S''
sS'YCL050C'
p3930
S'Amino acid metabolism'
p3931
sS'YGR047C'
p3932
S''
sS'YDR049W'
p3933
S''
sS'YKR014C'
p3934
S'GTP-binding signaling proteins'
p3935
sS'YKR078W'
p3936
S''
sS'YPR079W'
p3937
S'Glycan binding proteins'
p3938
sS'YAL060W'
p3939
S'Butanoate metabolism'
p3940
sS'YJL026W'
p3941
S'Purine metabolism'
p3942
sS'YLR412W'
p3943
S''
sS'YER002W'
p3944
S''
sS'YDR170C'
p3945
S''
sS'Q0140'
p3946
S''
sS'YBL075C'
p3947
S'Chaperones and folding catalysts'
p3948
sS'YDR272W'
p3949
S'Glycolysis'
p3950
sS'YPR008W'
p3951
S''
sS'YGL020C'
p3952
S''
sS'YOR160W'
p3953
S''
sS'YMR083W'
p3954
S'Glycolysis'
p3955
sS'YOR294W'
p3956
S''
sS'YEL062W'
p3957
S''
sS'YMR261C'
p3958
S'Carbohydrate metabolism'
p3959
sS'YMR112C'
p3960
S''
sS'YJL039C'
p3961
S'RNA transport'
p3962
sS'YBR006W'
p3963
S'Other central metabolism enzymes'
p3964
sS'YLR038C'
p3965
S'Oxidative phosphorylation'
p3966
sS'YOR038C'
p3967
S''
sS'YNL096C'
p3968
S'Ribosome'
p3969
sS'YLR187W'
p3970
S'RNA degradation'
p3971
sS'YNL212W'
p3972
S''
sS'YCR036W'
p3973
S'Pentose phosphate metabolism'
p3974
sS'YDR038C'
p3975
S''
sS'YER015W'
p3976
S'Other enzymes'
p3977
sS'YMR216C'
p3978
S'Other enzymes'
p3979
sS'YIL144W'
p3980
S'Cytoskeleton proteins'
p3981
sS'YML006C'
p3982
S''
sS'YCL061C'
p3983
S'Chromosome-related'
p3984
sS'YDR439W'
p3985
S'Meiosis'
p3986
sS'YBR024W'
p3987
S''
sS'YDR502C'
p3988
S'Amino acid metabolism'
p3989
sS'YHR167W'
p3990
S''
sS'YLR401C'
p3991
S'Other enzymes'
p3992
sS'YER171W'
p3993
S'Basal transcription factors'
p3994
sS'YDL047W'
p3995
S'Other enzymes'
p3996
sS'YDR101C'
p3997
S''
sS'YHR079C'
p3998
S'Protein processing in endoplasmic reticulum'
p3999
sS'YML046W'
p4000
S''
sS'YGL124C'
p4001
S''
sS'YDR107C'
p4002
S''
sS'YDL130W'
p4003
S'Ribosome'
p4004
sS'YMR276W'
p4005
S'Protein processing in endoplasmic reticulum'
p4006
sS'YEL002C'
p4007
S'Protein processing in endoplasmic reticulum'
p4008
sS'YLR025W'
p4009
S'Endocytosis'
p4010
sS'YER139C'
p4011
S''
sS'YPL245W'
p4012
S''
sS'YGL200C'
p4013
S''
sS'YDR341C'
p4014
S'tRNA loading'
p4015
sS'YKL027W'
p4016
S''
sS'YJL173C'
p4017
S''
sS'YLR240W'
p4018
S'Phosphatidylinositol signaling system'
p4019
sS'YHR199C'
p4020
S''
sS'YDR152W'
p4021
S''
sS'YMR061W'
p4022
S'mRNA surveillance pathway'
p4023
sS'YJL128C'
p4024
S'MAPK signaling pathway'
p4025
sS'YJR002W'
p4026
S'Ribosome biogenesis in eukaryotes'
p4027
sS'YDL145C'
p4028
S''
sS'YER019C-A'
p4029
S'Protein export'
p4030
sS'YGR260W'
p4031
S''
sS'YKL127W'
p4032
S'Glycolysis'
p4033
sS'YNL061W'
p4034
S''
sS'YKR021W'
p4035
S''
sS'YHR209W'
p4036
S''
sS'YFL014W'
p4037
S'Chaperones and folding catalysts'
p4038
sS'YDR457W'
p4039
S'Ubiquitin mediated proteolysis'
p4040
sS'YLR386W'
p4041
S''
sS'YJL073W'
p4042
S'Chaperones and folding catalysts'
p4043
sS'YLR371W'
p4044
S''
sS'YKL067W'
p4045
S'Purine metabolism'
p4046
sS'YMR005W'
p4047
S''
sS'YLR262C'
p4048
S'GTP-binding signaling proteins'
p4049
sS'YNL121C'
p4050
S''
sS'YDR087C'
p4051
S''
sS'YMR294W'
p4052
S'Cytoskeleton proteins'
p4053
sS'YPR135W'
p4054
S'Chromosome-related'
p4055
sS'YBR081C'
p4056
S'Chromosome-related'
p4057
sS'YPL138C'
p4058
S''
sS'YJL166W'
p4059
S'Oxidative phosphorylation'
p4060
sS'YNL044W'
p4061
S''
sS'YER044C'
p4062
S''
sS'YMR072W'
p4063
S''
sS'YLR248W'
p4064
S''
sS'YOR283W'
p4065
S'Glycolysis'
p4066
sS'YJL102W'
p4067
S'Translation factors'
p4068
sS'YKL105C'
p4069
S''
sS'YKL075C'
p4070
S''
sS'YNL181W'
p4071
S''
sS'YDL087C'
p4072
S''
sS'YKR056W'
p4073
S''
sS'YGL011C'
p4074
S'Proteasome'
p4075
sS'YHL023C'
p4076
S''
sS'YIR036C'
p4077
S'Other enzymes'
p4078
sS'YKL129C'
p4079
S''
sS'YDR163W'
p4080
S'Spliceosome'
p4081
sS'YMR123W'
p4082
S''
sS'YDR238C'
p4083
S''
sS'YOR173W'
p4084
S''
sS'YNL323W'
p4085
S''
sS'YFR024C-A'
p4086
S''
sS'YLR220W'
p4087
S''
sS'YDR243C'
p4088
S'Spliceosome'
p4089
sS'YLR172C'
p4090
S'Other enzymes'
p4091
sS'YGR209C'
p4092
S'Chaperones and folding catalysts'
p4093
sS'YPR168W'
p4094
S''
sS'YJL048C'
p4095
S''
sS'YPR113W'
p4096
S'Phosphatidylinositol signaling system'
p4097
sS'YNL050C'
p4098
S''
sS'YKR036C'
p4099
S''
sS'YPL113C'
p4100
S''
sS'YBR251W'
p4101
S'Ribosome'
p4102
sS'YIR008C'
p4103
S'DNA replication complex'
p4104
sS'YLR377C'
p4105
S'Glycolysis'
p4106
sS'YGR093W'
p4107
S''
sS'YIL040W'
p4108
S''
sS'YKL186C'
p4109
S'Ribosome biogenesis in eukaryotes'
p4110
sS'YGR135W'
p4111
S'Proteasome'
p4112
sS'YDL234C'
p4113
S''
sS'YHR003C'
p4114
S''
sS'YDR524C'
p4115
S''
sS'YAL019W'
p4116
S''
sS'YNR003C'
p4117
S'RNA polymerase'
p4118
sS'YPL140C'
p4119
S'MAPK signaling pathway'
p4120
sS'YLR449W'
p4121
S'Other enzymes'
p4122
sS'YNL156C'
p4123
S''
sS'YDR293C'
p4124
S''
sS'YBR155W'
p4125
S''
sS'YBL002W'
p4126
S'Chromosome-related'
p4127
sS'YNR038W'
p4128
S''
sS'YIR024C'
p4129
S''
sS'YGL140C'
p4130
S''
sS'YCL029C'
p4131
S''
sS'YGR169C-A'
p4132
S''
sS'YML123C'
p4133
S'Transport'
p4134
sS'YKL194C'
p4135
S'tRNA loading'
p4136
sS'YOR275C'
p4137
S'Endocytosis'
p4138
sS'YAL017W'
p4139
S''
sS'YJR024C'
p4140
S'Amino acid metabolism'
p4141
sS'YFL038C'
p4142
S'GTP-binding signaling proteins'
p4143
sS'YBR242W'
p4144
S''
sS'YIL056W'
p4145
S''
sS'YBR142W'
p4146
S'Other enzymes'
p4147
sS'YNL077W'
p4148
S''
sS'YHR166C'
p4149
S'Ubiquitin mediated proteolysis'
p4150
sS'YGR175C'
p4151
S'Lipid and steroid metabolism'
p4152
sS'YJR131W'
p4153
S'Carbohydrate metabolism'
p4154
sS'YIR017C'
p4155
S''
sS'YKL047W'
p4156
S''
sS'YIL128W'
p4157
S''
sS'YNL127W'
p4158
S''
sS'YBR108W'
p4159
S''
sS'YDR089W'
p4160
S''
sS'YNR012W'
p4161
S'Pyrimidine metabolism'
p4162
sS'YGL097W'
p4163
S''
sS'YBR028C'
p4164
S''
sS'YHR073W'
p4165
S''
sS'YER113C'
p4166
S''
sS'YNL110C'
p4167
S''
sS'YNL076W'
p4168
S''
sS'YDR367W'
p4169
S''
sS'YHR072W'
p4170
S'Lipid and steroid metabolism'
p4171
sS'YKL001C'
p4172
S'Purine metabolism'
p4173
sS'YDR012W'
p4174
S'Ribosome'
p4175
sS'YHR045W'
p4176
S''
sS'YHR021C'
p4177
S'Ribosome'
p4178
sS'YGL253W'
p4179
S'Glycolysis'
p4180
sS'YPR178W'
p4181
S'Spliceosome'
p4182
sS'YHL032C'
p4183
S'Lipid and steroid metabolism'
p4184
sS'YAR002C-A'
p4185
S''
sS'YIL088C'
p4186
S''
sS'YOR271C'
p4187
S''
sS'YOR057W'
p4188
S''
sS'YOL030W'
p4189
S'Cell wall'
p4190
sS'YBL025W'
p4191
S''
sS'YOR097C'
p4192
S''
sS'YHR216W'
p4193
S'Purine metabolism'
p4194
sS'YMR074C'
p4195
S''
sS'YGR024C'
p4196
S'Other enzymes'
p4197
sS'YOL023W'
p4198
S'Translation factors'
p4199
sS'YBL020W'
p4200
S'Glycan metabolism'
p4201
sS'YGR203W'
p4202
S''
sS'YHL003C'
p4203
S'Lipid and steroid metabolism'
p4204
sS'YER154W'
p4205
S'Protein export'
p4206
sS'YDR422C'
p4207
S''
sS'YEL036C'
p4208
S'Glycan metabolism'
p4209
sS'YBR260C'
p4210
S''
sS'YHR010W'
p4211
S'Ribosome'
p4212
sS'YDR400W'
p4213
S'Pyrimidine metabolism'
p4214
sS'YJR104C'
p4215
S'Other enzymes'
p4216
sS'YNL231C'
p4217
S''
sS'YPL124W'
p4218
S'Cytoskeleton proteins'
p4219
sS'YHL021C'
p4220
S''
sS'YLR056W'
p4221
S'Lipid and steroid metabolism'
p4222
sS'YAL035W'
p4223
S'Translation factors'
p4224
sS'YOL041C'
p4225
S''
sS'YKL176C'
p4226
S''
sS'YFR038W'
p4227
S''
sS'YBR235W'
p4228
S''
sS'YDR001C'
p4229
S'Carbohydrate metabolism'
p4230
sS'YIL162W'
p4231
S'Carbohydrate metabolism'
p4232
sS'YOL141W'
p4233
S''
sS'YGR080W'
p4234
S''
sS'YOL109W'
p4235
S''
sS'YBL011W'
p4236
S'Lipid and steroid metabolism'
p4237
sS'YBR195C'
p4238
S''
sS'YDR183W'
p4239
S''
sS'YGL222C'
p4240
S''
sS'YDR138W'
p4241
S''
sS'YGR122W'
p4242
S''
sS'YOR317W'
p4243
S'Other enzymes'
p4244
sS'YBR255C-A'
p4245
S''
sS'YGR033C'
p4246
S''
sS'YJR144W'
p4247
S''
sS'YMR315W'
p4248
S''
sS'YLR328W'
p4249
S'Cofactor biosynthesis'
p4250
sS'YGL153W'
p4251
S'Peroxisome'
p4252
sS'YDL180W'
p4253
S''
sS'YLR039C'
p4254
S''
sS'YNL097C'
p4255
S''
sS'YOR305W'
p4256
S''
sS'YER063W'
p4257
S''
sS'YDR481C'
p4258
S'Two-component system'
p4259
sS'YER014W'
p4260
S'Cofactor biosynthesis'
p4261
sS'YPL115C'
p4262
S''
sS'YPR041W'
p4263
S'Translation factors'
p4264
sS'YER172C'
p4265
S'Spliceosome'
p4266
sS'YCR019W'
p4267
S''
sS'YJR032W'
p4268
S'Other enzymes'
p4269
sS'YPL249C-A'
p4270
S'Ribosome'
p4271
sS'YJL084C'
p4272
S''
sS'YOR185C'
p4273
S'RNA transport'
p4274
sS'YOR244W'
p4275
S'Chromosome-related'
p4276
sS'YEL003W'
p4277
S'Chaperones and folding catalysts'
p4278
sS'YOR004W'
p4279
S''
sS'YGL037C'
p4280
S'Cofactor biosynthesis'
p4281
sS'YBR058C'
p4282
S'Ubiquitin labeling'
p4283
sS'YLR048W'
p4284
S'Ribosome'
p4285
sS'YLR071C'
p4286
S''
sS'YGR240C'
p4287
S'Glycolysis'
p4288
sS'YEL058W'
p4289
S'Other central metabolism enzymes'
p4290
sS'YMR259C'
p4291
S''
sS'YJR001W'
p4292
S''
sS'YFL034C-A'
p4293
S'Ribosome'
p4294
sS'YDR434W'
p4295
S'Glycan metabolism'
p4296
sS'YOR145C'
p4297
S'Ribosome biogenesis'
p4298
sS'YFL034C-B'
p4299
S''
sS'YPR052C'
p4300
S''
sS'YMR121C'
p4301
S'Ribosome'
p4302
sS'YPR025C'
p4303
S'Basal transcription factors'
p4304
sS'YCL019W'
p4305
S''
sS'YBR087W'
p4306
S'DNA replication complex'
p4307
sS'YLR006C'
p4308
S'MAPK signaling pathway'
p4309
sS'YJL174W'
p4310
S'Cell wall'
p4311
sS'YDR330W'
p4312
S''
sS'YER149C'
p4313
S''
sS'YMR056C'
p4314
S''
sS'YER114C'
p4315
S''
sS'YOR375C'
p4316
S'Amino acid metabolism'
p4317
sS'YDR057W'
p4318
S'Protein processing in endoplasmic reticulum'
p4319
sS'YPR190C'
p4320
S'RNA polymerase'
p4321
sS'YOR215C'
p4322
S''
sS'YHR107C'
p4323
S''
sS'YAR002W'
p4324
S''
sS'YHR127W'
p4325
S''
sS'YGR142W'
p4326
S''
sS'YMR237W'
p4327
S''
sS'YOL095C'
p4328
S''
sS'YDL064W'
p4329
S'RNA transport'
p4330
sS'YDL031W'
p4331
S'Other enzymes'
p4332
sS'YMR194C-B'
p4333
S''
sS'YLR066W'
p4334
S'Protein export'
p4335
sS'YDR514C'
p4336
S''
sS'YEL029C'
p4337
S'Cofactor biosynthesis'
p4338
sS'YMR228W'
p4339
S''
sS'YMR125W'
p4340
S'Spliceosome'
p4341
sS'YGL245W'
p4342
S'tRNA loading'
p4343
sS'YNL273W'
p4344
S'Chromosome-related'
p4345
sS'YCR051W'
p4346
S''
sS'YER070W'
p4347
S'Purine metabolism'
p4348
sS'YPL219W'
p4349
S''
sS'YPL262W'
p4350
S'TCA cycle and anaplerotic enzymes'
p4351
sS'YGR006W'
p4352
S'Spliceosome'
p4353
sS'YMR002W'
p4354
S''
sS'YDL119C'
p4355
S''
sS'YGL129C'
p4356
S''
sS'YPL020C'
p4357
S'Ubiquitin labeling'
p4358
sS'YMR073C'
p4359
S''
sS'YKL151C'
p4360
S''
sS'YLR289W'
p4361
S''
sS'YGR222W'
p4362
S''
sS'YKL104C'
p4363
S'Peptidases'
p4364
sS'YCL040W'
p4365
S'Glycolysis'
p4366
sS'YOR163W'
p4367
S'Other enzymes'
p4368
sS'YLR422W'
p4369
S''
sS'YPR115W'
p4370
S''
sS'YLR093C'
p4371
S'SNAREs'
p4372
sS'YMR044W'
p4373
S''
sS'YKL128C'
p4374
S''
sS'YLR361C-A'
p4375
S''
sS'YJR065C'
p4376
S''
sS'YNL308C'
p4377
S''
sS'YGL180W'
p4378
S'mTOR signaling pathway'
p4379
sS'YPR074C'
p4380
S'Pentose phosphate metabolism'
p4381
sS'YDR239C'
p4382
S''
sS'YJR049C'
p4383
S''
sS'YPR112C'
p4384
S''
sS'YML085C'
p4385
S'Cytoskeleton proteins'
p4386
sS'YML069W'
p4387
S'Transcription factors'
p4388
sS'YPR169W'
p4389
S''
sS'YLR175W'
p4390
S'Ribosome biogenesis in eukaryotes'
p4391
sS'YGR279C'
p4392
S'Cell wall'
p4393
sS'YDR064W'
p4394
S'Ribosome'
p4395
sS'YMR275C'
p4396
S''
sS'YBL056W'
p4397
S'Other enzymes'
p4398
sS'YLR324W'
p4399
S''
sS'YER052C'
p4400
S'Amino acid metabolism'
p4401
sS'YLL015W'
p4402
S''
sS'YMR202W'
p4403
S'Lipid and steroid metabolism'
p4404
sS'YPL061W'
p4405
S'Glycolysis'
p4406
sS'YER003C'
p4407
S'Carbohydrate metabolism'
p4408
sS'YER103W'
p4409
S'Chaperones and folding catalysts'
p4410
sS'YKR077W'
p4411
S''
sS'YDR173C'
p4412
S'Carbohydrate metabolism'
p4413
sS'YOR353C'
p4414
S''
sS'YCL057W'
p4415
S'Peptidases'
p4416
sS'YLR413W'
p4417
S''
sS'YBR072W'
p4418
S'Chaperones and folding catalysts'
p4419
sS'YBR029C'
p4420
S'Lipid and steroid metabolism'
p4421
sS'YMR262W'
p4422
S''
sS'YPR063C'
p4423
S''
sS'YGR231C'
p4424
S''
sS'YGR127W'
p4425
S''
sS'YBL076C'
p4426
S'tRNA loading'
p4427
sS'YMR113W'
p4428
S'Cofactor biosynthesis'
p4429
sS'YFR006W'
p4430
S''
sS'YMR297W'
p4431
S'Chaperones and folding catalysts'
p4432
sS'YKR068C'
p4433
S''
sS'YGL067W'
p4434
S''
sS'YLR387C'
p4435
S''
sS'YPR032W'
p4436
S''
sS'YDL173W'
p4437
S''
sS'YBR143C'
p4438
S'Translation factors'
p4439
sS'YCR092C'
p4440
S'Mismatch repair'
p4441
sS'YDR086C'
p4442
S'Protein export'
p4443
sS'YHR072W-A'
p4444
S'Ribosome biogenesis in eukaryotes'
p4445
sS'YJR130C'
p4446
S'Amino acid metabolism'
p4447
sS'YJL062W-A'
p4448
S''
sS'YPL072W'
p4449
S'Ubiquitin labeling'
p4450
sS'YAL016W'
p4451
S'mRNA surveillance pathway'
p4452
sS'YFL039C'
p4453
S'Cytoskeleton proteins'
p4454
sS'YIL172C'
p4455
S''
sS'YJL134W'
p4456
S'Lipid and steroid metabolism'
p4457
sS'YJR006W'
p4458
S'DNA replication complex'
p4459
sS'YJL161W'
p4460
S''
sS'YDR207C'
p4461
S'Transcription factors'
p4462
sS'YDR449C'
p4463
S'Ribosome biogenesis in eukaryotes'
p4464
sS'YJL019W'
p4465
S''
sS'YNR039C'
p4466
S''
sS'YNL117W'
p4467
S'Glycolysis'
p4468
sS'YPL152W'
p4469
S'Other enzymes'
p4470
sS'YIL052C'
p4471
S'Ribosome'
p4472
sS'YGL205W'
p4473
S'Peroxisome'
p4474
sS'YGL123W'
p4475
S'Ribosome'
p4476
sS'YPL064C'
p4477
S'Other enzymes'
p4478
sS'YBR175W'
p4479
S''
sS'YNR013C'
p4480
S''
sS'YBR109C'
p4481
S'Calcium signaling pathway'
p4482
sS'YBR172C'
p4483
S''
sS'YDR346C'
p4484
S''
sS'YJL172W'
p4485
S'Peptidases'
p4486
sS'YJL010C'
p4487
S''
sS'YBL078C'
p4488
S'Ubiquitin labeling'
p4489
sS'YDL104C'
p4490
S'Peptidases'
p4491
sS'YNL222W'
p4492
S'mRNA surveillance pathway'
p4493
sS'YGR095C'
p4494
S'RNA degradation'
p4495
sS'YFR039C'
p4496
S''
sS'YKR042W'
p4497
S'Cell wall'
p4498
sS'YNL051W'
p4499
S''
sS'YOL077W-A'
p4500
S'Oxidative phosphorylation'
p4501
sS'YPL029W'
p4502
S''
sS'YBR236C'
p4503
S'mRNA surveillance pathway'
p4504
sS'Q0250'
p4505
S'Oxidative phosphorylation'
p4506
sS'YDL142C'
p4507
S'Lipid and steroid metabolism'
p4508
sS'YDL091C'
p4509
S''
sS'YHR198C'
p4510
S''
sS'YKL024C'
p4511
S'Pyrimidine metabolism'
p4512
sS'YGL196W'
p4513
S''
sS'YKL126W'
p4514
S'Other enzymes'
p4515
sS'YLR209C'
p4516
S'Purine metabolism'
p4517
sS'YIL070C'
p4518
S''
sS'YDR264C'
p4519
S''
sS'YKL039W'
p4520
S''
sS'YKL064W'
p4521
S''
sS'YNL035C'
p4522
S''
sS'YLR287C'
p4523
S''
sS'YLR212C'
p4524
S'Cytoskeleton proteins'
p4525
sS'YJL074C'
p4526
S'Chromosome-related'
p4527
sS'YLR370C'
p4528
S'Regulation of actin cytoskeleton'
p4529
sS'YNL177C'
p4530
S''
sS'YDR454C'
p4531
S'Purine metabolism'
p4532
sS'YIL009W'
p4533
S'Other enzymes'
p4534
sS'YLR250W'
p4535
S''
sS'YKL122C'
p4536
S''
sS'YHR011W'
p4537
S'tRNA loading'
p4538
sS'YAL043C'
p4539
S'mRNA surveillance pathway'
p4540
sS'YOL093W'
p4541
S''
sS'YOL042W'
p4542
S''
sS'YDR054C'
p4543
S'Ubiquitin mediated proteolysis'
p4544
sS'YHR146W'
p4545
S''
sS'YPL125W'
p4546
S''
sS'YBR189W'
p4547
S'Ribosome'
p4548
sS'YCL037C'
p4549
S''
sS'YHL020C'
p4550
S'Transcription factors'
p4551
sS'YJR105W'
p4552
S'Purine metabolism'
p4553
sS'YDR289C'
p4554
S''
sS'YOR054C'
p4555
S''
sS'YLR305C'
p4556
S'Phosphatidylinositol signaling system'
p4557
sS'YOR354C'
p4558
S''
sS'YOL140W'
p4559
S'Amino acid metabolism'
p4560
sS'YGL223C'
p4561
S''
sS'YBR193C'
p4562
S''
sS'YBL016W'
p4563
S'MAPK signaling pathway'
p4564
sS'YML131W'
p4565
S''
sS'YGL150C'
p4566
S'Chromosome-related'
p4567
sS'YNL292W'
p4568
S'Other enzymes'
p4569
sS'YCL057C-A'
p4570
S''
sS'YNR024W'
p4571
S'RNA degradation'
p4572
sS'YJL092W'
p4573
S'Nucleotide excision repair'
p4574
sS'YIL038C'
p4575
S'RNA degradation'
p4576
sS'YGL076C'
p4577
S'Ribosome'
p4578
sS'YPL043W'
p4579
S'Ribosome biogenesis in eukaryotes'
p4580
sS'YIL138C'
p4581
S''
sS'YDR109C'
p4582
S''
sS'YIL143C'
p4583
S'Basal transcription factors'
p4584
sS'YGR092W'
p4585
S'Cell cycle'
p4586
sS'YBR256C'
p4587
S'Cofactor biosynthesis'
p4588
sS'YKL002W'
p4589
S'Endocytosis'
p4590
sS'YOR036W'
p4591
S'SNARE interactions in vesicular transport'
p4592
sS'YJL207C'
p4593
S''
sS'YJR090C'
p4594
S'Ubiquitin mediated proteolysis'
p4595
sS'YOR014W'
p4596
S'mRNA surveillance pathway'
p4597
sS'YIR009W'
p4598
S''
sS'YLR390W'
p4599
S''
sS'YAL041W'
p4600
S'MAPK signaling pathway'
p4601
sS'YLR345W'
p4602
S'Carbohydrate metabolism'
p4603
sS'YKL073W'
p4604
S'Chaperones and folding catalysts'
p4605
sS'YLR448W'
p4606
S'Ribosome'
p4607
sS'YGR103W'
p4608
S''
sS'YPL141C'
p4609
S''
sS'YJL081C'
p4610
S'Chromosome-related'
p4611
sS'YIL041W'
p4612
S''
sS'YGR178C'
p4613
S''
sS'YGR057C'
p4614
S''
sS'YNL155W'
p4615
S''
sS'YNL100W'
p4616
S''
sS'YLR078C'
p4617
S'SNARE interactions in vesicular transport'
p4618
sS'YBR154C'
p4619
S'RNA polymerase'
p4620
sS'YNL139C'
p4621
S'Spliceosome'
p4622
sS'YNL245C'
p4623
S''
sS'YGL143C'
p4624
S'Translation factors'
p4625
sS'YLR001C'
p4626
S''
sS'YLR126C'
p4627
S''
sS'YMR318C'
p4628
S'Glycolysis'
p4629
sS'YCL018W'
p4630
S'Amino acid metabolism'
p4631
sS'YGR181W'
p4632
S''
sS'YKR074W'
p4633
S''
sS'YHR108W'
p4634
S''
sS'YDL067C'
p4635
S'Oxidative phosphorylation'
p4636
sS'YOL020W'
p4637
S''
sS'YBR086C'
p4638
S''
sS'YDR135C'
p4639
S''
sS'YBL030C'
p4640
S''
sS'YMR256C'
p4641
S'Oxidative phosphorylation'
p4642
sS'YMR236W'
p4643
S'Basal transcription factors'
p4644
sS'YER148W'
p4645
S'Basal transcription factors'
p4646
sS'YGL242C'
p4647
S''
sS'YHL015W'
p4648
S'Ribosome'
p4649
sS'YEL048C'
p4650
S''
sS'YOR303W'
p4651
S'Pyrimidine metabolism'
p4652
sS'YIL087C'
p4653
S''
sS'YOR252W'
p4654
S''
sS'YDR472W'
p4655
S''
sS'YBR194W'
p4656
S''
sS'YMR192W'
p4657
S''
sS'YGR078C'
p4658
S''
sS'YOR104W'
p4659
S''
sS'YER073W'
p4660
S'Glycolysis'
p4661
sS'YMR229C'
p4662
S''
sS'YLR065C'
p4663
S''
sS'YBR046C'
p4664
S'Other enzymes'
p4665
sS'YOR056C'
p4666
S'Ribosome biogenesis in eukaryotes'
p4667
sS'YDR013W'
p4668
S'DNA replication control'
p4669
sS'YGL028C'
p4670
S'Cell wall'
p4671
sS'YHL033C'
p4672
S'Ribosome'
p4673
sS'YOR270C'
p4674
S'Oxidative phosphorylation'
p4675
sS'YHR020W'
p4676
S'tRNA loading'
p4677
sS'YOL068C'
p4678
S'Cofactor biosynthesis'
p4679
sS'YLL006W'
p4680
S''
sS'YGL252C'
p4681
S'Chromosome-related'
p4682
sS'YOL033W'
p4683
S'tRNA loading'
p4684
sS'YBR238C'
p4685
S''
sS'YGL161C'
p4686
S''
sS'YPR051W'
p4687
S'Other enzymes'
p4688
sS'YER155C'
p4689
S''
sS'YBR037C'
p4690
S''
sS'YGR049W'
p4691
S''
sS'YHL002W'
p4692
S'Jak-STAT signaling pathway'
p4693
sS'YNL263C'
p4694
S''
sS'YKR099W'
p4695
S'Transcription factors'
p4696
sS'YOR096W'
p4697
S'Ribosome'
p4698
sS'YPL001W'
p4699
S'Chromosome-related'
p4700
sS'YDR512C'
p4701
S''
sS'YGR132C'
p4702
S''
sS'YLR410W'
p4703
S''
sS'YER093C-A'
p4704
S''
sS'YER004W'
p4705
S''
sS'YGL119W'
p4706
S'Protein kinases'
p4707
sS'YMR052W'
p4708
S''
sS'YOR142W'
p4709
S'TCA cycle and anaplerotic enzymes'
p4710
sS'YKR016W'
p4711
S''
sS'YMR158W'
p4712
S''
sS'YGR276C'
p4713
S'Ribosome biogenesis in eukaryotes'
p4714
sS'YNL194C'
p4715
S''
sS'YMR203W'
p4716
S''
sS'YLL036C'
p4717
S'Spliceosome'
p4718
sS'YBR191W'
p4719
S'Ribosome'
p4720
sS'YDR519W'
p4721
S'Chaperones and folding catalysts'
p4722
sS'YGR278W'
p4723
S''
sS'YDL029W'
p4724
S''
sS'YKR076W'
p4725
S''
sS'YKL141W'
p4726
S'TCA cycle and anaplerotic enzymes'
p4727
sS'YBL057C'
p4728
S'Other enzymes'
p4729
sS'YBR073W'
p4730
S'Homologous recombination'
p4731
sS'YLR083C'
p4732
S''
sS'YHR039C-A'
p4733
S'Phagosome'
p4734
sS'YPR175W'
p4735
S'DNA replication complex'
p4736
sS'YMR263W'
p4737
S''
sS'YDR270W'
p4738
S'Other enzymes'
p4739
sS'YKR069W'
p4740
S'Cofactor biosynthesis'
p4741
sS'YBR008C'
p4742
S'Transport'
p4743
sS'YDR172W'
p4744
S'Translation factors'
p4745
sS'YDL121C'
p4746
S''
sS'YPR033C'
p4747
S'tRNA loading'
p4748
sS'YGL135W'
p4749
S'Ribosome'
p4750
sS'YLR129W'
p4751
S'Ribosome biogenesis in eukaryotes'
p4752
sS'YPR062W'
p4753
S'Pyrimidine metabolism'
p4754
sS'YBL041W'
p4755
S'Proteasome'
p4756
sS'YDL058W'
p4757
S''
sS'YPR065W'
p4758
S'Transcription factors'
p4759
sS'YLR150W'
p4760
S''
sS'YBR026C'
p4761
S'Lipid and steroid metabolism'
p4762
sS'YBL059C-A'
p4763
S''
sS'YNL214W'
p4764
S''
sS'YOR184W'
p4765
S'Amino acid metabolism'
p4766
sS'YBR091C'
p4767
S''
sS'YPR180W'
p4768
S'Ubiquitin mediated proteolysis'
p4769
sS'YEL013W'
p4770
S'Regulation of autophagy'
p4771
sS'YDL007W'
p4772
S'Proteasome'
p4773
sS'YGL056C'
p4774
S''
sS'YDR385W'
p4775
S'Translation factors'
p4776
sS'YDR480W'
p4777
S'MAPK signaling pathway'
p4778
sS'YML004C'
p4779
S'Glycolysis'
p4780
sS'YCR043C'
p4781
S''
sS'YPL227C'
p4782
S'Glycan metabolism'
p4783
sS'YDL010W'
p4784
S''
sS'YLL009C'
p4785
S'Oxidative phosphorylation'
p4786
sS'YBR059C'
p4787
S''
sS'YML019W'
p4788
S'Protein processing in endoplasmic reticulum'
p4789
sS'YPR024W'
p4790
S'Peptidases'
p4791
sS'YDR493W'
p4792
S''
sS'YDL045C'
p4793
S'Cofactor biosynthesis'
p4794
sS'YLR163C'
p4795
S'Peptidases'
p4796
sS'YGL036W'
p4797
S''
sS'YPL247C'
p4798
S''
sS'YMR258C'
p4799
S''
sS'YDR328C'
p4800
S'Protein processing in endoplasmic reticulum'
p4801
sS'YDL198C'
p4802
S''
sS'YLR072W'
p4803
S''
sS'YKL167C'
p4804
S''
sS'YIR023W'
p4805
S''
sS'YDL092W'
p4806
S'Protein export'
p4807
sS'YKR043C'
p4808
S'Glycolysis'
p4809
sS'YLR166C'
p4810
S''
sS'YMR067C'
p4811
S''
sS'YJL011C'
p4812
S''
sS'YDL143W'
p4813
S'Chaperones and folding catalysts'
p4814
sS'YKL138C'
p4815
S''
sS'YBL079W'
p4816
S'RNA transport'
p4817
sS'YPL093W'
p4818
S'Ribosome biogenesis in eukaryotes'
p4819
sS'YPL028W'
p4820
S'Lipid and steroid metabolism'
p4821
sS'YFL001W'
p4822
S'Other enzymes'
p4823
sS'YDR150W'
p4824
S''
sS'YIL135C'
p4825
S''
sS'YBR157C'
p4826
S''
sS'YGL212W'
p4827
S'SNARE interactions in vesicular transport'
p4828
sS'YPR137W'
p4829
S''
sS'YMR027W'
p4830
S''
sS'YPL173W'
p4831
S''
sS'YDL130W-A'
p4832
S''
sS'YKL170W'
p4833
S''
sS'YKR023W'
p4834
S''
sS'YNL036W'
p4835
S''
sS'YOR115C'
p4836
S''
sS'YKL038W'
p4837
S''
sS'YIL129C'
p4838
S''
sS'YMR296C'
p4839
S'Lipid and steroid metabolism'
p4840
sS'YLR286C'
p4841
S'Cell wall'
p4842
sS'YNL016W'
p4843
S''
sS'YJL208C'
p4844
S''
sS'YLR384C'
p4845
S'Chromosome-related'
p4846
sS'YDR307W'
p4847
S'Glycan metabolism'
p4848
sS'YOR162C'
p4849
S''
sS'YLR421C'
p4850
S'Proteasome'
p4851
sS'YMR145C'
p4852
S'Oxidative phosphorylation'
p4853
sS'YDR161W'
p4854
S''
sS'YMR110C'
p4855
S''
sS'YDL212W'
p4856
S''
sS'YJR064W'
p4857
S'Chaperones and folding catalysts'
p4858
sS'YNL183C'
p4859
S'Other enzymes'
p4860
sS'YOR285W'
p4861
S''
sS'YJL002C'
p4862
S'Protein processing in endoplasmic reticulum'
p4863
sS'YML022W'
p4864
S'Purine metabolism'
p4865
sS'YMR029C'
p4866
S''
sS'YIR030C'
p4867
S''
sS'YDR074W'
p4868
S'Carbohydrate metabolism'
p4869
sS'YHR059W'
p4870
S''
sS'YMR087W'
p4871
S''
sS'YDL085W'
p4872
S'Oxidative phosphorylation'
p4873
sS'YAL014C'
p4874
S'SNARE interactions in vesicular transport'
p4875
sS'YGL017W'
p4876
S'Other enzymes'
p4877
sS'YKR018C'
p4878
S''
sS'YNL309W'
p4879
S''
sS'YER099C'
p4880
S'Pentose phosphate metabolism'
p4881
sS'YDL150W'
p4882
S'RNA polymerase'
p4883
sS'YJR048W'
p4884
S''
sS'YHR186C'
p4885
S''
sS'YLR174W'
p4886
S'TCA cycle and anaplerotic enzymes'
p4887
sS'YGL101W'
p4888
S''
sS'YAL053W'
p4889
S''
sS'YNL149C'
p4890
S''
sS'YGL095C'
p4891
S''
sS'YOR250C'
p4892
S'mRNA surveillance pathway'
p4893
sS'YHR001W-A'
p4894
S'Oxidative phosphorylation'
p4895
sS'YGR246C'
p4896
S''
sS'YJR119C'
p4897
S''
sS'YOR205C'
p4898
S''
sS'YLR359W'
p4899
S'Purine metabolism'
p4900
sS'YIL079C'
p4901
S'RNA degradation'
p4902
sS'YLR199C'
p4903
S''
sS'YDR329C'
p4904
S'Peroxisome'
p4905
sS'YIL142W'
p4906
S'Chaperones and folding catalysts'
p4907
sS'YFR025C'
p4908
S'Amino acid metabolism'
p4909
sS'YLR195C'
p4910
S'Other enzymes'
p4911
sS'YOR017W'
p4912
S''
sS'YHR005C'
p4913
S'GTP-binding signaling proteins'
p4914
sS'YDR311W'
p4915
S'Basal transcription factors'
p4916
sS'YPL198W'
p4917
S'Ribosome'
p4918
sS'YKL192C'
p4919
S'Oxidative phosphorylation'
p4920
sS'YKL185W'
p4921
S''
sS'YGL082W'
p4922
S''
sS'YDR310C'
p4923
S'Transcription factors'
p4924
sS'YPL146C'
p4925
S''
sS'YHL048W'
p4926
S''
sS'YPL139C'
p4927
S''
sS'YNL138W'
p4928
S''
sS'YNL154C'
p4929
S'Endocytosis'
p4930
sS'YPR098C'
p4931
S''
sS'YHR161C'
p4932
S''
sS'YNL001W'
p4933
S'mRNA surveillance pathway'
p4934
sS'YDL236W'
p4935
S'Other enzymes'
p4936
sS'YJL080C'
p4937
S''
sS'YCR067C'
p4938
S''
sS'YGL142C'
p4939
S'Glycan metabolism'
p4940
sS'YFR009W'
p4941
S''
sS'YGR179C'
p4942
S'Chromosome-related'
p4943
sS'YJR086W'
p4944
S'MAPK signaling pathway'
p4945
sS'YDR081C'
p4946
S''
sS'YJL137C'
p4947
S''
sS'YDR383C'
p4948
S''
sS'YKL065C'
p4949
S''
sS'YIL173W'
p4950
S''
sS'YBR139W'
p4951
S''
sS'YBR115C'
p4952
S'Amino acid metabolism'
p4953
sS'YBR140C'
p4954
S''
sS'YDR448W'
p4955
S'Chromosome-related'
p4956
sS'YJR111C'
p4957
S''
sS'YHR085W'
p4958
S''
sS'YHR188C'
p4959
S'Glycan metabolism'
p4960
sS'YBR052C'
p4961
S''
sS'YFL023W'
p4962
S''
sS'YER087C-B'
p4963
S'Protein export'
p4964
sS'YKL081W'
p4965
S'Translation factors'
p4966
sS'YDR361C'
p4967
S''
sS'YBR171W'
p4968
S'Secretion system'
p4969
sS'YKL196C'
p4970
S'SNARE interactions in vesicular transport'
p4971
sS'YMR162C'
p4972
S'Other enzymes'
p4973
sS'YJL157C'
p4974
S'MAPK signaling pathway'
p4975
sS'YLR226W'
p4976
S''
sS'YKL181W'
p4977
S'Pentose phosphate metabolism'
p4978
sS'YDL229W'
p4979
S'Chaperones and folding catalysts'
p4980
sS'YOL032W'
p4981
S''
sS'YHR027C'
p4982
S'Proteasome'
p4983
sS'YIL157C'
p4984
S''
sS'YGL255W'
p4985
S''
sS'YFR007W'
p4986
S''
sS'YBR083W'
p4987
S'Transcription factors'
p4988
sS'YKR090W'
p4989
S''
sS'YLR333C'
p4990
S'Ribosome'
p4991
sS'YHL030W'
p4992
S''
sS'YAR018C'
p4993
S'Other enzymes'
p4994
sS'YBR200W'
p4995
S'MAPK signaling pathway'
p4996
sS'YNL262W'
p4997
S'DNA replication complex'
p4998
sS'YAR028W'
p4999
S''
sS'YDR079C-A'
p5000
S'Basal transcription factors'
p5001
sS'YPL204W'
p5002
S'Endocytosis'
p5003
sS'YOL069W'
p5004
S'Cytoskeleton proteins'
p5005
sS'YNL075W'
p5006
S'Ribosome biogenesis in eukaryotes'
p5007
sS'YDR412W'
p5008
S''
sS'YDR129C'
p5009
S''
sS'YIL068C'
p5010
S''
sS'YBR302C'
p5011
S''
sS'YOR091W'
p5012
S''
sS'YGR026W'
p5013
S''
sS'YKL098W'
p5014
S''
sS'YML125C'
p5015
S''
sS'YER092W'
p5016
S'Chromosome-related'
p5017
sS'YDR288W'
p5018
S''
sS'YGL208W'
p5019
S''
sS'YNL284C'
p5020
S''
sS'YFR041C'
p5021
S''
sS'YIL050W'
p5022
S''
sS'YGR086C'
p5023
S''
sS'YBR133C'
p5024
S'RNA transport'
p5025
sS'YPL106C'
p5026
S'Chaperones and folding catalysts'
p5027
sS'YOL143C'
p5028
S'Cofactor biosynthesis'
p5029
sS'YAL034W-A'
p5030
S'Chromosome-related'
p5031
sS'YGR195W'
p5032
S'RNA degradation'
p5033
sS'YIL026C'
p5034
S'Chromosome-related'
p5035
sS'YGL151W'
p5036
S''
sS'YBR197C'
p5037
S''
sS'YHR147C'
p5038
S''
sS'YJR091C'
p5039
S''
sS'YGR031W'
p5040
S''
sS'YJL204C'
p5041
S''
sS'YGR124W'
p5042
S'Peptidases'
p5043
sS'YPL126W'
p5044
S'Ribosome biogenesis in eukaryotes'
p5045
sS'YBL017C'
p5046
S''
sS'YNL244C'
p5047
S'Translation factors'
p5048
sS'YNR027W'
p5049
S'Cofactor biosynthesis'
p5050
sS'YMR117C'
p5051
S'Cytoskeleton proteins'
p5052
sS'YAL024C'
p5053
S'Cell cycle'
p5054
sS'YOR348C'
p5055
S''
sS'YJR142W'
p5056
S''
sS'YJL197W'
p5057
S'Ubiquitin labeling'
p5058
sS'YMR213W'
p5059
S'Spliceosome'
p5060
sS'YBR233W-A'
p5061
S'Chromosome-related'
p5062
sS'YOR251C'
p5063
S'Sulfur relay system'
p5064
sS'YPR181C'
p5065
S'Protein processing in endoplasmic reticulum'
p5066
sS'YBR092C'
p5067
S'Cofactor biosynthesis'
p5068
sS'YMR173W'
p5069
S''
sS'YNL215W'
p5070
S'Chromosome-related'
p5071
sS'YDR529C'
p5072
S'Oxidative phosphorylation'
p5073
sS'YGR044C'
p5074
S'Transcription factors'
p5075
sS'YDL059C'
p5076
S'Homologous recombination'
p5077
sS'YOR204W'
p5078
S'Chromosome-related'
p5079
sS'YEL012W'
p5080
S'Ubiquitin mediated proteolysis'
p5081
sS'YDL006W'
p5082
S'Other enzymes'
p5083
sS'YER123W'
p5084
S'Other enzymes'
p5085
sS'YDR153C'
p5086
S''
sS'YDR382W'
p5087
S'Ribosome'
p5088
sS'YDR483W'
p5089
S'Glycan metabolism'
p5090
sS'YLL008W'
p5091
S'Ribosome biogenesis'
p5092
sS'YDR505C'
p5093
S''
sS'YKL206C'
p5094
S''
sS'YHR132W-A'
p5095
S''
sS'YLR022C'
p5096
S'Ribosome biogenesis in eukaryotes'
p5097
sS'YGR068C'
p5098
S''
sS'YOR390W'
p5099
S''
sS'YPL246C'
p5100
S''
sS'YOR246C'
p5101
S''
sS'YPL226W'
p5102
S'Translation factors'
p5103
sS'YDR397C'
p5104
S''
sS'YLR375W'
p5105
S''
sS'YGL039W'
p5106
S''
sS'YER183C'
p5107
S'Other central metabolism enzymes'
p5108
sS'YML018C'
p5109
S''
sS'YDL044C'
p5110
S''
sS'YOL021C'
p5111
S'RNA degradation'
p5112
sS'YHR030C'
p5113
S'MAPK signaling pathway'
p5114
sS'YMR319C'
p5115
S''
sS'YMR235C'
p5116
S'RNA transport'
p5117
sS'YKL018W'
p5118
S'mRNA surveillance pathway'
p5119
sS'YEL034W'
p5120
S'Translation factors'
p5121
sS'YHL001W'
p5122
S'Ribosome'
p5123
sS'YNR050C'
p5124
S'Amino acid metabolism'
p5125
sS'YOR373W'
p5126
S'Cytoskeleton proteins'
p5127
sS'YHR091C'
p5128
S'tRNA loading'
p5129
sS'YKR100C'
p5130
S''
sS'YCL017C'
p5131
S'Sulfur relay system'
p5132
sS'YPL228W'
p5133
S'Other enzymes'
p5134
sS'YOR260W'
p5135
S'Translation factors'
p5136
sS'YPL260W'
p5137
S''
sS'YML110C'
p5138
S'Cofactor biosynthesis'
p5139
sS'YOL010W'
p5140
S'Ribosome biogenesis in eukaryotes'
p5141
sS'YNL271C'
p5142
S'MAPK signaling pathway'
p5143
sS'YER058W'
p5144
S''
sS'YGL048C'
p5145
S'Proteasome'
p5146
sS'YMR193W'
p5147
S''
sS'YCR053W'
p5148
S'Amino acid metabolism'
p5149
sS'YER072W'
p5150
S''
sS'YKL106W'
p5151
S'Amino acid metabolism'
p5152
sS'YGL019W'
p5153
S'Ribosome biogenesis in eukaryotes'
p5154
sS'YNL330C'
p5155
S'Chromosome-related'
p5156
sS'YGR201C'
p5157
S''
sS'YER047C'
p5158
S''
sS'YOR138C'
p5159
S''
sS'YPR029C'
p5160
S''
sS'YMR144W'
p5161
S''
sS'YHR036W'
p5162
S''
sS'YCR066W'
p5163
S'Ubiquitin labeling'
p5164
sS'YML098W'
p5165
S'Basal transcription factors'
p5166
sS'YJL034W'
p5167
S'Chaperones and folding catalysts'
p5168
sS'YLR420W'
p5169
S'Pyrimidine metabolism'
p5170
sS'YCR088W'
p5171
S''
sS'YDR208W'
p5172
S'Phosphatidylinositol signaling system'
p5173
sS'YHR087W'
p5174
S''
sS'YFL048C'
p5175
S''
sS'YLR117C'
p5176
S'Spliceosome'
p5177
sS'YGR220C'
p5178
S''
sS'YBR014C'
p5179
S''
sS'YML052W'
p5180
S''
sS'YPL012W'
p5181
S''
sS'YLR299W'
p5182
S'Peptidases'
p5183
sS'YOR176W'
p5184
S'Cofactor biosynthesis'
p5185
sS'YHR187W'
p5186
S'Chromosome-related'
p5187
sS'YOR109W'
p5188
S'Phosphatidylinositol signaling system'
p5189
sS'YGR275W'
p5190
S''
sS'YMR071C'
p5191
S''
sS'YOR286W'
p5192
S''
sS'YGR021W'
p5193
S''
sS'YDL084W'
p5194
S'Spliceosome'
p5195
sS'YGL016W'
p5196
S''
sS'YOL103W-B'
p5197
S''
sS'YCR073W-A'
p5198
S'Pentose phosphate metabolism'
p5199
sS'YMR120C'
p5200
S'Other central metabolism enzymes'
p5201
sS'YKL114C'
p5202
S'Base excision repair'
p5203
sS'YBL046W'
p5204
S''
sS'YOR143C'
p5205
S'Cofactor biosynthesis'
p5206
sS'YDR119W'
p5207
S''
sS'YDR490C'
p5208
S''
sS'YER005W'
p5209
S'Cellular antigens'
p5210
sS'YER105C'
p5211
S''
sS'YGL160W'
p5212
S''
sS'YBL054W'
p5213
S''
sS'YCR024C'
p5214
S'tRNA loading'
p5215
sS'YML045W'
p5216
S''
sS'YBL104C'
p5217
S''
sS'YKL165C'
p5218
S'Glycan metabolism'
p5219
sS'YCR071C'
p5220
S''
sS'YLR009W'
p5221
S'Ribosome'
p5222
sS'YPR144C'
p5223
S''
sS'YLR119W'
p5224
S''
sS'YDR175C'
p5225
S''
sS'YLR082C'
p5226
S''
sS'YPR034W'
p5227
S'Chromosome-related'
p5228
sS'YOR189W'
p5229
S'Chromosome-related'
p5230
sS'YOR154W'
p5231
S''
sS'YDL122W'
p5232
S'Ubiquitin labeling'
p5233
sS'YMR264W'
p5234
S'Protein processing in endoplasmic reticulum'
p5235
sS'YPR018W'
p5236
S''
sS'YGL139W'
p5237
S''
sS'YLL038C'
p5238
S''
sS'YOR280C'
p5239
S''
sS'YMR086W'
p5240
S''
sS'YGR007W'
p5241
S'Lipid and steroid metabolism'
p5242
sS'YNL315C'
p5243
S''
sS'YPR174C'
p5244
S''
sS'YJR045C'
p5245
S'Chaperones and folding catalysts'
p5246
sS'YLR385C'
p5247
S'Chromosome-related'
p5248
sS'YOL124C'
p5249
S''
sS'YIL125W'
p5250
S'TCA cycle and anaplerotic enzymes'
p5251
sS'YMR295C'
p5252
S''
sS'YMR008C'
p5253
S'Lipid and steroid metabolism'
p5254
sS'YJL136C'
p5255
S'Ribosome'
p5256
sS'YKL148C'
p5257
S'TCA cycle and anaplerotic enzymes'
p5258
sS'YJL117W'
p5259
S''
sS'YJL076W'
p5260
S'Cell cycle'
p5261
sS'YKL062W'
p5262
S'Transcription factors'
p5263
sS'YLR238W'
p5264
S''
sS'YDR080W'
p5265
S''
sS'YJR010W'
p5266
S'Purine metabolism'
p5267
sS'YPL176C'
p5268
S''
sS'YHR165C'
p5269
S'Spliceosome'
p5270
sS'YJR015W'
p5271
S''
sS'YKL028W'
p5272
S'Basal transcription factors'
p5273
sS'YIL126W'
p5274
S'Chromosome-related'
p5275
sS'YLR221C'
p5276
S''
sS'YDR093W'
p5277
S'Other enzymes'
p5278
sS'YMR282C'
p5279
S''
sS'YIL109C'
p5280
S'Protein processing in endoplasmic reticulum'
p5281
sS'YGR210C'
p5282
S''
sS'YPL070W'
p5283
S''
sS'YLR361C'
p5284
S''
sS'YOR085W'
p5285
S'Protein processing in endoplasmic reticulum'
p5286
sS'YFL022C'
p5287
S'tRNA loading'
p5288
sS'YJL156C'
p5289
S''
sS'YNL253W'
p5290
S'Spliceosome'
p5291
sS'YKL082C'
p5292
S''
sS'YNL071W'
p5293
S'Glycolysis'
p5294
sS'YDR222W'
p5295
S''
sS'YKL166C'
p5296
S'MAPK signaling pathway'
p5297
sS'YJR007W'
p5298
S'Translation factors'
p5299
sS'YGR211W'
p5300
S''
sS'YKL139W'
p5301
S'Other enzymes'
p5302
sS'YDL093W'
p5303
S'Glycan metabolism'
p5304
sS'YJL069C'
p5305
S'Ribosome biogenesis in eukaryotes'
p5306
sS'YLR168C'
p5307
S''
sS'YFL027C'
p5308
S''
sS'YHR047C'
p5309
S''
sS'YIR002C'
p5310
S'DNA repair and recombination proteins'
p5311
sS'YGL001C'
p5312
S'Lipid and steroid metabolism'
p5313
sS'YMR291W'
p5314
S''
sS'YER087W'
p5315
S'tRNA loading'
p5316
sS'YMR024W'
p5317
S''
sS'YPR156C'
p5318
S''
sS'YDR359C'
p5319
S'Chromosome-related'
p5320
sS'YKL124W'
p5321
S''
sS'YDR304C'
p5322
S'Chaperones and folding catalysts'
p5323
sS'YNL026W'
p5324
S''
sS'YDL219W'
p5325
S''
sS'YOR136W'
p5326
S'TCA cycle and anaplerotic enzymes'
p5327
sS'YDR266C'
p5328
S''
sS'YDR206W'
p5329
S'DNA replication control'
p5330
sS'YOR116C'
p5331
S'RNA polymerase'
p5332
sS'YKR024C'
p5333
S''
sS'YNL037C'
p5334
S'TCA cycle and anaplerotic enzymes'
p5335
sS'YFL013C'
p5336
S'Chromosome-related'
p5337
sS'YPL063W'
p5338
S''
sS'YKL140W'
p5339
S'Biosynthesis of other secondary metabolites'
p5340
sS'YFR040W'
p5341
S''
sS'YML124C'
p5342
S'Cytoskeleton proteins'
p5343
sS'YIL107C'
p5344
S'Carbohydrate metabolism'
p5345
sS'YOL142W'
p5346
S'RNA degradation'
p5347
sS'YDR287W'
p5348
S'Phosphatidylinositol signaling system'
p5349
sS'YDR405W'
p5350
S''
sS'YLR303W'
p5351
S'Amino acid metabolism'
p5352
sS'YGR055W'
p5353
S''
sS'YGL041W-A'
p5354
S''
sS'YCL031C'
p5355
S'Ribosome biogenesis in eukaryotes'
p5356
sS'YIL027C'
p5357
S''
sS'YPL127C'
p5358
S'Chromosome-related'
p5359
sS'YGL156W'
p5360
S'Glycan metabolism'
p5361
sS'YGR152C'
p5362
S'GTP-binding signaling proteins'
p5363
sS'YOR061W'
p5364
S'Ribosome biogenesis in eukaryotes'
p5365
sS'YNR026C'
p5366
S''
sS'YLR190W'
p5367
S''
sS'YGR147C'
p5368
S'Other enzymes'
p5369
sS'YDR002W'
p5370
S''
sS'YOR311C'
p5371
S''
sS'YMR039C'
p5372
S''
sS'YAL025C'
p5373
S''
sS'YDR046C'
p5374
S''
sS'YDR305C'
p5375
S'Purine metabolism'
p5376
sS'YGL094C'
p5377
S'RNA degradation'
p5378
sS'YNL039W'
p5379
S''
sS'YBR170C'
p5380
S'Protein processing in endoplasmic reticulum'
p5381
sS'YGR030C'
p5382
S'Ribosome biogenesis in eukaryotes'
p5383
sS'YOR084W'
p5384
S''
sS'YGR130C'
p5385
S''
sS'YKL051W'
p5386
S''
sS'YDR458C'
p5387
S''
sS'YJR118C'
p5388
S''
sS'YOR016C'
p5389
S''
sS'YJR121W'
p5390
S'Oxidative phosphorylation'
p5391
sS'YGR165W'
p5392
S''
sS'YCL010C'
p5393
S'Chromosome-related'
p5394
sS'YGR128C'
p5395
S'Ribosome biogenesis in eukaryotes'
p5396
sS'YER166W'
p5397
S'Other enzymes'
p5398
sS'YDR313C'
p5399
S''
sS'YIL047C'
p5400
S''
sS'YLR245C'
p5401
S'Pyrimidine metabolism'
p5402
sS'YKL193C'
p5403
S''
sS'YNL153C'
p5404
S'Chaperones and folding catalysts'
p5405
sS'YPR139C'
p5406
S''
sS'YBR214W'
p5407
S''
sS'YLR310C'
p5408
S''
sS'YDL237W'
p5409
S''
sS'YJL141C'
p5410
S'Other enzymes'
p5411
sS'YBR249C'
p5412
S'Amino acid metabolism'
p5413
sS'YCL035C'
p5414
S''
sS'YFR008W'
p5415
S''
sS'YNL102W'
p5416
S'DNA replication complex'
p5417
sS'YOL077C'
p5418
S''
sS'YDR137W'
p5419
S''
sS'YHR031C'
p5420
S''
sS'YBR084W'
p5421
S'Other central metabolism enzymes'
p5422
sS'YLR003C'
p5423
S''
sS'YDL061C'
p5424
S'Ribosome'
p5425
sS'YLR337C'
p5426
S''
sS'YIL010W'
p5427
S'Other enzymes'
p5428
sS'YOR261C'
p5429
S'Proteasome'
p5430
sS'YNR051C'
p5431
S''
sS'YGR187C'
p5432
S''
sS'YDR056C'
p5433
S''
sS'YHR122W'
p5434
S''
sS'YDR390C'
p5435
S'Ubiquitin mediated proteolysis'
p5436
sS'YOR229W'
p5437
S''
sS'YKL164C'
p5438
S'Cell wall'
p5439
sS'YEL024W'
p5440
S'Oxidative phosphorylation'
p5441
sS'YJR010C-A'
p5442
S'Amino acid metabolism'
p5443
sS'YML031W'
p5444
S'RNA transport'
p5445
sS'YDR006C'
p5446
S''
sS'YGR005C'
p5447
S'Basal transcription factors'
p5448
sS'YBL032W'
p5449
S''
sS'YGL049C'
p5450
S'RNA transport'
p5451
sS'YDR023W'
p5452
S'tRNA loading'
p5453
sS'YFR052W'
p5454
S'Proteasome'
p5455
sS'YER141W'
p5456
S'Oxidative phosphorylation'
p5457
sS'YCR052W'
p5458
S'Chromosome-related'
p5459
sS'YNL209W'
p5460
S'Chaperones and folding catalysts'
p5461
sS'YBR272C'
p5462
S''
sS'YLR327C'
p5463
S''
sS'YDR298C'
p5464
S'Oxidative phosphorylation'
p5465
sS'YDR011W'
p5466
S'Transport'
p5467
sS'YOR272W'
p5468
S''
sS'YMR184W'
p5469
S''
sS'YOL059W'
p5470
S'Lipid and steroid metabolism'
p5471
sS'YPR097W'
p5472
S''
sS'YHL031C'
p5473
S'SNARE interactions in vesicular transport'
p5474
sS'YML100W'
p5475
S'Carbohydrate metabolism'
p5476
sS'YOL151W'
p5477
S''
sS'YDR425W'
p5478
S''
sS'YHR026W'
p5479
S'Phagosome'
p5480
sS'YOR358W'
p5481
S''
sS'YER036C'
p5482
S''
sS'YDR005C'
p5483
S''
sS'YNL238W'
p5484
S'Chaperones and folding catalysts'
p5485
sS'YOR090C'
p5486
S''
sS'YBR281C'
p5487
S'Peptidases'
p5488
sS'YJL198W'
p5489
S''
sS'YPL207W'
p5490
S''
sS'YKL138C-A'
p5491
S'Chromosome-related'
p5492
sS'YDR197W'
p5493
S''
sS'YGR027C'
p5494
S'Ribosome'
p5495
sS'YOL135C'
p5496
S''
sS'YOR323C'
p5497
S'Amino acid metabolism'
p5498
sS'YLL041C'
p5499
S'TCA cycle and anaplerotic enzymes'
p5500
sS'YML106W'
p5501
S'Pyrimidine metabolism'
p5502
sS'YCR009C'
p5503
S''
sS'YCL054W'
p5504
S'Amino acid metabolism'
p5505
sS'YMR169C'
p5506
S'Glycolysis'
p5507
sS'YOR195W'
p5508
S'Cell cycle'
p5509
sS'YLR118C'
p5510
S''
sS'YER006W'
p5511
S'Ribosome biogenesis in eukaryotes'
p5512
sS'YGL117W'
p5513
S''
sS'YLR182W'
p5514
S'Transcription factors'
p5515
sS'YMR105C'
p5516
S'Glycolysis'
p5517
sS'YER182W'
p5518
S''
sS'YLL034C'
p5519
S'Ribosome biogenesis in eukaryotes'
p5520
sS'YML042W'
p5521
S'Peroxisome'
p5522
sS'YBL105C'
p5523
S'MAPK signaling pathway'
p5524
sS'YMR251W-A'
p5525
S''
sS'YKR060W'
p5526
S''
sS'YDR069C'
p5527
S'Ubiquitin labeling'
p5528
sS'YKR048C'
p5529
S'Chromosome-related'
p5530
sS'YOR144C'
p5531
S'DNA replication control'
p5532
sS'YGR232W'
p5533
S''
sS'YEL066W'
p5534
S''
sS'YEL046C'
p5535
S'Amino acid metabolism'
p5536
sS'YBL055C'
p5537
S''
sS'YPR035W'
p5538
S'Amino acid metabolism'
p5539
sS'YDL189W'
p5540
S''
sS'YLL018C'
p5541
S'tRNA loading'
p5542
sS'YBR276C'
p5543
S'Transport'
p5544
sS'YDR227W'
p5545
S'DNA replication control'
p5546
sS'YPR060C'
p5547
S'Amino acid metabolism'
p5548
sS'YML008C'
p5549
S'Lipid and steroid metabolism'
p5550
sS'YPR019W'
p5551
S'DNA replication complex'
p5552
sS'YDR174W'
p5553
S''
sS'YMR265C'
p5554
S''
sS'YML073C'
p5555
S'Ribosome'
p5556
sS'YGL137W'
p5557
S''
sS'YOR155C'
p5558
S''
sS'YNL236W'
p5559
S''
sS'YHR143W-A'
p5560
S'RNA polymerase'
p5561
sS'YCR072C'
p5562
S''
sS'YBR044C'
p5563
S''
sS'YOR287C'
p5564
S''
sS'YCL009C'
p5565
S'Amino acid metabolism'
p5566
sS'YDL072C'
p5567
S'Protein processing in endoplasmic reticulum'
p5568
sS'YER159C'
p5569
S''
sS'YDL005C'
p5570
S''
sS'YER122C'
p5571
S'Endocytosis'
p5572
sS'YHR113W'
p5573
S''
sS'YMR212C'
p5574
S''
sS'YER048W-A'
p5575
S''
sS'YBR093C'
p5576
S'Cofactor biosynthesis'
p5577
sS'YPR182W'
p5578
S'Spliceosome'
p5579
sS'YJL196C'
p5580
S'Lipid and steroid metabolism'
p5581
sS'YGL054C'
p5582
S''
sS'YGL025C'
p5583
S''
sS'YLR021W'
p5584
S''
sS'YOL126C'
p5585
S'TCA cycle and anaplerotic enzymes'
p5586
sS'YLR058C'
p5587
S'Other central metabolism enzymes'
p5588
sS'YLR134W'
p5589
S'Amino acid metabolism'
p5590
sS'YNL068C'
p5591
S''
sS'YDR058C'
p5592
S'Lipid and steroid metabolism'
p5593
sS'YGL038C'
p5594
S'Glycan metabolism'
p5595
sS'YLR074C'
p5596
S''
sS'YNL216W'
p5597
S'Transcription factors'
p5598
sS'YKL207W'
p5599
S''
sS'YLR405W'
p5600
S'Other enzymes'
p5601
sS'YPL225W'
p5602
S''
sS'YPL270W'
p5603
S''
sS'YDR489W'
p5604
S'DNA replication control'
p5605
sS'YPL249C'
p5606
S''
sS'YHR023W'
p5607
S'Cytoskeleton proteins'
p5608
sS'YJL024C'
p5609
S''
sS'YPR148C'
p5610
S''
sS'YER031C'
p5611
S'GTP-binding signaling proteins'
p5612
sS'YMR089C'
p5613
S'Chaperones and folding catalysts'
p5614
sS'YDR345C'
p5615
S'Transport'
p5616
sS'YJL177W'
p5617
S'Ribosome'
p5618
sS'YGL002W'
p5619
S''
sS'YLR430W'
p5620
S''
sS'YOR108W'
p5621
S''
sS'YPL118W'
p5622
S''
sS'YJL068C'
p5623
S'Other enzymes'
p5624
sS'YBR065C'
p5625
S'Spliceosome'
p5626
sS'YKL112W'
p5627
S'Transcription factors'
p5628
sS'YNL054W'
p5629
S''
sS'YHR046C'
p5630
S'Phosphatidylinositol signaling system'
p5631
sS'YDR156W'
p5632
S'RNA polymerase'
p5633
sS'YMR130W'
p5634
S''
sS'YPR155C'
p5635
S''
sS'YHR179W'
p5636
S'Other enzymes'
p5637
sS'YOR117W'
p5638
S'Proteasome'
p5639
sS'YNL049C'
p5640
S''
sS'YGL195W'
p5641
S''
sS'YKL172W'
p5642
S''
sS'YKR025W'
p5643
S'RNA polymerase'
p5644
sS'YBR271W'
p5645
S''
sS'YMR290C'
p5646
S'Ribosome biogenesis'
p5647
sS'YDL141W'
p5648
S'Cofactor biosynthesis'
p5649
sS'YDR205W'
p5650
S''
sS'YJR059W'
p5651
S''
sS'YIL007C'
p5652
S''
sS'YLR206W'
p5653
S'Endocytosis'
p5654
sS'YER088C'
p5655
S''
sS'YLR284C'
p5656
S''
sS'YDR358W'
p5657
S''
sS'YDR508C'
p5658
S''
sS'YPR028W'
p5659
S''
sS'YNL185C'
p5660
S''
sS'YLR096W'
p5661
S''
sS'YCL043C'
p5662
S'Chaperones and folding catalysts'
p5663
sS'YBR166C'
p5664
S'Amino acid metabolism'
p5665
sS'YKR052C'
p5666
S''
sS'YMR047C'
p5667
S'RNA transport'
p5668
sS'YPR107C'
p5669
S'mRNA surveillance pathway'
p5670
sS'YLR427W'
p5671
S''
sS'R0020C'
p5672
S''
sS'YHR086W'
p5673
S''
sS'YGR274C'
p5674
S'Basal transcription factors'
p5675
sS'YLR100W'
p5676
S'Lipid and steroid metabolism'
p5677
sS'YBR015C'
p5678
S'Glycan metabolism'
p5679
sS'YML055W'
p5680
S'Protein export'
p5681
sS'YML088W'
p5682
S''
sS'YJR066W'
p5683
S'ErbB signaling pathway'
p5684
sS'YLR116W'
p5685
S''
sS'YER008C'
p5686
S''
sS'YPL013C'
p5687
S''
sS'YDR210W'
p5688
S''
s.