(dp1
S'YBR177C'
p2
S''
sS'YIL140W'
p3
S''
sS'YLR268W'
p4
S'SNARE interactions in vesicular transport'
p5
sS'YLR357W'
p6
S'Chromosome-related'
p7
sS'YJL155C'
p8
S'Carbohydrate metabolism'
p9
sS'YLR197W'
p10
S'Ribosome biogenesis in eukaryotes'
p11
sS'YAL008W'
p12
S''
sS'YBR255W'
p13
S''
sS'YJL122W'
p14
S''
sS'YAL056W'
p15
S''
sS'YGR148C'
p16
S'Ribosome'
p17
sS'YJR122W'
p18
S''
sS'YPL040C'
p19
S'tRNA loading'
p20
sS'YLR244C'
p21
S'Peptidases'
p22
sS'YPL144W'
p23
S''
sS'YBR111W-A'
p24
S'Chromosome-related'
p25
sS'YJR084W'
p26
S''
sS'YLR233C'
p27
S'DNA replication control'
p28
sS'YBR160W'
p29
S'Cell cycle'
p30
sS'YNR007C'
p31
S'Ubiquitin labeling'
p32
sS'YJL082W'
p33
S''
sS'YHR007C'
p34
S'Lipid and steroid metabolism'
p35
sS'YIL095W'
p36
S''
sS'YIR004W'
p37
S''
sS'YPR133W-A'
p38
S''
sS'YPL191C'
p39
S''
sS'YKL190W'
p40
S''
sS'YLR395C'
p41
S'Oxidative phosphorylation'
p42
sS'YDR312W'
p43
S''
sS'YLR348C'
p44
S''
sS'YBR248C'
p45
S'Amino acid metabolism'
p46
sS'YAL023C'
p47
S'Glycan metabolism'
p48
sS'YNR067C'
p49
S'Cell wall'
p50
sS'YNL152W'
p51
S''
sS'YLR382C'
p52
S'tRNA loading'
p53
sS'YKL063C'
p54
S''
sS'YFL045C'
p55
S'Carbohydrate metabolism'
p56
sS'YFL010C'
p57
S''
sS'YDR141C'
p58
S''
sS'YJL131C'
p59
S''
sS'YDL170W'
p60
S'Transcription factors'
p61
sS'YBR117C'
p62
S'Pentose phosphate metabolism'
p63
sS'YIL124W'
p64
S'Lipid and steroid metabolism'
p65
sS'YLR219W'
p66
S''
sS'YKL048C'
p67
S'Other enzymes'
p68
sS'YDR083W'
p69
S''
sS'YMR009W'
p70
S'Amino acid metabolism'
p71
sS'YOR123C'
p72
S''
sS'YJL179W'
p73
S'Chaperones and folding catalysts'
p74
sS'YKL183W'
p75
S''
sS'YLR189C'
p76
S'Glycan metabolism'
p77
sS'YFL021W'
p78
S'Transcription factors'
p79
sS'YLR362W'
p80
S'MAPK signaling pathway'
p81
sS'YOR377W'
p82
S'Other enzymes'
p83
sS'YMR283C'
p84
S'Other enzymes'
p85
sS'YKL134C'
p86
S'Peptidases'
p87
sS'YKL029C'
p88
S'Glycolysis'
p89
sS'YNL163C'
p90
S'Translation factors'
p91
sS'YBR273C'
p92
S''
sS'YFR005C'
p93
S'Spliceosome'
p94
sS'YHR009C'
p95
S''
sS'YAL026C'
p96
S'Other enzymes'
p97
sS'YOL034W'
p98
S''
sS'YJR135W-A'
p99
S''
sS'YFR050C'
p100
S'Proteasome'
p101
sS'YBL008W'
p102
S'Chromosome-related'
p103
sS'YLR447C'
p104
S'Phagosome'
p105
sS'YGR089W'
p106
S''
sS'YGL237C'
p107
S''
sS'YOL058W'
p108
S'Amino acid metabolism'
p109
sS'YIL062C'
p110
S'Regulation of actin cytoskeleton'
p111
sS'YNL295W'
p112
S''
sS'YAR035W'
p113
S'Peroxisome'
p114
sS'YNR032C-A'
p115
S''
sS'YDR299W'
p116
S''
sS'YML129C'
p117
S''
sS'YDR196C'
p118
S'Cofactor biosynthesis'
p119
sS'YBR202W'
p120
S'DNA replication complex'
p121
sS'YNL239W'
p122
S'Peptidases'
p123
sS'YDR410C'
p124
S'Other enzymes'
p125
sS'YNL255C'
p126
S'Transcription factors'
p127
sS'YGR020C'
p128
S'Phagosome'
p129
sS'YNR045W'
p130
S''
sS'YML105C'
p131
S'Protein export'
p132
sS'YLL040C'
p133
S''
sS'YIL091C'
p134
S''
sS'YMR172W'
p135
S''
sS'YNL137C'
p136
S''
sS'YPL104W'
p137
S'tRNA loading'
p138
sS'YNL103W'
p139
S''
sS'YAL046C'
p140
S''
sS'YDR198C'
p141
S''
sS'YAL039C'
p142
S'Cofactor biosynthesis'
p143
sS'YNR018W'
p144
S''
sS'YKL059C'
p145
S'mRNA surveillance pathway'
p146
sS'YDL185W'
p147
S'Oxidative phosphorylation'
p148
sS'YFR047C'
p149
S'Cofactor biosynthesis'
p150
sS'YGR100W'
p151
S''
sS'YFR037C'
p152
S'Chromosome-related'
p153
sS'YNL240C'
p154
S''
sS'YBR159W'
p155
S'Lipid and steroid metabolism'
p156
sS'YML127W'
p157
S'Chromosome-related'
p158
sS'YCL030C'
p159
S'Amino acid metabolism'
p160
sS'YHR078W'
p161
S''
sS'YGR084C'
p162
S''
sS'YAL049C'
p163
S''
sS'YDR399W'
p164
S''
sS'YHR141C'
p165
S'Ribosome'
p166
sS'YLR355C'
p167
S'Amino acid metabolism'
p168
sS'YJR110W'
p169
S''
sS'YGL157W'
p170
S''
sS'YPL128C'
p171
S''
sS'YBL015W'
p172
S'Pyruvate metabolism'
p173
sS'YOL090W'
p174
S'Mismatch repair'
p175
sS'YLR300W'
p176
S'Cell wall'
p177
sS'YJL091C'
p178
S'Glycan metabolism'
p179
sS'YJR140C'
p180
S''
sS'YJR095W'
p181
S''
sS'YNR021W'
p182
S''
sS'YJL003W'
p183
S''
sS'YPL067C'
p184
S''
sS'YDR380W'
p185
S'Amino acid metabolism'
p186
sS'YGR191W'
p187
S''
sS'YBR094W'
p188
S''
sS'YHR112C'
p189
S''
sS'YDR035W'
p190
S'Amino acid metabolism'
p191
sS'YMR224C'
p192
S'DNA replication control'
p193
sS'YPL156C'
p194
S''
sS'YDR485C'
p195
S'Chromosome-related'
p196
sS'YGR077C'
p197
S''
sS'YNL321W'
p198
S''
sS'YIL044C'
p199
S'Endocytosis'
p200
sS'YPL239W'
p201
S''
sS'YNL197C'
p202
S''
sS'YPR183W'
p203
S'Glycan metabolism'
p204
sS'YOR206W'
p205
S''
sS'YOR018W'
p206
S''
sS'YLR133W'
p207
S'Lipid and steroid metabolism'
p208
sS'YNL091W'
p209
S''
sS'YCR046C'
p210
S''
sS'YLR059C'
p211
S'Ribosome biogenesis in eukaryotes'
p212
sS'YLR075W'
p213
S'Ribosome'
p214
sS'YBR054W'
p215
S''
sS'YDR507C'
p216
S'Cell cycle'
p217
sS'YPL224C'
p218
S''
sS'YEL007W'
p219
S''
sS'YLR020C'
p220
S''
sS'YNL217W'
p221
S''
sS'YKL204W'
p222
S''
sS'YER067W'
p223
S''
sS'YDL042C'
p224
S'Cofactor biosynthesis'
p225
sS'YBR096W'
p226
S''
sS'YDR531W'
p227
S'Cofactor biosynthesis'
p228
sS'YMR233W'
p229
S''
sS'YPL206C'
p230
S'Lipid and steroid metabolism'
p231
sS'YDL060W'
p232
S''
sS'YLR002C'
p233
S''
sS'YDR393W'
p234
S''
sS'YGL171W'
p235
S''
sS'YIR022W'
p236
S'Protein export'
p237
sS'YNR052C'
p238
S'RNA degradation'
p239
sS'YGR019W'
p240
S'Butanoate metabolism'
p241
sS'YMR194W'
p242
S'Ribosome'
p243
sS'YEL032W'
p244
S'DNA replication'
p245
sS'YOL076W'
p246
S''
sS'YER145C'
p247
S''
sS'YER110C'
p248
S''
sS'YOR236W'
p249
S'Other central metabolism enzymes'
p250
sS'YBL033C'
p251
S'Cofactor biosynthesis'
p252
sS'YKL074C'
p253
S''
sS'YPL266W'
p254
S'Ribosome biogenesis'
p255
sS'YMR026C'
p256
S'Peroxisome'
p257
sS'YHR203C'
p258
S'Ribosome'
p259
sS'YER050C'
p260
S''
sS'YOR304W'
p261
S''
sS'YBR212W'
p262
S''
sS'YJR133W'
p263
S''
sS'YER129W'
p264
S'Other enzymes'
p265
sS'YML112W'
p266
S'Other enzymes'
p267
sS'YGL062W'
p268
S'TCA cycle and anaplerotic enzymes'
p269
sS'YGR183C'
p270
S'Oxidative phosphorylation'
p271
sS'YER169W'
p272
S''
sS'YOL016C'
p273
S'Other enzymes'
p274
sS'YOR226C'
p275
S''
sS'YGL241W'
p276
S''
sS'YNL277W'
p277
S'Amino acid metabolism'
p278
sS'YLR108C'
p279
S''
sS'YNL186W'
p280
S'Ubiquitin labeling'
p281
sS'YPR176C'
p282
S'Cofactor biosynthesis'
p283
sS'YCL044C'
p284
S''
sS'YKR008W'
p285
S'Chromosome-related'
p286
sS'YMR146C'
p287
S'Translation factors'
p288
sS'YPR165W'
p289
S'GTP-binding signaling proteins'
p290
sS'YDR226W'
p291
S'Purine metabolism'
p292
sS'YMR266W'
p293
S''
sS'YKL100C'
p294
S''
sS'YGL159W'
p295
S''
sS'YCR060W'
p296
S''
sS'YJL036W'
p297
S''
sS'YGR277C'
p298
S'Cofactor biosynthesis'
p299
sS'YER009W'
p300
S''
sS'YBR036C'
p301
S''
sS'YLR292C'
p302
S'Secretion system'
p303
sS'YDL139C'
p304
S''
sS'YDR246W'
p305
S''
sS'YOR288C'
p306
S'Chaperones and folding catalysts'
p307
sS'YGR241C'
p308
S''
sS'YMR079W'
p309
S''
sS'YLR115W'
p310
S'mRNA surveillance pathway'
p311
sS'YNL288W'
p312
S'RNA degradation'
p313
sS'YGR056W'
p314
S'Chromosome-related'
p315
sS'YML054C'
p316
S'Glycolysis'
p317
sS'YLR179C'
p318
S''
sS'YGL014W'
p319
S''
sS'YOR301W'
p320
S''
sS'YLR068W'
p321
S''
sS'YOR245C'
p322
S''
sS'YER007W'
p323
S''
sS'YOR141C'
p324
S'Chromosome-related'
p325
sS'YER027C'
p326
S''
sS'YMR104C'
p327
S'Other enzymes'
p328
sS'YPR056W'
p329
S'Basal transcription factors'
p330
sS'YER107C'
p331
S'RNA transport'
p332
sS'YDL195W'
p333
S'Protein processing in endoplasmic reticulum'
p334
sS'YNL199C'
p335
S''
sS'YJR011C'
p336
S''
sS'YDR117C'
p337
S''
sS'YOR196C'
p338
S'Cofactor biosynthesis'
p339
sS'YMR246W'
p340
S'Other enzymes'
p341
sS'YGL173C'
p342
S'Ribosome biogenesis in eukaryotes'
p343
sS'YEL047C'
p344
S''
sS'YPR036W'
p345
S'Phagosome'
p346
sS'YPR016C'
p347
S'Translation factors'
p348
sS'YCR087C-A'
p349
S''
sS'YGR235C'
p350
S''
sS'YDR068W'
p351
S''
sS'YDL055C'
p352
S'Carbohydrate metabolism'
p353
sS'YBR009C'
p354
S'Chromosome-related'
p355
sS'YEL043W'
p356
S''
sS'YML009C'
p357
S''
sS'YML072C'
p358
S''
sS'YHR052W'
p359
S''
sS'YDR142C'
p360
S'Peroxisome'
p361
sS'YKR026C'
p362
S'Translation factors'
p363
sS'YFL044C'
p364
S'Protein processing in endoplasmic reticulum'
p365
sS'YJR043C'
p366
S'DNA replication complex'
p367
sS'YPL263C'
p368
S''
sS'YKL019W'
p369
S'Cofactor biosynthesis'
p370
sS'YJL130C'
p371
S'Pyrimidine metabolism'
p372
sS'YKL060C'
p373
S'Glycolysis'
p374
sS'YBL085W'
p375
S''
sS'YKL173W'
p376
S'Spliceosome'
p377
sS'YGR200C'
p378
S'Chromosome-related'
p379
sS'YLR383W'
p380
S''
sS'YKL035W'
p381
S'Carbohydrate metabolism'
p382
sS'YIL127C'
p383
S''
sS'YDR348C'
p384
S''
sS'YLR388W'
p385
S'Ribosome'
p386
sS'YKL182W'
p387
S'Lipid and steroid metabolism'
p388
sS'YDR469W'
p389
S''
sS'YDR333C'
p390
S''
sS'YKL018C-A'
p391
S''
sS'YNL160W'
p392
S''
sS'YDR143C'
p393
S''
sS'YMR013C'
p394
S'Glycan metabolism'
p395
sS'YLR223C'
p396
S''
sS'YKL135C'
p397
S''
sS'YDR326C'
p398
S''
sS'YLR363C'
p399
S''
sS'YJL046W'
p400
S'Cofactor biosynthesis'
p401
sS'YNR046W'
p402
S''
sS'YJL014W'
p403
S'Chaperones and folding catalysts'
p404
sS'YDR219C'
p405
S''
sS'YCR011C'
p406
S''
sS'YKR046C'
p407
S''
sS'YNL055C'
p408
S'Transport'
p409
sS'YJR005W'
p410
S''
sS'YMR031C'
p411
S''
sS'YNL072W'
p412
S'DNA replication complex'
p413
sS'YBL098W'
p414
S'Amino acid metabolism'
p415
sS'YDL095W'
p416
S'Glycan metabolism'
p417
sS'YOR174W'
p418
S''
sS'YDR466W'
p419
S''
sS'YFL002C'
p420
S''
sS'YDR155C'
p421
S'Other enzymes'
p422
sS'YIR026C'
p423
S'Other enzymes'
p424
sS'YJL176C'
p425
S'Chromosome-related'
p426
sS'YJR072C'
p427
S''
sS'YDR515W'
p428
S''
sS'YKR039W'
p429
S''
sS'YNL015W'
p430
S''
sS'YCR084C'
p431
S'Cell cycle'
p432
sS'YPL065W'
p433
S'Endocytosis'
p434
sS'YDR389W'
p435
S''
sS'YJL054W'
p436
S''
sS'YOR118W'
p437
S''
sS'YLR069C'
p438
S'Translation factors'
p439
sS'YDR268W'
p440
S'tRNA loading'
p441
sS'YMR022W'
p442
S'Protein processing in endoplasmic reticulum'
p443
sS'YPL170W'
p444
S''
sS'YPR001W'
p445
S'TCA cycle and anaplerotic enzymes'
p446
sS'YFL059W'
p447
S'Cofactor biosynthesis'
p448
sS'YML094W'
p449
S'Chaperones and folding catalysts'
p450
sS'YKR006C'
p451
S''
sS'YDL117W'
p452
S''
sS'YMR131C'
p453
S''
sS'YPR154W'
p454
S''
sS'YBR085C-A'
p455
S''
sS'YJL109C'
p456
S'Ribosome biogenesis in eukaryotes'
p457
sS'YMR293C'
p458
S'tRNA loading'
p459
sS'YER089C'
p460
S'Other enzymes'
p461
sS'YIL005W'
p462
S'Chaperones and folding catalysts'
p463
sS'YIL105C'
p464
S''
sS'YNL119W'
p465
S'Sulfur relay system'
p466
sS'YML126C'
p467
S'Butanoate metabolism'
p468
sS'YDR347W'
p469
S'Other enzymes'
p470
sS'YIL150C'
p471
S'DNA replication control'
p472
sS'YNR040W'
p473
S''
sS'YNR019W'
p474
S'Lipid and steroid metabolism'
p475
sS'YGR158C'
p476
S'RNA degradation'
p477
sS'YKL077W'
p478
S''
sS'YPL050C'
p479
S'Glycan metabolism'
p480
sS'YJR109C'
p481
S'Pyrimidine metabolism'
p482
sS'YKL025C'
p483
S'RNA degradation'
p484
sS'YGR085C'
p485
S'Ribosome'
p486
sS'YIL169C'
p487
S''
sS'YPL105C'
p488
S''
sS'YHR121W'
p489
S''
sS'YOL097C'
p490
S'tRNA loading'
p491
sS'YJL096W'
p492
S''
sS'YGR145W'
p493
S''
sS'YLR354C'
p494
S'Pentose phosphate metabolism'
p495
sS'YNR020C'
p496
S''
sS'YGL197W'
p497
S''
sS'YBR258C'
p498
S''
sS'YLR457C'
p499
S''
sS'YLR301W'
p500
S''
sS'YFR019W'
p501
S'Phosphatidylinositol signaling system'
p502
sS'YLR262C-A'
p503
S''
sS'YHR142W'
p504
S''
sS'YPL129W'
p505
S'Basal transcription factors'
p506
sS'YNL241C'
p507
S'Pentose phosphate metabolism'
p508
sS'YJL154C'
p509
S''
sS'YDR091C'
p510
S''
sS'YJL123C'
p511
S''
sS'YLR196W'
p512
S''
sS'YJL203W'
p513
S''
sS'YER086W'
p514
S'Amino acid metabolism'
p515
sS'YBR129C'
p516
S''
sS'YDL160C'
p517
S'RNA degradation'
p518
sS'YBR176W'
p519
S'Cofactor biosynthesis'
p520
sS'YOR359W'
p521
S''
sS'YJR123W'
p522
S'Ribosome'
p523
sS'YGR167W'
p524
S''
sS'YKL099C'
p525
S''
sS'YJL143W'
p526
S''
sS'YLR264W'
p527
S'Ribosome'
p528
sS'YNL002C'
p529
S'Ribosome'
p530
sS'YIL108W'
p531
S''
sS'YNL104C'
p532
S'Amino acid metabolism'
p533
sS'YPL145C'
p534
S''
sS'YIL118W'
p535
S'GTP-binding signaling proteins'
p536
sS'YDR322W'
p537
S''
sS'YNL151C'
p538
S'RNA polymerase'
p539
sS'YPL190C'
p540
S''
sS'YKL191W'
p541
S''
sS'YNR006W'
p542
S'Endocytosis'
p543
sS'YGL154C'
p544
S'Cofactor biosynthesis'
p545
sS'YIL045W'
p546
S''
sS'YHR120W'
p547
S''
sS'YDR443C'
p548
S''
sS'YGR106C'
p549
S''
sS'YHR025W'
p550
S'Amino acid metabolism'
p551
sS'YNL083W'
p552
S''
sS'YBL018C'
p553
S'Ribosome biogenesis in eukaryotes'
p554
sS'YOR267C'
p555
S''
sS'YOR357C'
p556
S''
sS'YDR530C'
p557
S'Purine metabolism'
p558
sS'YHR033W'
p559
S''
sS'YEL031W'
p560
S''
sS'YOL071W'
p561
S''
sS'YNR053C'
p562
S'Ribosome biogenesis in eukaryotes'
p563
sS'YDL063C'
p564
S''
sS'YER144C'
p565
S'Ubiquitin labeling'
p566
sS'YOL039W'
p567
S'Ribosome'
p568
sS'YOR385W'
p569
S''
sS'YGR185C'
p570
S'tRNA loading'
p571
sS'YPR137C-B'
p572
S''
sS'YMR238W'
p573
S'Other enzymes'
p574
sS'YER168C'
p575
S'RNA transport'
p576
sS'YPL265W'
p577
S''
sS'YIL083C'
p578
S'Cofactor biosynthesis'
p579
sS'YOR081C'
p580
S''
sS'YBR243C'
p581
S'Glycan metabolism'
p582
sS'YLL050C'
p583
S'Regulation of actin cytoskeleton'
p584
sS'YCL014W'
p585
S''
sS'YGL172W'
p586
S'RNA transport'
p587
sS'YLR180W'
p588
S'Amino acid metabolism'
p589
sS'YNL274C'
p590
S''
sS'YDR021W'
p591
S'Spliceosome'
p592
sS'YHL011C'
p593
S'Pentose phosphate metabolism'
p594
sS'YPL212C'
p595
S'Other enzymes'
p596
sS'YLR208W'
p597
S'RNA transport'
p598
sS'YFR011C'
p599
S''
sS'YOR101W'
p600
S'GTP-binding signaling proteins'
p601
sS'YHR008C'
p602
S'Other enzymes'
p603
sS'YGR081C'
p604
S''
sS'YLR330W'
p605
S''
sS'YOR310C'
p606
S'Ribosome biogenesis in eukaryotes'
p607
sS'YFR051C'
p608
S''
sS'YOR063W'
p609
S'Ribosome'
p610
sS'YDR188W'
p611
S'Chaperones and folding catalysts'
p612
sS'YGL236C'
p613
S'Chromosome-related'
p614
sS'YOL057W'
p615
S''
sS'YFR004W'
p616
S'Ubiquitin labeling'
p617
sS'YHR133C'
p618
S''
sS'YDR017C'
p619
S''
sS'YMR303C'
p620
S'Glycolysis'
p621
sS'YOR369C'
p622
S'Ribosome'
p623
sS'YDR334W'
p624
S'Chromosome-related'
p625
sS'YNL054W-B'
p626
S''
sS'YML128C'
p627
S''
sS'YDR411C'
p628
S'Protein processing in endoplasmic reticulum'
p629
sS'YBR283C'
p630
S'Protein export'
p631
sS'YIL090W'
p632
S''
sS'YBR205W'
p633
S'Glycan metabolism'
p634
sS'YOR321W'
p635
S'Glycan metabolism'
p636
sS'YML114C'
p637
S'Basal transcription factors'
p638
sS'YNR033W'
p639
S'Cofactor biosynthesis'
p640
sS'YDL004W'
p641
S'Oxidative phosphorylation'
p642
sS'YMR186W'
p643
S'Chaperones and folding catalysts'
p644
sS'YDR195W'
p645
S'mRNA surveillance pathway'
p646
sS'YNL256W'
p647
S'Cofactor biosynthesis'
p648
sS'YGR126W'
p649
S''
sS'YMR278W'
p650
S'Glycolysis'
p651
sS'YGR072W'
p652
S''
sS'YPR094W'
p653
S'Spliceosome'
p654
sS'YML039W'
p655
S''
sS'YMR207C'
p656
S''
sS'YML015C'
p657
S'Basal transcription factors'
p658
sS'YOR197W'
p659
S''
sS'YKR072C'
p660
S''
sS'YDL014W'
p661
S'Ribosome biogenesis in eukaryotes'
p662
sS'YLL032C'
p663
S''
sS'YJL020C'
p664
S''
sS'YBR039W'
p665
S'Oxidative phosphorylation'
p666
sS'YER024W'
p667
S''
sS'YDR116C'
p668
S''
sS'YOR230W'
p669
S'Cell cycle'
p670
sS'YBR068C'
p671
S''
sS'YLR090W'
p672
S''
sS'YDL056W'
p673
S'Cell cycle'
p674
sS'YGR234W'
p675
S'Other enzymes'
p676
sS'YJL112W'
p677
S''
sS'YMR178W'
p678
S''
sS'YPR017C'
p679
S''
sS'YGL115W'
p680
S''
sS'YEL044W'
p681
S'Chromosome-related'
p682
sS'YMR247C'
p683
S''
sS'YDR427W'
p684
S'Proteasome'
p685
sS'YML071C'
p686
S''
sS'YBR077C'
p687
S''
sS'YDR176W'
p688
S''
sS'YPL177C'
p689
S''
sS'YDR122W'
p690
S'Other enzymes'
p691
sS'YER120W'
p692
S''
sS'YNL090W'
p693
S'GTP-binding signaling proteins'
p694
sS'YBR042C'
p695
S''
sS'YOL062C'
p696
S''
sS'YDR381W'
p697
S'Spliceosome'
p698
sS'YGL103W'
p699
S'Ribosome'
p700
sS'YDR484W'
p701
S''
sS'YOR207C'
p702
S'RNA polymerase'
p703
sS'YMR098C'
p704
S''
sS'YOL022C'
p705
S''
sS'YGR192C'
p706
S'Glycolysis'
p707
sS'YBR095C'
p708
S''
sS'YHR111W'
p709
S'Ubiquitin labeling'
p710
sS'YBL045C'
p711
S'Oxidative phosphorylation'
p712
sS'YGL178W'
p713
S''
sS'YDR036C'
p714
S'Amino acid metabolism'
p715
sS'YGR043C'
p716
S'Pentose phosphate metabolism'
p717
sS'YPR184W'
p718
S'Carbohydrate metabolism'
p719
sS'YOR224C'
p720
S'RNA polymerase'
p721
sS'YDL070W'
p722
S'Chromosome-related'
p723
sS'YCR047C'
p724
S''
sS'YNL261W'
p725
S'DNA replication control'
p726
sS'YOR241W'
p727
S'Cofactor biosynthesis'
p728
sS'YOL002C'
p729
S''
sS'YML111W'
p730
S''
sS'YER142C'
p731
S'Base excision repair'
p732
sS'YLL021W'
p733
S''
sS'YKL205W'
p734
S'RNA transport'
p735
sS'YLR407W'
p736
S''
sS'YBR088C'
p737
S'DNA replication complex'
p738
sS'YBR055C'
p739
S'Spliceosome'
p740
sS'YOR175C'
p741
S'Lipid and steroid metabolism'
p742
sS'YNL329C'
p743
S'Peroxisome'
p744
sS'YFL005W'
p745
S'GTP-binding signaling proteins'
p746
sS'YCR010C'
p747
S''
sS'YKL110C'
p748
S''
sS'YPR040W'
p749
S''
sS'YHR040W'
p750
S''
sS'YMR152W'
p751
S''
sS'YML057W'
p752
S'MAPK signaling pathway'
p753
sS'YDR178W'
p754
S'TCA cycle and anaplerotic enzymes'
p755
sS'YKR038C'
p756
S'Peptidases'
p757
sS'YLR432W'
p758
S'Purine metabolism'
p759
sS'YJR031C'
p760
S''
sS'YCL026C-A'
p761
S''
sS'YPR070W'
p762
S''
sS'YJL115W'
p763
S'Chromosome-related'
p764
sS'YGL004C'
p765
S''
sS'YNL225C'
p766
S'Cytoskeleton proteins'
p767
sS'YML097C'
p768
S''
sS'YGR223C'
p769
S''
sS'YLR055C'
p770
S'Chromosome-related'
p771
sS'YJL055W'
p772
S''
sS'YHR193C'
p773
S'Translation factors'
p774
sS'YMR292W'
p775
S''
sS'YBL099W'
p776
S'Oxidative phosphorylation'
p777
sS'YMR132C'
p778
S''
sS'YDR303C'
p779
S'Chromosome-related'
p780
sS'YPL086C'
p781
S'Chromosome-related'
p782
sS'YDL116W'
p783
S'RNA transport'
p784
sS'YPL184C'
p785
S''
sS'YLR435W'
p786
S''
sS'YOR119C'
p787
S'Ribosome biogenesis in eukaryotes'
p788
sS'YJR076C'
p789
S''
sS'YER042W'
p790
S'Other enzymes'
p791
sS'YLR409C'
p792
S'Ribosome biogenesis in eukaryotes'
p793
sS'YOR157C'
p794
S'Proteasome'
p795
sS'YMR268C'
p796
S''
sS'YCL045C'
p797
S''
sS'YKR065C'
p798
S''
sS'YMR041C'
p799
S'Other enzymes'
p800
sS'YDR221W'
p801
S''
sS'YMR267W'
p802
S'Oxidative phosphorylation'
p803
sS'YLR109W'
p804
S'Sulfur relay system'
p805
sS'YKR009C'
p806
S'Carbohydrate metabolism'
p807
sS'YKL103C'
p808
S'Peptidases'
p809
sS'YMR109W'
p810
S''
sS'YMR078C'
p811
S'Chromosome-related'
p812
sS'YER043C'
p813
S'Amino acid metabolism'
p814
sS'YDR232W'
p815
S'Amino acid metabolism'
p816
sS'YDR245W'
p817
S'Glycan metabolism'
p818
sS'YHR088W'
p819
S''
sS'YLR114C'
p820
S''
sS'YBR017C'
p821
S''
sS'YER100W'
p822
S'Protein processing in endoplasmic reticulum'
p823
sS'YJR060W'
p824
S'Transcription factors'
p825
sS'YOR289W'
p826
S''
sS'YPR162C'
p827
S'DNA replication control'
p828
sS'YLR178C'
p829
S''
sS'YGR166W'
p830
S''
sS'YDL161W'
p831
S''
sS'YOR191W'
p832
S''
sS'YBR102C'
p833
S''
sS'YNL161W'
p834
S''
sS'YDR096W'
p835
S''
sS'YIR006C'
p836
S''
sS'YPL046C'
p837
S'Ubiquitin mediated proteolysis'
p838
sS'YGL099W'
p839
S'Ribosome biogenesis in eukaryotes'
p840
sS'YFL030W'
p841
S'Peroxisome'
p842
sS'YIL119C'
p843
S''
sS'YIL002W-A'
p844
S''
sS'YPL193W'
p845
S''
sS'YNL005C'
p846
S''
sS'YIL036W'
p847
S''
sS'YLR231C'
p848
S'Amino acid metabolism'
p849
sS'YDR255C'
p850
S''
sS'YFR021W'
p851
S''
sS'YNL129W'
p852
S'Cofactor biosynthesis'
p853
sS'YJR139C'
p854
S'Amino acid metabolism'
p855
sS'YKL016C'
p856
S'Oxidative phosphorylation'
p857
sS'YPL111W'
p858
S'Amino acid metabolism'
p859
sS'YFL049W'
p860
S'Chromosome-related'
p861
sS'YBR162C'
p862
S''
sS'YIL004C'
p863
S'SNARE interactions in vesicular transport'
p864
sS'YDR279W'
p865
S''
sS'YKL174C'
p866
S''
sS'YJR013W'
p867
S'Glycan metabolism'
p868
sS'YOR130C'
p869
S''
sS'YBL084C'
p870
S'Ubiquitin mediated proteolysis'
p871
sS'YPR072W'
p872
S''
sS'YBR111C'
p873
S'Purine metabolism'
p874
sS'YPR037C'
p875
S''
sS'YKL121W'
p876
S''
sS'YML036W'
p877
S''
sS'YKR027W'
p878
S''
sS'YFL047W'
p879
S''
sS'R0040C'
p880
S''
sS'YPR122W'
p881
S''
sS'YLR380W'
p882
S''
sS'YKL034W'
p883
S''
sS'YKL061W'
p884
S''
sS'YJR042W'
p885
S''
sS'YMR281W'
p886
S'Glycan metabolism'
p887
sS'YMR012W'
p888
S''
sS'YPL160W'
p889
S'tRNA loading'
p890
sS'YBR215W'
p891
S''
sS'YNL023C'
p892
S''
sS'YOR171C'
p893
S'VEGF signaling pathway'
p894
sS'YDR214W'
p895
S''
sS'YLR222C'
p896
S'Ribosome biogenesis in eukaryotes'
p897
sS'YIL106W'
p898
S'Hippo signaling pathway'
p899
sS'YLR201C'
p900
S''
sS'YLR295C'
p901
S'Oxidative phosphorylation'
p902
sS'YDL201W'
p903
S'Other enzymes'
p904
sS'YDR468C'
p905
S'SNARE interactions in vesicular transport'
p906
sS'YBL005W-B'
p907
S''
sS'YHR168W'
p908
S''
sS'YOL102C'
p909
S'Other enzymes'
p910
sS'YOR064C'
p911
S'Chromosome-related'
p912
sS'YKL017C'
p913
S''
sS'YOR159C'
p914
S'Spliceosome'
p915
sS'YBR130C'
p916
S''
sS'YNL297C'
p917
S''
sS'YIL033C'
p918
S''
sS'YOL036W'
p919
S''
sS'YGL148W'
p920
S'Amino acid metabolism'
p921
sS'YNR041C'
p922
S'Cofactor biosynthesis'
p923
sS'YIL048W'
p924
S'Other enzymes'
p925
sS'YDR189W'
p926
S''
sS'YLR441C'
p927
S'Ribosome'
p928
sS'YOL056W'
p929
S'Glycolysis'
p930
sS'YBR225W'
p931
S''
sS'YHL034C'
p932
S''
sS'YMR302C'
p933
S''
sS'YBR282W'
p934
S''
sS'YOR079C'
p935
S''
sS'YDR404C'
p936
S'RNA polymerase'
p937
sS'YHR132C'
p938
S'Peptidases'
p939
sS'YGR088W'
p940
S'Other enzymes'
p941
sS'YGL133W'
p942
S''
sS'YLR188W'
p943
S'Transport'
p944
sS'YGL073W'
p945
S'Transcription factors'
p946
sS'YBR257W'
p947
S'RNA transport'
p948
sS'YDR204W'
p949
S''
sS'YDR194C'
p950
S''
sS'YOL049W'
p951
S'Amino acid metabolism'
p952
sS'YMR244C-A'
p953
S''
sS'YNR030W'
p954
S'Glycan metabolism'
p955
sS'YMR189W'
p956
S'Amino acid metabolism'
p957
sS'YIL093C'
p958
S''
sS'YBR204C'
p959
S''
sS'YJL145W'
p960
S''
sS'YLR397C'
p961
S'Ribosome biogenesis in eukaryotes'
p962
sS'YFR045W'
p963
S''
sS'YIL104C'
p964
S''
sS'YOR076C'
p965
S'mRNA surveillance pathway'
p966
sS'YGL086W'
p967
S'Chromosome-related'
p968
sS'YGR159C'
p969
S'Ribosome biogenesis'
p970
sS'YDL223C'
p971
S''
sS'YAL044C'
p972
S'Amino acid metabolism'
p973
sS'YNL234W'
p974
S''
sS'YLR369W'
p975
S''
sS'YNL118C'
p976
S'RNA degradation'
p977
sS'YNR023W'
p978
S'Chromosome-related'
p979
sS'YOL096C'
p980
S'Cofactor biosynthesis'
p981
sS'YGL228W'
p982
S''
sS'YDR284C'
p983
S''
sS'YJR117W'
p984
S'Peptidases'
p985
sS'YJL097W'
p986
S'Lipid and steroid metabolism'
p987
sS'YNL302C'
p988
S'Ribosome'
p989
sS'YGR111W'
p990
S''
sS'YMR305C'
p991
S'Cell wall'
p992
sS'YOL019W'
p993
S''
sS'YDL157C'
p994
S''
sS'YOR048C'
p995
S'Ribosome biogenesis in eukaryotes'
p996
sS'YJR101W'
p997
S'Other enzymes'
p998
sS'YNL147W'
p999
S'Spliceosome'
p1000
sS'YDR233C'
p1001
S'Protein processing in endoplasmic reticulum'
p1002
sS'YHR143W'
p1003
S'Cell wall'
p1004
sS'YBR222C'
p1005
S''
sS'YLR131C'
p1006
S'Transcription factors'
p1007
sS'YER034W'
p1008
S''
sS'YPR101W'
p1009
S''
sS'YER127W'
p1010
S''
sS'YHR069C'
p1011
S'RNA degradation'
p1012
sS'YER025W'
p1013
S'Translation factors'
p1014
sS'YMR037C'
p1015
S'Transcription factors'
p1016
sS'YKR095W-A'
p1017
S''
sS'YMR226C'
p1018
S''
sS'YJR093C'
p1019
S'mRNA surveillance pathway'
p1020
sS'YNL281W'
p1021
S''
sS'YLR017W'
p1022
S'Amino acid metabolism'
p1023
sS'YHR110W'
p1024
S''
sS'YBR041W'
p1025
S''
sS'YDR430C'
p1026
S''
sS'YGR193C'
p1027
S''
sS'YDR487C'
p1028
S'Cofactor biosynthesis'
p1029
sS'YPR185W'
p1030
S'Regulation of autophagy'
p1031
sS'YPL273W'
p1032
S'Amino acid metabolism'
p1033
sS'YNL327W'
p1034
S'Cell wall'
p1035
sS'YBR280C'
p1036
S''
sS'YBR185C'
p1037
S''
sS'YER065C'
p1038
S'TCA cycle and anaplerotic enzymes'
p1039
sS'YLR077W'
p1040
S''
sS'YBR056W'
p1041
S''
sS'YNL219C'
p1042
S'Glycan metabolism'
p1043
sS'YDR037W'
p1044
S'tRNA loading'
p1045
sS'YGR040W'
p1046
S'MAPK signaling pathway'
p1047
sS'YER178W'
p1048
S'Glycolysis'
p1049
sS'YLR057W'
p1050
S'Carbohydrate metabolism'
p1051
sS'YPL222W'
p1052
S''
sS'YJL140W'
p1053
S'RNA polymerase'
p1054
sS'YFR014C'
p1055
S'Other enzymes'
p1056
sS'YOR320C'
p1057
S''
sS'YDR473C'
p1058
S'Spliceosome'
p1059
sS'YHR034C'
p1060
S''
sS'YMR231W'
p1061
S''
sS'YOL070C'
p1062
S''
sS'YOL138C'
p1063
S''
sS'YJL085W'
p1064
S''
sS'YDR533C'
p1065
S''
sS'YOL148C'
p1066
S'Chromosome-related'
p1067
sS'YLR452C'
p1068
S''
sS'YNR054C'
p1069
S''
sS'YBL029C-A'
p1070
S''
sS'YIL015W'
p1071
S'Peptidases'
p1072
sS'YPR082C'
p1073
S'Spliceosome'
p1074
sS'YGR184C'
p1075
S'Ubiquitin labeling'
p1076
sS'YCR034W'
p1077
S'Lipid and steroid metabolism'
p1078
sS'YOL038W'
p1079
S'Proteasome'
p1080
sS'YLR393W'
p1081
S''
sS'YAR015W'
p1082
S'Purine metabolism'
p1083
sS'YOR086C'
p1084
S''
sS'YDR020C'
p1085
S''
sS'YHR201C'
p1086
S'Purine metabolism'
p1087
sS'YPL213W'
p1088
S'Spliceosome'
p1089
sS'YPR170W-B'
p1090
S''
sS'YOR347C'
p1091
S'Glycolysis'
p1092
sS'YDR395W'
p1093
S''
sS'YOR279C'
p1094
S''
sS'YGR008C'
p1095
S''
sS'YKL211C'
p1096
S'Amino acid metabolism'
p1097
sS'YGL060W'
p1098
S''
sS'YNL311C'
p1099
S''
sS'YJL030W'
p1100
S'Chromosome-related'
p1101
sS'YMR093W'
p1102
S'Ribosome biogenesis in eukaryotes'
p1103
sS'YKR066C'
p1104
S'Other enzymes'
p1105
sS'YDR079W'
p1106
S''
sS'YGR248W'
p1107
S'Pentose phosphate metabolism'
p1108
sS'YML070W'
p1109
S'Methane metabolism'
p1110
sS'YBR074W'
p1111
S''
sS'YGL100W'
p1112
S'RNA transport'
p1113
sS'YOR150W'
p1114
S'Ribosome'
p1115
sS'YMR106C'
p1116
S'Non-homologous end-joining'
p1117
sS'YDR055W'
p1118
S'Cell wall'
p1119
sS'YBL061C'
p1120
S''
sS'YGL203C'
p1121
S'Peptidases'
p1122
sS'YMR140W'
p1123
S''
sS'YLR095C'
p1124
S''
sS'YBR034C'
p1125
S'Chromosome-related'
p1126
sS'YMR108W'
p1127
S'Amino acid metabolism'
p1128
sS'YER062C'
p1129
S'Lipid and steroid metabolism'
p1130
sS'YPR114W'
p1131
S''
sS'YDL088C'
p1132
S''
sS'YHR096C'
p1133
S'Transport'
p1134
sS'YDL137W'
p1135
S'GTP-binding signaling proteins'
p1136
sS'YJR063W'
p1137
S'RNA polymerase'
p1138
sS'YLR113W'
p1139
S'MAPK signaling pathway'
p1140
sS'YMR161W'
p1141
S'Chaperones and folding catalysts'
p1142
sS'YLR142W'
p1143
S'Amino acid metabolism'
p1144
sS'YPR163C'
p1145
S'Translation factors'
p1146
sS'YJL184W'
p1147
S''
sS'YDL040C'
p1148
S'Other enzymes'
p1149
sS'YDL015C'
p1150
S'Lipid and steroid metabolism'
p1151
sS'YOR242C'
p1152
S''
sS'YKR086W'
p1153
S'Spliceosome'
p1154
sS'YCR004C'
p1155
S''
sS'YER078C'
p1156
S'Amino acid metabolism'
p1157
sS'YDR115W'
p1158
S''
sS'YDL160C-A'
p1159
S''
sS'YER165W'
p1160
S'RNA degradation'
p1161
sS'YML038C'
p1162
S''
sS'YCL059C'
p1163
S''
sS'YML014W'
p1164
S''
sS'YKR071C'
p1165
S''
sS'YGL112C'
p1166
S'Basal transcription factors'
p1167
sS'YGR196C'
p1168
S''
sS'YOR233W'
p1169
S''
sS'YLR011W'
p1170
S''
sS'YPR049C'
p1171
S'Regulation of autophagy'
p1172
sS'YGR257C'
p1173
S'Transport'
p1174
sS'YNL070W'
p1175
S''
sS'YIL078W'
p1176
S'tRNA loading'
p1177
sS'YPL235W'
p1178
S'Chromosome-related'
p1179
sS'YBL042C'
p1180
S''
sS'YDL008W'
p1181
S'Ubiquitin mediated proteolysis'
p1182
sS'YBL050W'
p1183
S''
sS'YGR102C'
p1184
S''
sS'YGR280C'
p1185
S'Ribosome biogenesis'
p1186
sS'YGR237C'
p1187
S''
sS'YDL159W'
p1188
S'MAPK signaling pathway'
p1189
sS'YBL087C'
p1190
S'Ribosome'
p1191
sS'YJR014W'
p1192
S''
sS'YLR205C'
p1193
S''
sS'YGL190C'
p1194
S'mRNA surveillance pathway'
p1195
sS'YBR110W'
p1196
S'Glycan metabolism'
p1197
sS'YDR144C'
p1198
S'Chaperones and folding catalysts'
p1199
sS'YOR180C'
p1200
S''
sS'YGL018C'
p1201
S'Chaperones and folding catalysts'
p1202
sS'YLR240W'
p1203
S'Phosphatidylinositol signaling system'
p1204
sS'YMR075W'
p1205
S''
sS'YGR202C'
p1206
S'Lipid and steroid metabolism'
p1207
sS'YKL120W'
p1208
S''
sS'YJR041C'
p1209
S''
sS'YKR028W'
p1210
S''
sS'YFL046W'
p1211
S''
sS'YDR379W'
p1212
S''
sS'YHR169W'
p1213
S'Other enzymes'
p1214
sS'YDL073W'
p1215
S''
sS'YOR103C'
p1216
S'Protein processing in endoplasmic reticulum'
p1217
sS'YMR011W'
p1218
S'Transport'
p1219
sS'YCR059C'
p1220
S''
sS'YGL246C'
p1221
S''
sS'YDR447C'
p1222
S'Ribosome'
p1223
sS'YNL059C'
p1224
S'Chromosome-related'
p1225
sS'YIR012W'
p1226
S''
sS'YNL022C'
p1227
S''
sS'YDL102W'
p1228
S'DNA replication complex'
p1229
sS'YJR009C'
p1230
S'Glycolysis'
p1231
sS'YPR145W'
p1232
S'Peptidases'
p1233
sS'YJL063C'
p1234
S''
sS'YLR214W'
p1235
S''
sS'YMR149W'
p1236
S'Protein processing in endoplasmic reticulum'
p1237
sS'YLR278C'
p1238
S''
sS'YML056C'
p1239
S'Purine metabolism'
p1240
sS'YGL029W'
p1241
S''
sS'YFL004W'
p1242
S''
sS'YOR040W'
p1243
S'Glycolysis'
p1244
sS'YCR069W'
p1245
S'Other enzymes'
p1246
sS'YDL128W'
p1247
S''
sS'YLR433C'
p1248
S'MAPK signaling pathway'
p1249
sS'YPL098C'
p1250
S''
sS'YMR153W'
p1251
S''
sS'YMR124W'
p1252
S''
sS'YBL103C'
p1253
S''
sS'YJL041W'
p1254
S''
sS'YJR070C'
p1255
S'Other enzymes'
p1256
sS'YMR033W'
p1257
S'Chromosome-related'
p1258
sS'YDL097C'
p1259
S'Proteasome'
p1260
sS'YGL005C'
p1261
S''
sS'YPL085W'
p1262
S''
sS'YDL111C'
p1263
S'RNA degradation'
p1264
sS'YDR202C'
p1265
S''
sS'YJL052W'
p1266
S'Glycolysis'
p1267
sS'YDR495C'
p1268
S''
sS'YLR203C'
p1269
S''
sS'YKL159C'
p1270
S''
sS'YGR215W'
p1271
S''
sS'YJR046W'
p1272
S'Cell cycle'
p1273
sS'YDR363W-A'
p1274
S'Proteasome'
p1275
sS'YML096W'
p1276
S''
sS'YHR192W'
p1277
S''
sS'YOR132W'
p1278
S''
sS'YDR300C'
p1279
S'Amino acid metabolism'
p1280
sS'YJL158C'
p1281
S'Cell wall'
p1282
sS'YOR001W'
p1283
S'RNA degradation'
p1284
sS'YIL003W'
p1285
S''
sS'YDR240C'
p1286
S''
sS'YBR245C'
p1287
S''
sS'YMR299C'
p1288
S''
sS'YDR465C'
p1289
S'Amino acid metabolism'
p1290
sS'YLR276C'
p1291
S'Other enzymes'
p1292
sS'YDL222C'
p1293
S''
sS'YKL079W'
p1294
S''
sS'YFR044C'
p1295
S'Peptidases'
p1296
sS'YGR105W'
p1297
S''
sS'YPL103C'
p1298
S''
sS'YIL103W'
p1299
S''
sS'YBR269C'
p1300
S''
sS'YFR033C'
p1301
S'Oxidative phosphorylation'
p1302
sS'YDR283C'
p1303
S'Protein processing in endoplasmic reticulum'
p1304
sS'YJR096W'
p1305
S''
sS'YAL010C'
p1306
S''
sS'YBR192W'
p1307
S''
sS'YGR143W'
p1308
S''
sS'YER007C-A'
p1309
S''
sS'YGR112W'
p1310
S''
sS'YNR022C'
p1311
S''
sS'YLR256W'
p1312
S'Transcription factors'
p1313
sS'YBL060W'
p1314
S''
sS'YBR125C'
p1315
S'Other enzymes'
p1316
sS'YLR356W'
p1317
S''
sS'YBR221C'
p1318
S'Glycolysis'
p1319
sS'YAL005C'
p1320
S'Chaperones and folding catalysts'
p1321
sS'YJL094C'
p1322
S''
sS'YKL057C'
p1323
S''
sS'YGL098W'
p1324
S'SNARE interactions in vesicular transport'
p1325
sS'YHR174W'
p1326
S'Glycolysis'
p1327
sS'YJL121C'
p1328
S'Pentose phosphate metabolism'
p1329
sS'YKL008C'
p1330
S'Lipid and steroid metabolism'
p1331
sS'YLR192C'
p1332
S'Translation factors'
p1333
sS'YPL069C'
p1334
S'Cofactor biosynthesis'
p1335
sS'YDL213C'
p1336
S''
sS'YIL145C'
p1337
S'Amino acid metabolism'
p1338
sS'YBR149W'
p1339
S'Other enzymes'
p1340
sS'YLR378C'
p1341
S'Protein export'
p1342
sS'YPL271W'
p1343
S'Oxidative phosphorylation'
p1344
sS'YPL032C'
p1345
S''
sS'YHR064C'
p1346
S'Chaperones and folding catalysts'
p1347
sS'YGL210W'
p1348
S'GTP-binding signaling proteins'
p1349
sS'YPL110C'
p1350
S''
sS'YGR083C'
p1351
S'Translation factors'
p1352
sS'YPL045W'
p1353
S''
sS'YLR314C'
p1354
S''
sS'YLR153C'
p1355
S'Glycolysis'
p1356
sS'YNL126W'
p1357
S'Cytoskeleton proteins'
p1358
sS'YBR132C'
p1359
S''
sS'YKL040C'
p1360
S''
sS'YLR249W'
p1361
S'Translation factors'
p1362
sS'YNL004W'
p1363
S''
sS'YOR327C'
p1364
S'SNARE interactions in vesicular transport'
p1365
sS'YFR015C'
p1366
S'Carbohydrate metabolism'
p1367
sS'YCR020C-A'
p1368
S''
sS'YOR265W'
p1369
S''
sS'YOL139C'
p1370
S'RNA transport'
p1371
sS'YBR207W'
p1372
S''
sS'YLR321C'
p1373
S'Chromosome-related'
p1374
sS'YOR266W'
p1375
S''
sS'YDR532C'
p1376
S'RNA transport'
p1377
sS'YHR200W'
p1378
S'Proteasome'
p1379
sS'YCL012C'
p1380
S''
sS'YDR184C'
p1381
S''
sS'YNR011C'
p1382
S'Spliceosome'
p1383
sS'YNL167C'
p1384
S'Transcription factors'
p1385
sS'YBR244W'
p1386
S'Cofactor biosynthesis'
p1387
sS'YKL210W'
p1388
S'Ubiquitin mediated proteolysis'
p1389
sS'YNL221C'
p1390
S'RNA transport'
p1391
sS'YOR278W'
p1392
S'Cofactor biosynthesis'
p1393
sS'YER146W'
p1394
S'Spliceosome'
p1395
sS'YDL244W'
p1396
S''
sS'YNL085W'
p1397
S''
sS'YGL061C'
p1398
S'Cytoskeleton proteins'
p1399
sS'YDR394W'
p1400
S'Proteasome'
p1401
sS'YPL210C'
p1402
S'Protein export'
p1403
sS'YBL097W'
p1404
S'Chromosome-related'
p1405
sS'YAR014C'
p1406
S''
sS'YOR087W'
p1407
S''
sS'YHR159W'
p1408
S''
sS'YPL132W'
p1409
S'Oxidative phosphorylation'
p1410
sS'YIL114C'
p1411
S''
sS'YGL234W'
p1412
S'Purine metabolism'
p1413
sS'YOL055C'
p1414
S'Cofactor biosynthesis'
p1415
sS'YAL029C'
p1416
S''
sS'YKL013C'
p1417
S'Regulation of actin cytoskeleton'
p1418
sS'YOR148C'
p1419
S''
sS'YNL108C'
p1420
S''
sS'YFR053C'
p1421
S'Glycolysis'
p1422
sS'YOR065W'
p1423
S'Oxidative phosphorylation'
p1424
sS'YMR286W'
p1425
S''
sS'YMR301C'
p1426
S'Transport'
p1427
sS'YGR186W'
p1428
S'Basal transcription factors'
p1429
sS'YDR294C'
p1430
S'Lipid and steroid metabolism'
p1431
sS'YGR271W'
p1432
S'Other enzymes'
p1433
sS'YFR002W'
p1434
S'RNA transport'
p1435
sS'YHR135C'
p1436
S'Other enzymes'
p1437
sS'YNL250W'
p1438
S'DNA replication control'
p1439
sS'YDL175C'
p1440
S'RNA degradation'
p1441
sS'YOR027W'
p1442
S'Chaperones and folding catalysts'
p1443
sS'YDR325W'
p1444
S'Chromosome-related'
p1445
sS'YBR181C'
p1446
S'Ribosome'
p1447
sS'YMR188C'
p1448
S''
sS'YNL131W'
p1449
S''
sS'YEL020W-A'
p1450
S''
sS'YKL137W'
p1451
S''
sS'YOR078W'
p1452
S''
sS'YOL125W'
p1453
S''
sS'YKL003C'
p1454
S''
sS'YOR243C'
p1455
S''
sS'YER022W'
p1456
S''
sS'YBR057C'
p1457
S''
sS'YDR513W'
p1458
S''
sS'YGL047W'
p1459
S'Glycan metabolism'
p1460
sS'YMR165C'
p1461
S'Lipid and steroid metabolism'
p1462
sS'YKR070W'
p1463
S''
sS'YMR205C'
p1464
S'Glycolysis'
p1465
sS'YGL225W'
p1466
S''
sS'YCR005C'
p1467
S'TCA cycle and anaplerotic enzymes'
p1468
sS'YGR296W'
p1469
S''
sS'YER164W'
p1470
S'Chromosome-related'
p1471
sS'YBL101C'
p1472
S''
sS'YPR055W'
p1473
S''
sS'YML017W'
p1474
S''
sS'YIL016W'
p1475
S'Protein processing in endoplasmic reticulum'
p1476
sS'YPL236C'
p1477
S''
sS'YOR274W'
p1478
S'Cofactor biosynthesis'
p1479
sS'YOR232W'
p1480
S'Chaperones and folding catalysts'
p1481
sS'YGR281W'
p1482
S''
sS'YLR089C'
p1483
S'Carbon fixation in photosynthetic organisms'
p1484
sS'YHR123W'
p1485
S'Lipid and steroid metabolism'
p1486
sS'YPL161C'
p1487
S''
sS'YNL115C'
p1488
S''
sS'YGR256W'
p1489
S'Pentose phosphate metabolism'
p1490
sS'YEL042W'
p1491
S'Other enzymes'
p1492
sS'YPR048W'
p1493
S''
sS'YBL027W'
p1494
S'Ribosome'
p1495
sS'YHL013C'
p1496
S''
sS'YOL060C'
p1497
S''
sS'YGR009C'
p1498
S'SNARE interactions in vesicular transport'
p1499
sS'YNR047W'
p1500
S''
sS'YGL105W'
p1501
S''
sS'YBR097W'
p1502
S'Regulation of autophagy'
p1503
sS'YDL076C'
p1504
S''
sS'YDR120C'
p1505
S'Other enzymes'
p1506
sS'YER126C'
p1507
S''
sS'YMR227C'
p1508
S'Basal transcription factors'
p1509
sS'YOR113W'
p1510
S''
sS'YGR194C'
p1511
S'Carbohydrate metabolism'
p1512
sS'YJL192C'
p1513
S''
sS'YHR117W'
p1514
S''
sS'YHR053C'
p1515
S''
sS'YOL130W'
p1516
S''
sS'YOR152C'
p1517
S''
sS'YOR238W'
p1518
S''
sS'YPL274W'
p1519
S''
sS'YNL257C'
p1520
S''
sS'YBL047C'
p1521
S''
sS'YNL293W'
p1522
S''
sS'YEL051W'
p1523
S'Phagosome'
p1524
sS'YLR207W'
p1525
S'Protein processing in endoplasmic reticulum'
p1526
sS'YLL023C'
p1527
S''
sS'YKL203C'
p1528
S'ErbB signaling pathway'
p1529
sS'YOL004W'
p1530
S'Chromosome-related'
p1531
sS'YPL209C'
p1532
S'Chromosome-related'
p1533
sS'YHR017W'
p1534
S''
sS'YGL050W'
p1535
S''
sS'YDL036C'
p1536
S''
sS'YAR027W'
p1537
S''
sS'YNR065C'
p1538
S''
sS'YFL007W'
p1539
S'Proteasome'
p1540
sS'YML059C'
p1541
S'Lipid and steroid metabolism'
p1542
sS'YGL219C'
p1543
S''
sS'YDR063W'
p1544
S''
sS'YPL099C'
p1545
S''
sS'YCR012W'
p1546
S'Glycolysis'
p1547
sS'YGL026C'
p1548
S'Amino acid metabolism'
p1549
sS'YDR201W'
p1550
S'Cytoskeleton proteins'
p1551
sS'YDR254W'
p1552
S'Chromosome-related'
p1553
sS'YPR128C'
p1554
S''
sS'YGR263C'
p1555
S''
sS'YNL045W'
p1556
S'Peptidases'
p1557
sS'YPL084W'
p1558
S''
sS'YNL010W'
p1559
S''
sS'YDR354W'
p1560
S'Amino acid metabolism'
p1561
sS'YMR134W'
p1562
S''
sS'YDR301W'
p1563
S'mRNA surveillance pathway'
p1564
sS'YJL053W'
p1565
S''
sS'YPR104C'
p1566
S''
sS'YHR042W'
p1567
S'Other enzymes'
p1568
sS'YPR002W'
p1569
S'Other central metabolism enzymes'
p1570
sS'YGL006W'
p1571
S'Transport'
p1572
sS'YPL006W'
p1573
S''
sS'YCR083W'
p1574
S''
sS'YKR067W'
p1575
S'Lipid and steroid metabolism'
p1576
sS'YOR151C'
p1577
S'RNA polymerase'
p1578
sS'YML028W'
p1579
S'Other enzymes'
p1580
sS'YEL039C'
p1581
S''
sS'YLL001W'
p1582
S'Endocytosis'
p1583
sS'YOR168W'
p1584
S'tRNA loading'
p1585
sS'YNL189W'
p1586
S''
sS'YPR173C'
p1587
S'Endocytosis'
p1588
sS'YCL047C'
p1589
S''
sS'YJL031C'
p1590
S'Cofactor biosynthesis'
p1591
sS'YML077W'
p1592
S''
sS'YER068W'
p1593
S'Ubiquitin labeling'
p1594
sS'YER013W'
p1595
S'Spliceosome'
p1596
sS'YMR269W'
p1597
S''
sS'YKL053C-A'
p1598
S''
sS'YMR092C'
p1599
S''
sS'YDL021W'
p1600
S'Glycolysis'
p1601
sS'YLR143W'
p1602
S''
sS'YLR043C'
p1603
S'Chaperones and folding catalysts'
p1604
sS'YJL008C'
p1605
S'Chaperones and folding catalysts'
p1606
sS'YDL018C'
p1607
S''
sS'YBR271W'
p1608
S''
sS'YML060W'
p1609
S'Base excision repair'
p1610
sS'YJR062C'
p1611
S'Other enzymes'
p1612
sS'YOR120W'
p1613
S'Carbohydrate metabolism'
p1614
sS'YBR035C'
p1615
S'Cofactor biosynthesis'
p1616
sS'YPR160W'
p1617
S'Carbohydrate metabolism'
p1618
sS'YPR073C'
p1619
S'Cofactor biosynthesis'
p1620
sS'YML035C'
p1621
S'Purine metabolism'
p1622
sS'YJR033C'
p1623
S''
sS'YLR050C'
p1624
S''
sS'YDR424C'
p1625
S'Cytoskeleton proteins'
p1626
sS'YDL136W'
p1627
S'Ribosome'
p1628
sS'YGR270W'
p1629
S''
sS'YPR171W'
p1630
S''
sS'YKL056C'
p1631
S'Ribosome'
p1632
sS'YGL008C'
p1633
S'Transport'
p1634
sS'YKL009W'
p1635
S''
sS'YKL161C'
p1636
S'Other enzymes'
p1637
sS'YLR414C'
p1638
S''
sS'YOR124C'
p1639
S'Ubiquitin labeling'
p1640
sS'YNL278W'
p1641
S'RNA degradation'
p1642
sS'YBL068W'
p1643
S'Pentose phosphate metabolism'
p1644
sS'YCR026C'
p1645
S''
sS'YJR057W'
p1646
S'Pyrimidine metabolism'
p1647
sS'YJL126W'
p1648
S''
sS'YKL150W'
p1649
S'Other central metabolism enzymes'
p1650
sS'YJL159W'
p1651
S'Cell wall'
p1652
sS'YIL133C'
p1653
S'Ribosome'
p1654
sS'YHR063C'
p1655
S'Cofactor biosynthesis'
p1656
sS'YJL200C'
p1657
S'TCA cycle and anaplerotic enzymes'
p1658
sS'YGL211W'
p1659
S'Sulfur relay system'
p1660
sS'YDR316W'
p1661
S''
sS'YCR033W'
p1662
S''
sS'YKL041W'
p1663
S'Endocytosis'
p1664
sS'YPL195W'
p1665
S''
sS'YNL107W'
p1666
S'Chromosome-related'
p1667
sS'YNL067W'
p1668
S'Ribosome'
p1669
sS'YDR067C'
p1670
S''
sS'YDR376W'
p1671
S'Other enzymes'
p1672
sS'YAL059W'
p1673
S''
sS'YNL007C'
p1674
S''
sS'YKL096W'
p1675
S'Cell wall'
p1676
sS'YJR137C'
p1677
S'Amino acid metabolism'
p1678
sS'YKL014C'
p1679
S''
sS'YLR237W'
p1680
S''
sS'YMR021C'
p1681
S''
sS'YJR040W'
p1682
S'Ion channels'
p1683
sS'YPR119W'
p1684
S'Cell cycle'
p1685
sS'YPR103W'
p1686
S'Proteasome'
p1687
sS'YHR051W'
p1688
S'Oxidative phosphorylation'
p1689
sS'YBL086C'
p1690
S''
sS'YNL069C'
p1691
S'Ribosome'
p1692
sS'YKR029C'
p1693
S''
sS'YGL191W'
p1694
S'Oxidative phosphorylation'
p1695
sS'YJL104W'
p1696
S''
sS'YPR010C-A'
p1697
S''
sS'YPL019C'
p1698
S''
sS'YFL041W'
p1699
S'Other enzymes'
p1700
sS'YGR233C'
p1701
S'Cell cycle'
p1702
sS'YJL168C'
p1703
S'Chromosome-related'
p1704
sS'YDR145W'
p1705
S'Basal transcription factors'
p1706
sS'YFL009W'
p1707
S'Ubiquitin mediated proteolysis'
p1708
sS'YDL174C'
p1709
S'Other central metabolism enzymes'
p1710
sS'YER091C'
p1711
S'Amino acid metabolism'
p1712
sS'YJL062W'
p1713
S'Carbohydrate metabolism'
p1714
sS'YHR043C'
p1715
S'Other enzymes'
p1716
sS'YDR244W'
p1717
S'Peroxisome'
p1718
sS'YDL103C'
p1719
S'Other central metabolism enzymes'
p1720
sS'YJR008W'
p1721
S''
sS'YDL203C'
p1722
S''
sS'YBR011C'
p1723
S'Oxidative phosphorylation'
p1724
sS'YLR087C'
p1725
S''
sS'YLR215C'
p1726
S''
sS'YML082W'
p1727
S'Amino acid metabolism'
p1728
sS'YLR363W-A'
p1729
S''
sS'YMR287C'
p1730
S''
sS'YDR216W'
p1731
S'Transcription factors'
p1732
sS'YKL130C'
p1733
S''
sS'YOR106W'
p1734
S'SNARE interactions in vesicular transport'
p1735
sS'YNL021W'
p1736
S'Chromosome-related'
p1737
sS'YOL054W'
p1738
S''
sS'YFR001W'
p1739
S'Biosynthesis of other secondary metabolites'
p1740
sS'YAR031W'
p1741
S''
sS'YBR220C'
p1742
S''
sS'YPL131W'
p1743
S'Ribosome'
p1744
sS'YIL115C'
p1745
S''
sS'YGL233W'
p1746
S''
sS'YJL088W'
p1747
S'Amino acid metabolism'
p1748
sS'YHR158C'
p1749
S''
sS'YLR319C'
p1750
S''
sS'YKL033W-A'
p1751
S''
sS'YOL053W'
p1752
S''
sS'YHR029C'
p1753
S''
sS'YPL091W'
p1754
S'Amino acid metabolism'
p1755
sS'YPR164W'
p1756
S''
sS'YDR295C'
p1757
S''
sS'YAL033W'
p1758
S'RNA transport'
p1759
sS'YLR104W'
p1760
S''
sS'YGR155W'
p1761
S'Amino acid metabolism'
p1762
sS'YMR300C'
p1763
S'Peptidases'
p1764
sS'YFR049W'
p1765
S''
sS'YNL130C'
p1766
S'Lipid and steroid metabolism'
p1767
sS'YNR036C'
p1768
S''
sS'YNR049C'
p1769
S''
sS'YDR192C'
p1770
S''
sS'YOL112W'
p1771
S''
sS'YML109W'
p1772
S''
sS'YLR342W'
p1773
S'Carbohydrate metabolism'
p1774
sS'YOL083W'
p1775
S''
sS'YLR335W'
p1776
S''
sS'YNL251C'
p1777
S''
sS'YOR020C'
p1778
S'Chaperones and folding catalysts'
p1779
sS'YBL028C'
p1780
S''
sS'YBL004W'
p1781
S''
sS'YBR164C'
p1782
S'GTP-binding signaling proteins'
p1783
sS'YIL153W'
p1784
S''
sS'YJR088C'
p1785
S''
sS'YHR074W'
p1786
S'Cofactor biosynthesis'
p1787
sS'YJL217W'
p1788
S''
sS'YLR399C'
p1789
S'Chromosome-related'
p1790
sS'YBR016W'
p1791
S''
sS'YFR030W'
p1792
S'Amino acid metabolism'
p1793
sS'YOR006C'
p1794
S''
sS'YJL146W'
p1795
S''
sS'YLR277C'
p1796
S'mRNA surveillance pathway'
p1797
sS'YAL011W'
p1798
S'Chromosome-related'
p1799
sS'YGR173W'
p1800
S''
sS'YIL055C'
p1801
S''
sS'YPL053C'
p1802
S'Glycan metabolism'
p1803
sS'YKR092C'
p1804
S''
sS'YBR179C'
p1805
S''
sS'YDR282C'
p1806
S''
sS'YJR097W'
p1807
S''
sS'YLR351C'
p1808
S''
sS'YOL094C'
p1809
S'DNA replication complex'
p1810
sS'YPR116W'
p1811
S''
sS'YHR018C'
p1812
S'Amino acid metabolism'
p1813
sS'YDR408C'
p1814
S'Other central metabolism enzymes'
p1815
sS'YBR126C'
p1816
S'Carbohydrate metabolism'
p1817
sS'YOL149W'
p1818
S'RNA degradation'
p1819
sS'YLR257W'
p1820
S''
sS'YGL202W'
p1821
S'Amino acid metabolism'
p1822
sS'YOR046C'
p1823
S'Other enzymes'
p1824
sS'YKR035W-A'
p1825
S'Endocytosis'
p1826
sS'YNL141W'
p1827
S'Purine metabolism'
p1828
sS'YBL026W'
p1829
S'Spliceosome'
p1830
sS'YMR220W'
p1831
S'Cofactor biosynthesis'
p1832
sS'YPR187W'
p1833
S'RNA polymerase'
p1834
sS'YGL087C'
p1835
S'DNA repair and recombination proteins'
p1836
sS'YDR121W'
p1837
S'DNA replication complex'
p1838
sS'YER125W'
p1839
S'Ubiquitin mediated proteolysis'
p1840
sS'YDR432W'
p1841
S''
sS'YNL233W'
p1842
S''
sS'YPL211W'
p1843
S''
sS'YDL077C'
p1844
S''
sS'YOR222W'
p1845
S''
sS'YEL021W'
p1846
S'Pyrimidine metabolism'
p1847
sS'YOL061W'
p1848
S'Pentose phosphate metabolism'
p1849
sS'YER152C'
p1850
S''
sS'YLR015W'
p1851
S''
sS'YNR008W'
p1852
S'Lipid and steroid metabolism'
p1853
sS'YPL259C'
p1854
S''
sS'YOL100W'
p1855
S''
sS'YNL283C'
p1856
S'MAPK signaling pathway'
p1857
sS'YLR008C'
p1858
S'Chaperones and folding catalysts'
p1859
sS'YJL191W'
p1860
S'Ribosome'
p1861
sS'YMR219W'
p1862
S''
sS'YLL022C'
p1863
S'Chromosome-related'
p1864
sS'YGR017W'
p1865
S''
sS'YDR031W'
p1866
S''
sS'YOR198C'
p1867
S''
sS'YOL005C'
p1868
S'RNA polymerase'
p1869
sS'YOR039W'
p1870
S'Ribosome biogenesis in eukaryotes'
p1871
sS'YEL050C'
p1872
S''
sS'YLR177W'
p1873
S''
sS'YFR016C'
p1874
S''
sS'YHR016C'
p1875
S''
sS'YLR450W'
p1876
S'Cofactor biosynthesis'
p1877
sS'YLR442C'
p1878
S'DNA replication control'
p1879
sS'YKL088W'
p1880
S'Cofactor biosynthesis'
p1881
sS'YHR084W'
p1882
S'Transcription factors'
p1883
sS'YGL224C'
p1884
S''
sS'YOR326W'
p1885
S''
sS'YDR527W'
p1886
S''
sS'YLR396C'
p1887
S''
sS'YOL123W'
p1888
S'mRNA surveillance pathway'
p1889
sS'YDR132C'
p1890
S''
sS'YML116W'
p1891
S'Transport'
p1892
sS'YNL084C'
p1893
S''
sS'YGL066W'
p1894
S'Chromosome-related'
p1895
sS'YGR156W'
p1896
S'mRNA surveillance pathway'
p1897
sS'YHR089C'
p1898
S'Ribosome biogenesis in eukaryotes'
p1899
sS'YOR386W'
p1900
S'DNA repair and recombination proteins'
p1901
sS'YAR042W'
p1902
S''
sS'YHR207C'
p1903
S''
sS'YHL038C'
p1904
S''
sS'YBR131W'
p1905
S''
sS'YOR051C'
p1906
S''
sS'YKL213C'
p1907
S'Protein processing in endoplasmic reticulum'
p1908
sS'YNL220W'
p1909
S'Purine metabolism'
p1910
sS'YGL169W'
p1911
S''
sS'YGR060W'
p1912
S'Lipid and steroid metabolism'
p1913
sS'YCL064C'
p1914
S'Amino acid metabolism'
p1915
sS'YML076C'
p1916
S''
sS'YER174C'
p1917
S''
sS'YML029W'
p1918
S'Protein processing in endoplasmic reticulum'
p1919
sS'YNL313C'
p1920
S''
sS'YDL240W'
p1921
S''
sS'YMR142C'
p1922
S'Ribosome'
p1923
sS'YGL031C'
p1924
S'Ribosome'
p1925
sS'YKL006C-A'
p1926
S'SNARE interactions in vesicular transport'
p1927
sS'YDL182W'
p1928
S'Pyruvate metabolism'
p1929
sS'YER069W'
p1930
S'Amino acid metabolism'
p1931
sS'YMR091C'
p1932
S'Chromosome-related'
p1933
sS'YER012W'
p1934
S'Proteasome'
p1935
sS'YPR172W'
p1936
S''
sS'YBL067C'
p1937
S'Ubiquitin labeling'
p1938
sS'YHR098C'
p1939
S''
sS'YDL019C'
p1940
S''
sS'YML034W'
p1941
S''
sS'YDL135C'
p1942
S''
sS'YPR023C'
p1943
S'Chromosome-related'
p1944
sS'YOR035C'
p1945
S''
sS'YCR093W'
p1946
S'RNA degradation'
p1947
sS'YLR144C'
p1948
S''
sS'YMR273C'
p1949
S''
sS'YPR058W'
p1950
S''
sS'YLL035W'
p1951
S''
sS'YDR168W'
p1952
S'Chaperones and folding catalysts'
p1953
sS'YML061C'
p1954
S''
sS'YGL080W'
p1955
S''
sS'YNL202W'
p1956
S'Peroxisome'
p1957
sS'YOR093C'
p1958
S''
sS'YJL186W'
p1959
S'Glycan metabolism'
p1960
sS'YER023W'
p1961
S'Amino acid metabolism'
p1962
sS'YER163C'
p1963
S''
sS'YLR344W'
p1964
S'Ribosome'
p1965
sS'YBR069C'
p1966
S''
sS'YML016C'
p1967
S'Other enzymes'
p1968
sS'YGL040C'
p1969
S'Cofactor biosynthesis'
p1970
sS'YKR084C'
p1971
S'Translation factors'
p1972
sS'YDL017W'
p1973
S'DNA replication control'
p1974
sS'YDR040C'
p1975
S''
sS'YDR113C'
p1976
S'Cell cycle'
p1977
sS'YLL031C'
p1978
S'Glycan metabolism'
p1979
sS'YLR033W'
p1980
S'Chromosome-related'
p1981
sS'YLR088W'
p1982
S'Glycan metabolism'
p1983
sS'YLR438C-A'
p1984
S'Spliceosome'
p1985
sS'YGR255C'
p1986
S'Cofactor biosynthesis'
p1987
sS'YGL110C'
p1988
S''
sS'YDL051W'
p1989
S''
sS'YMR242C'
p1990
S'Ribosome'
p1991
sS'YPL237W'
p1992
S'Translation factors'
p1993
sS'YGR282C'
p1994
S'Cell wall'
p1995
sS'YBR187W'
p1996
S''
sS'YBR079C'
p1997
S'Translation factors'
p1998
sS'YMR077C'
p1999
S'Endocytosis'
p2000
sS'YPL183C'
p2001
S''
sS'YDR166C'
p2002
S''
sS'YKR088C'
p2003
S''
sS'YPR118W'
p2004
S'Amino acid metabolism'
p2005
sS'YPL186C'
p2006
S''
sS'YGR204W'
p2007
S'Other central metabolism enzymes'
p2008
sS'YJR080C'
p2009
S''
sS'YJL005W'
p2010
S'Meiosis'
p2011
sS'YJL050W'
p2012
S'Ribosome biogenesis'
p2013
sS'YCR017C'
p2014
S''
sS'YDR182W'
p2015
S''
sS'YKR063C'
p2016
S''
sS'YHR056C'
p2017
S'Chromosome-related'
p2018
sS'YBR112C'
p2019
S'Cell cycle'
p2020
sS'YDR248C'
p2021
S'Pentose phosphate metabolism'
p2022
sS'YJR016C'
p2023
S'Amino acid metabolism'
p2024
sS'YDL202W'
p2025
S''
sS'YDL100C'
p2026
S'Other enzymes'
p2027
sS'YFL008W'
p2028
S'Chromosome-related'
p2029
sS'YDR337W'
p2030
S''
sS'YGL055W'
p2031
S'Lipid and steroid metabolism'
p2032
sS'YJL061W'
p2033
S''
sS'YLR216C'
p2034
S'Chaperones and folding catalysts'
p2035
sS'YPR147C'
p2036
S''
sS'YDR441C'
p2037
S'Purine metabolism'
p2038
sS'YPL094C'
p2039
S'Protein export'
p2040
sS'YNL020C'
p2041
S''
sS'YPL023C'
p2042
S'Other central metabolism enzymes'
p2043
sS'YLR290C'
p2044
S''
sS'YER090W'
p2045
S'Amino acid metabolism'
p2046
sS'YIL123W'
p2047
S'Cell wall'
p2048
sS'YPR161C'
p2049
S'Other enzymes'
p2050
sS'YOR291W'
p2051
S''
sS'YKL117W'
p2052
S'Chaperones and folding catalysts'
p2053
sS'YCR015C'
p2054
S''
sS'YDR159W'
p2055
S''
sS'YML005W'
p2056
S''
sS'YNL193W'
p2057
S''
sS'YMR059W'
p2058
S'Other enzymes'
p2059
sS'YDR062W'
p2060
S'Lipid and steroid metabolism'
p2061
sS'YBR268W'
p2062
S''
sS'YFL026W'
p2063
S'MAPK signaling pathway'
p2064
sS'YBR188C'
p2065
S''
sS'YGL027C'
p2066
S'Protein processing in endoplasmic reticulum'
p2067
sS'YOR165W'
p2068
S''
sS'YHR190W'
p2069
S'Lipid and steroid metabolism'
p2070
sS'YLR106C'
p2071
S'Ribosome biogenesis in eukaryotes'
p2072
sS'YKL157W'
p2073
S'Peptidases'
p2074
sS'YKR002W'
p2075
S'mRNA surveillance pathway'
p2076
sS'YBR003W'
p2077
S'Cofactor biosynthesis'
p2078
sS'YDR200C'
p2079
S''
sS'YPR105C'
p2080
S''
sS'YPR129W'
p2081
S''
sS'YDL113C'
p2082
S''
sS'YLR271W'
p2083
S''
sS'YDL099W'
p2084
S''
sS'YGL226C-A'
p2085
S'Protein processing in endoplasmic reticulum'
p2086
sS'YNL166C'
p2087
S''
sS'YHR082C'
p2088
S''
sS'YLR274W'
p2089
S'DNA replication complex'
p2090
sS'YBR247C'
p2091
S''
sS'YLR185W'
p2092
S'Ribosome'
p2093
sS'YJL210W'
p2094
S'Peroxisome'
p2095
sS'YDR235W'
p2096
S''
sS'YLR398C'
p2097
S'RNA degradation'
p2098
sS'YIL154C'
p2099
S''
sS'YOR007C'
p2100
S''
sS'YHR097C'
p2101
S''
sS'YDL220C'
p2102
S'DNA replication control'
p2103
sS'YLR239C'
p2104
S'Cofactor biosynthesis'
p2105
sS'YBR038W'
p2106
S'Other central metabolism enzymes'
p2107
sS'YNL142W'
p2108
S''
sS'YGR076C'
p2109
S''
sS'YGR099W'
p2110
S''
sS'YFR031C'
p2111
S'Chromosome-related'
p2112
sS'YPL154C'
p2113
S'Peptidases'
p2114
sS'YHR019C'
p2115
S'tRNA loading'
p2116
sS'YOR367W'
p2117
S''
sS'YAL003W'
p2118
S'Translation factors'
p2119
sS'YIL149C'
p2120
S'RNA transport'
p2121
sS'YPL101W'
p2122
S'Chromosome-related'
p2123
sS'YLR258W'
p2124
S'Carbohydrate metabolism'
p2125
sS'YNR015W'
p2126
S'Other enzymes'
p2127
sS'YJR098C'
p2128
S''
sS'YBR127C'
p2129
S'Phagosome'
p2130
sS'YLR350W'
p2131
S''
sS'YGL009C'
p2132
S'Amino acid metabolism'
p2133
sS'YHR176W'
p2134
S''
sS'YGR163W'
p2135
S''
sS'YDR497C'
p2136
S'Transport'
p2137
sS'YKL022C'
p2138
S'Ubiquitin mediated proteolysis'
p2139
sS'YEL040W'
p2140
S'Cell wall'
p2141
sS'YIL130W'
p2142
S''
sS'YBL092W'
p2143
S'Ribosome'
p2144
sS'YDR368W'
p2145
S'Carbohydrate metabolism'
p2146
sS'YBR101C'
p2147
S''
sS'YLR147C'
p2148
S'Spliceosome'
p2149
sS'YDL164C'
p2150
S'DNA replication complex'
p2151
sS'YDR177W'
p2152
S'Ubiquitin mediated proteolysis'
p2153
sS'YER061C'
p2154
S'Lipid and steroid metabolism'
p2155
sS'YDR375C'
p2156
S''
sS'YJL167W'
p2157
S'Cofactor biosynthesis'
p2158
sS'YKL195W'
p2159
S''
sS'YKL179C'
p2160
S'Transcription factors'
p2161
sS'YDR088C'
p2162
S'Spliceosome'
p2163
sS'YDR320C'
p2164
S''
sS'YKL042W'
p2165
S'Cytoskeleton proteins'
p2166
sS'YNL066W'
p2167
S'Cell wall'
p2168
sS'YPL112C'
p2169
S''
sS'YPL030W'
p2170
S''
sS'YAL058W'
p2171
S'Chaperones and folding catalysts'
p2172
sS'YDR452W'
p2173
S'Other enzymes'
p2174
sS'YLR316C'
p2175
S''
sS'YKL101W'
p2176
S'Cell cycle'
p2177
sS'YFL033C'
p2178
S'Meiosis'
p2179
sS'YNL124W'
p2180
S''
sS'YIL094C'
p2181
S'Amino acid metabolism'
p2182
sS'YHR037W'
p2183
S'Amino acid metabolism'
p2184
sS'YJL098W'
p2185
S''
sS'YIR021W'
p2186
S''
sS'YML108W'
p2187
S''
sS'YIL076W'
p2188
S''
sS'YNR034W-A'
p2189
S''
sS'YOR352W'
p2190
S''
sS'YHR148W'
p2191
S'Ribosome biogenesis in eukaryotes'
p2192
sS'YLR323C'
p2193
S''
sS'YBL038W'
p2194
S''
sS'YML117W'
p2195
S''
sS'YGR054W'
p2196
S''
sS'YHL039W'
p2197
S''
sS'YGR189C'
p2198
S'Cell wall'
p2199
sS'YOR332W'
p2200
S'Phagosome'
p2201
sS'YOR069W'
p2202
S''
sS'YGR038W'
p2203
S''
sS'YNL087W'
p2204
S''
sS'YBR104W'
p2205
S''
sS'YBR227C'
p2206
S'Chaperones and folding catalysts'
p2207
sS'YOR341W'
p2208
S'RNA polymerase'
p2209
sS'YNL024C-A'
p2210
S''
sS'YDR296W'
p2211
S''
sS'YGL232W'
p2212
S''
sS'YPR091C'
p2213
S''
sS'YGR141W'
p2214
S''
sS'YNL173C'
p2215
S''
sS'YIL116W'
p2216
S'Amino acid metabolism'
p2217
sS'YDR478W'
p2218
S''
sS'YGR094W'
p2219
S'tRNA loading'
p2220
sS'YJR138W'
p2221
S''
sS'YDR377W'
p2222
S'Oxidative phosphorylation'
p2223
sS'YNL133C'
p2224
S''
sS'YJR103W'
p2225
S'Pyrimidine metabolism'
p2226
sS'YHR028C'
p2227
S''
sS'YBR265W'
p2228
S'Lipid and steroid metabolism'
p2229
sS'YBL007C'
p2230
S''
sS'YNR037C'
p2231
S''
sS'YEL001C'
p2232
S''
sS'YCL024W'
p2233
S''
sS'YMR307W'
p2234
S'Cell wall'
p2235
sS'YAL032C'
p2236
S'Spliceosome'
p2237
sS'YGL145W'
p2238
S''
sS'YHR137W'
p2239
S'Amino acid metabolism'
p2240
sS'YOR021C'
p2241
S''
sS'YBR230C'
p2242
S''
sS'YNL252C'
p2243
S''
sS'YKL021C'
p2244
S''
sS'YER133W'
p2245
S'Regulation of actin cytoskeleton'
p2246
sS'YGL248W'
p2247
S'Purine metabolism'
p2248
sS'YKL197C'
p2249
S'Peroxisome'
p2250
sS'YOL006C'
p2251
S'DNA replication control'
p2252
sS'YDL066W'
p2253
S'TCA cycle and anaplerotic enzymes'
p2254
sS'YER020W'
p2255
S'GTP-binding signaling proteins'
p2256
sS'YER162C'
p2257
S'Nucleotide excision repair'
p2258
sS'YOR020W-A'
p2259
S''
sS'YDR511W'
p2260
S''
sS'YML011C'
p2261
S''
sS'YNL201C'
p2262
S''
sS'YDR398W'
p2263
S'Ribosome biogenesis in eukaryotes'
p2264
sS'YCR028C-A'
p2265
S''
sS'YHR102W'
p2266
S''
sS'YER112W'
p2267
S'Spliceosome'
p2268
sS'YMR250W'
p2269
S'Amino acid metabolism'
p2270
sS'YEL015W'
p2271
S'RNA degradation'
p2272
sS'YGR254W'
p2273
S'Glycolysis'
p2274
sS'YLR018C'
p2275
S''
sS'YKR085C'
p2276
S''
sS'YPR131C'
p2277
S'Other enzymes'
p2278
sS'YJL201W'
p2279
S''
sS'YLR418C'
p2280
S''
sS'YLR063W'
p2281
S''
sS'YER059W'
p2282
S''
sS'YOR234C'
p2283
S'Ribosome'
p2284
sS'YGL111W'
p2285
S''
sS'YKL087C'
p2286
S'Cofactor biosynthesis'
p2287
sS'YBR289W'
p2288
S'Chromosome-related'
p2289
sS'YPL153C'
p2290
S'DNA repair and recombination proteins'
p2291
sS'YKR093W'
p2292
S''
sS'YDL167C'
p2293
S''
sS'YOL066C'
p2294
S'Cofactor biosynthesis'
p2295
sS'YER082C'
p2296
S''
sS'YKL212W'
p2297
S''
sS'YJL071W'
p2298
S'Amino acid metabolism'
p2299
sS'YGL167C'
p2300
S'Transport'
p2301
sS'YHR115C'
p2302
S''
sS'YEL022W'
p2303
S''
sS'YPL188W'
p2304
S''
sS'YPR188C'
p2305
S''
sS'YIL053W'
p2306
S'Lipid and steroid metabolism'
p2307
sS'YDL074C'
p2308
S'Ubiquitin labeling'
p2309
sS'YNL073W'
p2310
S'tRNA loading'
p2311
sS'YOR374W'
p2312
S'Glycolysis'
p2313
sS'YJL190C'
p2314
S'Ribosome'
p2315
sS'YPL059W'
p2316
S'Chaperones and folding catalysts'
p2317
sS'YLR052W'
p2318
S'Chromosome-related'
p2319
sS'YGL107C'
p2320
S''
sS'YOR212W'
p2321
S'MAPK signaling pathway'
p2322
sS'YDR032C'
p2323
S''
sS'YMR221C'
p2324
S''
sS'YNL106C'
p2325
S'Phosphatidylinositol signaling system'
p2326
sS'YGL198W'
p2327
S''
sS'YEL053C'
p2328
S''
sS'YMR280C'
p2329
S'Transcription factors'
p2330
sS'YDR236C'
p2331
S'Cofactor biosynthesis'
p2332
sS'YJL042W'
p2333
S'Cytoskeleton proteins'
p2334
sS'YDR372C'
p2335
S''
sS'YER057C'
p2336
S''
sS'YNL301C'
p2337
S'Ribosome'
p2338
sS'YBR119W'
p2339
S''
sS'YJL111W'
p2340
S'Chaperones and folding catalysts'
p2341
sS'YIL066C'
p2342
S'DNA repair and recombination proteins'
p2343
sS'YMR211W'
p2344
S''
sS'YKR010C'
p2345
S''
sS'YDL043C'
p2346
S'Spliceosome'
p2347
sS'YNL192W'
p2348
S'Other central metabolism enzymes'
p2349
sS'YLL010C'
p2350
S''
sS'YMR058W'
p2351
S'Other enzymes'
p2352
sS'YDR061W'
p2353
S''
sS'YOR290C'
p2354
S'Chromosome-related'
p2355
sS'YMR129W'
p2356
S''
sS'YML093W'
p2357
S'Ribosome biogenesis in eukaryotes'
p2358
sS'YJR077C'
p2359
S''
sS'YHR197W'
p2360
S''
sS'YDL112W'
p2361
S''
sS'YBR002C'
p2362
S'Cofactor biosynthesis'
p2363
sS'YDR391C'
p2364
S''
sS'YPR004C'
p2365
S''
sS'YGR261C'
p2366
S''
sS'YKL154W'
p2367
S'Protein export'
p2368
sS'YGR180C'
p2369
S'Purine metabolism'
p2370
sS'YDR158W'
p2371
S'Amino acid metabolism'
p2372
sS'YKL092C'
p2373
S''
sS'YMR116C'
p2374
S'Ribosome'
p2375
sS'YPL004C'
p2376
S''
sS'YHR065C'
p2377
S'Other enzymes'
p2378
sS'YOR164C'
p2379
S''
sS'YPL082C'
p2380
S''
sS'YDR256C'
p2381
S'Other enzymes'
p2382
sS'YGL030W'
p2383
S'Ribosome'
p2384
sS'YGR283C'
p2385
S''
sS'YDL052C'
p2386
S'Lipid and steroid metabolism'
p2387
sS'YER175C'
p2388
S''
sS'YJL178C'
p2389
S''
sS'YMR174C'
p2390
S''
sS'YJL033W'
p2391
S'Other enzymes'
p2392
sS'YLR429W'
p2393
S''
sS'YMR308C'
p2394
S''
sS'YMR218C'
p2395
S''
sS'YDR050C'
p2396
S'Glycolysis'
p2397
sS'YGR061C'
p2398
S'Purine metabolism'
p2399
sS'YLL007C'
p2400
S''
sS'YNL265C'
p2401
S''
sS'YCR032W'
p2402
S''
sS'YNL312W'
p2403
S'DNA replication complex'
p2404
sS'YPL241C'
p2405
S''
sS'YGL120C'
p2406
S'Spliceosome'
p2407
sS'YGR271C-A'
p2408
S''
sS'YDR169C'
p2409
S''
sS'YMR183C'
p2410
S'SNARE interactions in vesicular transport'
p2411
sS'YMR090W'
p2412
S''
sS'YIR038C'
p2413
S'Cofactor biosynthesis'
p2414
sS'YHR099W'
p2415
S'Chromosome-related'
p2416
sS'YEL071W'
p2417
S''
sS'YMR272C'
p2418
S''
sS'YML062C'
p2419
S''
sS'YPR108W'
p2420
S'Proteasome'
p2421
sS'YNL041C'
p2422
S''
sS'YBR106W'
p2423
S''
sS'YBL093C'
p2424
S''
sS'YKL054C'
p2425
S''
sS'YAL062W'
p2426
S'Amino acid metabolism'
p2427
sS'YLR390W-A'
p2428
S'Cell wall'
p2429
sS'YHR171W'
p2430
S'Ubiquitin labeling'
p2431
sS'YGR162W'
p2432
S'RNA transport'
p2433
sS'YMR298W'
p2434
S''
sS'YBR291C'
p2435
S''
sS'YDR258C'
p2436
S''
sS'YDR520C'
p2437
S''
sS'YJL124C'
p2438
S'RNA degradation'
p2439
sS'YLR253W'
p2440
S''
sS'YKL023W'
p2441
S''
sS'YJR051W'
p2442
S''
sS'YKL094W'
p2443
S''
sS'YNL259C'
p2444
S''
sS'YDR261C'
p2445
S'Carbohydrate metabolism'
p2446
sS'YIL131C'
p2447
S''
sS'YKL143W'
p2448
S''
sS'YBR146W'
p2449
S''
sS'YPL031C'
p2450
S'Cell cycle'
p2451
sS'YAL044W-A'
p2452
S''
sS'YKL012W'
p2453
S'Spliceosome'
p2454
sS'YER080W'
p2455
S''
sS'YJL164C'
p2456
S'MAPK signaling pathway'
p2457
sS'YNL125C'
p2458
S''
sS'YJR019C'
p2459
S'Lipid and steroid metabolism'
p2460
sS'YLR191W'
p2461
S'Peroxisome'
p2462
sS'YDR321W'
p2463
S'Amino acid metabolism'
p2464
sS'YFR032C-A'
p2465
S'Ribosome'
p2466
sS'YNR001C'
p2467
S'TCA cycle and anaplerotic enzymes'
p2468
sS'YNL178W'
p2469
S'Ribosome'
p2470
sS'YDR147W'
p2471
S'Lipid and steroid metabolism'
p2472
sS'YJL004C'
p2473
S''
sS'YGR217W'
p2474
S''
sS'YGL243W'
p2475
S''
sS'YMR076C'
p2476
S'Chromosome-related'
p2477
sS'YJL006C'
p2478
S'Other enzymes'
p2479
sS'YDR356W'
p2480
S'Cytoskeleton proteins'
p2481
sS'YDL083C'
p2482
S'Ribosome'
p2483
sS'YJR017C'
p2484
S'Chaperones and folding catalysts'
p2485
sS'YPL180W'
p2486
S''
sS'YKL113C'
p2487
S'DNA replication complex'
p2488
sS'YNL027W'
p2489
S''
sS'YPL022W'
p2490
S'DNA replication control'
p2491
sS'YDR440W'
p2492
S'Chromosome-related'
p2493
sS'YJL060W'
p2494
S'Amino acid metabolism'
p2495
sS'YOR100C'
p2496
S''
sS'YDL205C'
p2497
S'Cofactor biosynthesis'
p2498
sS'YML080W'
p2499
S'Other enzymes'
p2500
sS'YNL116W'
p2501
S''
sS'YMR285C'
p2502
S''
sS'YLR291C'
p2503
S'Translation factors'
p2504
sS'YPR140W'
p2505
S'Lipid and steroid metabolism'
p2506
sS'YGR048W'
p2507
S'Protein processing in endoplasmic reticulum'
p2508
sS'YIR001C'
p2509
S'mRNA surveillance pathway'
p2510
sS'YDL230W'
p2511
S'Transport'
p2512
sS'YML115C'
p2513
S'Glycan metabolism'
p2514
sS'YJR113C'
p2515
S'Ribosome'
p2516
sS'YBR279W'
p2517
S''
sS'YOR281C'
p2518
S''
sS'YGL181W'
p2519
S''
sS'YOR340C'
p2520
S'Purine metabolism'
p2521
sS'YIL156W-B'
p2522
S''
sS'YKL032C'
p2523
S''
sS'YPL137C'
p2524
S''
sS'YOL158C'
p2525
S'Transport'
p2526
sS'YGR097W'
p2527
S''
sS'YOR122C'
p2528
S'Regulation of actin cytoskeleton'
p2529
sS'YBR151W'
p2530
S''
sS'YCL025C'
p2531
S''
sS'YNR034W'
p2532
S'Pentose phosphate metabolism'
p2533
sS'YGL231C'
p2534
S''
sS'YGR157W'
p2535
S'Lipid and steroid metabolism'
p2536
sS'YBR286W'
p2537
S'Peptidases'
p2538
sS'YJL165C'
p2539
S''
sS'YDR190C'
p2540
S'Chromosome-related'
p2541
sS'YAL031C'
p2542
S''
sS'YBL006C'
p2543
S'Chromosome-related'
p2544
sS'YLR340W'
p2545
S'Ribosome'
p2546
sS'YNL132W'
p2547
S'Ribosome biogenesis in eukaryotes'
p2548
sS'YMR070W'
p2549
S''
sS'YBR264C'
p2550
S'GTP-binding signaling proteins'
p2551
sS'YBR231C'
p2552
S''
sS'YBR246W'
p2553
S''
sS'YGR207C'
p2554
S''
sS'YLR275W'
p2555
S'Spliceosome'
p2556
sS'YMR230W'
p2557
S'Ribosome'
p2558
sS'YER095W'
p2559
S'Ubiquitin labeling'
p2560
sS'YHR076W'
p2561
S''
sS'YIL155C'
p2562
S'Lipid and steroid metabolism'
p2563
sS'YGR171C'
p2564
S'tRNA loading'
p2565
sS'YJL148W'
p2566
S'RNA polymerase'
p2567
sS'YAL048C'
p2568
S''
sS'YPL055C'
p2569
S''
sS'YAL013W'
p2570
S''
sS'YDR098C'
p2571
S''
sS'YPL009C'
p2572
S''
sS'YIL148W'
p2573
S'Ribosome'
p2574
sS'YNR016C'
p2575
S'Lipid and steroid metabolism'
p2576
sS'YJR099W'
p2577
S'Ubiquitin labeling'
p2578
sS'YLR259C'
p2579
S'Chaperones and folding catalysts'
p2580
sS'YNL052W'
p2581
S'Oxidative phosphorylation'
p2582
sS'YGL184C'
p2583
S'Amino acid metabolism'
p2584
sS'YKL005C'
p2585
S''
sS'YBR120C'
p2586
S''
sS'YLR085C'
p2587
S'Chromosome-related'
p2588
sS'YDR280W'
p2589
S'RNA degradation'
p2590
sS'YKL215C'
p2591
S'Amino acid metabolism'
p2592
sS'YDR418W'
p2593
S'Ribosome'
p2594
sS'YPL217C'
p2595
S'Ribosome biogenesis in eukaryotes'
p2596
sS'YHR114W'
p2597
S''
sS'YHR138C'
p2598
S''
sS'YBL024W'
p2599
S''
sS'YMR241W'
p2600
S''
sS'YPR189W'
p2601
S'RNA degradation'
p2602
sS'YGR028W'
p2603
S''
sS'YDL075W'
p2604
S'Ribosome'
p2605
sS'YDR127W'
p2606
S'Amino acid metabolism'
p2607
sS'YCL034W'
p2608
S''
sS'YDR118W'
p2609
S'Ubiquitin mediated proteolysis'
p2610
sS'YOL018C'
p2611
S'SNARE interactions in vesicular transport'
p2612
sS'YBR288C'
p2613
S''
sS'YOR220W'
p2614
S''
sS'YJR067C'
p2615
S''
sS'YOR259C'
p2616
S'Proteasome'
p2617
sS'YLL048C'
p2618
S''
sS'YNL264C'
p2619
S''
sS'YGR117C'
p2620
S''
sS'YER180C-A'
p2621
S''
sS'YGL174W'
p2622
S''
sS'YLL024C'
p2623
S'Chaperones and folding catalysts'
p2624
sS'YHL007C'
p2625
S'MAPK signaling pathway'
p2626
sS'YGL106W'
p2627
S''
sS'YOL027C'
p2628
S''
sS'YOR211C'
p2629
S''
sS'YCR002C'
p2630
S''
sS'YDR033W'
p2631
S''
sS'YPL120W'
p2632
S'Regulation of autophagy'
p2633
sS'YIL075C'
p2634
S'Proteasome'
p2635
sS'YOL145C'
p2636
S''
sS'YOR022C'
p2637
S''
sS'Q0065'
p2638
S'Oxidative phosphorylation'
p2639
sS'YHR038W'
p2640
S'Translation factors'
p2641
sS'YJL099W'
p2642
S''
sS'YHR149C'
p2643
S''
sS'YIL020C'
p2644
S'Amino acid metabolism'
p2645
sS'YOL098C'
p2646
S''
sS'YDR365W-A'
p2647
S''
sS'YBR208C'
p2648
S'Amino acid metabolism'
p2649
sS'YOR099W'
p2650
S'Glycan metabolism'
p2651
sS'YGL256W'
p2652
S'Glycolysis'
p2653
sS'YHL025W'
p2654
S'Chromosome-related'
p2655
sS'YIL097W'
p2656
S''
sS'YFR010W'
p2657
S'Ubiquitin labeling'
p2658
sS'YHL009C'
p2659
S''
sS'YMR311C'
p2660
S''
sS'YAL042W'
p2661
S''
sS'YDR251W'
p2662
S''
sS'YHR205W'
p2663
S''
sS'YKL052C'
p2664
S'Cytoskeleton proteins'
p2665
sS'YGR037C'
p2666
S''
sS'YLR304C'
p2667
S'TCA cycle and anaplerotic enzymes'
p2668
sS'YBL039C'
p2669
S'Pyrimidine metabolism'
p2670
sS'YER143W'
p2671
S''
sS'YNL048W'
p2672
S'Glycan metabolism'
p2673
sS'YDL153C'
p2674
S''
sS'YGL064C'
p2675
S''
sS'YGR284C'
p2676
S''
sS'YDL053C'
p2677
S''
sS'YHR075C'
p2678
S'Peptidases'
p2679
sS'YMR240C'
p2680
S'Spliceosome'
p2681
sS'YAL038W'
p2682
S'Glycolysis'
p2683
sS'YML074C'
p2684
S'Other enzymes'
p2685
sS'YKR062W'
p2686
S'Basal transcription factors'
p2687
sS'YNL286W'
p2688
S''
sS'YPL150W'
p2689
S''
sS'YPR069C'
p2690
S'Amino acid metabolism'
p2691
sS'YLR200W'
p2692
S'Chaperones and folding catalysts'
p2693
sS'YMR215W'
p2694
S'Cell wall'
p2695
sS'YDR051C'
p2696
S''
sS'YGR062C'
p2697
S''
sS'YDL108W'
p2698
S'Basal transcription factors'
p2699
sS'YER176W'
p2700
S''
sS'YHL035C'
p2701
S''
sS'YKR003W'
p2702
S''
sS'YBR078W'
p2703
S'Cell wall'
p2704
sS'YMR097C'
p2705
S''
sS'YBR030W'
p2706
S''
sS'YLR336C'
p2707
S''
sS'YDL133W'
p2708
S''
sS'YPL240C'
p2709
S'Chaperones and folding catalysts'
p2710
sS'YDL022W'
p2711
S'Lipid and steroid metabolism'
p2712
sS'YPR021C'
p2713
S''
sS'YLR044C'
p2714
S'Glycolysis'
p2715
sS'YGR244C'
p2716
S'TCA cycle and anaplerotic enzymes'
p2717
sS'YIR033W'
p2718
S''
sS'YDR496C'
p2719
S''
sS'YLR099C'
p2720
S''
sS'YOR074C'
p2721
S'Other central metabolism enzymes'
p2722
sS'YOR298C-A'
p2723
S''
sS'YML032C'
p2724
S'Homologous recombination'
p2725
sS'YLR146C'
p2726
S'Amino acid metabolism'
p2727
sS'YPR110C'
p2728
S'RNA polymerase'
p2729
sS'YBR267W'
p2730
S''
sS'YDR429C'
p2731
S'Translation factors'
p2732
sS'YAL047C'
p2733
S'Cytoskeleton proteins'
p2734
sS'YDL035C'
p2735
S'G protein-coupled receptors'
p2736
sS'YML010W'
p2737
S''
sS'YDL193W'
p2738
S''
sS'YER074W'
p2739
S'Ribosome'
p2740
sS'YER021W'
p2741
S'Proteasome'
p2742
sS'YMR208W'
p2743
S'Peroxisome'
p2744
sS'YER134C'
p2745
S''
sS'YEL052W'
p2746
S''
sS'YNL088W'
p2747
S'DNA replication control'
p2748
sS'YER161C'
p2749
S''
sS'YJL180C'
p2750
S''
sS'YHR103W'
p2751
S''
sS'YNL200C'
p2752
S''
sS'YDR498C'
p2753
S'SNARE interactions in vesicular transport'
p2754
sS'YOR257W'
p2755
S'Cytoskeleton proteins'
p2756
sS'YGR002C'
p2757
S'Chromosome-related'
p2758
sS'YIL039W'
p2759
S''
sS'YGR075C'
p2760
S'Spliceosome'
p2761
sS'YBR058C-A'
p2762
S''
sS'YOL113W'
p2763
S''
sS'YDR111C'
p2764
S'Carbon fixation in photosynthetic organisms'
p2765
sS'YGR253C'
p2766
S'Proteasome'
p2767
sS'YDR510W'
p2768
S'RNA transport'
p2769
sS'YKR082W'
p2770
S'RNA transport'
p2771
sS'YLR228C'
p2772
S''
sS'YOL115W'
p2773
S'RNA degradation'
p2774
sS'YBR199W'
p2775
S'Glycan metabolism'
p2776
sS'YBR023C'
p2777
S'Other central metabolism enzymes'
p2778
sS'YPR045C'
p2779
S''
sS'YLR419W'
p2780
S''
sS'YPR010C'
p2781
S'RNA polymerase'
p2782
sS'YPL231W'
p2783
S'Lipid and steroid metabolism'
p2784
sS'YLR148W'
p2785
S''
sS'YDR164C'
p2786
S''
sS'YDL082W'
p2787
S'Ribosome'
p2788
sS'YKL155C'
p2789
S''
sS'YPL133C'
p2790
S''
sS'YJR069C'
p2791
S''
sS'YCL055W'
p2792
S''
sS'YNR031C'
p2793
S'MAPK signaling pathway'
p2794
sS'YKR055W'
p2795
S'GTP-binding signaling proteins'
p2796
sS'YFL042C'
p2797
S''
sS'YPL081W'
p2798
S'Ribosome'
p2799
sS'YIR035C'
p2800
S''
sS'YDR148C'
p2801
S'TCA cycle and anaplerotic enzymes'
p2802
sS'YJR034W'
p2803
S''
sS'YDL045W-A'
p2804
S''
sS'YPL096W'
p2805
S'Protein processing in endoplasmic reticulum'
p2806
sS'YDL204W'
p2807
S'Protein processing in endoplasmic reticulum'
p2808
sS'YDR335W'
p2809
S'RNA transport'
p2810
sS'YPR141C'
p2811
S'Cytoskeleton proteins'
p2812
sS'YHR081W'
p2813
S'RNA degradation'
p2814
sS'YKR031C'
p2815
S'Endocytosis'
p2816
sS'YDR541C'
p2817
S''
sS'YGL189C'
p2818
S'Ribosome'
p2819
sS'YML081W'
p2820
S''
sS'YHR181W'
p2821
S''
sS'YDR342C'
p2822
S'Transport'
p2823
sS'YPL078C'
p2824
S'Oxidative phosphorylation'
p2825
sS'YDR211W'
p2826
S'Translation factors'
p2827
sS'YCR095C'
p2828
S''
sS'YMR128W'
p2829
S''
sS'YLL011W'
p2830
S'Ribosome biogenesis'
p2831
sS'YCR077C'
p2832
S'RNA degradation'
p2833
sS'YML130C'
p2834
S''
sS'YJL029C'
p2835
S''
sS'YER056C'
p2836
S''
sS'YGL130W'
p2837
S'Other enzymes'
p2838
sS'YMR157C'
p2839
S''
sS'YML063W'
p2840
S'Ribosome'
p2841
sS'YNL306W'
p2842
S''
sS'YML075C'
p2843
S'Cofactor biosynthesis'
p2844
sS'YNL191W'
p2845
S''
sS'YDR237W'
p2846
S''
sS'YOR297C'
p2847
S''
sS'YDR060W'
p2848
S''
sS'YBL072C'
p2849
S'Ribosome'
p2850
sS'YMR080C'
p2851
S'RNA transport'
p2852
sS'YGL187C'
p2853
S'Oxidative phosphorylation'
p2854
sS'YBR001C'
p2855
S'Carbohydrate metabolism'
p2856
sS'YNL246W'
p2857
S''
sS'YDR407C'
p2858
S''
sS'YHR196W'
p2859
S'Ribosome biogenesis in eukaryotes'
p2860
sS'YPR067W'
p2861
S''
sS'YML092C'
p2862
S'Proteasome'
p2863
sS'YML025C'
p2864
S''
sS'YDL124W'
p2865
S''
sS'YDR257C'
p2866
S''
sS'YJR074W'
p2867
S''
sS'YPR127W'
p2868
S'Cofactor biosynthesis'
p2869
sS'YGR266W'
p2870
S''
sS'YDL148C'
p2871
S''
sS'YMR102C'
p2872
S''
sS'YAL012W'
p2873
S'Amino acid metabolism'
p2874
sS'YHR163W'
p2875
S'Pentose phosphate metabolism'
p2876
sS'YJR134C'
p2877
S''
sS'YMR288W'
p2878
S'Spliceosome'
p2879
sS'YKL080W'
p2880
S'Phagosome'
p2881
sS'YBR167C'
p2882
S'Ribosome biogenesis in eukaryotes'
p2883
sS'YIL156W'
p2884
S'Ubiquitin labeling'
p2885
sS'YDR384C'
p2886
S''
sS'YPL196W'
p2887
S''
sS'YDR518W'
p2888
S'Chaperones and folding catalysts'
p2889
sS'YLR272C'
p2890
S'Chromosome-related'
p2891
sS'YHR100C'
p2892
S''
sS'YDL226C'
p2893
S'Endocytosis'
p2894
sS'YNR017W'
p2895
S''
sS'YNL168C'
p2896
S''
sS'YGL092W'
p2897
S''
sS'YCL039W'
p2898
S''
sS'YHR077C'
p2899
S'RNA transport'
p2900
sS'YJL212C'
p2901
S''
sS'YGR136W'
p2902
S''
sS'YML007W'
p2903
S'Transcription factors'
p2904
sS'YOR008C'
p2905
S'MAPK signaling pathway'
p2906
sS'YOR153W'
p2907
S'Transport'
p2908
sS'YDR041W'
p2909
S''
sS'YGL201C'
p2910
S'DNA replication complex'
p2911
sS'YNL113W'
p2912
S'RNA polymerase'
p2913
sS'YDR099W'
p2914
S'Cell cycle'
p2915
sS'YBR121C'
p2916
S'tRNA loading'
p2917
sS'YLR229C'
p2918
S'MAPK signaling pathway'
p2919
sS'YNL079C'
p2920
S''
sS'YMR062C'
p2921
S'Amino acid metabolism'
p2922
sS'YMR015C'
p2923
S'Lipid and steroid metabolism'
p2924
sS'YKL020C'
p2925
S''
sS'YAL007C'
p2926
S''
sS'YHR170W'
p2927
S'RNA transport'
p2928
sS'YCL026C-B'
p2929
S''
sS'YJL125C'
p2930
S'Other enzymes'
p2931
sS'YLR312W-A'
p2932
S''
sS'YBL090W'
p2933
S''
sS'YKL068W'
p2934
S''
sS'YDL166C'
p2935
S'Basal transcription factors'
p2936
sS'YKL142W'
p2937
S''
sS'YPL049C'
p2938
S'MAPK signaling pathway'
p2939
sS'YNL064C'
p2940
S'Chaperones and folding catalysts'
p2941
sS'YOR110W'
p2942
S''
sS'YLR045C'
p2943
S'Cytoskeleton proteins'
p2944
sS'YER081W'
p2945
S'Amino acid metabolism'
p2946
sS'YIL136W'
p2947
S''
sS'YPL178W'
p2948
S'Spliceosome'
p2949
sS'YHL010C'
p2950
S'Ubiquitin labeling'
p2951
sS'YGL057C'
p2952
S''
sS'YIR003W'
p2953
S''
sS'YDR450W'
p2954
S'Ribosome'
p2955
sS'YNL008C'
p2956
S''
sS'YOL111C'
p2957
S''
sS'YOR098C'
p2958
S''
sS'YDL120W'
p2959
S''
sS'YGL227W'
p2960
S''
sS'YIL018W'
p2961
S'Ribosome'
p2962
sS'YIL074C'
p2963
S'Amino acid metabolism'
p2964
sS'YMR312W'
p2965
S'Chromosome-related'
p2966
sS'YCL033C'
p2967
S''
sS'YIL161W'
p2968
S''
sS'YOR307C'
p2969
S''
sS'YOL144W'
p2970
S''
sS'YLR325C'
p2971
S'Ribosome'
p2972
sS'YHR039C'
p2973
S''
sS'YBR274W'
p2974
S'DNA repair and recombination proteins'
p2975
sS'YER131W'
p2976
S'Ribosome'
p2977
sS'YDL190C'
p2978
S'Protein processing in endoplasmic reticulum'
p2979
sS'YLR110C'
p2980
S'Cell wall'
p2981
sS'YCR042C'
p2982
S'Basal transcription factors'
p2983
sS'YDL188C'
p2984
S'mRNA surveillance pathway'
p2985
sS'YGR118W'
p2986
S'Ribosome'
p2987
sS'YCR035C'
p2988
S'RNA degradation'
p2989
sS'YGL065C'
p2990
S'Glycan metabolism'
p2991
sS'YOR052C'
p2992
S''
sS'YLR243W'
p2993
S''
sS'YAL001C'
p2994
S''
sS'YHR066W'
p2995
S''
sS'YAL054C'
p2996
S'Glycolysis'
p2997
sS'YOL051W'
p2998
S''
sS'YMR135C'
p2999
S''
sS'YLR032W'
p3000
S'Other enzymes'
p3001
sS'YOR045W'
p3002
S''
sS'YDR476C'
p3003
S''
sS'YDL046W'
p3004
S''
sS'YJR112W'
p3005
S'Chromosome-related'
p3006
sS'YBR252W'
p3007
S'DNA repair and recombination proteins'
p3008
sS'YGR116W'
p3009
S'Chromosome-related'
p3010
sS'YIL110W'
p3011
S''
sS'YJR083C'
p3012
S''
sS'YBR169C'
p3013
S'Chaperones and folding catalysts'
p3014
sS'YNL135C'
p3015
S'Chaperones and folding catalysts'
p3016
sS'YAL030W'
p3017
S'SNARE interactions in vesicular transport'
p3018
sS'YGL147C'
p3019
S'Ribosome'
p3020
sS'YBR263W'
p3021
S'Other central metabolism enzymes'
p3022
sS'YOL086C'
p3023
S'Glycolysis'
p3024
sS'YBL001C'
p3025
S''
sS'YNR035C'
p3026
S'Regulation of actin cytoskeleton'
p3027
sS'YDR019C'
p3028
S'Other central metabolism enzymes'
p3029
sS'YBL051C'
p3030
S''
sS'YGR150C'
p3031
S''
sS'YLR287C-A'
p3032
S'Ribosome'
p3033
sS'YEL055C'
p3034
S'DNA repair and recombination proteins'
p3035
sS'YGR058W'
p3036
S''
sS'YPR193C'
p3037
S''
sS'YDR381C-A'
p3038
S''
sS'YMR196W'
p3039
S''
sS'YBR053C'
p3040
S''
sS'YML013W'
p3041
S'Protein processing in endoplasmic reticulum'
p3042
sS'YNL207W'
p3043
S'Ribosome biogenesis in eukaryotes'
p3044
sS'YDR428C'
p3045
S'TCA cycle and anaplerotic enzymes'
p3046
sS'YLR029C'
p3047
S'Ribosome'
p3048
sS'YBR082C'
p3049
S'Protein processing in endoplasmic reticulum'
p3050
sS'YOR210W'
p3051
S'RNA polymerase'
p3052
sS'YBL034C'
p3053
S'Cytoskeleton proteins'
p3054
sS'YJR022W'
p3055
S'Spliceosome'
p3056
sS'YOL008W'
p3057
S''
sS'YER077C'
p3058
S''
sS'YHR104W'
p3059
S'Carbohydrate metabolism'
p3060
sS'YBR089C-A'
p3061
S''
sS'YCR054C'
p3062
S''
sS'YDR045C'
p3063
S'RNA polymerase'
p3064
sS'YHR092C'
p3065
S'Transport'
p3066
sS'YPL232W'
p3067
S'SNARE interactions in vesicular transport'
p3068
sS'YKR083C'
p3069
S'Cytoskeleton proteins'
p3070
sS'YMR209C'
p3071
S''
sS'YEL017W'
p3072
S''
sS'YGR252W'
p3073
S'Chromosome-related'
p3074
sS'YDL003W'
p3075
S'Chromosome-related'
p3076
sS'YER128W'
p3077
S''
sS'YDL235C'
p3078
S'MAPK signaling pathway'
p3079
sS'YDL215C'
p3080
S'Amino acid metabolism'
p3081
sS'YJR029W'
p3082
S''
sS'YDL078C'
p3083
S'TCA cycle and anaplerotic enzymes'
p3084
sS'YGR003W'
p3085
S'Ubiquitin mediated proteolysis'
p3086
sS'YDR517W'
p3087
S''
sS'YGL043W'
p3088
S''
sS'YOR256C'
p3089
S''
sS'YPR011C'
p3090
S''
sS'YLL061W'
p3091
S''
sS'YDR110W'
p3092
S'Cell cycle'
p3093
sS'YLR061W'
p3094
S'Ribosome'
p3095
sS'YAR010C'
p3096
S''
sS'YKL214C'
p3097
S''
sS'YOL088C'
p3098
S''
sS'YOR361C'
p3099
S'Translation factors'
p3100
sS'YOR221C'
p3101
S'Lipid and steroid metabolism'
p3102
sS'YKR095W'
p3103
S'RNA transport'
p3104
sS'YMR223W'
p3105
S'Ubiquitin labeling'
p3106
sS'YMR107W'
p3107
S''
sS'YBR061C'
p3108
S'Ribosome biogenesis'
p3109
sS'YOL064C'
p3110
S'Amino acid metabolism'
p3111
sS'YBL023C'
p3112
S'DNA replication complex'
p3113
sS'YNR010W'
p3114
S''
sS'YGL078C'
p3115
S''
sS'YBR261C'
p3116
S''
sS'YDR435C'
p3117
S''
sS'YER151C'
p3118
S'Ubiquitin labeling'
p3119
sS'YIL098C'
p3120
S''
sS'YLR005W'
p3121
S'Basal transcription factors'
p3122
sS'YLL027W'
p3123
S''
sS'YDL171C'
p3124
S'Amino acid metabolism'
p3125
sS'YOR253W'
p3126
S''
sS'YNL267W'
p3127
S'Phosphatidylinositol signaling system'
p3128
sS'YCL001W'
p3129
S''
sS'YGR198W'
p3130
S''
sS'YKL189W'
p3131
S''
sS'YAR007C'
p3132
S'Transcription factors'
p3133
sS'YPL254W'
p3134
S'Chromosome-related'
p3135
sS'YGR010W'
p3136
S'Cofactor biosynthesis'
p3137
sS'YML064C'
p3138
S'Cell cycle'
p3139
sS'YEL020C'
p3140
S'Peroxisome'
p3141
sS'YER055C'
p3142
S'Amino acid metabolism'
p3143
sS'YNL307C'
p3144
S'Other enzymes'
p3145
sS'YCR016W'
p3146
S''
sS'YLR438W'
p3147
S'Amino acid metabolism'
p3148
sS'YGL238W'
p3149
S''
sS'YIL030C'
p3150
S'Protein processing in endoplasmic reticulum'
p3151
sS'YJL044C'
p3152
S''
sS'YCR094W'
p3153
S''
sS'YBR085W'
p3154
S''
sS'YGL186C'
p3155
S''
sS'YDR234W'
p3156
S'Amino acid metabolism'
p3157
sS'YGR218W'
p3158
S'RNA transport'
p3159
sS'YEL060C'
p3160
S'Chaperones and folding catalysts'
p3161
sS'YKR049C'
p3162
S''
sS'YML081C-A'
p3163
S'Oxidative phosphorylation'
p3164
sS'YPR179C'
p3165
S''
sS'YHR195W'
p3166
S''
sS'YGR267C'
p3167
S'Cofactor biosynthesis'
p3168
sS'YGL091C'
p3169
S''
sS'YDL125C'
p3170
S''
sS'YPR006C'
p3171
S'TCA cycle and anaplerotic enzymes'
p3172
sS'YGL022W'
p3173
S'Protein processing in endoplasmic reticulum'
p3174
sS'YML079W'
p3175
S''
sS'YJL153C'
p3176
S'Carbohydrate metabolism'
p3177
sS'YMR049C'
p3178
S''
sS'YDR229W'
p3179
S''
sS'YJR075W'
p3180
S'Glycan metabolism'
p3181
sS'YPR124W'
p3182
S''
sS'YLL029W'
p3183
S'Peptidases'
p3184
sS'YDL181W'
p3185
S''
sS'YGR285C'
p3186
S'Chaperones and folding catalysts'
p3187
sS'YNL232W'
p3188
S'RNA degradation'
p3189
sS'YCR079W'
p3190
S''
sS'YGL254W'
p3191
S''
sS'YER017C'
p3192
S'Chaperones and folding catalysts'
p3193
sS'YBR022W'
p3194
S''
sS'YMR214W'
p3195
S'Protein processing in endoplasmic reticulum'
p3196
sS'YCR030C'
p3197
S''
sS'YNR066C'
p3198
S''
sS'YER177W'
p3199
S'Cell cycle'
p3200
sS'YDR500C'
p3201
S'Ribosome'
p3202
sS'YER048C'
p3203
S''
sS'YPR020W'
p3204
S'Oxidative phosphorylation'
p3205
sS'YML048W'
p3206
S''
sS'YNL112W'
p3207
S'Spliceosome'
p3208
sS'YLR027C'
p3209
S'Amino acid metabolism'
p3210
sS'YBR031W'
p3211
S'Ribosome'
p3212
sS'YDL132W'
p3213
S'Protein processing in endoplasmic reticulum'
p3214
sS'YBL064C'
p3215
S'Other enzymes'
p3216
sS'YGR245C'
p3217
S''
sS'YNL009W'
p3218
S'TCA cycle and anaplerotic enzymes'
p3219
sS'YPL243W'
p3220
S'Protein export'
p3221
sS'YMR096W'
p3222
S'Cofactor biosynthesis'
p3223
sS'YDL025C'
p3224
S''
sS'YGR229C'
p3225
S''
sS'YLR167W'
p3226
S'Ribosome'
p3227
sS'YLR293C'
p3228
S'RNA transport'
p3229
sS'YDL147W'
p3230
S'Proteasome'
p3231
sS'YFL029C'
p3232
S'Cell cycle'
p3233
sS'YJL171C'
p3234
S''
sS'YBL091C'
p3235
S'Peptidases'
p3236
sS'YOR262W'
p3237
S''
sS'YMR014W'
p3238
S''
sS'YDR453C'
p3239
S'Other enzymes'
p3240
sS'YPL048W'
p3241
S'Translation factors'
p3242
sS'YPR133C'
p3243
S''
sS'YIL137C'
p3244
S''
sS'YKL069W'
p3245
S'Amino acid metabolism'
p3246
sS'YNL123W'
p3247
S''
sS'YEL018W'
p3248
S'Chromosome-related'
p3249
sS'YPL037C'
p3250
S'Translation factors'
p3251
sS'YKL145W'
p3252
S'Proteasome'
p3253
sS'YEL056W'
p3254
S'Chromosome-related'
p3255
sS'YLR373C'
p3256
S''
sS'YOR111W'
p3257
S''
sS'YFL016C'
p3258
S''
sS'YDR322C-A'
p3259
S''
sS'YJL162C'
p3260
S''
sS'YKL198C'
p3261
S''
sS'YLR260W'
p3262
S'VEGF signaling pathway'
p3263
sS'YPL117C'
p3264
S'Cofactor biosynthesis'
p3265
sS'YKL152C'
p3266
S'Glycolysis'
p3267
sS'YKR001C'
p3268
S''
sS'YGR227W'
p3269
S'Glycan metabolism'
p3270
sS'YJL100W'
p3271
S''
sS'YPL221W'
p3272
S''
sS'YBL082C'
p3273
S'Glycan metabolism'
p3274
sS'YDL081C'
p3275
S'Ribosome'
p3276
sS'YIR034C'
p3277
S'Amino acid metabolism'
p3278
sS'YDR165W'
p3279
S''
sS'YGL013C'
p3280
S''
sS'YFL018C'
p3281
S'Glycolysis'
p3282
sS'YJR068W'
p3283
S'DNA replication complex'
p3284
sS'YJL139C'
p3285
S'Glycan metabolism'
p3286
sS'YDL178W'
p3287
S''
sS'YDR212W'
p3288
S'Chaperones and folding catalysts'
p3289
sS'YLR170C'
p3290
S''
sS'YML086C'
p3291
S'Other enzymes'
p3292
sS'YPL097W'
p3293
S'tRNA loading'
p3294
sS'YDL207W'
p3295
S''
sS'YPL079W'
p3296
S'Ribosome'
p3297
sS'YPL015C'
p3298
S'Cofactor biosynthesis'
p3299
sS'YGL213C'
p3300
S'RNA degradation'
p3301
sS'YDR231C'
p3302
S''
sS'YMR038C'
p3303
S'Other enzymes'
p3304
sS'YJL066C'
p3305
S''
sS'YHR182W'
p3306
S''
sS'YDL107W'
p3307
S''
sS'YNR029C'
p3308
S''
sS'YGR091W'
p3309
S'Spliceosome'
p3310
sS'YHR001W'
p3311
S''
sS'YDR477W'
p3312
S'Meiosis'
p3313
sS'YOR042W'
p3314
S''
sS'YMR088C'
p3315
S''
sS'YJR148W'
p3316
S'Amino acid metabolism'
p3317
sS'YBR253W'
p3318
S''
sS'YIL042C'
p3319
S''
sS'YKL217W'
p3320
S'Transport'
p3321
sS'YIL035C'
p3322
S'Ribosome biogenesis in eukaryotes'
p3323
sS'YIL111W'
p3324
S'Oxidative phosphorylation'
p3325
sS'YBR153W'
p3326
S'Cofactor biosynthesis'
p3327
sS'YLL062C'
p3328
S''
sS'YML121W'
p3329
S''
sS'YOL087C'
p3330
S''
sS'YNL134C'
p3331
S''
sS'YPL215W'
p3332
S''
sS'YHR154W'
p3333
S''
sS'YPL135W'
p3334
S''
sS'YGR014W'
p3335
S''
sS'YHL014C'
p3336
S''
sS'YBR262C'
p3337
S''
sS'YMR304W'
p3338
S'Ubiquitin labeling'
p3339
sS'YKL010C'
p3340
S'Ubiquitin mediated proteolysis'
p3341
sS'YPL255W'
p3342
S'Cytoskeleton proteins'
p3343
sS'YMR289W'
p3344
S''
sS'YPL199C'
p3345
S''
sS'YFL036W'
p3346
S'Other enzymes'
p3347
sS'YGR177C'
p3348
S'Other enzymes'
p3349
sS'YDL209C'
p3350
S''
sS'YKL045W'
p3351
S'DNA replication complex'
p3352
sS'YMR239C'
p3353
S'Ribosome biogenesis'
p3354
sS'YML103C'
p3355
S'RNA transport'
p3356
sS'YMR243C'
p3357
S''
sS'YGR205W'
p3358
S'Amino acid metabolism'
p3359
sS'YIL051C'
p3360
S'Amino acid metabolism'
p3361
sS'YPL057C'
p3362
S''
sS'YNL074C'
p3363
S''
sS'YDR365C'
p3364
S''
sS'YPL151C'
p3365
S'Spliceosome'
p3366
sS'YKL007W'
p3367
S'Cytoskeleton proteins'
p3368
sS'YNL169C'
p3369
S'Lipid and steroid metabolism'
p3370
sS'YLR440C'
p3371
S''
sS'YGL206C'
p3372
S'Endocytosis'
p3373
sS'YDL225W'
p3374
S''
sS'YHR070W'
p3375
S''
sS'YDR460W'
p3376
S'Basal transcription factors'
p3377
sS'YOL025W'
p3378
S''
sS'YLR364W'
p3379
S''
sS'YKL085W'
p3380
S'TCA cycle and anaplerotic enzymes'
p3381
sS'YNR043W'
p3382
S'Cofactor biosynthesis'
p3383
sS'YOR360C'
p3384
S'Purine metabolism'
p3385
sS'YOR335C'
p3386
S'tRNA loading'
p3387
sS'YOL089C'
p3388
S''
sS'YMR099C'
p3389
S'Glycolysis'
p3390
sS'YLR193C'
p3391
S''
sS'YIL064W'
p3392
S''
sS'YOL065C'
p3393
S'Phosphatidylinositol signaling system'
p3394
sS'YDR097C'
p3395
S'Mismatch repair'
p3396
sS'YBL022C'
p3397
S'Peptidases'
p3398
sS'YGL164C'
p3399
S''
sS'YER156C'
p3400
S''
sS'YNL298W'
p3401
S''
sS'YGR013W'
p3402
S''
sS'YHR057C'
p3403
S'Other enzymes'
p3404
sS'YOR095C'
p3405
S'Pentose phosphate metabolism'
p3406
sS'YEL038W'
p3407
S'Amino acid metabolism'
p3408
sS'YDR392W'
p3409
S'Chromosome-related'
p3410
sS'YOR227W'
p3411
S''
sS'YLL026W'
p3412
S''
sS'YDR286C'
p3413
S''
sS'YGL108C'
p3414
S''
sS'YLR051C'
p3415
S''
sS'YDR388W'
p3416
S''
sS'YLR368W'
p3417
S''
sS'YMR028W'
p3418
S''
sS'YPL208W'
p3419
S''
sS'YOL147C'
p3420
S''
sS'YNL280C'
p3421
S'Lipid and steroid metabolism'
p3422
sS'YJR047C'
p3423
S'Translation factors'
p3424
sS'YGL083W'
p3425
S''
sS'YGL220W'
p3426
S''
sS'YPR089W'
p3427
S''
sS'YBR233W'
p3428
S''
sS'YPL122C'
p3429
S'Basal transcription factors'
p3430
sS'YGR082W'
p3431
S''
sS'YDL115C'
p3432
S''
sS'YDL086W'
p3433
S'Other enzymes'
p3434
sS'YHR012W'
p3435
S''
sS'YIL022W'
p3436
S''
sS'YLR406C'
p3437
S'Ribosome'
p3438
sS'YNL248C'
p3439
S'RNA polymerase'
p3440
sS'YHR202W'
p3441
S''
sS'YDL140C'
p3442
S'RNA polymerase'
p3443
sS'YGR206W'
p3444
S'Endocytosis'
p3445
sS'YGR119C'
p3446
S''
sS'YOL127W'
p3447
S'Ribosome'
p3448
sS'YLR454W'
p3449
S''
sS'YNL224C'
p3450
S''
sS'YGR120C'
p3451
S''
sS'YDR539W'
p3452
S''
sS'YBR025C'
p3453
S''
sS'YML001W'
p3454
S'GTP-binding signaling proteins'
p3455
sS'YOR187W'
p3456
S'Translation factors'
p3457
sS'YER016W'
p3458
S'Cytoskeleton proteins'
p3459
sS'YJR100C'
p3460
S''
sS'YGR286C'
p3461
S'Cofactor biosynthesis'
p3462
sS'YDL101C'
p3463
S'DNA repair and recombination proteins'
p3464
sS'YCR037C'
p3465
S''
sS'YIR031C'
p3466
S'Glycolysis'
p3467
sS'YMR217W'
p3468
S'Peptidases'
p3469
sS'YOR239W'
p3470
S''
sS'YNL320W'
p3471
S''
sS'YCR086W'
p3472
S''
sS'YDR494W'
p3473
S''
sS'YLR026C'
p3474
S'SNARE interactions in vesicular transport'
p3475
sS'YLR139C'
p3476
S''
sS'YDL131W'
p3477
S'Pyruvate metabolism'
p3478
sS'YIL160C'
p3479
S'Lipid and steroid metabolism'
p3480
sS'YMR277W'
p3481
S'Other enzymes'
p3482
sS'Q0045'
p3483
S'Oxidative phosphorylation'
p3484
sS'YMR095C'
p3485
S'Cofactor biosynthesis'
p3486
sS'YML049C'
p3487
S'Spliceosome'
p3488
sS'YLR064W'
p3489
S''
sS'YER138C'
p3490
S''
sS'YLL004W'
p3491
S'DNA replication control'
p3492
sS'YER049W'
p3493
S''
sS'YGL125W'
p3494
S'Other central metabolism enzymes'
p3495
sS'YMR255W'
p3496
S''
sS'YGL068W'
p3497
S''
sS'YLR028C'
p3498
S'Other central metabolism enzymes'
p3499
sS'YER136W'
p3500
S''
sS'YER056C-A'
p3501
S'Ribosome'
p3502
sS'YDR028C'
p3503
S''
sS'YOR217W'
p3504
S'DNA replication complex'
p3505
sS'YBL035C'
p3506
S'DNA replication complex'
p3507
sS'YPL010W'
p3508
S''
sS'YCR057C'
p3509
S'Ribosome biogenesis in eukaryotes'
p3510
sS'YNL206C'
p3511
S''
sS'YMR197C'
p3512
S'SNARE interactions in vesicular transport'
p3513
sS'YAR071W'
p3514
S'Cofactor biosynthesis'
p3515
sS'YLR060W'
p3516
S'tRNA loading'
p3517
sS'YDR516C'
p3518
S''
sS'YPL233W'
p3519
S'Chromosome-related'
p3520
sS'YIL063C'
p3521
S''
sS'YGL059W'
p3522
S''
sS'YGR251W'
p3523
S''
sS'YPR047W'
p3524
S'tRNA loading'
p3525
sS'YKL219W'
p3526
S''
sS'YML091C'
p3527
S'RNA transport'
p3528
sS'YCL004W'
p3529
S'Lipid and steroid metabolism'
p3530
sS'YBR049C'
p3531
S'Transcription factors'
p3532
sS'YDR044W'
p3533
S'Cofactor biosynthesis'
p3534
sS'YOR193W'
p3535
S''
sS'YKR080W'
p3536
S'Other central metabolism enzymes'
p3537
sS'YDL079C'
p3538
S'Other enzymes'
p3539
sS'YKL078W'
p3540
S''
sS'YDL002C'
p3541
S'Chromosome-related'
p3542
sS'YDL110C'
p3543
S''
sS'YNL180C'
p3544
S'GTP-binding signaling proteins'
p3545
sS'YOR037W'
p3546
S''
sS'YIR037W'
p3547
S'Cofactor biosynthesis'
p3548
sS'YDR071C'
p3549
S'Cofactor biosynthesis'
p3550
sS'YDL098C'
p3551
S'Spliceosome'
p3552
sS'YGL012W'
p3553
S'Lipid and steroid metabolism'
p3554
sS'YGR129W'
p3555
S'Spliceosome'
p3556
sS'YJL101C'
p3557
S'Amino acid metabolism'
p3558
sS'YKL160W'
p3559
S''
sS'YBL069W'
p3560
S''
sS'YNL040W'
p3561
S''
sS'YDR353W'
p3562
S'Pyrimidine metabolism'
p3563
sS'YMR139W'
p3564
S'Meiosis'
p3565
sS'YJL001W'
p3566
S'Proteasome'
p3567
sS'YDL080C'
p3568
S'Glycolysis'
p3569
sS'YJL049W'
p3570
S'Endocytosis'
p3571
sS'YHR183W'
p3572
S'Pentose phosphate metabolism'
p3573
sS'YDL085C-A'
p3574
S''
sS'YJL138C'
p3575
S'RNA transport'
p3576
sS'YOR129C'
p3577
S''
sS'YPR143W'
p3578
S''
sS'YGL010W'
p3579
S''
sS'YOL080C'
p3580
S''
sS'YHR060W'
p3581
S''
sS'YBR010W'
p3582
S'Chromosome-related'
p3583
sS'YER094C'
p3584
S'Proteasome'
p3585
sS'YHR083W'
p3586
S''
sS'YGR208W'
p3587
S'Amino acid metabolism'
p3588
sS'YKL119C'
p3589
S''
sS'YPL016W'
p3590
S'Chromosome-related'
p3591
sS'YGR214W'
p3592
S'Ribosome'
p3593
sS'YBL058W'
p3594
S'Protein processing in endoplasmic reticulum'
p3595
sS'YER101C'
p3596
S''
sS'YKR079C'
p3597
S'RNA transport'
p3598
sS'YDR171W'
p3599
S'Chaperones and folding catalysts'
p3600
sS'YLR086W'
p3601
S'Chromosome-related'
p3602
sS'YLR439W'
p3603
S''
sS'YCR020C'
p3604
S''
sS'YML030W'
p3605
S''
sS'YCL051W'
p3606
S''
sS'YOR127W'
p3607
S''
sS'YER001W'
p3608
S'Glycan metabolism'
p3609
sS'YLL013C'
p3610
S''
sS'YOR319W'
p3611
S'Spliceosome'
p3612
sS'YPR125W'
p3613
S''
sS'YGL023C'
p3614
S''
sS'YHR049W'
p3615
S''
sS'YBR007C'
p3616
S''
sS'YMR115W'
p3617
S''
sS'YDL126C'
p3618
S'Protein processing in endoplasmic reticulum'
p3619
sS'YDR228C'
p3620
S'mRNA surveillance pathway'
p3621
sS'YOL052C'
p3622
S'Amino acid metabolism'
p3623
sS'YMR260C'
p3624
S'Translation factors'
p3625
sS'YGR264C'
p3626
S'tRNA loading'
p3627
sS'YML078W'
p3628
S'Other enzymes'
p3629
sS'YOR158W'
p3630
S''
sS'YGR140W'
p3631
S'Chromosome-related'
p3632
sS'YDL208W'
p3633
S'Ribosome biogenesis in eukaryotes'
p3634
sS'YPL074W'
p3635
S''
sS'YJR025C'
p3636
S'Amino acid metabolism'
p3637
sS'YDR475C'
p3638
S''
sS'YBR145W'
p3639
S'Glycolysis'
p3640
sS'YDR339C'
p3641
S'Ribosome biogenesis in eukaryotes'
p3642
sS'YNL310C'
p3643
S''
sS'YFL037W'
p3644
S'Cytoskeleton proteins'
p3645
sS'YJR132W'
p3646
S''
sS'YOR075W'
p3647
S'SNARE interactions in vesicular transport'
p3648
sS'YPL169C'
p3649
S'RNA transport'
p3650
sS'YPL116W'
p3651
S'Chromosome-related'
p3652
sS'YGR174C'
p3653
S''
sS'YDL224C'
p3654
S''
sS'YLR181C'
p3655
S'Endocytosis'
p3656
sS'YLR225C'
p3657
S''
sS'YGL207W'
p3658
S''
sS'YNL111C'
p3659
S''
sS'YCL067C'
p3660
S'Transcription factors'
p3661
sS'YPL058C'
p3662
S''
sS'YLR326W'
p3663
S''
sS'YGR134W'
p3664
S''
sS'YLR270W'
p3665
S'RNA degradation'
p3666
sS'YKL184W'
p3667
S'Amino acid metabolism'
p3668
sS'YML067C'
p3669
S''
sS'YLR309C'
p3670
S''
sS'YHR156C'
p3671
S''
sS'YPR086W'
p3672
S'Basal transcription factors'
p3673
sS'YJR125C'
p3674
S''
sS'YIL021W'
p3675
S'RNA polymerase'
p3676
sS'YMR060C'
p3677
S''
sS'YJL012C'
p3678
S''
sS'YMR170C'
p3679
S'Glycolysis'
p3680
sS'YDR270W'
p3681
S'Other enzymes'
p3682
sS'YLR149C'
p3683
S''
sS'YBR275C'
p3684
S'DNA replication control'
p3685
sS'YJR003C'
p3686
S''
sS'YKL026C'
p3687
S'Cofactor biosynthesis'
p3688
sS'YDL144C'
p3689
S''
sS'YFL028C'
p3690
S'RNA degradation'
p3691
sS'YJR078W'
p3692
S'Amino acid metabolism'
p3693
sS'YNL243W'
p3694
S''
sS'YLR080W'
p3695
S''
sS'YMR016C'
p3696
S'Meiosis'
p3697
sS'YKR020W'
p3698
S''
sS'YDR371W'
p3699
S'Carbohydrate metabolism'
p3700
sS'YDR456W'
p3701
S''
sS'YDR308C'
p3702
S''
sS'YLR372W'
p3703
S'Lipid and steroid metabolism'
p3704
sS'YNL062C'
p3705
S''
sS'YMR004W'
p3706
S''
sS'YER083C'
p3707
S''
sS'YHR050W'
p3708
S''
sS'YBR118W'
p3709
S'Translation factors'
p3710
sS'YDR324C'
p3711
S'Ribosome biogenesis in eukaryotes'
p3712
sS'YLR389C'
p3713
S'Peptidases'
p3714
sS'YJL072C'
p3715
S'DNA replication control'
p3716
sS'YHR172W'
p3717
S'Cytoskeleton proteins'
p3718
sS'YOR112W'
p3719
S''
sS'YFL017C'
p3720
S'Other central metabolism enzymes'
p3721
sS'YDL168W'
p3722
S'Glycolysis'
p3723
sS'YDR262W'
p3724
S''
sS'YKL144C'
p3725
S'RNA polymerase'
p3726
sS'YNL175C'
p3727
S''
sS'YKL091C'
p3728
S''
sS'YDR084C'
p3729
S''
sS'YBR234C'
p3730
S'Regulation of actin cytoskeleton'
p3731
sS'YJR143C'
p3732
S'Glycan metabolism'
p3733
sS'YOR356W'
p3734
S''
sS'YFR013W'
p3735
S''
sS'YNL182C'
p3736
S''
sS'YPR088C'
p3737
S'Protein export'
p3738
sS'YKL163W'
p3739
S'Cell wall'
p3740
sS'YHR013C'
p3741
S'Other enzymes'
p3742
sS'YBR196C'
p3743
S'Glycolysis'
p3744
sS'YOL040C'
p3745
S'Ribosome'
p3746
sS'YNL287W'
p3747
S''
sS'YOR308C'
p3748
S'Spliceosome'
p3749
sS'YOL146W'
p3750
S'DNA replication control'
p3751
sS'YGL221C'
p3752
S''
sS'YPL123C'
p3753
S'Other enzymes'
p3754
sS'YGR034W'
p3755
S'Ribosome'
p3756
sS'YBR229C'
p3757
S'Protein processing in endoplasmic reticulum'
p3758
sS'YDR297W'
p3759
S'Lipid and steroid metabolism'
p3760
sS'YNL290W'
p3761
S'DNA replication complex'
p3762
sS'YBL010C'
p3763
S''
sS'YOR131C'
p3764
S''
sS'YDR139C'
p3765
S''
sS'YOR372C'
p3766
S''
sS'YGR123C'
p3767
S'MAPK signaling pathway'
p3768
sS'YMR314W'
p3769
S'Proteasome'
p3770
sS'YLR455W'
p3771
S''
sS'YAL021C'
p3772
S'RNA degradation'
p3773
sS'YNL247W'
p3774
S'tRNA loading'
p3775
sS'YHR128W'
p3776
S'Pyrimidine metabolism'
p3777
sS'YGL122C'
p3778
S''
sS'YOR316C'
p3779
S''
sS'YCL011C'
p3780
S''
sS'YNL227C'
p3781
S'Ribosome biogenesis'
p3782
sS'YBR123C'
p3783
S''
sS'YBR198C'
p3784
S'Basal transcription factors'
p3785
sS'YGR090W'
p3786
S'Ribosome biogenesis in eukaryotes'
p3787
sS'YFR028C'
p3788
S'Cell cycle'
p3789
sS'YOR043W'
p3790
S''
sS'YDR470C'
p3791
S''
sS'YIL034C'
p3792
S''
sS'YJR149W'
p3793
S'Amino acid metabolism'
p3794
sS'YIL043C'
p3795
S'Other central metabolism enzymes'
p3796
sS'YKL071W'
p3797
S''
sS'YPL134C'
p3798
S''
sS'YIR032C'
p3799
S'Purine metabolism'
p3800
sS'YGL141W'
p3801
S'Ubiquitin mediated proteolysis'
p3802
sS'YBR152W'
p3803
S''
sS'YJL087C'
p3804
S'Other enzymes'
p3805
sS'YLR347C'
p3806
S'RNA transport'
p3807
sS'YLR460C'
p3808
S''
sS'YDR292C'
p3809
S'Protein export'
p3810
sS'YNL157W'
p3811
S''
sS'YHR206W'
p3812
S''
sS'YPL143W'
p3813
S'Ribosome'
p3814
sS'YBR218C'
p3815
S'TCA cycle and anaplerotic enzymes'
p3816
sS'YAL036C'
p3817
S''
sS'YCL028W'
p3818
S''
sS'YML120C'
p3819
S'Oxidative phosphorylation'
p3820
sS'YHR005C-A'
p3821
S''
sS'YHR106W'
p3822
S'Pyrimidine metabolism'
p3823
sS'YOR216C'
p3824
S''
sS'YNL164C'
p3825
S''
sS'YHR208W'
p3826
S'Amino acid metabolism'
p3827
sS'YDL065C'
p3828
S'Peroxisome'
p3829
sS'YGL244W'
p3830
S''
sS'YDL156W'
p3831
S''
sS'YMR167W'
p3832
S'Mismatch repair'
p3833
sS'YBL036C'
p3834
S''
sS'YNL229C'
p3835
S'Cofactor biosynthesis'
p3836
sS'YBR080C'
p3837
S'Other enzymes'
p3838
sS'YPR191W'
p3839
S'Oxidative phosphorylation'
p3840
sS'YCR027C'
p3841
S'GTP-binding signaling proteins'
p3842
sS'YER137C'
p3843
S''
sS'YDL030W'
p3844
S'Spliceosome'
p3845
sS'YDR027C'
p3846
S''
sS'YHR068W'
p3847
S'Other enzymes'
p3848
sS'YER071C'
p3849
S''
sS'YNL272C'
p3850
S''
sS'YBR048W'
p3851
S'Ribosome'
p3852
sS'YKL218C'
p3853
S''
sS'YKR081C'
p3854
S''
sS'YEL011W'
p3855
S'Carbohydrate metabolism'
p3856
sS'YGR001C'
p3857
S''
sS'YDL001W'
p3858
S''
sS'YBL107C'
p3859
S''
sS'YNL003C'
p3860
S''
sS'YJL183W'
p3861
S'Glycan metabolism'
p3862
sS'YPL218W'
p3863
S'Protein processing in endoplasmic reticulum'
p3864
sS'YGR250C'
p3865
S''
sS'YDR047W'
p3866
S'Cofactor biosynthesis'
p3867
sS'YOR254C'
p3868
S'Chaperones and folding catalysts'
p3869
sS'YOR201C'
p3870
S'Amino acid metabolism'
p3871
sS'YOR276W'
p3872
S'Translation factors'
p3873
sS'YMR309C'
p3874
S'Translation factors'
p3875
sS'YOR089C'
p3876
S'GTP-binding signaling proteins'
p3877
sS'YMR023C'
p3878
S''
sS'YIL065C'
p3879
S''
sS'YOL031C'
p3880
S'Protein processing in endoplasmic reticulum'
p3881
sS'YBR071W'
p3882
S''
sS'YLR186W'
p3883
S'Ribosome biogenesis in eukaryotes'
p3884
sS'YNL258C'
p3885
S''
sS'YOR336W'
p3886
S'Protein processing in endoplasmic reticulum'
p3887
sS'YJR094W-A'
p3888
S'Ribosome'
p3889
sS'YKL216W'
p3890
S'Pyrimidine metabolism'
p3891
sS'YML021C'
p3892
S'Base excision repair'
p3893
sS'YGR012W'
p3894
S'Amino acid metabolism'
p3895
sS'YHL004W'
p3896
S'Ribosome'
p3897
sS'YLL045C'
p3898
S'Ribosome'
p3899
sS'YOR209C'
p3900
S'Cofactor biosynthesis'
p3901
sS'YJL205C'
p3902
S''
sS'YNL098C'
p3903
S'GTP-binding signaling proteins'
p3904
sS'YKR097W'
p3905
S'Glycolysis'
p3906
sS'YOR094W'
p3907
S'GTP-binding signaling proteins'
p3908
sS'YER157W'
p3909
S''
sS'YOR370C'
p3910
S''
sS'YHR116W'
p3911
S''
sS'YCR090C'
p3912
S''
sS'YEL037C'
p3913
S'Protein processing in endoplasmic reticulum'
p3914
sS'YHR094C'
p3915
S'Transport'
p3916
sS'YHR062C'
p3917
S'RNA transport'
p3918
sS'YBR141C'
p3919
S''
sS'YMR054W'
p3920
S'Oxidative phosphorylation'
p3921
sS'YMR322C'
p3922
S''
sS'YBL059W'
p3923
S''
sS'YDL027C'
p3924
S''
sS'YER053C'
p3925
S''
sS'YPL051W'
p3926
S'GTP-binding signaling proteins'
p3927
sS'YDL217C'
p3928
S''
sS'YCL050C'
p3929
S'Amino acid metabolism'
p3930
sS'YGR047C'
p3931
S''
sS'YDR049W'
p3932
S''
sS'YKR014C'
p3933
S'GTP-binding signaling proteins'
p3934
sS'YKR078W'
p3935
S''
sS'YPR079W'
p3936
S'Glycan binding proteins'
p3937
sS'YAL060W'
p3938
S'Butanoate metabolism'
p3939
sS'YJL026W'
p3940
S'Purine metabolism'
p3941
sS'YLR412W'
p3942
S''
sS'YER002W'
p3943
S''
sS'YDR170C'
p3944
S''
sS'Q0140'
p3945
S''
sS'YBL075C'
p3946
S'Chaperones and folding catalysts'
p3947
sS'YDR272W'
p3948
S'Glycolysis'
p3949
sS'YPR008W'
p3950
S''
sS'YGL020C'
p3951
S''
sS'YOR160W'
p3952
S''
sS'YMR083W'
p3953
S'Glycolysis'
p3954
sS'YOR294W'
p3955
S''
sS'YEL062W'
p3956
S''
sS'YMR261C'
p3957
S'Carbohydrate metabolism'
p3958
sS'YMR112C'
p3959
S''
sS'YJL039C'
p3960
S'RNA transport'
p3961
sS'YBR006W'
p3962
S'Other central metabolism enzymes'
p3963
sS'YLR038C'
p3964
S'Oxidative phosphorylation'
p3965
sS'YOR038C'
p3966
S''
sS'YNL096C'
p3967
S'Ribosome'
p3968
sS'YLR187W'
p3969
S'RNA degradation'
p3970
sS'YNL212W'
p3971
S''
sS'YCR036W'
p3972
S'Pentose phosphate metabolism'
p3973
sS'YDR038C'
p3974
S''
sS'YER015W'
p3975
S'Other enzymes'
p3976
sS'YMR216C'
p3977
S'Other enzymes'
p3978
sS'YIL144W'
p3979
S'Cytoskeleton proteins'
p3980
sS'YML006C'
p3981
S''
sS'YCL061C'
p3982
S'Chromosome-related'
p3983
sS'YDR439W'
p3984
S'Meiosis'
p3985
sS'YBR024W'
p3986
S''
sS'YDR502C'
p3987
S'Amino acid metabolism'
p3988
sS'YHR167W'
p3989
S''
sS'YLR401C'
p3990
S'Other enzymes'
p3991
sS'YER171W'
p3992
S'Basal transcription factors'
p3993
sS'YDL047W'
p3994
S'Other enzymes'
p3995
sS'YDR101C'
p3996
S''
sS'YHR079C'
p3997
S'Protein processing in endoplasmic reticulum'
p3998
sS'YML046W'
p3999
S''
sS'YGL124C'
p4000
S''
sS'YDR107C'
p4001
S''
sS'YDL130W'
p4002
S'Ribosome'
p4003
sS'YMR276W'
p4004
S'Protein processing in endoplasmic reticulum'
p4005
sS'YEL002C'
p4006
S'Protein processing in endoplasmic reticulum'
p4007
sS'YLR025W'
p4008
S'Endocytosis'
p4009
sS'YER139C'
p4010
S''
sS'YPL245W'
p4011
S''
sS'YGL200C'
p4012
S''
sS'YDR341C'
p4013
S'tRNA loading'
p4014
sS'YKL027W'
p4015
S''
sS'YJL173C'
p4016
S''
sS'YHR199C'
p4017
S''
sS'YDR152W'
p4018
S''
sS'YMR061W'
p4019
S'mRNA surveillance pathway'
p4020
sS'YJL128C'
p4021
S'MAPK signaling pathway'
p4022
sS'YJR002W'
p4023
S'Ribosome biogenesis in eukaryotes'
p4024
sS'YDL145C'
p4025
S''
sS'YER019C-A'
p4026
S'Protein export'
p4027
sS'YGR260W'
p4028
S''
sS'YKL127W'
p4029
S'Glycolysis'
p4030
sS'YNL061W'
p4031
S''
sS'YKR021W'
p4032
S''
sS'YHR209W'
p4033
S''
sS'YFL014W'
p4034
S'Chaperones and folding catalysts'
p4035
sS'YDR457W'
p4036
S'Ubiquitin mediated proteolysis'
p4037
sS'YLR386W'
p4038
S''
sS'YJL073W'
p4039
S'Chaperones and folding catalysts'
p4040
sS'YLR371W'
p4041
S''
sS'YKL067W'
p4042
S'Purine metabolism'
p4043
sS'YMR005W'
p4044
S''
sS'YLR262C'
p4045
S'GTP-binding signaling proteins'
p4046
sS'YNL121C'
p4047
S''
sS'YDR087C'
p4048
S''
sS'YMR294W'
p4049
S'Cytoskeleton proteins'
p4050
sS'YPR135W'
p4051
S'Chromosome-related'
p4052
sS'YBR081C'
p4053
S'Chromosome-related'
p4054
sS'YPL138C'
p4055
S''
sS'YJL166W'
p4056
S'Oxidative phosphorylation'
p4057
sS'YNL044W'
p4058
S''
sS'YER044C'
p4059
S''
sS'YMR072W'
p4060
S''
sS'YLR248W'
p4061
S''
sS'YOR283W'
p4062
S'Glycolysis'
p4063
sS'YJL102W'
p4064
S'Translation factors'
p4065
sS'YKL105C'
p4066
S''
sS'YKL075C'
p4067
S''
sS'YNL181W'
p4068
S''
sS'YDL087C'
p4069
S''
sS'YKR056W'
p4070
S''
sS'YGL011C'
p4071
S'Proteasome'
p4072
sS'YHL023C'
p4073
S''
sS'YIR036C'
p4074
S'Other enzymes'
p4075
sS'YKL129C'
p4076
S''
sS'YDR163W'
p4077
S'Spliceosome'
p4078
sS'YMR123W'
p4079
S''
sS'YDR238C'
p4080
S''
sS'YOR173W'
p4081
S''
sS'YNL323W'
p4082
S''
sS'YFR024C-A'
p4083
S''
sS'YLR220W'
p4084
S''
sS'YDR243C'
p4085
S'Spliceosome'
p4086
sS'YLR172C'
p4087
S'Other enzymes'
p4088
sS'YGR209C'
p4089
S'Chaperones and folding catalysts'
p4090
sS'YPR168W'
p4091
S''
sS'YJL048C'
p4092
S''
sS'YPR113W'
p4093
S'Phosphatidylinositol signaling system'
p4094
sS'YNL050C'
p4095
S''
sS'YKR036C'
p4096
S''
sS'YPL113C'
p4097
S''
sS'YBR251W'
p4098
S'Ribosome'
p4099
sS'YIR008C'
p4100
S'DNA replication complex'
p4101
sS'YLR377C'
p4102
S'Glycolysis'
p4103
sS'YGR093W'
p4104
S''
sS'YIL040W'
p4105
S''
sS'YKL186C'
p4106
S'Ribosome biogenesis in eukaryotes'
p4107
sS'YGR135W'
p4108
S'Proteasome'
p4109
sS'YDL234C'
p4110
S''
sS'YHR003C'
p4111
S''
sS'YDR524C'
p4112
S''
sS'YAL019W'
p4113
S''
sS'YNR003C'
p4114
S'RNA polymerase'
p4115
sS'YPL140C'
p4116
S'MAPK signaling pathway'
p4117
sS'YLR449W'
p4118
S'Other enzymes'
p4119
sS'YNL156C'
p4120
S''
sS'YDR293C'
p4121
S''
sS'YBR155W'
p4122
S''
sS'YBL002W'
p4123
S'Chromosome-related'
p4124
sS'YNR038W'
p4125
S''
sS'YIR024C'
p4126
S''
sS'YGL140C'
p4127
S''
sS'YCL029C'
p4128
S''
sS'YGR169C-A'
p4129
S''
sS'YML123C'
p4130
S'Transport'
p4131
sS'YKL194C'
p4132
S'tRNA loading'
p4133
sS'YOR275C'
p4134
S'Endocytosis'
p4135
sS'YAL017W'
p4136
S''
sS'YJR024C'
p4137
S'Amino acid metabolism'
p4138
sS'YFL038C'
p4139
S'GTP-binding signaling proteins'
p4140
sS'YBR242W'
p4141
S''
sS'YIL056W'
p4142
S''
sS'YBR142W'
p4143
S'Other enzymes'
p4144
sS'YNL077W'
p4145
S''
sS'YHR166C'
p4146
S'Ubiquitin mediated proteolysis'
p4147
sS'YGR175C'
p4148
S'Lipid and steroid metabolism'
p4149
sS'YJR131W'
p4150
S'Carbohydrate metabolism'
p4151
sS'YIR017C'
p4152
S''
sS'YKL047W'
p4153
S''
sS'YIL128W'
p4154
S''
sS'YNL127W'
p4155
S''
sS'YBR108W'
p4156
S''
sS'YDR089W'
p4157
S''
sS'YNR012W'
p4158
S'Pyrimidine metabolism'
p4159
sS'YGL097W'
p4160
S''
sS'YBR028C'
p4161
S''
sS'YHR073W'
p4162
S''
sS'YER113C'
p4163
S''
sS'YNL110C'
p4164
S''
sS'YNL076W'
p4165
S''
sS'YDR367W'
p4166
S''
sS'YHR072W'
p4167
S'Lipid and steroid metabolism'
p4168
sS'YKL001C'
p4169
S'Purine metabolism'
p4170
sS'YDR012W'
p4171
S'Ribosome'
p4172
sS'YHR045W'
p4173
S''
sS'YHR021C'
p4174
S'Ribosome'
p4175
sS'YGL253W'
p4176
S'Glycolysis'
p4177
sS'YPR178W'
p4178
S'Spliceosome'
p4179
sS'YHL032C'
p4180
S'Lipid and steroid metabolism'
p4181
sS'YAR002C-A'
p4182
S''
sS'YIL088C'
p4183
S''
sS'YOR271C'
p4184
S''
sS'YOR057W'
p4185
S''
sS'YOL030W'
p4186
S'Cell wall'
p4187
sS'YBL025W'
p4188
S''
sS'YOR097C'
p4189
S''
sS'YHR216W'
p4190
S'Purine metabolism'
p4191
sS'YMR074C'
p4192
S''
sS'YGR024C'
p4193
S'Other enzymes'
p4194
sS'YOL023W'
p4195
S'Translation factors'
p4196
sS'YBL020W'
p4197
S'Glycan metabolism'
p4198
sS'YGR203W'
p4199
S''
sS'YHL003C'
p4200
S'Lipid and steroid metabolism'
p4201
sS'YER154W'
p4202
S'Protein export'
p4203
sS'YDR422C'
p4204
S''
sS'YEL036C'
p4205
S'Glycan metabolism'
p4206
sS'YBR260C'
p4207
S''
sS'YHR010W'
p4208
S'Ribosome'
p4209
sS'YDR400W'
p4210
S'Pyrimidine metabolism'
p4211
sS'YJR104C'
p4212
S'Other enzymes'
p4213
sS'YNL231C'
p4214
S''
sS'YPL124W'
p4215
S'Cytoskeleton proteins'
p4216
sS'YHL021C'
p4217
S''
sS'YLR056W'
p4218
S'Lipid and steroid metabolism'
p4219
sS'YAL035W'
p4220
S'Translation factors'
p4221
sS'YOL041C'
p4222
S''
sS'YKL176C'
p4223
S''
sS'YFR038W'
p4224
S''
sS'YBR235W'
p4225
S''
sS'YDR001C'
p4226
S'Carbohydrate metabolism'
p4227
sS'YIL162W'
p4228
S'Carbohydrate metabolism'
p4229
sS'YOL141W'
p4230
S''
sS'YGR080W'
p4231
S''
sS'YOL109W'
p4232
S''
sS'YBL011W'
p4233
S'Lipid and steroid metabolism'
p4234
sS'YBR195C'
p4235
S''
sS'YDR183W'
p4236
S''
sS'YGL222C'
p4237
S''
sS'YDR138W'
p4238
S''
sS'YGR122W'
p4239
S''
sS'YOR317W'
p4240
S'Other enzymes'
p4241
sS'YBR255C-A'
p4242
S''
sS'YGR033C'
p4243
S''
sS'YJR144W'
p4244
S''
sS'YMR315W'
p4245
S''
sS'YLR328W'
p4246
S'Cofactor biosynthesis'
p4247
sS'YGL153W'
p4248
S'Peroxisome'
p4249
sS'YDL180W'
p4250
S''
sS'YLR039C'
p4251
S''
sS'YNL097C'
p4252
S''
sS'YOR305W'
p4253
S''
sS'YER063W'
p4254
S''
sS'YDR481C'
p4255
S'Two-component system'
p4256
sS'YER014W'
p4257
S'Cofactor biosynthesis'
p4258
sS'YPL115C'
p4259
S''
sS'YPR041W'
p4260
S'Translation factors'
p4261
sS'YER172C'
p4262
S'Spliceosome'
p4263
sS'YCR019W'
p4264
S''
sS'YJR032W'
p4265
S'Other enzymes'
p4266
sS'YPL249C-A'
p4267
S'Ribosome'
p4268
sS'YJL084C'
p4269
S''
sS'YOR185C'
p4270
S'RNA transport'
p4271
sS'YOR244W'
p4272
S'Chromosome-related'
p4273
sS'YEL003W'
p4274
S'Chaperones and folding catalysts'
p4275
sS'YOR004W'
p4276
S''
sS'YGL037C'
p4277
S'Cofactor biosynthesis'
p4278
sS'YBR058C'
p4279
S'Ubiquitin labeling'
p4280
sS'YLR048W'
p4281
S'Ribosome'
p4282
sS'YLR071C'
p4283
S''
sS'YGR240C'
p4284
S'Glycolysis'
p4285
sS'YEL058W'
p4286
S'Other central metabolism enzymes'
p4287
sS'YMR259C'
p4288
S''
sS'YJR001W'
p4289
S''
sS'YFL034C-A'
p4290
S'Ribosome'
p4291
sS'YDR434W'
p4292
S'Glycan metabolism'
p4293
sS'YOR145C'
p4294
S'Ribosome biogenesis'
p4295
sS'YFL034C-B'
p4296
S''
sS'YPR052C'
p4297
S''
sS'YMR121C'
p4298
S'Ribosome'
p4299
sS'YPR025C'
p4300
S'Basal transcription factors'
p4301
sS'YCL019W'
p4302
S''
sS'YBR087W'
p4303
S'DNA replication complex'
p4304
sS'YLR006C'
p4305
S'MAPK signaling pathway'
p4306
sS'YJL174W'
p4307
S'Cell wall'
p4308
sS'YDR330W'
p4309
S''
sS'YER149C'
p4310
S''
sS'YMR056C'
p4311
S''
sS'YER114C'
p4312
S''
sS'YOR375C'
p4313
S'Amino acid metabolism'
p4314
sS'YDR057W'
p4315
S'Protein processing in endoplasmic reticulum'
p4316
sS'YPR190C'
p4317
S'RNA polymerase'
p4318
sS'YOR215C'
p4319
S''
sS'YHR107C'
p4320
S''
sS'YAR002W'
p4321
S''
sS'YHR127W'
p4322
S''
sS'YGR142W'
p4323
S''
sS'YMR237W'
p4324
S''
sS'YOL095C'
p4325
S''
sS'YDL064W'
p4326
S'RNA transport'
p4327
sS'YDL031W'
p4328
S'Other enzymes'
p4329
sS'YMR194C-B'
p4330
S''
sS'YLR066W'
p4331
S'Protein export'
p4332
sS'YDR514C'
p4333
S''
sS'YEL029C'
p4334
S'Cofactor biosynthesis'
p4335
sS'YMR228W'
p4336
S''
sS'YMR125W'
p4337
S'Spliceosome'
p4338
sS'YGL245W'
p4339
S'tRNA loading'
p4340
sS'YNL273W'
p4341
S'Chromosome-related'
p4342
sS'YCR051W'
p4343
S''
sS'YER070W'
p4344
S'Purine metabolism'
p4345
sS'YPL219W'
p4346
S''
sS'YPL262W'
p4347
S'TCA cycle and anaplerotic enzymes'
p4348
sS'YGR006W'
p4349
S'Spliceosome'
p4350
sS'YMR002W'
p4351
S''
sS'YDL119C'
p4352
S''
sS'YGL129C'
p4353
S''
sS'YPL020C'
p4354
S'Ubiquitin labeling'
p4355
sS'YMR073C'
p4356
S''
sS'YKL151C'
p4357
S''
sS'YLR289W'
p4358
S''
sS'YGR222W'
p4359
S''
sS'YKL104C'
p4360
S'Peptidases'
p4361
sS'YCL040W'
p4362
S'Glycolysis'
p4363
sS'YOR163W'
p4364
S'Other enzymes'
p4365
sS'YLR422W'
p4366
S''
sS'YPR115W'
p4367
S''
sS'YLR093C'
p4368
S'SNAREs'
p4369
sS'YMR044W'
p4370
S''
sS'YKL128C'
p4371
S''
sS'YLR361C-A'
p4372
S''
sS'YJR065C'
p4373
S''
sS'YNL308C'
p4374
S''
sS'YGL180W'
p4375
S'mTOR signaling pathway'
p4376
sS'YPR074C'
p4377
S'Pentose phosphate metabolism'
p4378
sS'YDR239C'
p4379
S''
sS'YJR049C'
p4380
S''
sS'YPR112C'
p4381
S''
sS'YML085C'
p4382
S'Cytoskeleton proteins'
p4383
sS'YML069W'
p4384
S'Transcription factors'
p4385
sS'YPR169W'
p4386
S''
sS'YLR175W'
p4387
S'Ribosome biogenesis in eukaryotes'
p4388
sS'YGR279C'
p4389
S'Cell wall'
p4390
sS'YDR064W'
p4391
S'Ribosome'
p4392
sS'YMR275C'
p4393
S''
sS'YBL056W'
p4394
S'Other enzymes'
p4395
sS'YLR324W'
p4396
S''
sS'YER052C'
p4397
S'Amino acid metabolism'
p4398
sS'YLL015W'
p4399
S''
sS'YMR202W'
p4400
S'Lipid and steroid metabolism'
p4401
sS'YPL061W'
p4402
S'Glycolysis'
p4403
sS'YER003C'
p4404
S'Carbohydrate metabolism'
p4405
sS'YER103W'
p4406
S'Chaperones and folding catalysts'
p4407
sS'YKR077W'
p4408
S''
sS'YDR173C'
p4409
S'Carbohydrate metabolism'
p4410
sS'YOR353C'
p4411
S''
sS'YCL057W'
p4412
S'Peptidases'
p4413
sS'YLR413W'
p4414
S''
sS'YBR072W'
p4415
S'Chaperones and folding catalysts'
p4416
sS'YBR029C'
p4417
S'Lipid and steroid metabolism'
p4418
sS'YMR262W'
p4419
S''
sS'YPR063C'
p4420
S''
sS'YGR231C'
p4421
S''
sS'YGR127W'
p4422
S''
sS'YBL076C'
p4423
S'tRNA loading'
p4424
sS'YMR113W'
p4425
S'Cofactor biosynthesis'
p4426
sS'YFR006W'
p4427
S''
sS'YMR297W'
p4428
S'Chaperones and folding catalysts'
p4429
sS'YKR068C'
p4430
S''
sS'YGL067W'
p4431
S''
sS'YLR387C'
p4432
S''
sS'YPR032W'
p4433
S''
sS'YDL173W'
p4434
S''
sS'YBR143C'
p4435
S'Translation factors'
p4436
sS'YCR092C'
p4437
S'Mismatch repair'
p4438
sS'YDR086C'
p4439
S'Protein export'
p4440
sS'YHR072W-A'
p4441
S'Ribosome biogenesis in eukaryotes'
p4442
sS'YJR130C'
p4443
S'Amino acid metabolism'
p4444
sS'YJL062W-A'
p4445
S''
sS'YPL072W'
p4446
S'Ubiquitin labeling'
p4447
sS'YAL016W'
p4448
S'mRNA surveillance pathway'
p4449
sS'YFL039C'
p4450
S'Cytoskeleton proteins'
p4451
sS'YIL172C'
p4452
S''
sS'YJL134W'
p4453
S'Lipid and steroid metabolism'
p4454
sS'YJR006W'
p4455
S'DNA replication complex'
p4456
sS'YJL161W'
p4457
S''
sS'YDR207C'
p4458
S'Transcription factors'
p4459
sS'YDR449C'
p4460
S'Ribosome biogenesis in eukaryotes'
p4461
sS'YJL019W'
p4462
S''
sS'YNR039C'
p4463
S''
sS'YNL117W'
p4464
S'Glycolysis'
p4465
sS'YPL152W'
p4466
S'Other enzymes'
p4467
sS'YIL052C'
p4468
S'Ribosome'
p4469
sS'YGL205W'
p4470
S'Peroxisome'
p4471
sS'YGL123W'
p4472
S'Ribosome'
p4473
sS'YPL064C'
p4474
S'Other enzymes'
p4475
sS'YBR175W'
p4476
S''
sS'YNR013C'
p4477
S''
sS'YBR109C'
p4478
S'Calcium signaling pathway'
p4479
sS'YBR172C'
p4480
S''
sS'YDR346C'
p4481
S''
sS'YJL172W'
p4482
S'Peptidases'
p4483
sS'YJL010C'
p4484
S''
sS'YBL078C'
p4485
S'Ubiquitin labeling'
p4486
sS'YDL104C'
p4487
S'Peptidases'
p4488
sS'YNL222W'
p4489
S'mRNA surveillance pathway'
p4490
sS'YGR095C'
p4491
S'RNA degradation'
p4492
sS'YFR039C'
p4493
S''
sS'YKR042W'
p4494
S'Cell wall'
p4495
sS'YNL051W'
p4496
S''
sS'YOL077W-A'
p4497
S'Oxidative phosphorylation'
p4498
sS'YPL029W'
p4499
S''
sS'YBR236C'
p4500
S'mRNA surveillance pathway'
p4501
sS'Q0250'
p4502
S'Oxidative phosphorylation'
p4503
sS'YDL142C'
p4504
S'Lipid and steroid metabolism'
p4505
sS'YDL091C'
p4506
S''
sS'YHR198C'
p4507
S''
sS'YKL024C'
p4508
S'Pyrimidine metabolism'
p4509
sS'YGL196W'
p4510
S''
sS'YKL126W'
p4511
S'Other enzymes'
p4512
sS'YLR209C'
p4513
S'Purine metabolism'
p4514
sS'YIL070C'
p4515
S''
sS'YDR264C'
p4516
S''
sS'YKL039W'
p4517
S''
sS'YKL064W'
p4518
S''
sS'YNL035C'
p4519
S''
sS'YLR287C'
p4520
S''
sS'YLR212C'
p4521
S'Cytoskeleton proteins'
p4522
sS'YJL074C'
p4523
S'Chromosome-related'
p4524
sS'YLR370C'
p4525
S'Regulation of actin cytoskeleton'
p4526
sS'YNL177C'
p4527
S''
sS'YDR454C'
p4528
S'Purine metabolism'
p4529
sS'YIL009W'
p4530
S'Other enzymes'
p4531
sS'YLR250W'
p4532
S''
sS'YKL122C'
p4533
S''
sS'YHR011W'
p4534
S'tRNA loading'
p4535
sS'YAL043C'
p4536
S'mRNA surveillance pathway'
p4537
sS'YOL093W'
p4538
S''
sS'YOL042W'
p4539
S''
sS'YDR054C'
p4540
S'Ubiquitin mediated proteolysis'
p4541
sS'YHR146W'
p4542
S''
sS'YPL125W'
p4543
S''
sS'YBR189W'
p4544
S'Ribosome'
p4545
sS'YCL037C'
p4546
S''
sS'YHL020C'
p4547
S'Transcription factors'
p4548
sS'YJR105W'
p4549
S'Purine metabolism'
p4550
sS'YDR289C'
p4551
S''
sS'YOR054C'
p4552
S''
sS'YLR305C'
p4553
S'Phosphatidylinositol signaling system'
p4554
sS'YOR354C'
p4555
S''
sS'YOL140W'
p4556
S'Amino acid metabolism'
p4557
sS'YGL223C'
p4558
S''
sS'YBR193C'
p4559
S''
sS'YBL016W'
p4560
S'MAPK signaling pathway'
p4561
sS'YML131W'
p4562
S''
sS'YGL150C'
p4563
S'Chromosome-related'
p4564
sS'YNL292W'
p4565
S'Other enzymes'
p4566
sS'YCL057C-A'
p4567
S''
sS'YNR024W'
p4568
S'RNA degradation'
p4569
sS'YJL092W'
p4570
S'Nucleotide excision repair'
p4571
sS'YIL038C'
p4572
S'RNA degradation'
p4573
sS'YGL076C'
p4574
S'Ribosome'
p4575
sS'YPL043W'
p4576
S'Ribosome biogenesis in eukaryotes'
p4577
sS'YIL138C'
p4578
S''
sS'YDR109C'
p4579
S''
sS'YIL143C'
p4580
S'Basal transcription factors'
p4581
sS'YGR092W'
p4582
S'Cell cycle'
p4583
sS'YBR256C'
p4584
S'Cofactor biosynthesis'
p4585
sS'YKL002W'
p4586
S'Endocytosis'
p4587
sS'YOR036W'
p4588
S'SNARE interactions in vesicular transport'
p4589
sS'YJL207C'
p4590
S''
sS'YJR090C'
p4591
S'Ubiquitin mediated proteolysis'
p4592
sS'YOR014W'
p4593
S'mRNA surveillance pathway'
p4594
sS'YIR009W'
p4595
S''
sS'YOR362C'
p4596
S'Proteasome'
p4597
sS'YAL041W'
p4598
S'MAPK signaling pathway'
p4599
sS'YLR345W'
p4600
S'Carbohydrate metabolism'
p4601
sS'YKL073W'
p4602
S'Chaperones and folding catalysts'
p4603
sS'YLR448W'
p4604
S'Ribosome'
p4605
sS'YGR103W'
p4606
S''
sS'YPL141C'
p4607
S''
sS'YJL081C'
p4608
S'Chromosome-related'
p4609
sS'YIL041W'
p4610
S''
sS'YGR178C'
p4611
S''
sS'YGR057C'
p4612
S''
sS'YNL155W'
p4613
S''
sS'YNL100W'
p4614
S''
sS'YLR078C'
p4615
S'SNARE interactions in vesicular transport'
p4616
sS'YBR154C'
p4617
S'RNA polymerase'
p4618
sS'YNL139C'
p4619
S'Spliceosome'
p4620
sS'YNL245C'
p4621
S''
sS'YGL143C'
p4622
S'Translation factors'
p4623
sS'YLR001C'
p4624
S''
sS'YLR126C'
p4625
S''
sS'YMR318C'
p4626
S'Glycolysis'
p4627
sS'YCL018W'
p4628
S'Amino acid metabolism'
p4629
sS'YGR181W'
p4630
S''
sS'YKR074W'
p4631
S''
sS'YHR108W'
p4632
S''
sS'YDL067C'
p4633
S'Oxidative phosphorylation'
p4634
sS'YOL020W'
p4635
S''
sS'YBR086C'
p4636
S''
sS'YDR135C'
p4637
S''
sS'YBL030C'
p4638
S''
sS'YMR256C'
p4639
S'Oxidative phosphorylation'
p4640
sS'YMR236W'
p4641
S'Basal transcription factors'
p4642
sS'YER148W'
p4643
S'Basal transcription factors'
p4644
sS'YGL242C'
p4645
S''
sS'YHL015W'
p4646
S'Ribosome'
p4647
sS'YEL048C'
p4648
S''
sS'YOR303W'
p4649
S'Pyrimidine metabolism'
p4650
sS'YIL087C'
p4651
S''
sS'YOR252W'
p4652
S''
sS'YDR472W'
p4653
S''
sS'YBR194W'
p4654
S''
sS'YMR192W'
p4655
S''
sS'YGR078C'
p4656
S''
sS'YOR104W'
p4657
S''
sS'YER073W'
p4658
S'Glycolysis'
p4659
sS'YMR229C'
p4660
S''
sS'YLR065C'
p4661
S''
sS'YBR046C'
p4662
S'Other enzymes'
p4663
sS'YOR056C'
p4664
S'Ribosome biogenesis in eukaryotes'
p4665
sS'YDR013W'
p4666
S'DNA replication control'
p4667
sS'YGL028C'
p4668
S'Cell wall'
p4669
sS'YHL033C'
p4670
S'Ribosome'
p4671
sS'YOR270C'
p4672
S'Oxidative phosphorylation'
p4673
sS'YHR020W'
p4674
S'tRNA loading'
p4675
sS'YOL068C'
p4676
S'Cofactor biosynthesis'
p4677
sS'YLL006W'
p4678
S''
sS'YGL252C'
p4679
S'Chromosome-related'
p4680
sS'YOL033W'
p4681
S'tRNA loading'
p4682
sS'YBR238C'
p4683
S''
sS'YGL161C'
p4684
S''
sS'YPR051W'
p4685
S'Other enzymes'
p4686
sS'YER155C'
p4687
S''
sS'YBR037C'
p4688
S''
sS'YGR049W'
p4689
S''
sS'YHL002W'
p4690
S'Jak-STAT signaling pathway'
p4691
sS'YNL263C'
p4692
S''
sS'YKR099W'
p4693
S'Transcription factors'
p4694
sS'YOR096W'
p4695
S'Ribosome'
p4696
sS'YDR538W'
p4697
S'Biosynthesis of other secondary metabolites'
p4698
sS'YPL001W'
p4699
S'Chromosome-related'
p4700
sS'YDR512C'
p4701
S''
sS'YGR132C'
p4702
S''
sS'YLR410W'
p4703
S''
sS'YER093C-A'
p4704
S''
sS'YER004W'
p4705
S''
sS'YGL119W'
p4706
S'Protein kinases'
p4707
sS'YMR052W'
p4708
S''
sS'YOR142W'
p4709
S'TCA cycle and anaplerotic enzymes'
p4710
sS'YKR016W'
p4711
S''
sS'YMR158W'
p4712
S''
sS'YGR276C'
p4713
S'Ribosome biogenesis in eukaryotes'
p4714
sS'YNL194C'
p4715
S''
sS'YMR203W'
p4716
S''
sS'YLL036C'
p4717
S'Spliceosome'
p4718
sS'YBR191W'
p4719
S'Ribosome'
p4720
sS'YDR519W'
p4721
S'Chaperones and folding catalysts'
p4722
sS'YGR278W'
p4723
S''
sS'YDL029W'
p4724
S''
sS'YKR076W'
p4725
S''
sS'YKL141W'
p4726
S'TCA cycle and anaplerotic enzymes'
p4727
sS'YBL057C'
p4728
S'Other enzymes'
p4729
sS'YBR073W'
p4730
S'Homologous recombination'
p4731
sS'YLR083C'
p4732
S''
sS'YHR039C-A'
p4733
S'Phagosome'
p4734
sS'YPR175W'
p4735
S'DNA replication complex'
p4736
sS'YMR263W'
p4737
S''
sS'YKL185W'
p4738
S''
sS'YKR069W'
p4739
S'Cofactor biosynthesis'
p4740
sS'YBR008C'
p4741
S'Transport'
p4742
sS'YDR172W'
p4743
S'Translation factors'
p4744
sS'YDL121C'
p4745
S''
sS'YPR033C'
p4746
S'tRNA loading'
p4747
sS'YGL135W'
p4748
S'Ribosome'
p4749
sS'YLR129W'
p4750
S'Ribosome biogenesis in eukaryotes'
p4751
sS'YPR062W'
p4752
S'Pyrimidine metabolism'
p4753
sS'YBL041W'
p4754
S'Proteasome'
p4755
sS'YDL058W'
p4756
S''
sS'YPR065W'
p4757
S'Transcription factors'
p4758
sS'YLR150W'
p4759
S''
sS'YBR026C'
p4760
S'Lipid and steroid metabolism'
p4761
sS'YBL059C-A'
p4762
S''
sS'YNL214W'
p4763
S''
sS'YOR184W'
p4764
S'Amino acid metabolism'
p4765
sS'YBR091C'
p4766
S''
sS'YPR180W'
p4767
S'Ubiquitin mediated proteolysis'
p4768
sS'YEL013W'
p4769
S'Regulation of autophagy'
p4770
sS'YDL007W'
p4771
S'Proteasome'
p4772
sS'YGL056C'
p4773
S''
sS'YDR385W'
p4774
S'Translation factors'
p4775
sS'YDR480W'
p4776
S'MAPK signaling pathway'
p4777
sS'YML004C'
p4778
S'Glycolysis'
p4779
sS'YCR043C'
p4780
S''
sS'YPL227C'
p4781
S'Glycan metabolism'
p4782
sS'YDL010W'
p4783
S''
sS'YLL009C'
p4784
S'Oxidative phosphorylation'
p4785
sS'YBR059C'
p4786
S''
sS'YML019W'
p4787
S'Protein processing in endoplasmic reticulum'
p4788
sS'YPR024W'
p4789
S'Peptidases'
p4790
sS'YDR493W'
p4791
S''
sS'YDL045C'
p4792
S'Cofactor biosynthesis'
p4793
sS'YLR163C'
p4794
S'Peptidases'
p4795
sS'YGL036W'
p4796
S''
sS'YPL247C'
p4797
S''
sS'YMR258C'
p4798
S''
sS'YDR328C'
p4799
S'Protein processing in endoplasmic reticulum'
p4800
sS'YDL198C'
p4801
S''
sS'YLR072W'
p4802
S''
sS'YKL167C'
p4803
S''
sS'YIR023W'
p4804
S''
sS'YDL092W'
p4805
S'Protein export'
p4806
sS'YKR043C'
p4807
S'Glycolysis'
p4808
sS'YLR166C'
p4809
S''
sS'YMR067C'
p4810
S''
sS'YJL011C'
p4811
S''
sS'YDL143W'
p4812
S'Chaperones and folding catalysts'
p4813
sS'YKL138C'
p4814
S''
sS'YBL079W'
p4815
S'RNA transport'
p4816
sS'YPL093W'
p4817
S'Ribosome biogenesis in eukaryotes'
p4818
sS'YPL028W'
p4819
S'Lipid and steroid metabolism'
p4820
sS'YFL001W'
p4821
S'Other enzymes'
p4822
sS'YDR150W'
p4823
S''
sS'YIL135C'
p4824
S''
sS'YBR157C'
p4825
S''
sS'YGL212W'
p4826
S'SNARE interactions in vesicular transport'
p4827
sS'YPR137W'
p4828
S''
sS'YMR027W'
p4829
S''
sS'YPL173W'
p4830
S''
sS'YDL130W-A'
p4831
S''
sS'YKL170W'
p4832
S''
sS'YKR023W'
p4833
S''
sS'YNL036W'
p4834
S''
sS'YOR115C'
p4835
S''
sS'YKL038W'
p4836
S''
sS'YIL129C'
p4837
S''
sS'YMR296C'
p4838
S'Lipid and steroid metabolism'
p4839
sS'YLR286C'
p4840
S'Cell wall'
p4841
sS'YNL016W'
p4842
S''
sS'YJL208C'
p4843
S''
sS'YLR384C'
p4844
S'Chromosome-related'
p4845
sS'YDR307W'
p4846
S'Glycan metabolism'
p4847
sS'YOR162C'
p4848
S''
sS'YLR421C'
p4849
S'Proteasome'
p4850
sS'YMR145C'
p4851
S'Oxidative phosphorylation'
p4852
sS'YDR161W'
p4853
S''
sS'YMR110C'
p4854
S''
sS'YDL212W'
p4855
S''
sS'YJR064W'
p4856
S'Chaperones and folding catalysts'
p4857
sS'YNL183C'
p4858
S'Other enzymes'
p4859
sS'YOR285W'
p4860
S''
sS'YJL002C'
p4861
S'Protein processing in endoplasmic reticulum'
p4862
sS'YML022W'
p4863
S'Purine metabolism'
p4864
sS'YLR390W'
p4865
S''
sS'YMR029C'
p4866
S''
sS'YIR030C'
p4867
S''
sS'YDR074W'
p4868
S'Carbohydrate metabolism'
p4869
sS'YHR059W'
p4870
S''
sS'YMR087W'
p4871
S''
sS'YDL085W'
p4872
S'Oxidative phosphorylation'
p4873
sS'YAL014C'
p4874
S'SNARE interactions in vesicular transport'
p4875
sS'YGL017W'
p4876
S'Other enzymes'
p4877
sS'YKR018C'
p4878
S''
sS'YNL309W'
p4879
S''
sS'YER099C'
p4880
S'Pentose phosphate metabolism'
p4881
sS'YDL150W'
p4882
S'RNA polymerase'
p4883
sS'YJR048W'
p4884
S''
sS'YHR186C'
p4885
S''
sS'YLR174W'
p4886
S'TCA cycle and anaplerotic enzymes'
p4887
sS'YGL101W'
p4888
S''
sS'YAL053W'
p4889
S''
sS'YNL149C'
p4890
S''
sS'YGL095C'
p4891
S''
sS'YOR250C'
p4892
S'mRNA surveillance pathway'
p4893
sS'YHR001W-A'
p4894
S'Oxidative phosphorylation'
p4895
sS'YGR246C'
p4896
S''
sS'YJR119C'
p4897
S''
sS'YOR205C'
p4898
S''
sS'YLR359W'
p4899
S'Purine metabolism'
p4900
sS'YIL079C'
p4901
S'RNA degradation'
p4902
sS'YLR199C'
p4903
S''
sS'YDR329C'
p4904
S'Peroxisome'
p4905
sS'YIL142W'
p4906
S'Chaperones and folding catalysts'
p4907
sS'YFR025C'
p4908
S'Amino acid metabolism'
p4909
sS'YLR195C'
p4910
S'Other enzymes'
p4911
sS'YOR017W'
p4912
S''
sS'YHR005C'
p4913
S'GTP-binding signaling proteins'
p4914
sS'YDR311W'
p4915
S'Basal transcription factors'
p4916
sS'YPL198W'
p4917
S'Ribosome'
p4918
sS'YKL192C'
p4919
S'Oxidative phosphorylation'
p4920
sS'YGL082W'
p4921
S''
sS'YDR310C'
p4922
S'Transcription factors'
p4923
sS'YPL146C'
p4924
S''
sS'YHL048W'
p4925
S''
sS'YPL139C'
p4926
S''
sS'YNL138W'
p4927
S''
sS'YNL154C'
p4928
S'Endocytosis'
p4929
sS'YPR098C'
p4930
S''
sS'YHR161C'
p4931
S''
sS'YNL001W'
p4932
S'mRNA surveillance pathway'
p4933
sS'YDL236W'
p4934
S'Other enzymes'
p4935
sS'YJL080C'
p4936
S''
sS'YCR067C'
p4937
S''
sS'YGL142C'
p4938
S'Glycan metabolism'
p4939
sS'YFR009W'
p4940
S''
sS'YGR179C'
p4941
S'Chromosome-related'
p4942
sS'YJR086W'
p4943
S'MAPK signaling pathway'
p4944
sS'YDR081C'
p4945
S''
sS'YJL137C'
p4946
S''
sS'YDR383C'
p4947
S''
sS'YKL065C'
p4948
S''
sS'YIL173W'
p4949
S''
sS'YBR139W'
p4950
S''
sS'YBR115C'
p4951
S'Amino acid metabolism'
p4952
sS'YBR140C'
p4953
S''
sS'YDR448W'
p4954
S'Chromosome-related'
p4955
sS'YJR111C'
p4956
S''
sS'YHR085W'
p4957
S''
sS'YHR188C'
p4958
S'Glycan metabolism'
p4959
sS'YBR052C'
p4960
S''
sS'YFL023W'
p4961
S''
sS'YER087C-B'
p4962
S'Protein export'
p4963
sS'YKL081W'
p4964
S'Translation factors'
p4965
sS'YDR361C'
p4966
S''
sS'YBR171W'
p4967
S'Secretion system'
p4968
sS'YKL196C'
p4969
S'SNARE interactions in vesicular transport'
p4970
sS'YMR162C'
p4971
S'Other enzymes'
p4972
sS'YJL157C'
p4973
S'MAPK signaling pathway'
p4974
sS'YLR226W'
p4975
S''
sS'YKL181W'
p4976
S'Pentose phosphate metabolism'
p4977
sS'YDL229W'
p4978
S'Chaperones and folding catalysts'
p4979
sS'YOL032W'
p4980
S''
sS'YHR027C'
p4981
S'Proteasome'
p4982
sS'YIL157C'
p4983
S''
sS'YGL255W'
p4984
S''
sS'YFR007W'
p4985
S''
sS'YBR083W'
p4986
S'Transcription factors'
p4987
sS'YKR090W'
p4988
S''
sS'YLR333C'
p4989
S'Ribosome'
p4990
sS'YHL030W'
p4991
S''
sS'YAR018C'
p4992
S'Other enzymes'
p4993
sS'YBR200W'
p4994
S'MAPK signaling pathway'
p4995
sS'YNL262W'
p4996
S'DNA replication complex'
p4997
sS'YAR028W'
p4998
S''
sS'YDR079C-A'
p4999
S'Basal transcription factors'
p5000
sS'YPL204W'
p5001
S'Endocytosis'
p5002
sS'YOL069W'
p5003
S'Cytoskeleton proteins'
p5004
sS'YNL075W'
p5005
S'Ribosome biogenesis in eukaryotes'
p5006
sS'YDR412W'
p5007
S''
sS'YDR129C'
p5008
S''
sS'YIL068C'
p5009
S''
sS'YBR302C'
p5010
S''
sS'YOR091W'
p5011
S''
sS'YGR026W'
p5012
S''
sS'YKL098W'
p5013
S''
sS'YML125C'
p5014
S''
sS'YER092W'
p5015
S'Chromosome-related'
p5016
sS'YDR288W'
p5017
S''
sS'YGL208W'
p5018
S''
sS'YNL284C'
p5019
S''
sS'YFR041C'
p5020
S''
sS'YIL050W'
p5021
S''
sS'YGR086C'
p5022
S''
sS'YBR133C'
p5023
S'RNA transport'
p5024
sS'YPL106C'
p5025
S'Chaperones and folding catalysts'
p5026
sS'YOL143C'
p5027
S'Cofactor biosynthesis'
p5028
sS'YAL034W-A'
p5029
S'Chromosome-related'
p5030
sS'YGR195W'
p5031
S'RNA degradation'
p5032
sS'YIL026C'
p5033
S'Chromosome-related'
p5034
sS'YGL151W'
p5035
S''
sS'YBR197C'
p5036
S''
sS'YHR147C'
p5037
S''
sS'YJR091C'
p5038
S''
sS'YGR031W'
p5039
S''
sS'YJL204C'
p5040
S''
sS'YGR124W'
p5041
S'Peptidases'
p5042
sS'YPL126W'
p5043
S'Ribosome biogenesis in eukaryotes'
p5044
sS'YBL017C'
p5045
S''
sS'YNL244C'
p5046
S'Translation factors'
p5047
sS'YNR027W'
p5048
S'Cofactor biosynthesis'
p5049
sS'YMR117C'
p5050
S'Cytoskeleton proteins'
p5051
sS'YAL024C'
p5052
S'Cell cycle'
p5053
sS'YOR348C'
p5054
S''
sS'YJR142W'
p5055
S''
sS'YJL197W'
p5056
S'Ubiquitin labeling'
p5057
sS'YMR213W'
p5058
S'Spliceosome'
p5059
sS'YBR233W-A'
p5060
S'Chromosome-related'
p5061
sS'YOR251C'
p5062
S'Sulfur relay system'
p5063
sS'YPR181C'
p5064
S'Protein processing in endoplasmic reticulum'
p5065
sS'YBR092C'
p5066
S'Cofactor biosynthesis'
p5067
sS'YMR173W'
p5068
S''
sS'YNL215W'
p5069
S'Chromosome-related'
p5070
sS'YDR529C'
p5071
S'Oxidative phosphorylation'
p5072
sS'YGR044C'
p5073
S'Transcription factors'
p5074
sS'YDL059C'
p5075
S'Homologous recombination'
p5076
sS'YOR204W'
p5077
S'Chromosome-related'
p5078
sS'YEL012W'
p5079
S'Ubiquitin mediated proteolysis'
p5080
sS'YDL006W'
p5081
S'Other enzymes'
p5082
sS'YER123W'
p5083
S'Other enzymes'
p5084
sS'YDR153C'
p5085
S''
sS'YDR382W'
p5086
S'Ribosome'
p5087
sS'YDR483W'
p5088
S'Glycan metabolism'
p5089
sS'YLL008W'
p5090
S'Ribosome biogenesis'
p5091
sS'YDR505C'
p5092
S''
sS'YKL206C'
p5093
S''
sS'YHR132W-A'
p5094
S''
sS'YLR022C'
p5095
S'Ribosome biogenesis in eukaryotes'
p5096
sS'YGR068C'
p5097
S''
sS'YOR390W'
p5098
S''
sS'YPL246C'
p5099
S''
sS'YOR246C'
p5100
S''
sS'YPL226W'
p5101
S'Translation factors'
p5102
sS'YDR397C'
p5103
S''
sS'YLR375W'
p5104
S''
sS'YGL039W'
p5105
S''
sS'YER183C'
p5106
S'Other central metabolism enzymes'
p5107
sS'YML018C'
p5108
S''
sS'YDL044C'
p5109
S''
sS'YOL021C'
p5110
S'RNA degradation'
p5111
sS'YHR030C'
p5112
S'MAPK signaling pathway'
p5113
sS'YMR319C'
p5114
S''
sS'YMR235C'
p5115
S'RNA transport'
p5116
sS'YKL018W'
p5117
S'mRNA surveillance pathway'
p5118
sS'YEL034W'
p5119
S'Translation factors'
p5120
sS'YHL001W'
p5121
S'Ribosome'
p5122
sS'YNR050C'
p5123
S'Amino acid metabolism'
p5124
sS'YOR373W'
p5125
S'Cytoskeleton proteins'
p5126
sS'YHR091C'
p5127
S'tRNA loading'
p5128
sS'YKR100C'
p5129
S''
sS'YCL017C'
p5130
S'Sulfur relay system'
p5131
sS'YPL228W'
p5132
S'Other enzymes'
p5133
sS'YOR260W'
p5134
S'Translation factors'
p5135
sS'YPL260W'
p5136
S''
sS'YML110C'
p5137
S'Cofactor biosynthesis'
p5138
sS'YOL010W'
p5139
S'Ribosome biogenesis in eukaryotes'
p5140
sS'YNL271C'
p5141
S'MAPK signaling pathway'
p5142
sS'YER058W'
p5143
S''
sS'YGL048C'
p5144
S'Proteasome'
p5145
sS'YMR193W'
p5146
S''
sS'YCR053W'
p5147
S'Amino acid metabolism'
p5148
sS'YER072W'
p5149
S''
sS'YKL106W'
p5150
S'Amino acid metabolism'
p5151
sS'YGL019W'
p5152
S'Ribosome biogenesis in eukaryotes'
p5153
sS'YNL330C'
p5154
S'Chromosome-related'
p5155
sS'YGR201C'
p5156
S''
sS'YER047C'
p5157
S''
sS'YOR138C'
p5158
S''
sS'YPR029C'
p5159
S''
sS'YMR144W'
p5160
S''
sS'YHR036W'
p5161
S''
sS'YCR066W'
p5162
S'Ubiquitin labeling'
p5163
sS'YML098W'
p5164
S'Basal transcription factors'
p5165
sS'YJL034W'
p5166
S'Chaperones and folding catalysts'
p5167
sS'YLR420W'
p5168
S'Pyrimidine metabolism'
p5169
sS'YCR088W'
p5170
S''
sS'YDR208W'
p5171
S'Phosphatidylinositol signaling system'
p5172
sS'YHR087W'
p5173
S''
sS'YFL048C'
p5174
S''
sS'YLR117C'
p5175
S'Spliceosome'
p5176
sS'YGR220C'
p5177
S''
sS'YBR014C'
p5178
S''
sS'YML052W'
p5179
S''
sS'YPL012W'
p5180
S''
sS'YLR299W'
p5181
S'Peptidases'
p5182
sS'YOR176W'
p5183
S'Cofactor biosynthesis'
p5184
sS'YHR187W'
p5185
S'Chromosome-related'
p5186
sS'YOR109W'
p5187
S'Phosphatidylinositol signaling system'
p5188
sS'YGR275W'
p5189
S''
sS'YMR071C'
p5190
S''
sS'YOR286W'
p5191
S''
sS'YGR021W'
p5192
S''
sS'YDL084W'
p5193
S'Spliceosome'
p5194
sS'YGL016W'
p5195
S''
sS'YOL103W-B'
p5196
S''
sS'YCR073W-A'
p5197
S'Pentose phosphate metabolism'
p5198
sS'YMR120C'
p5199
S'Other central metabolism enzymes'
p5200
sS'YKL114C'
p5201
S'Base excision repair'
p5202
sS'YBL046W'
p5203
S''
sS'YOR143C'
p5204
S'Cofactor biosynthesis'
p5205
sS'YDR119W'
p5206
S''
sS'YDR490C'
p5207
S''
sS'YER005W'
p5208
S'Cellular antigens'
p5209
sS'YER105C'
p5210
S''
sS'YGL160W'
p5211
S''
sS'YBL054W'
p5212
S''
sS'YCR024C'
p5213
S'tRNA loading'
p5214
sS'YML045W'
p5215
S''
sS'YBL104C'
p5216
S''
sS'YKL165C'
p5217
S'Glycan metabolism'
p5218
sS'YCR071C'
p5219
S''
sS'YLR009W'
p5220
S'Ribosome'
p5221
sS'YPR144C'
p5222
S''
sS'YLR119W'
p5223
S''
sS'YDR175C'
p5224
S''
sS'YLR082C'
p5225
S''
sS'YPR034W'
p5226
S'Chromosome-related'
p5227
sS'YOR189W'
p5228
S'Chromosome-related'
p5229
sS'YOR154W'
p5230
S''
sS'YDL122W'
p5231
S'Ubiquitin labeling'
p5232
sS'YMR264W'
p5233
S'Protein processing in endoplasmic reticulum'
p5234
sS'YPR018W'
p5235
S''
sS'YGL139W'
p5236
S''
sS'YLL038C'
p5237
S''
sS'YOR280C'
p5238
S''
sS'YMR086W'
p5239
S''
sS'YGR007W'
p5240
S'Lipid and steroid metabolism'
p5241
sS'YNL315C'
p5242
S''
sS'YPR174C'
p5243
S''
sS'YJR045C'
p5244
S'Chaperones and folding catalysts'
p5245
sS'YLR385C'
p5246
S'Chromosome-related'
p5247
sS'YOL124C'
p5248
S''
sS'YIL125W'
p5249
S'TCA cycle and anaplerotic enzymes'
p5250
sS'YMR295C'
p5251
S''
sS'YMR008C'
p5252
S'Lipid and steroid metabolism'
p5253
sS'YJL136C'
p5254
S'Ribosome'
p5255
sS'YKL148C'
p5256
S'TCA cycle and anaplerotic enzymes'
p5257
sS'YJL117W'
p5258
S''
sS'YJL076W'
p5259
S'Cell cycle'
p5260
sS'YKL062W'
p5261
S'Transcription factors'
p5262
sS'YLR238W'
p5263
S''
sS'YDR080W'
p5264
S''
sS'YJR010W'
p5265
S'Purine metabolism'
p5266
sS'YPL176C'
p5267
S''
sS'YHR024C'
p5268
S'Peptidases'
p5269
sS'YHR165C'
p5270
S'Spliceosome'
p5271
sS'YJR015W'
p5272
S''
sS'YKL028W'
p5273
S'Basal transcription factors'
p5274
sS'YIL126W'
p5275
S'Chromosome-related'
p5276
sS'YLR221C'
p5277
S''
sS'YDR093W'
p5278
S'Other enzymes'
p5279
sS'YMR282C'
p5280
S''
sS'YIL109C'
p5281
S'Protein processing in endoplasmic reticulum'
p5282
sS'YGR210C'
p5283
S''
sS'YPL070W'
p5284
S''
sS'YLR361C'
p5285
S''
sS'YOR085W'
p5286
S'Protein processing in endoplasmic reticulum'
p5287
sS'YFL022C'
p5288
S'tRNA loading'
p5289
sS'YJL156C'
p5290
S''
sS'YNL253W'
p5291
S'Spliceosome'
p5292
sS'YKL082C'
p5293
S''
sS'YNL071W'
p5294
S'Glycolysis'
p5295
sS'YDR222W'
p5296
S''
sS'YKL166C'
p5297
S'MAPK signaling pathway'
p5298
sS'YJR007W'
p5299
S'Translation factors'
p5300
sS'YGR211W'
p5301
S''
sS'YKL139W'
p5302
S'Other enzymes'
p5303
sS'YDL093W'
p5304
S'Glycan metabolism'
p5305
sS'YJL069C'
p5306
S'Ribosome biogenesis in eukaryotes'
p5307
sS'YLR168C'
p5308
S''
sS'YFL027C'
p5309
S''
sS'YHR047C'
p5310
S''
sS'YIR002C'
p5311
S'DNA repair and recombination proteins'
p5312
sS'YGL001C'
p5313
S'Lipid and steroid metabolism'
p5314
sS'YMR291W'
p5315
S''
sS'YER087W'
p5316
S'tRNA loading'
p5317
sS'YMR024W'
p5318
S''
sS'YPR156C'
p5319
S''
sS'YDR359C'
p5320
S'Chromosome-related'
p5321
sS'YKL124W'
p5322
S''
sS'YDR304C'
p5323
S'Chaperones and folding catalysts'
p5324
sS'YNL026W'
p5325
S''
sS'YDL219W'
p5326
S''
sS'YOR136W'
p5327
S'TCA cycle and anaplerotic enzymes'
p5328
sS'YDR266C'
p5329
S''
sS'YDR206W'
p5330
S'DNA replication control'
p5331
sS'YOR116C'
p5332
S'RNA polymerase'
p5333
sS'YKR024C'
p5334
S''
sS'YNL037C'
p5335
S'TCA cycle and anaplerotic enzymes'
p5336
sS'YFL013C'
p5337
S'Chromosome-related'
p5338
sS'YPL063W'
p5339
S''
sS'YKL140W'
p5340
S'Biosynthesis of other secondary metabolites'
p5341
sS'YFR040W'
p5342
S''
sS'YML124C'
p5343
S'Cytoskeleton proteins'
p5344
sS'YIL107C'
p5345
S'Carbohydrate metabolism'
p5346
sS'YOL142W'
p5347
S'RNA degradation'
p5348
sS'YDR287W'
p5349
S'Phosphatidylinositol signaling system'
p5350
sS'YDR405W'
p5351
S''
sS'YLR303W'
p5352
S'Amino acid metabolism'
p5353
sS'YGR055W'
p5354
S''
sS'YGL041W-A'
p5355
S''
sS'YCL031C'
p5356
S'Ribosome biogenesis in eukaryotes'
p5357
sS'YIL027C'
p5358
S''
sS'YPL127C'
p5359
S'Chromosome-related'
p5360
sS'YGL156W'
p5361
S'Glycan metabolism'
p5362
sS'YGR152C'
p5363
S'GTP-binding signaling proteins'
p5364
sS'YOR061W'
p5365
S'Ribosome biogenesis in eukaryotes'
p5366
sS'YNR026C'
p5367
S''
sS'YLR190W'
p5368
S''
sS'YGR147C'
p5369
S'Other enzymes'
p5370
sS'YDR002W'
p5371
S''
sS'YOR311C'
p5372
S''
sS'YMR039C'
p5373
S''
sS'YAL025C'
p5374
S''
sS'YDR046C'
p5375
S''
sS'YDR305C'
p5376
S'Purine metabolism'
p5377
sS'YGL094C'
p5378
S'RNA degradation'
p5379
sS'YNL039W'
p5380
S''
sS'YBR170C'
p5381
S'Protein processing in endoplasmic reticulum'
p5382
sS'YGR030C'
p5383
S'Ribosome biogenesis in eukaryotes'
p5384
sS'YOR084W'
p5385
S''
sS'YGR130C'
p5386
S''
sS'YKL051W'
p5387
S''
sS'YDR458C'
p5388
S''
sS'YJR118C'
p5389
S''
sS'YOR016C'
p5390
S''
sS'YJR121W'
p5391
S'Oxidative phosphorylation'
p5392
sS'YGR165W'
p5393
S''
sS'YCL010C'
p5394
S'Chromosome-related'
p5395
sS'YGR128C'
p5396
S'Ribosome biogenesis in eukaryotes'
p5397
sS'YER166W'
p5398
S'Other enzymes'
p5399
sS'YDR313C'
p5400
S''
sS'YIL047C'
p5401
S''
sS'YLR245C'
p5402
S'Pyrimidine metabolism'
p5403
sS'YKL193C'
p5404
S''
sS'YNL153C'
p5405
S'Chaperones and folding catalysts'
p5406
sS'YPR139C'
p5407
S''
sS'YBR214W'
p5408
S''
sS'YLR310C'
p5409
S''
sS'YDL237W'
p5410
S''
sS'YJL141C'
p5411
S'Other enzymes'
p5412
sS'YBR249C'
p5413
S'Amino acid metabolism'
p5414
sS'YCL035C'
p5415
S''
sS'YFR008W'
p5416
S''
sS'YNL102W'
p5417
S'DNA replication complex'
p5418
sS'YOL077C'
p5419
S''
sS'YDR137W'
p5420
S''
sS'YHR031C'
p5421
S''
sS'YBR084W'
p5422
S'Other central metabolism enzymes'
p5423
sS'YLR003C'
p5424
S''
sS'YDL061C'
p5425
S'Ribosome'
p5426
sS'YLR337C'
p5427
S''
sS'YIL010W'
p5428
S'Other enzymes'
p5429
sS'YOR261C'
p5430
S'Proteasome'
p5431
sS'YNR051C'
p5432
S''
sS'YGR187C'
p5433
S''
sS'YDR056C'
p5434
S''
sS'YHR122W'
p5435
S''
sS'YDR390C'
p5436
S'Ubiquitin mediated proteolysis'
p5437
sS'YOR229W'
p5438
S''
sS'YKL164C'
p5439
S'Cell wall'
p5440
sS'YEL024W'
p5441
S'Oxidative phosphorylation'
p5442
sS'YJR010C-A'
p5443
S'Amino acid metabolism'
p5444
sS'YML031W'
p5445
S'RNA transport'
p5446
sS'YDR006C'
p5447
S''
sS'YGR005C'
p5448
S'Basal transcription factors'
p5449
sS'YBL032W'
p5450
S''
sS'YGL049C'
p5451
S'RNA transport'
p5452
sS'YDR023W'
p5453
S'tRNA loading'
p5454
sS'YFR052W'
p5455
S'Proteasome'
p5456
sS'YER141W'
p5457
S'Oxidative phosphorylation'
p5458
sS'YCR052W'
p5459
S'Chromosome-related'
p5460
sS'YNL209W'
p5461
S'Chaperones and folding catalysts'
p5462
sS'YBR272C'
p5463
S''
sS'YLR327C'
p5464
S''
sS'YDR298C'
p5465
S'Oxidative phosphorylation'
p5466
sS'YDR011W'
p5467
S'Transport'
p5468
sS'YOR272W'
p5469
S''
sS'YMR184W'
p5470
S''
sS'YOL059W'
p5471
S'Lipid and steroid metabolism'
p5472
sS'YPR097W'
p5473
S''
sS'YHL031C'
p5474
S'SNARE interactions in vesicular transport'
p5475
sS'YML100W'
p5476
S'Carbohydrate metabolism'
p5477
sS'YOL151W'
p5478
S''
sS'YDR425W'
p5479
S''
sS'YHR026W'
p5480
S'Phagosome'
p5481
sS'YOR358W'
p5482
S''
sS'YER036C'
p5483
S''
sS'YDR005C'
p5484
S''
sS'YNL238W'
p5485
S'Chaperones and folding catalysts'
p5486
sS'YOR090C'
p5487
S''
sS'YBR281C'
p5488
S'Peptidases'
p5489
sS'YJL198W'
p5490
S''
sS'YPL207W'
p5491
S''
sS'YKL138C-A'
p5492
S'Chromosome-related'
p5493
sS'YDR197W'
p5494
S''
sS'YGR027C'
p5495
S'Ribosome'
p5496
sS'YOL135C'
p5497
S''
sS'YOR323C'
p5498
S'Amino acid metabolism'
p5499
sS'YLL041C'
p5500
S'TCA cycle and anaplerotic enzymes'
p5501
sS'YML106W'
p5502
S'Pyrimidine metabolism'
p5503
sS'YCR009C'
p5504
S''
sS'YCL054W'
p5505
S'Amino acid metabolism'
p5506
sS'YMR169C'
p5507
S'Glycolysis'
p5508
sS'YOR195W'
p5509
S'Cell cycle'
p5510
sS'YLR118C'
p5511
S''
sS'YER006W'
p5512
S'Ribosome biogenesis in eukaryotes'
p5513
sS'YGL117W'
p5514
S''
sS'YLR182W'
p5515
S'Transcription factors'
p5516
sS'YMR105C'
p5517
S'Glycolysis'
p5518
sS'YER182W'
p5519
S''
sS'YLL034C'
p5520
S'Ribosome biogenesis in eukaryotes'
p5521
sS'YML042W'
p5522
S'Peroxisome'
p5523
sS'YBL105C'
p5524
S'MAPK signaling pathway'
p5525
sS'YMR251W-A'
p5526
S''
sS'YKR060W'
p5527
S''
sS'YDR069C'
p5528
S'Ubiquitin labeling'
p5529
sS'YKR048C'
p5530
S'Chromosome-related'
p5531
sS'YOR144C'
p5532
S'DNA replication control'
p5533
sS'YGR232W'
p5534
S''
sS'YEL066W'
p5535
S''
sS'YEL046C'
p5536
S'Amino acid metabolism'
p5537
sS'YBL055C'
p5538
S''
sS'YPR035W'
p5539
S'Amino acid metabolism'
p5540
sS'YDL189W'
p5541
S''
sS'YLL018C'
p5542
S'tRNA loading'
p5543
sS'YBR276C'
p5544
S'Transport'
p5545
sS'YDR227W'
p5546
S'DNA replication control'
p5547
sS'YPR060C'
p5548
S'Amino acid metabolism'
p5549
sS'YML008C'
p5550
S'Lipid and steroid metabolism'
p5551
sS'YPR019W'
p5552
S'DNA replication complex'
p5553
sS'YDR174W'
p5554
S''
sS'YMR265C'
p5555
S''
sS'YML073C'
p5556
S'Ribosome'
p5557
sS'YGL137W'
p5558
S''
sS'YOR155C'
p5559
S''
sS'YNL236W'
p5560
S''
sS'YHR143W-A'
p5561
S'RNA polymerase'
p5562
sS'YCR072C'
p5563
S''
sS'YBR044C'
p5564
S''
sS'YOR287C'
p5565
S''
sS'YCL009C'
p5566
S'Amino acid metabolism'
p5567
sS'YDL072C'
p5568
S'Protein processing in endoplasmic reticulum'
p5569
sS'YER159C'
p5570
S''
sS'YDL005C'
p5571
S''
sS'YER122C'
p5572
S'Endocytosis'
p5573
sS'YHR113W'
p5574
S''
sS'YMR212C'
p5575
S''
sS'YER048W-A'
p5576
S''
sS'YBR093C'
p5577
S'Cofactor biosynthesis'
p5578
sS'YPR182W'
p5579
S'Spliceosome'
p5580
sS'YJL196C'
p5581
S'Lipid and steroid metabolism'
p5582
sS'YGL054C'
p5583
S''
sS'YGL025C'
p5584
S''
sS'YLR021W'
p5585
S''
sS'YOL126C'
p5586
S'TCA cycle and anaplerotic enzymes'
p5587
sS'YLR058C'
p5588
S'Other central metabolism enzymes'
p5589
sS'YLR134W'
p5590
S'Amino acid metabolism'
p5591
sS'YNL068C'
p5592
S''
sS'YDR058C'
p5593
S'Lipid and steroid metabolism'
p5594
sS'YGL038C'
p5595
S'Glycan metabolism'
p5596
sS'YLR074C'
p5597
S''
sS'YNL216W'
p5598
S'Transcription factors'
p5599
sS'YKL207W'
p5600
S''
sS'YLR405W'
p5601
S'Other enzymes'
p5602
sS'YPL225W'
p5603
S''
sS'YPL270W'
p5604
S''
sS'YDR489W'
p5605
S'DNA replication control'
p5606
sS'YPL249C'
p5607
S''
sS'YHR023W'
p5608
S'Cytoskeleton proteins'
p5609
sS'YJL024C'
p5610
S''
sS'YPR148C'
p5611
S''
sS'YER031C'
p5612
S'GTP-binding signaling proteins'
p5613
sS'YMR089C'
p5614
S'Chaperones and folding catalysts'
p5615
sS'YDR345C'
p5616
S'Transport'
p5617
sS'YJL177W'
p5618
S'Ribosome'
p5619
sS'YGL002W'
p5620
S''
sS'YLR430W'
p5621
S''
sS'YOR108W'
p5622
S''
sS'YPL118W'
p5623
S''
sS'YJL068C'
p5624
S'Other enzymes'
p5625
sS'YBR065C'
p5626
S'Spliceosome'
p5627
sS'YKL112W'
p5628
S'Transcription factors'
p5629
sS'YNL054W'
p5630
S''
sS'YHR046C'
p5631
S'Phosphatidylinositol signaling system'
p5632
sS'YDR156W'
p5633
S'RNA polymerase'
p5634
sS'YMR130W'
p5635
S''
sS'YPR155C'
p5636
S''
sS'YHR179W'
p5637
S'Other enzymes'
p5638
sS'YOR117W'
p5639
S'Proteasome'
p5640
sS'YNL049C'
p5641
S''
sS'YGL195W'
p5642
S''
sS'YKL172W'
p5643
S''
sS'YKR025W'
p5644
S'RNA polymerase'
p5645
sS'YMR290C'
p5646
S'Ribosome biogenesis'
p5647
sS'YDL141W'
p5648
S'Cofactor biosynthesis'
p5649
sS'YDR205W'
p5650
S''
sS'YJR059W'
p5651
S''
sS'YIL007C'
p5652
S''
sS'YLR206W'
p5653
S'Endocytosis'
p5654
sS'YER088C'
p5655
S''
sS'YLR284C'
p5656
S''
sS'YDR358W'
p5657
S''
sS'YDR508C'
p5658
S''
sS'YPR028W'
p5659
S''
sS'YNL185C'
p5660
S''
sS'YLR096W'
p5661
S''
sS'YCL043C'
p5662
S'Chaperones and folding catalysts'
p5663
sS'YBR166C'
p5664
S'Amino acid metabolism'
p5665
sS'YKR052C'
p5666
S''
sS'YMR047C'
p5667
S'RNA transport'
p5668
sS'YPR107C'
p5669
S'mRNA surveillance pathway'
p5670
sS'YLR427W'
p5671
S''
sS'R0020C'
p5672
S''
sS'YHR086W'
p5673
S''
sS'YGR274C'
p5674
S'Basal transcription factors'
p5675
sS'YLR100W'
p5676
S'Lipid and steroid metabolism'
p5677
sS'YBR015C'
p5678
S'Glycan metabolism'
p5679
sS'YML055W'
p5680
S'Protein export'
p5681
sS'YML088W'
p5682
S''
sS'YJR066W'
p5683
S'ErbB signaling pathway'
p5684
sS'YLR116W'
p5685
S''
sS'YER008C'
p5686
S''
sS'YPL013C'
p5687
S''
sS'YDR210W'
p5688
S''
s.