(dp1
S'YBR177C'
p2
F158
sS'YIL140W'
p3
F2.1000000000000001
sS'YLR268W'
p4
F54.100000000000001
sS'YOR011W'
p5
F0.39200000000000002
sS'YJL155C'
p6
F6
sS'YLL062C'
p7
F4.1600000000000001
sS'YLR197W'
p8
F822
sS'YBL039W-B'
p9
F1.5600000000000001
sS'YAL008W'
p10
F6.2599999999999998
sS'YOR043W'
p11
F5.6699999999999999
sS'YBR255W'
p12
F0.51800000000000002
sS'YJL122W'
p13
F81.599999999999994
sS'YIL034C'
p14
F55.200000000000003
sS'YGR148C'
p15
F4076
sS'YJR122W'
p16
F3.2200000000000002
sS'YER087C-B'
p17
F30.199999999999999
sS'YJL204C'
p18
F1.3799999999999999
sS'YNL103W'
p19
F13.699999999999999
sS'YPL144W'
p20
F5.0899999999999999
sS'YLR392C'
p21
F1.3300000000000001
sS'YBR111W-A'
p22
F28.399999999999999
sS'YMR323W'
p23
F9.8699999999999992
sS'YBR135W'
p24
F44
sS'YLR233C'
p25
F4.7800000000000002
sS'YBR160W'
p26
F70.299999999999997
sS'YBR070C'
p27
F4.4000000000000004
sS'YDL238C'
p28
F2.0899999999999999
sS'YJL082W'
p29
F8.7599999999999998
sS'YHR007C'
p30
F128
sS'YHR067W'
p31
F0.189
sS'YPR133W-A'
p32
F221
sS'YPL191C'
p33
F0.69599999999999995
sS'YKL190W'
p34
F68.400000000000006
sS'YGL084C'
p35
F4.7300000000000004
sS'YDR312W'
p36
F13.300000000000001
sS'YLR348C'
p37
F20.800000000000001
sS'YKL074C'
p38
F4.1600000000000001
sS'YIR015W'
p39
F0.54500000000000004
sS'YNR067C'
p40
F48.600000000000001
sS'YNL152W'
p41
F2.3399999999999999
sS'YLR382C'
p42
F1.6000000000000001
sS'YKL096W-A'
p43
F2.2599999999999998
sS'YFL045C'
p44
F717
sS'YFL010C'
p45
F183
sS'YDR141C'
p46
F10.6
sS'YJL131C'
p47
F9.25
sS'YDL170W'
p48
F4.0499999999999998
sS'YBR117C'
p49
F13.4
sS'YJR028W'
p50
F46.799999999999997
sS'YLR219W'
p51
F4.8899999999999997
sS'YCR023C'
p52
F1.21
sS'YDR083W'
p53
F20.699999999999999
sS'YMR009W'
p54
F27.300000000000001
sS'YDR168W'
p55
F94.200000000000003
sS'YJL179W'
p56
F67.099999999999994
sS'YBR241C'
p57
F2.71
sS'YKL183W'
p58
F1.8300000000000001
sS'YDR363W'
p59
F0.83399999999999996
sS'YFL021W'
p60
F28.199999999999999
sS'YJL219W'
p61
F0.41699999999999998
sS'YDR316W-A'
p62
F44.5
sS'YLR362W'
p63
F2.5
sS'YKL083W'
p64
F0.78600000000000003
sS'YMR283C'
p65
F0.18099999999999999
sS'YDL044C'
p66
F2.9399999999999999
sS'YPL024W'
p67
F0.24199999999999999
sS'YKL134C'
p68
F4.0099999999999998
sS'YLR199C'
p69
F30.899999999999999
sS'YKL044W'
p70
F0.51600000000000001
sS'YDR090C'
p71
F0.33200000000000002
sS'YCL017C'
p72
F33.299999999999997
sS'YIL108W'
p73
F19.199999999999999
sS'YPL166W'
p74
F0.191
sS'YLR220W'
p75
F15.9
sS'YBR273C'
p76
F13.6
sS'YFR005C'
p77
F1.1100000000000001
sS'YGR111W'
p78
F6.1600000000000001
sS'YER093C-A'
p79
F1.49
sS'YAL026C'
p80
F6.2599999999999998
sS'YOL034W'
p81
F0.64900000000000002
sS'YJR135W-A'
p82
F50.399999999999999
sS'YFL017W-A'
p83
F4
sS'YFR050C'
p84
F92.5
sS'YBL008W'
p85
F3.3999999999999999
sS'YLR447C'
p86
F221
sS'YGL237C'
p87
F5.0499999999999998
sS'YOL058W'
p88
F1841
sS'YIL062C'
p89
F133
sS'YDR016C'
p90
F77.099999999999994
sS'YDL058W'
p91
F12.4
sS'YOL156W'
p92
F0.41699999999999998
sS'YAR019C'
p93
F7.9699999999999998
sS'YDR299W'
p94
F22.5
sS'YOL116W'
p95
F7.29
sS'YGL255W'
p96
F1.48
sS'YDL226C'
p97
F72
sS'YML129C'
p98
F52.200000000000003
sS'YGL257C'
p99
F0.64000000000000001
sS'YDR196C'
p100
F11
sS'YBR202W'
p101
F12.1
sS'YER023W'
p102
F537
sS'YNL239W'
p103
F108
sS'YBR280C'
p104
F0.47599999999999998
sS'YNR032W'
p105
F1.3200000000000001
sS'YNR045W'
p106
F0.126
sS'YPL143W'
p107
F2545
sS'YKL148C'
p108
F66.400000000000006
sS'YML105C'
p109
F89.700000000000003
sS'YLL040C'
p110
F8.4600000000000009
sS'YIL091C'
p111
F10.699999999999999
sS'YOR322C'
p112
F4.0099999999999998
sS'YLR357W'
p113
F17.5
sS'YPL104W'
p114
F1.8100000000000001
sS'YLR244C'
p115
F219
sS'YAL046C'
p116
F10.5
sS'YLR253W'
p117
F2.5699999999999998
sS'YAL039C'
p118
F7.2599999999999998
sS'YNR018W'
p119
F13.300000000000001
sS'YNL003C'
p120
F4.3200000000000003
sS'YMR251W-A'
p121
F6.2699999999999996
sS'YCR034W'
p122
F35.399999999999999
sS'YFR047C'
p123
F24.300000000000001
sS'YGR100W'
p124
F3.6099999999999999
sS'YIL106W'
p125
F6.1799999999999997
sS'YNL240C'
p126
F4.71
sS'YBR159W'
p127
F223
sS'YCL039W'
p128
F19.5
sS'YML127W'
p129
F46
sS'YDR404C'
p130
F40.100000000000001
sS'YLR188W'
p131
F8.6899999999999995
sS'YGR084C'
p132
F30.199999999999999
sS'YAL049C'
p133
F59.5
sS'YFR018C'
p134
F0.36599999999999999
sS'YDR399W'
p135
F271
sS'YHR141C'
p136
F875
sS'YLR355C'
p137
F3156
sS'YJL212C'
p138
F1.04
sS'YGL157W'
p139
F146
sS'YPL128C'
p140
F28.699999999999999
sS'YJR093C'
p141
F21.800000000000001
sS'YOL090W'
p142
F40.899999999999999
sS'YLR300W'
p143
F193
sS'YCL028W'
p144
F297
sS'YJR140C'
p145
F0.47199999999999998
sS'YBL039C'
p146
F265
sS'YJR095W'
p147
F2.5099999999999998
sS'YNR021W'
p148
F91.700000000000003
sS'YML016C'
p149
F15.4
sS'YGL174W'
p150
F45.899999999999999
sS'YDR380W'
p151
F86.099999999999994
sS'YNL237W'
p152
F0.14899999999999999
sS'YBR094W'
p153
F6.8899999999999997
sS'YHR112C'
p154
F33.899999999999999
sS'YNR007C'
p155
F4.6699999999999999
sS'YPR040W'
p156
F11.699999999999999
sS'YMR224C'
p157
F1.6599999999999999
sS'YHR106W'
p158
F148
sS'YDR485C'
p159
F5.3399999999999999
sS'YLR011W'
p160
F0.48099999999999998
sS'YNL321W'
p161
F2.27
sS'YIL044C'
p162
F34.700000000000003
sS'YPL239W'
p163
F131
sS'YPR183W'
p164
F637
sS'YOR206W'
p165
F67.5
sS'YDL073W'
p166
F0.56699999999999995
sS'YBL042C'
p167
F1.1499999999999999
sS'YNL093W'
p168
F3.71
sS'YCR046C'
p169
F16.399999999999999
sS'YOR391C'
p170
F0.95199999999999996
sS'YER086W'
p171
F231
sS'YDR525W-A'
p172
F7.5899999999999999
sS'YBL111C'
p173
F0.48599999999999999
sS'YLR075W'
p174
F9708
sS'YBR054W'
p175
F202
sS'YDR059C'
p176
F85.700000000000003
sS'YPL224C'
p177
F0.48799999999999999
sS'YLR137W'
p178
F0.85299999999999998
sS'YEL007W'
p179
F28.199999999999999
sS'YLR020C'
p180
F1.72
sS'YNL217W'
p181
F1.24
sS'YKL204W'
p182
F26.600000000000001
sS'YLR404W'
p183
F1.3
sS'YDR040C'
p184
F5.7599999999999998
sS'YBR096W'
p185
F97.5
sS'YPL248C'
p186
F52.899999999999999
sS'YDR531W'
p187
F16.699999999999999
sS'YIL013C'
p188
F0.010999999999999999
sS'YOR266W'
p189
F1.49
sS'YPL206C'
p190
F20
sS'YER026C'
p191
F5.79
sS'YDL060W'
p192
F61.600000000000001
sS'YLR002C'
p193
F19.300000000000001
sS'YDR320C-A'
p194
F7.8399999999999999
sS'YDR421W'
p195
F0.54700000000000004
sS'YGR186W'
p196
F36
sS'YNL113W'
p197
F540
sS'YNR052C'
p198
F7.3099999999999996
sS'YGR019W'
p199
F54
sS'YGL244W'
p200
F59.600000000000001
sS'YEL032W'
p201
F12.699999999999999
sS'YOL076W'
p202
F19.800000000000001
sS'YER145C'
p203
F21
sS'YER110C'
p204
F481
sS'YNL080C'
p205
F2.3599999999999999
sS'YNL208W'
p206
F469
sS'YNL162W'
p207
F875
sS'YDR022C'
p208
F1.3899999999999999
sS'YNL168C'
p209
F83.299999999999997
sS'YPL266W'
p210
F39.399999999999999
sS'YHR203C'
p211
F3340
sS'YER050C'
p212
F12.4
sS'YOR304W'
p213
F15.5
sS'YJR133W'
p214
F14.199999999999999
sS'YOR080W'
p215
F7.3099999999999996
sS'YHL010C'
p216
F1.54
sS'YNL229C'
p217
F29.699999999999999
sS'YER169W'
p218
F6.4800000000000004
sS'YOL016C'
p219
F19.899999999999999
sS'YOR226C'
p220
F11.699999999999999
sS'YGL241W'
p221
F6.9500000000000002
sS'YNL277W'
p222
F4.1799999999999997
sS'YLR108C'
p223
F2.77
sS'YDL146W'
p224
F0.25800000000000001
sS'YNL186W'
p225
F4.7300000000000004
sS'YMR040W'
p226
F1.99
sS'YPR176C'
p227
F0.86699999999999999
sS'YBL063W'
p228
F0.23499999999999999
sS'YKR008W'
p229
F32.799999999999997
sS'YDR123C'
p230
F18.5
sS'YMR146C'
p231
F352
sS'YPR165W'
p232
F529
sS'YDR226W'
p233
F1810
sS'YHR214C-C'
p234
F51.600000000000001
sS'YHR214C-B'
p235
F15.300000000000001
sS'YBR192W'
p236
F4.8600000000000003
sS'YGL159W'
p237
F1.8999999999999999
sS'YKR064W'
p238
F1.27
sS'YLR097C'
p239
F44.899999999999999
sS'YCR060W'
p240
F31.5
sS'YPL089C'
p241
F2.5499999999999998
sS'YLR426W'
p242
F0.746
sS'YGR277C'
p243
F19.199999999999999
sS'YER009W'
p244
F425
sS'YDL155W'
p245
F1.52
sS'YLR292C'
p246
F62.600000000000001
sS'YDL139C'
p247
F2.0699999999999998
sS'YDR246W'
p248
F6.9000000000000004
sS'YOR288C'
p249
F14.9
sS'YDL045C'
p250
F0.85599999999999998
sS'YPL257W-B'
p251
F15.6
sS'YBR181C'
p252
F2442
sS'YGR241C'
p253
F6.8099999999999996
sS'YCR028C'
p254
F0.10299999999999999
sS'YLR115W'
p255
F2.3599999999999999
sS'YGR056W'
p256
F9.8699999999999992
sS'YML054C'
p257
F13.9
sS'YLR179C'
p258
F705
sS'YGL014W'
p259
F22.5
sS'YMR168C'
p260
F2.0899999999999999
sS'YIL124W'
p261
F103
sS'YLL035W'
p262
F0.44400000000000001
sS'YOR245C'
p263
F0.98199999999999998
sS'YNL323W'
p264
F27.699999999999999
sS'YER007W'
p265
F0.23799999999999999
sS'YOR141C'
p266
F23
sS'YER027C'
p267
F62.700000000000003
sS'YER167W'
p268
F2.0899999999999999
sS'YDL013W'
p269
F13.699999999999999
sS'YBL106C'
p270
F0.13400000000000001
sS'YMR104C'
p271
F20.199999999999999
sS'YGL044C'
p272
F16.5
sS'YER107C'
p273
F21
sS'YDL195W'
p274
F209
sS'YNL199C'
p275
F11.5
sS'YJR011C'
p276
F0.998
sS'YDR117C'
p277
F15.4
sS'YLR120C'
p278
F14.6
sS'YCR026C'
p279
F0.82199999999999995
sS'YBL052C'
p280
F0.096000000000000002
sS'YDL198C'
p281
F340
sS'YOR192C-B'
p282
F1.6100000000000001
sS'YEL047C'
p283
F290
sS'YLR285W'
p284
F20.800000000000001
sS'YPR036W'
p285
F278
sS'YPR016C'
p286
F162
sS'YNL317W'
p287
F5.2699999999999996
sS'YLL019C'
p288
F5.46
sS'YOR208W'
p289
F0.114
sS'YDR068W'
p290
F26.199999999999999
sS'YLR406C'
p291
F2466
sS'YOR156C'
p292
F0.086999999999999994
sS'YOR349W'
p293
F0.317
sS'YML009C'
p294
F13.800000000000001
sS'YNL313C'
p295
F13.6
sS'YML072C'
p296
F90.700000000000003
sS'YHR052W'
p297
F181
sS'YDR142C'
p298
F1.8999999999999999
sS'YKR026C'
p299
F28.800000000000001
sS'YFL044C'
p300
F12.1
sS'YEL011W'
p301
F6.7300000000000004
sS'YKL019W'
p302
F5.7599999999999998
sS'YJL130C'
p303
F444
sS'YJL078C'
p304
F0.253
sS'YKL060C'
p305
F18003
sS'YBL085W'
p306
F3.1899999999999999
sS'YKL173W'
p307
F6.0800000000000001
sS'YGR200C'
p308
F32.700000000000003
sS'YCR044C'
p309
F6.7599999999999998
sS'YLR383W'
p310
F0.33700000000000002
sS'YDL177C'
p311
F3.9399999999999999
sS'YIL127C'
p312
F31.199999999999999
sS'YDR348C'
p313
F17.800000000000001
sS'YLR388W'
p314
F2629
sS'YNL073W'
p315
F2.0299999999999998
sS'YDR469W'
p316
F29.100000000000001
sS'YDR333C'
p317
F6.2300000000000004
sS'YGL051W'
p318
F2.9399999999999999
sS'YKL051W'
p319
F5.9900000000000002
sS'YMR013C'
p320
F0.34200000000000003
sS'YLR223C'
p321
F0.72999999999999998
sS'YJL178C'
p322
F17.899999999999999
sS'YLR363C'
p323
F0.28299999999999997
sS'YNR046W'
p324
F76.799999999999997
sS'YNL328C'
p325
F0.56599999999999995
sS'YNL215W'
p326
F34.399999999999999
sS'YJL014W'
p327
F199
sS'YDR219C'
p328
F2.02
sS'YCR011C'
p329
F19.399999999999999
sS'YLR431C'
p330
F1.51
sS'YKR046C'
p331
F89.799999999999997
sS'YKL164C'
p332
F6.4000000000000004
sS'YJR005W'
p333
F1.9099999999999999
sS'YGR217W'
p334
F0.44500000000000001
sS'YNL072W'
p335
F2.3799999999999999
sS'YBL098W'
p336
F6.1699999999999999
sS'YKL113C'
p337
F25
sS'YBL068W'
p338
F23.600000000000001
sS'YOR174W'
p339
F16.199999999999999
sS'YER030W'
p340
F129
sS'YDR466W'
p341
F1.8200000000000001
sS'YFL002C'
p342
F5.5099999999999998
sS'YDR155C'
p343
F3078
sS'YPR149W'
p344
F477
sS'YIR026C'
p345
F33.799999999999997
sS'YJL176C'
p346
F24.899999999999999
sS'YJR072C'
p347
F39.399999999999999
sS'YDR047W'
p348
F20.800000000000001
sS'YKR039W'
p349
F10.699999999999999
sS'YPL087W'
p350
F3.3199999999999998
sS'YNL015W'
p351
F420
sS'YCR084C'
p352
F88.900000000000006
sS'YDR302W'
p353
F0.68300000000000005
sS'YDL166C'
p354
F17
sS'YPL009C'
p355
F21.800000000000001
sS'YHR178W'
p356
F2.5699999999999998
sS'YOR118W'
p357
F1.5600000000000001
sS'YLR069C'
p358
F19.100000000000001
sS'YPL187W'
p359
F0.88900000000000001
sS'YMR022W'
p360
F19.199999999999999
sS'YPL170W'
p361
F55.700000000000003
sS'YOR254C'
p362
F118
sS'YPR001W'
p363
F1.8300000000000001
sS'YFL059W'
p364
F5.7999999999999998
sS'YML094W'
p365
F94.799999999999997
sS'YKR006C'
p366
F31.199999999999999
sS'YDL117W'
p367
F0.85199999999999998
sS'YMR131C'
p368
F49.100000000000001
sS'YPR154W'
p369
F41.200000000000003
sS'YBR085C-A'
p370
F512
sS'YJL109C'
p371
F27.899999999999999
sS'YDR316W-B'
p372
F12.9
sS'YMR293C'
p373
F0.56200000000000006
sS'YNL048W'
p374
F4.04
sS'YJL214W'
p375
F0.050000000000000003
sS'YIL005W'
p376
F18.600000000000001
sS'YIL105C'
p377
F24.5
sS'YNL119W'
p378
F3.6099999999999999
sS'YOR090C'
p379
F11.800000000000001
sS'YOR074C'
p380
F37.700000000000003
sS'YLR189C'
p381
F1.97
sS'YNR040W'
p382
F92.200000000000003
sS'YNR019W'
p383
F5.9699999999999998
sS'YGR158C'
p384
F24.699999999999999
sS'YKL077W'
p385
F18.199999999999999
sS'YFR046C'
p386
F2.4900000000000002
sS'YBR212W'
p387
F15.6
sS'YJR109C'
p388
F619
sS'YKL025C'
p389
F2.0699999999999998
sS'YGR085C'
p390
F979
sS'YOR003W'
p391
F1.55
sS'YIL169C'
p392
F1.3899999999999999
sS'YPL105C'
p393
F8.1400000000000006
sS'YHR121W'
p394
F30.600000000000001
sS'YOL097C'
p395
F211
sS'YJL096W'
p396
F5.4400000000000004
sS'YDR407C'
p397
F4.9500000000000002
sS'YLR354C'
p398
F1477
sS'YGR110W'
p399
F0.219
sS'YNR020C'
p400
F0.56399999999999995
sS'YGL197W'
p401
F2.5299999999999998
sS'YBR258C'
p402
F8.1400000000000006
sS'YLR301W'
p403
F259
sS'YFR019W'
p404
F0.94799999999999995
sS'YLR262C-A'
p405
F634
sS'YHR142W'
p406
F0.221
sS'YOR032C'
p407
F1.9299999999999999
sS'YBR223C'
p408
F0.33800000000000002
sS'YNL241C'
p409
F250
sS'YGR083C'
p410
F28.800000000000001
sS'YJL154C'
p411
F6.4400000000000004
sS'YDR091C'
p412
F196
sS'YJL123C'
p413
F69.700000000000003
sS'YHR066W'
p414
F15.6
sS'YPL047W'
p415
F13.800000000000001
sS'YNL326C'
p416
F1.9199999999999999
sS'YIL147C'
p417
F0.189
sS'YBR129C'
p418
F1.8500000000000001
sS'YLR287C-A'
p419
F1491
sS'YBR176W'
p420
F3.4900000000000002
sS'YPR138C'
p421
F0.622
sS'YDR207C'
p422
F8.2599999999999998
sS'YKL181W'
p423
F145
sS'YDL215C'
p424
F22.5
sS'YGR167W'
p425
F270
sS'YJL059W'
p426
F0.63500000000000001
sS'YKL099C'
p427
F17.899999999999999
sS'YDR315C'
p428
F0.156
sS'YJL143W'
p429
F54.399999999999999
sS'YLR264W'
p430
F2100
sS'YGL238W'
p431
F29.899999999999999
sS'YKL029C'
p432
F140
sS'YNL104C'
p433
F430
sS'YML081C-A'
p434
F58.299999999999997
sS'YNL128W'
p435
F5.1600000000000001
sS'YKL017C'
p436
F3.1400000000000001
sS'YDR450W'
p437
F2434
sS'YNL151C'
p438
F37.399999999999999
sS'YPL190C'
p439
F27.600000000000001
sS'YKL191W'
p440
F7.9199999999999999
sS'YNR006W'
p441
F24.800000000000001
sS'YHR006W'
p442
F0.53400000000000003
sS'YPL201C'
p443
F0.71999999999999997
sS'YHR120W'
p444
F0.27700000000000002
sS'YIL065C'
p445
F52
sS'YOR023C'
p446
F0.64100000000000001
sS'YKL021C'
p447
F29
sS'YHR025W'
p448
F517
sS'YPR147C'
p449
F9.0299999999999994
sS'YBL018C'
p450
F2.3700000000000001
sS'YOR267C'
p451
F25.399999999999999
sS'YGR038C-A'
p452
F43.200000000000003
sS'YGR038C-B'
p453
F12.699999999999999
sS'YDR530C'
p454
F2.52
sS'YDR131C'
p455
F6.5599999999999996
sS'YHR009C'
p456
F15
sS'YEL031W'
p457
F171
sS'YOL071W'
p458
F2.9199999999999999
sS'YBL029C-A'
p459
F7.8899999999999997
sS'YDL063C'
p460
F14.199999999999999
sS'YER144C'
p461
F0.069000000000000006
sS'YOL039W'
p462
F3118
sS'YBR229C'
p463
F12.6
sS'YOR385W'
p464
F5.6200000000000001
sS'YGR185C'
p465
F432
sS'YJL189W'
p466
F28416
sS'YER168C'
p467
F29.5
sS'YPL265W'
p468
F2.7999999999999998
sS'YOR227W'
p469
F4.5899999999999999
sS'YOR081C'
p470
F1.5900000000000001
sS'YEL026W'
p471
F1886
sS'YNL298W'
p472
F2.5299999999999998
sS'YDR392W'
p473
F22.100000000000001
sS'YBR290W'
p474
F0.47099999999999997
sS'YNL274C'
p475
F70.900000000000006
sS'YIL096C'
p476
F3.5
sS'YML113W'
p477
F4.4400000000000004
sS'YDR021W'
p478
F2.6499999999999999
sS'YHR202W'
p479
F0.14499999999999999
sS'YFR010W-A'
p480
F0.94899999999999995
sS'YOR350C'
p481
F0.123
sS'YLR208W'
p482
F172
sS'YIL018W'
p483
F1745
sS'YPL023C'
p484
F9.3000000000000007
sS'YCL020W'
p485
F2.96
sS'YHR008C'
p486
F506
sS'YLR446W'
p487
F0.19500000000000001
sS'YPR095C'
p488
F0.124
sS'YOR310C'
p489
F592
sS'YFR051C'
p490
F95.5
sS'YOR063W'
p491
F4430
sS'YDR188W'
p492
F192
sS'YOL128C'
p493
F1.3700000000000001
sS'YGL236C'
p494
F1.5700000000000001
sS'YOL057W'
p495
F37.399999999999999
sS'YFR004W'
p496
F134
sS'YHR133C'
p497
F19.899999999999999
sS'YDR541C'
p498
F0.27300000000000002
sS'YMR303C'
p499
F1919
sS'YOR369C'
p500
F3701
sS'YER103W'
p501
F747
sS'YOR092W'
p502
F0.20300000000000001
sS'YNL054W-A'
p503
F44.299999999999997
sS'YML128C'
p504
F78.299999999999997
sS'YDR411C'
p505
F17.399999999999999
sS'YBR283C'
p506
F220
sS'YIL090W'
p507
F4.4699999999999998
sS'YBR205W'
p508
F32.399999999999999
sS'YOR321W'
p509
F4.2000000000000002
sS'YML114C'
p510
F6.79
sS'YNR033W'
p511
F3.1600000000000001
sS'YDL004W'
p512
F173
sS'YMR186W'
p513
F1928
sS'YDR195W'
p514
F11.199999999999999
sS'YOL048C'
p515
F0.16600000000000001
sS'YNL256W'
p516
F6.3099999999999996
sS'YGR126W'
p517
F10.4
sS'YMR278W'
p518
F6.7699999999999996
sS'YGR072W'
p519
F3.5299999999999998
sS'YML039W'
p520
F13.699999999999999
sS'YMR207C'
p521
F4.8700000000000001
sS'YML015C'
p522
F12
sS'YOR197W'
p523
F122
sS'YCR007C'
p524
F1.76
sS'YAR035W'
p525
F1.25
sS'YEL004W'
p526
F0.61799999999999999
sS'YER166W'
p527
F5.4900000000000002
sS'YDL014W'
p528
F981
sS'YNL098C'
p529
F178
sS'YPR057W'
p530
F0.53400000000000003
sS'YLL032C'
p531
F1.5800000000000001
sS'YCR027C'
p532
F7.3600000000000003
sS'YML040W'
p533
F49.299999999999997
sS'YDL194W'
p534
F0.087999999999999995
sS'YER079W'
p535
F17.699999999999999
sS'YBR039W'
p536
F227
sS'YER024W'
p537
F2.54
sS'YPR161C'
p538
F3.7599999999999998
sS'YGR258C'
p539
F0.88600000000000001
sS'YOR230W'
p540
F434
sS'YPL234C'
p541
F264
sS'YLR090W'
p542
F44.299999999999997
sS'YPL283C'
p543
F0.35499999999999998
sS'YOR209C'
p544
F111
sS'YDL165W'
p545
F13.9
sS'YJL112W'
p546
F4.1299999999999999
sS'YMR178W'
p547
F50.5
sS'YPR017C'
p548
F15.6
sS'YGL115W'
p549
F112
sS'YLL051C'
p550
F0.14199999999999999
sS'YOL129W'
p551
F7.5599999999999996
sS'YEL044W'
p552
F14.300000000000001
sS'YMR247C'
p553
F6.0300000000000002
sS'YPR037C'
p554
F18.800000000000001
sS'YML071C'
p555
F8.6099999999999994
sS'YBR077C'
p556
F7.8399999999999999
sS'YDR176W'
p557
F24.5
sS'YDR122W'
p558
F4.0700000000000003
sS'YER120W'
p559
F238
sS'YNL090W'
p560
F23.800000000000001
sS'YBR042C'
p561
F6.4699999999999998
sS'YOL062C'
p562
F3.6000000000000001
sS'YDR381W'
p563
F645
sS'YGL103W'
p564
F3960
sS'YDR484W'
p565
F4.2800000000000002
sS'YLR467W'
p566
F0.32500000000000001
sS'YOR207C'
p567
F31.100000000000001
sS'YMR225C'
p568
F2.8799999999999999
sS'YOR370C'
p569
F19.199999999999999
sS'YGR192C'
p570
F27416
sS'YBR095C'
p571
F8.0999999999999996
sS'YHR111W'
p572
F27.399999999999999
sS'YBL045C'
p573
F400
sS'YGL071W'
p574
F2.2000000000000002
sS'YDR524C'
p575
F0.32600000000000001
sS'YGR043C'
p576
F43.5
sS'YPR170W-B'
p577
F230
sS'YGR008C'
p578
F92.099999999999994
sS'YDL070W'
p579
F0.92200000000000004
sS'YGL185C'
p580
F1.74
sS'YCR047C'
p581
F14.9
sS'YPR202W'
p582
F0.48999999999999999
sS'YPL223C'
p583
F28.800000000000001
sS'YEL037C'
p584
F190
sS'YPL272C'
p585
F0.14199999999999999
sS'YKL135C'
p586
F10.6
sS'YER064C'
p587
F1.7
sS'YOR241W'
p588
F20.399999999999999
sS'YOL002C'
p589
F0.50900000000000001
sS'YML111W'
p590
F3.21
sS'YOR359W'
p591
F6.54
sS'YNL218W'
p592
F0.255
sS'YKL205W'
p593
F8.6099999999999994
sS'YLR407W'
p594
F0.47899999999999998
sS'YBR088C'
p595
F256
sS'YBR055C'
p596
F21.5
sS'YOR175C'
p597
F14.699999999999999
sS'YER033C'
p598
F1.6799999999999999
sS'YNL329C'
p599
F0.72099999999999997
sS'YFL005W'
p600
F226
sS'YCR010C'
p601
F3.3999999999999999
sS'YKL110C'
p602
F7.4100000000000001
sS'YHR040W'
p603
F10.300000000000001
sS'YMR152W'
p604
F17.399999999999999
sS'YML057W'
p605
F53.899999999999999
sS'YLR079W'
p606
F4.3899999999999997
sS'YKR038C'
p607
F6.1799999999999997
sS'YLR432W'
p608
F457
sS'YMR029C'
p609
F12.9
sS'YJR004C'
p610
F3.3599999999999999
sS'YCL026C-B'
p611
F53.100000000000001
sS'YJL115W'
p612
F48.299999999999997
sS'YJR073C'
p613
F161
sS'YGL004C'
p614
F5.0899999999999999
sS'YGR020C'
p615
F117
sS'YML097C'
p616
F6.2199999999999998
sS'YKR007W'
p617
F31.800000000000001
sS'YJL055W'
p618
F131
sS'YPR102C'
p619
F979
sS'YHR193C'
p620
F1658
sS'YBL068W-A'
p621
F3.5600000000000001
sS'YNL044W'
p622
F139
sS'YNL188W'
p623
F0.60999999999999999
sS'YDR303C'
p624
F38.899999999999999
sS'YPL008W'
p625
F2.5899999999999999
sS'YPL086C'
p626
F20.300000000000001
sS'Q0250'
p627
F172
sS'YPL184C'
p628
F5.7199999999999998
sS'YMR023C'
p629
F0.27800000000000002
sS'YER159C-A'
p630
F44.5
sS'YMR042W'
p631
F2.02
sS'YOR119C'
p632
F7.0800000000000001
sS'YJR076C'
p633
F136
sS'YDR054C'
p634
F30.100000000000001
sS'YLR409C'
p635
F9.4900000000000002
sS'YNL316C'
p636
F8.8399999999999999
sS'YGR248W'
p637
F47.399999999999999
sS'YDR109C'
p638
F1.96
sS'YPL088W'
p639
F0.93500000000000005
sS'YKR065C'
p640
F79
sS'YMR041C'
p641
F3.5800000000000001
sS'YPR171W'
p642
F4.2000000000000002
sS'YMR267W'
p643
F7.2999999999999998
sS'YNL288W'
p644
F31.5
sS'YKR009C'
p645
F141
sS'YKL103C'
p646
F99.400000000000006
sS'YCR061W'
p647
F3.3500000000000001
sS'YMR109W'
p648
F32.399999999999999
sS'YPL042C'
p649
F7.7400000000000002
sS'YMR078C'
p650
F1.96
sS'YLR094C'
p651
F0.14799999999999999
sS'YBR037C'
p652
F2.4399999999999999
sS'YDR232W'
p653
F101
sS'YDR245W'
p654
F14.800000000000001
sS'YHR088W'
p655
F11.300000000000001
sS'YGR276C'
p656
F7.1299999999999999
sS'YOL120C'
p657
F2959
sS'YBR017C'
p658
F45.100000000000001
sS'YER100W'
p659
F44
sS'YML037C'
p660
F1.2
sS'YJR060W'
p661
F91.200000000000003
sS'YOR289W'
p662
F5.4699999999999998
sS'YPR162C'
p663
F5.6299999999999999
sS'YDL089W'
p664
F5.4400000000000004
sS'YLR178C'
p665
F141
sS'YHR175W'
p666
F0.53700000000000003
sS'YGR166W'
p667
F0.84599999999999997
sS'YDL161W'
p668
F25.899999999999999
sS'YAL001C'
p669
F10.300000000000001
sS'YPR079W'
p670
F1.0700000000000001
sS'YBR102C'
p671
F4.6600000000000001
sS'YNL161W'
p672
F9.1400000000000006
sS'YJR055W'
p673
F3.4500000000000002
sS'YDR096W'
p674
F6.6500000000000004
sS'YHR065C'
p675
F106
sS'YPL046C'
p676
F8.1899999999999995
sS'YDR390C'
p677
F7.9199999999999999
sS'YGL099W'
p678
F87.200000000000003
sS'YFL030W'
p679
F8.1600000000000001
sS'YIL119C'
p680
F7.8700000000000001
sS'YIL002W-A'
p681
F59.700000000000003
sS'YPR111W'
p682
F8.5999999999999996
sS'YPL193W'
p683
F1.6499999999999999
sS'YKL196C'
p684
F218
sS'YIL036W'
p685
F29.399999999999999
sS'YLR231C'
p686
F52.799999999999997
sS'YBR012W-B'
p687
F11.5
sS'YBR012W-A'
p688
F43.200000000000003
sS'YPR105C'
p689
F2.8599999999999999
sS'YFR021W'
p690
F2.3700000000000001
sS'YNL129W'
p691
F6.2199999999999998
sS'YJR139C'
p692
F1785
sS'YKL016C'
p693
F320
sS'YBR133C'
p694
F2.46
sS'YGL017W'
p695
F3.1400000000000001
sS'YBR162C'
p696
F78.599999999999994
sS'YIL004C'
p697
F28.899999999999999
sS'YPR129W'
p698
F44.200000000000003
sS'YKL174C'
p699
F0.75
sS'YNL333W'
p700
F5.7999999999999998
sS'YFR006W'
p701
F56.600000000000001
sS'YBL084C'
p702
F0.48899999999999999
sS'YDR143C'
p703
F10.1
sS'YDL176W'
p704
F0.193
sS'YBR111C'
p705
F205
sS'YKL121W'
p706
F0.72499999999999998
sS'YML036W'
p707
F15.699999999999999
sS'YKR027W'
p708
F0.81200000000000006
sS'YFL047W'
p709
F10.800000000000001
sS'YGR201C'
p710
F4.3700000000000001
sS'YDR272W'
p711
F54.600000000000001
sS'YLR380W'
p712
F34.5
sS'YKL034W'
p713
F0.38900000000000001
sS'YOR142W-B'
p714
F12.1
sS'YNL172W'
p715
F0.70399999999999996
sS'YJR042W'
p716
F18.100000000000001
sS'YMR281W'
p717
F0.186
sS'YNL058C'
p718
F1.6899999999999999
sS'YMR012W'
p719
F232
sS'YER093C'
p720
F1.04
sS'YBR215W'
p721
F17.600000000000001
sS'YNL023C'
p722
F2.73
sS'YDR349C'
p723
F6.71
sS'YOR171C'
p724
F9.4199999999999999
sS'YDR214W'
p725
F138
sS'YLR222C'
p726
F58
sS'YLR201C'
p727
F1.29
sS'YLR295C'
p728
F116
sS'YFL027C'
p729
F0.82699999999999996
sS'YDR468C'
p730
F9.9900000000000002
sS'YDR332W'
p731
F0.11600000000000001
sS'YHR168W'
p732
F0.35799999999999998
sS'YJR112W'
p733
F47.100000000000001
sS'YOR064C'
p734
F5.7000000000000002
sS'YOL154W'
p735
F2.2200000000000002
sS'YPR008W'
p736
F8.2699999999999996
sS'YFR003C'
p737
F22.899999999999999
sS'YNL297C'
p738
F2.8900000000000001
sS'YOL081W'
p739
F0.84199999999999997
sS'YIL033C'
p740
F162
sS'YOL036W'
p741
F0.221
sS'YDR244W'
p742
F1.6299999999999999
sS'YOR002W'
p743
F1.25
sS'YPL133C'
p744
F4.2599999999999998
sS'YIL048W'
p745
F3.0800000000000001
sS'YDR189W'
p746
F30
sS'YLR337C'
p747
F28
sS'YOL056W'
p748
F7.7300000000000004
sS'YOR075W'
p749
F1.3899999999999999
sS'YHL034C'
p750
F590
sS'YMR302C'
p751
F10.199999999999999
sS'YBR282W'
p752
F27.300000000000001
sS'YCL030C'
p753
F501
sS'YHR132C'
p754
F77
sS'YGR088W'
p755
F55.399999999999999
sS'YGL133W'
p756
F15.1
sS'YHR078W'
p757
F0.16600000000000001
sS'YGL073W'
p758
F11.9
sS'YDR194C'
p759
F93.200000000000003
sS'YOL049W'
p760
F50.799999999999997
sS'YKR084C'
p761
F14.300000000000001
sS'YDR014W'
p762
F0.41799999999999998
sS'YJR031C'
p763
F3.2400000000000002
sS'YNL257C'
p764
F0.26600000000000001
sS'YNR030W'
p765
F16.399999999999999
sS'YMR189W'
p766
F67.900000000000006
sS'YIL093C'
p767
F10.4
sS'YBR204C'
p768
F8.0399999999999991
sS'YGR106C'
p769
F45.899999999999999
sS'YLR397C'
p770
F20.600000000000001
sS'YIL009W'
p771
F13.9
sS'YDR463W'
p772
F1.95
sS'YFR045W'
p773
F1.1799999999999999
sS'YIL104C'
p774
F4.8399999999999999
sS'YIL151C'
p775
F0.77000000000000002
sS'YIL002C'
p776
F2.8100000000000001
sS'YGL086W'
p777
F9.25
sS'YGR159C'
p778
F522
sS'YDL223C'
p779
F20.5
sS'YAL044C'
p780
F591
sS'YBR213W'
p781
F4.5899999999999999
sS'YNL234W'
p782
F0.36899999999999999
sS'YAL010C'
p783
F2.5800000000000001
sS'YPR081C'
p784
F11.199999999999999
sS'YNL118C'
p785
F14.6
sS'YJR119C'
p786
F0.191
sS'YNR023W'
p787
F6.1299999999999999
sS'YOL096C'
p788
F1.1699999999999999
sS'YGL228W'
p789
F70.299999999999997
sS'YDR284C'
p790
F28.699999999999999
sS'YJR117W'
p791
F63.100000000000001
sS'YJL097W'
p792
F3.9100000000000001
sS'YGR144W'
p793
F0.158
sS'YNL242W'
p794
F0.83099999999999996
sS'YGL155W'
p795
F11.4
sS'YOR301W'
p796
F0.59299999999999997
sS'YDR406W'
p797
F21.899999999999999
sS'YOR048C'
p798
F12.699999999999999
sS'YAL030W'
p799
F25.800000000000001
sS'YNL147W'
p800
F7.54
sS'YPR163C'
p801
F354
sS'YBR222C'
p802
F41.600000000000001
sS'YPR088C'
p803
F46.899999999999999
sS'YLR131C'
p804
F3.1099999999999999
sS'YER127W'
p805
F6.6299999999999999
sS'YNL091W'
p806
F1.6699999999999999
sS'YOL063C'
p807
F0.47499999999999998
sS'YCL004W'
p808
F0.38200000000000001
sS'YGR099W'
p809
F0.56000000000000005
sS'YMR226C'
p810
F665
sS'YLR466W'
p811
F0.29499999999999998
sS'YJL193W'
p812
F0.33100000000000002
sS'YBL015W'
p813
F127
sS'YEL027W'
p814
F387
sS'YMR305C'
p815
F93.299999999999997
sS'YLR017W'
p816
F84.099999999999994
sS'YHR110W'
p817
F6.4000000000000004
sS'YBR041W'
p818
F17.100000000000001
sS'YDR430C'
p819
F7.8600000000000003
sS'YGR193C'
p820
F69.099999999999994
sS'YDR487C'
p821
F360
sS'YPR185W'
p822
F0.88100000000000001
sS'YPL273W'
p823
F102
sS'YBR185C'
p824
F2.1200000000000001
sS'YER065C'
p825
F8
sS'YLR077W'
p826
F3.71
sS'YBR056W'
p827
F24.699999999999999
sS'YNL219C'
p828
F24.100000000000001
sS'YGR094W'
p829
F525
sS'YDR037W'
p830
F1418
sS'YGR040W'
p831
F128
sS'YER178W'
p832
F558
sS'YLR057W'
p833
F1.45
sS'YLR172C'
p834
F76.200000000000003
sS'YPL222W'
p835
F2.1099999999999999
sS'YHR005C'
p836
F16.199999999999999
sS'YFR014C'
p837
F15.9
sS'YOR320C'
p838
F20.600000000000001
sS'YFL064C'
p839
F0.70699999999999996
sS'YHR034C'
p840
F6.4000000000000004
sS'YBL019W'
p841
F0.124
sS'YMR231W'
p842
F3.3700000000000001
sS'YOL070C'
p843
F9.3200000000000003
sS'YOL138C'
p844
F0.38900000000000001
sS'YOR188W'
p845
F1.8600000000000001
sS'YGR150C'
p846
F1.3700000000000001
sS'YDR533C'
p847
F245
sS'YLR452C'
p848
F8.0700000000000003
sS'YHR061C'
p849
F0.377
sS'YNR054C'
p850
F16.600000000000001
sS'YKL192C'
p851
F117
sS'YER147C'
p852
F1.22
sS'YDR130C'
p853
F9.0800000000000001
sS'YIL015W'
p854
F45.100000000000001
sS'YEL030W'
p855
F166
sS'YGL173C'
p856
F141
sS'YOL038W'
p857
F222
sS'YNL275W'
p858
F0.17299999999999999
sS'YAR015W'
p859
F198
sS'YOR384W'
p860
F0.251
sS'YOR086C'
p861
F74.400000000000006
sS'YDR020C'
p862
F0.187
sS'YHR201C'
p863
F37.700000000000003
sS'YPL213W'
p864
F7.3499999999999996
sS'YNL082W'
p865
F0.59199999999999997
sS'YNL299W'
p866
F0.17199999999999999
sS'YDR427W'
p867
F80
sS'YOR279C'
p868
F9.0800000000000001
sS'YOR224C'
p869
F172
sS'YGL172W'
p870
F33.899999999999999
sS'YKL211C'
p871
F126
sS'YGL060W'
p872
F0.16300000000000001
sS'YNL311C'
p873
F3.02
sS'YLL002W'
p874
F0.158
sS'YJL030W'
p875
F1.05
sS'YLR424W'
p876
F0.33800000000000002
sS'YDR165W'
p877
F32.299999999999997
sS'YLR408C'
p878
F0.55100000000000005
sS'YMR093W'
p879
F161
sS'YGR076C'
p880
F13.1
sS'YKR066C'
p881
F62.299999999999997
sS'YDR079W'
p882
F10.4
sS'YMR268C'
p883
F0.221
sS'YNL154C'
p884
F83.5
sS'YBL071W-A'
p885
F2.5
sS'YER043C'
p886
F2261
sS'YBR074W'
p887
F15.9
sS'YGL100W'
p888
F21.300000000000001
sS'YOR150W'
p889
F6.7199999999999998
sS'YMR106C'
p890
F57.899999999999999
sS'YDR310C'
p891
F24.699999999999999
sS'YDR055W'
p892
F42.799999999999997
sS'YBL061C'
p893
F6.04
sS'YGL203C'
p894
F21.199999999999999
sS'YPR054W'
p895
F1.6100000000000001
sS'YMR140W'
p896
F3.9199999999999999
sS'YGL070C'
p897
F107
sS'YLR095C'
p898
F7.25
sS'YBR034C'
p899
F145
sS'YMR108W'
p900
F468
sS'YER062C'
p901
F427
sS'YPR114W'
p902
F1.23
sS'YER189W'
p903
F0.503
sS'YKL018W'
p904
F11.300000000000001
sS'YHR122W'
p905
F3.5
sS'YDL088C'
p906
F6.8200000000000003
sS'YDL137W'
p907
F580
sS'YJR063W'
p908
F213
sS'YGR067C'
p909
F0.11600000000000001
sS'YBR018C'
p910
F10.9
sS'YML013W'
p911
F4.4699999999999998
sS'YDL157C'
p912
F2.4900000000000002
sS'YDR233C'
p913
F634
sS'YJL184W'
p914
F49.399999999999999
sS'YER025W'
p915
F543
sS'YDL015C'
p916
F26.5
sS'YKL139W'
p917
F3.27
sS'YKR086W'
p918
F0.91500000000000004
sS'YML041C'
p919
F3.8399999999999999
sS'YCR004C'
p920
F352
sS'YER078C'
p921
F3.6000000000000001
sS'YMR166C'
p922
F0.65200000000000002
sS'YDR341C'
p923
F413
sS'YGR071C'
p924
F5.8399999999999999
sS'YGR132C'
p925
F186
sS'YER165W'
p926
F1229
sS'YDR035W'
p927
F300
sS'YML038C'
p928
F0.34699999999999998
sS'YCL059C'
p929
F42.399999999999999
sS'YML014W'
p930
F5.7199999999999998
sS'YKR071C'
p931
F46.5
sS'YDR489W'
p932
F1.01
sS'YNL101W'
p933
F0.56000000000000005
sS'YOR233W'
p934
F2.4700000000000002
sS'YOR210W'
p935
F216
sS'YPR049C'
p936
F0.627
sS'YDL057W'
p937
F4.5499999999999998
sS'YGR257C'
p938
F1.1100000000000001
sS'YMR179W'
p939
F0.11600000000000001
sS'YLR263W'
p940
F0.27400000000000002
sS'YPL235W'
p941
F155
sS'YPL204W'
p942
F19.800000000000001
sS'YJL136C'
p943
F2381
sS'YBL050W'
p944
F172
sS'YDL107W'
p945
F0.22700000000000001
sS'YGR280C'
p946
F73.5
sS'YLR155C'
p947
F1.5700000000000001
sS'YEL069C'
p948
F0.063
sS'YDL159W'
p949
F12.199999999999999
sS'YBL087C'
p950
F2382
sS'YJR014W'
p951
F97.299999999999997
sS'YJL132W'
p952
F0.27700000000000002
sS'YHR050W'
p953
F0.45400000000000001
sS'YBR110W'
p954
F16.100000000000001
sS'YDR144C'
p955
F19.800000000000001
sS'YOR180C'
p956
F8.8399999999999999
sS'YPL018W'
p957
F2.6299999999999999
sS'YGL018C'
p958
F17.399999999999999
sS'YMR075W'
p959
F4.0199999999999996
sS'YGR202C'
p960
F10.9
sS'YKL120W'
p961
F168
sS'YJR041C'
p962
F6.5800000000000001
sS'YKL175W'
p963
F1.3799999999999999
sS'YKR028W'
p964
F7.9100000000000001
sS'YFL046W'
p965
F0.255
sS'YDR379W'
p966
F2.0499999999999998
sS'YLR381W'
p967
F0.58199999999999996
sS'YJR026W'
p968
F49.299999999999997
sS'YHR169W'
p969
F5.3899999999999997
sS'YOR103C'
p970
F51.100000000000001
sS'YDL175C'
p971
F3.52
sS'YCR059C'
p972
F7.6600000000000001
sS'YKL137W'
p973
F36.799999999999997
sS'YDR447C'
p974
F2309
sS'YGL009C'
p975
F1452
sS'YNL059C'
p976
F34.299999999999997
sS'YDL200C'
p977
F0.49399999999999999
sS'YDL102W'
p978
F3.1200000000000001
sS'YJR009C'
p979
F8086
sS'YPR145W'
p980
F976
sS'YJL063C'
p981
F11.300000000000001
sS'YLR214W'
p982
F26
sS'YMR149W'
p983
F62.200000000000003
sS'YJR033C'
p984
F1.49
sS'YIR010W'
p985
F16.699999999999999
sS'YLR278C'
p986
F6.6500000000000004
sS'YOR293W'
p987
F962
sS'YML056C'
p988
F376
sS'YLR025W'
p989
F107
sS'YLR059C'
p990
F9.1899999999999995
sS'YKL149C'
p991
F0.26200000000000001
sS'YCR069W'
p992
F0.252
sS'YDL128W'
p993
F20.800000000000001
sS'YLR433C'
p994
F15
sS'YMR068W'
p995
F0.252
sS'YDR066C'
p996
F0.16200000000000001
sS'YLR157C-A'
p997
F55.700000000000003
sS'YMR153W'
p998
F8.7100000000000009
sS'YKL055C'
p999
F25.199999999999999
sS'YDL040C'
p1000
F77.5
sS'YPL096W'
p1001
F2.5800000000000001
sS'YJL041W'
p1002
F89.099999999999994
sS'YER032W'
p1003
F0.087999999999999995
sS'YJR070C'
p1004
F422
sS'YMR033W'
p1005
F38.100000000000001
sS'YDL097C'
p1006
F160
sS'YKL063C'
p1007
F29.100000000000001
sS'YGL005C'
p1008
F8.3100000000000005
sS'YGR262C'
p1009
F4.7999999999999998
sS'YPL160W'
p1010
F440
sS'YPL085W'
p1011
F16.300000000000001
sS'YDL111C'
p1012
F26.600000000000001
sS'YPR152C'
p1013
F1.71
sS'YPL007C'
p1014
F2.52
sS'YDR495C'
p1015
F0.56299999999999994
sS'YLR203C'
p1016
F34.5
sS'YKL159C'
p1017
F2.48
sS'YGR215W'
p1018
F37.700000000000003
sS'YJR046W'
p1019
F2.9500000000000002
sS'YGR237C'
p1020
F1.78
sS'YDR507C'
p1021
F10.6
sS'YML096W'
p1022
F0.67400000000000004
sS'YHR192W'
p1023
F19.600000000000001
sS'YOR132W'
p1024
F6.0599999999999996
sS'YDR300C'
p1025
F63.899999999999999
sS'YBR101C'
p1026
F151
sS'YDL229W'
p1027
F3031
sS'YGL087C'
p1028
F159
sS'YDR240C'
p1029
F0.85199999999999998
sS'YPR080W'
p1030
F11158
sS'YKL088W'
p1031
F13.5
sS'YLR390W'
p1032
F10.800000000000001
sS'YDR465C'
p1033
F51.899999999999999
sS'YLR276C'
p1034
F33.899999999999999
sS'YKL023C-A'
p1035
F0.89400000000000002
sS'YKL079W'
p1036
F5.3600000000000003
sS'YFR044C'
p1037
F385
sS'YBR210W'
p1038
F12.5
sS'YPL103C'
p1039
F0.14699999999999999
sS'YIL103W'
p1040
F5.6500000000000004
sS'YBR269C'
p1041
F78
sS'YFR033C'
p1042
F125
sS'YDR283C'
p1043
F5.2199999999999998
sS'YJR096W'
p1044
F22
sS'YLR398C'
p1045
F8.7300000000000004
sS'YGL190C'
p1046
F11.1
sS'YGR143W'
p1047
F4.29
sS'YER007C-A'
p1048
F65.299999999999997
sS'YOL095C'
p1049
F0.112
sS'YNR022C'
p1050
F1.6100000000000001
sS'YLR256W'
p1051
F6.4000000000000004
sS'YGL229C'
p1052
F0.497
sS'YBR125C'
p1053
F4.5199999999999996
sS'YDR409W'
p1054
F0.153
sS'YLR356W'
p1055
F31.800000000000001
sS'YBR221C'
p1056
F475
sS'YAL005C'
p1057
F3255
sS'YJL094C'
p1058
F1.78
sS'YGL043W'
p1059
F91.400000000000006
sS'YKL057C'
p1060
F11.9
sS'YGL098W'
p1061
F9.5700000000000003
sS'YHR174W'
p1062
F15865
sS'YNL014W'
p1063
F404
sS'YER067W'
p1064
F33.5
sS'YGR172C'
p1065
F67.400000000000006
sS'YJL121C'
p1066
F263
sS'YKL008C'
p1067
F9.0399999999999991
sS'YHR062C'
p1068
F9.7899999999999991
sS'YPL069C'
p1069
F0.17599999999999999
sS'YAL067C'
p1070
F0.113
sS'YBR103W'
p1071
F66.599999999999994
sS'YIL145C'
p1072
F5.4500000000000002
sS'YBR149W'
p1073
F211
sS'YGL216W'
p1074
F0.35699999999999998
sS'YFL031W'
p1075
F0.63900000000000001
sS'YDR478W'
p1076
F0.55000000000000004
sS'YHR064C'
p1077
F924
sS'YKL015W'
p1078
F0.126
sS'YGL210W'
p1079
F34.299999999999997
sS'YMR020W'
p1080
F1.6000000000000001
sS'YJR089W'
p1081
F1.01
sS'YJL145W'
p1082
F54.100000000000001
sS'YDR377W'
p1083
F21.5
sS'YIR007W'
p1084
F6.7300000000000004
sS'YJL201W'
p1085
F3.6099999999999999
sS'YLR314C'
p1086
F115
sS'YLR146W-A'
p1087
F3.4900000000000002
sS'YNL126W'
p1088
F0.33500000000000002
sS'YDL201W'
p1089
F56.299999999999997
sS'YKL040C'
p1090
F92.700000000000003
sS'YNL106C'
p1091
F4.5700000000000003
sS'YNL004W'
p1092
F14.199999999999999
sS'YOR327C'
p1093
F75.5
sS'YFR015C'
p1094
F18.899999999999999
sS'YBR068C'
p1095
F11.6
sS'YDR320C'
p1096
F8.6400000000000006
sS'YDL248W'
p1097
F0.161
sS'YOR265W'
p1098
F147
sS'YOL139C'
p1099
F404
sS'YBR207W'
p1100
F4.8799999999999999
sS'YAR009C'
p1101
F3.7000000000000002
sS'YOL073C'
p1102
F2.1200000000000001
sS'YLR321C'
p1103
F33.100000000000001
sS'YMR233W'
p1104
F11.4
sS'YPL203W'
p1105
F17.699999999999999
sS'YNR055C'
p1106
F1.1899999999999999
sS'YDL006W'
p1107
F1.96
sS'YDR532C'
p1108
F10.199999999999999
sS'YIL014W'
p1109
F2.6299999999999999
sS'YHR200W'
p1110
F129
sS'YCL012C'
p1111
F7.3399999999999999
sS'YDR184C'
p1112
F0.34999999999999998
sS'YDR133C'
p1113
F0.35799999999999998
sS'YJR161C'
p1114
F0.014999999999999999
sS'YNL167C'
p1115
F27.399999999999999
sS'YKL210W'
p1116
F408
sS'YNL221C'
p1117
F3.2200000000000002
sS'YOR278W'
p1118
F6.9299999999999997
sS'YER146W'
p1119
F60
sS'YNL085W'
p1120
F27.5
sS'YGL061C'
p1121
F8.6899999999999995
sS'YDR394W'
p1122
F86.799999999999997
sS'YJL103C'
p1123
F0.080000000000000002
sS'YPL242C'
p1124
F0.52400000000000002
sS'YPL210C'
p1125
F71.400000000000006
sS'YBL097W'
p1126
F6.2599999999999998
sS'YOR330C'
p1127
F1.49
sS'YAR014C'
p1128
F6.9800000000000004
sS'YOR087W'
p1129
F11.6
sS'YHR159W'
p1130
F1.21
sS'YPL132W'
p1131
F1.74
sS'YGL234W'
p1132
F418
sS'YOL055C'
p1133
F15.5
sS'YPR093C'
p1134
F1.4399999999999999
sS'YKL082C'
p1135
F12.300000000000001
sS'YBR126W-A'
p1136
F13.199999999999999
sS'YOL082W'
p1137
F1.3700000000000001
sS'YAL029C'
p1138
F17.600000000000001
sS'YGR127W'
p1139
F6.5300000000000002
sS'YOL155C'
p1140
F3.2599999999999998
sS'YNL108C'
p1141
F36.5
sS'YDR393W'
p1142
F0.20599999999999999
sS'YOR065W'
p1143
F147
sS'YHL035C'
p1144
F0.32700000000000001
sS'YMR301C'
p1145
F3.27
sS'YLR440C'
p1146
F6.1699999999999999
sS'YDR294C'
p1147
F62.399999999999999
sS'YFR002W'
p1148
F20.300000000000001
sS'YBR267W'
p1149
F4.2699999999999996
sS'YJL217W'
p1150
F130
sS'YNL250W'
p1151
F5.9800000000000004
sS'YMR011W'
p1152
F20.899999999999999
sS'YDR389W'
p1153
F4.4500000000000002
sS'YGR089W'
p1154
F2.5699999999999998
sS'YGR161W-B'
p1155
F1.8700000000000001
sS'YNR031C'
p1156
F4.6799999999999997
sS'YMR188C'
p1157
F6.8700000000000001
sS'YNL131W'
p1158
F243
sS'YGR154C'
p1159
F1.52
sS'YKL095W'
p1160
F157
sS'YIR004W'
p1161
F20.5
sS'YJL073W'
p1162
F1.8899999999999999
sS'YBL005W'
p1163
F0.097000000000000003
sS'YOR078W'
p1164
F13.1
sS'YOR389W'
p1165
F0.41699999999999998
sS'YOR243C'
p1166
F33.600000000000001
sS'YLR130C'
p1167
F1.1699999999999999
sS'YHR100C'
p1168
F0.23699999999999999
sS'YBR057C'
p1169
F7.8799999999999999
sS'YPL269W'
p1170
F0.224
sS'YDR513W'
p1171
F481
sS'YGL047W'
p1172
F1.8200000000000001
sS'YMR165C'
p1173
F6.46
sS'YKR070W'
p1174
F20
sS'YMR205C'
p1175
F909
sS'YIL094C'
p1176
F240
sS'YCR005C'
p1177
F54.600000000000001
sS'YGR296W'
p1178
F0.35499999999999998
sS'YER164W'
p1179
F20.600000000000001
sS'YER131W'
p1180
F1276
sS'YPR055W'
p1181
F3.9100000000000001
sS'YML017W'
p1182
F17.800000000000001
sS'YHR037W'
p1183
F59.5
sS'YLR032W'
p1184
F0.80600000000000005
sS'YGL078C'
p1185
F97.5
sS'YBL051C'
p1186
F34.899999999999999
sS'YGR281W'
p1187
F6.0999999999999996
sS'YLR089C'
p1188
F69.299999999999997
sS'YER092W'
p1189
F46.600000000000001
sS'YDR488C'
p1190
F0.48499999999999999
sS'YLR154C'
p1191
F15.199999999999999
sS'YHR123W'
p1192
F4.7599999999999998
sS'YEL042W'
p1193
F124
sS'YPR048W'
p1194
F9.3300000000000001
sS'YBL027W'
p1195
F2199
sS'YHL013C'
p1196
F19.899999999999999
sS'YOL060C'
p1197
F10.5
sS'YGR009C'
p1198
F10.4
sS'YBL033C'
p1199
F8.4399999999999995
sS'YOR059C'
p1200
F0.20699999999999999
sS'YCL005W'
p1201
F1.48
sS'YNL232W'
p1202
F82.099999999999994
sS'YBR097W'
p1203
F0.63500000000000001
sS'YLR014C'
p1204
F0.088999999999999996
sS'YDL076C'
p1205
F1.8999999999999999
sS'YDR120C'
p1206
F97.900000000000006
sS'YER126C'
p1207
F88.5
sS'YMR227C'
p1208
F6.6699999999999999
sS'YOR113W'
p1209
F8.3599999999999994
sS'YGR194C'
p1210
F7.7599999999999998
sS'YDR486C'
p1211
F17.899999999999999
sS'YJL192C'
p1212
F49.700000000000003
sS'YHR117W'
p1213
F26.5
sS'YBR040W'
p1214
F9.7200000000000006
sS'YOL130W'
p1215
F3.6200000000000001
sS'YDR030C'
p1216
F0.109
sS'YPL221W'
p1217
F2.29
sS'YMR294W'
p1218
F0.75
sS'YPL274W'
p1219
F2.98
sS'YPL258C'
p1220
F3.7200000000000002
sS'YEL051W'
p1221
F96.5
sS'YLR287C'
p1222
F35.299999999999997
sS'YLL023C'
p1223
F5.9500000000000002
sS'YKL203C'
p1224
F1.78
sS'YOL004W'
p1225
F17
sS'YPL209C'
p1226
F0.28199999999999997
sS'YIL076W'
p1227
F164
sS'YGR041W'
p1228
F0.088999999999999996
sS'YER179W'
p1229
F8.7599999999999998
sS'YLR009W'
p1230
F16.899999999999999
sS'YBR239C'
p1231
F0.19800000000000001
sS'YMR032W'
p1232
F0.13700000000000001
sS'YMR150C'
p1233
F3.8199999999999998
sS'YFL007W'
p1234
F3.6200000000000001
sS'YML059C'
p1235
F3.2400000000000002
sS'YDL129W'
p1236
F0.28199999999999997
sS'YKL116C'
p1237
F1.8
sS'YOR352W'
p1238
F4.2599999999999998
sS'YPL099C'
p1239
F6.04
sS'YHR087W'
p1240
F322
sS'YGR238C'
p1241
F1.9299999999999999
sS'YCR012W'
p1242
F13183
sS'YGL026C'
p1243
F846
sS'YDR201W'
p1244
F37.799999999999997
sS'YDR254W'
p1245
F0.55800000000000005
sS'YPR128C'
p1246
F23
sS'YGR263C'
p1247
F1.8400000000000001
sS'YNL045W'
p1248
F43.399999999999999
sS'YPL084W'
p1249
F20.600000000000001
sS'YHR191C'
p1250
F0.57499999999999996
sS'YDR354W'
p1251
F20.199999999999999
sS'YDL098C'
p1252
F1.5800000000000001
sS'YJL222W'
p1253
F0.45300000000000001
sS'YJL053W'
p1254
F15
sS'YPR104C'
p1255
F9.7100000000000009
sS'YMR069W'
p1256
F0.76500000000000001
sS'YGR214W'
p1257
F1424
sS'YPR002W'
p1258
F2.7799999999999998
sS'YGL006W'
p1259
F18.5
sS'YPL006W'
p1260
F1.8799999999999999
sS'YOR133W'
p1261
F2269
sS'YKR067W'
p1262
F13.699999999999999
sS'YMR143W'
p1263
F1764
sS'YNL310C'
p1264
F25.5
sS'YML028W'
p1265
F4320
sS'YEL039C'
p1266
F96.099999999999994
sS'YLL001W'
p1267
F40.5
sS'YCL067C'
p1268
F0.112
sS'YDR052C'
p1269
F0.122
sS'YNL189W'
p1270
F156
sS'YMR043W'
p1271
F55.700000000000003
sS'YPR173C'
p1272
F12.9
sS'YGR249W'
p1273
F0.23300000000000001
sS'YCL047C'
p1274
F1.1100000000000001
sS'YJL031C'
p1275
F3.6600000000000001
sS'YML077W'
p1276
F1.1499999999999999
sS'YER068W'
p1277
F14.699999999999999
sS'YER013W'
p1278
F0.058000000000000003
sS'YMR269W'
p1279
F9.3599999999999994
sS'YKL053C-A'
p1280
F9.0600000000000005
sS'YMR092C'
p1281
F104
sS'YDL021W'
p1282
F14.800000000000001
sS'YPL098C'
p1283
F58.100000000000001
sS'YLR043C'
p1284
F1185
sS'YJL008C'
p1285
F308
sS'YDL018C'
p1286
F3.25
sS'YJR062C'
p1287
F4.1100000000000003
sS'YOR120W'
p1288
F107
sS'YDL156W'
p1289
F24.5
sS'YPR160W'
p1290
F97.900000000000006
sS'YBL060W'
p1291
F0.082000000000000003
sS'YML035C'
p1292
F16.600000000000001
sS'YLR157C-B'
p1293
F15.4
sS'YPL254W'
p1294
F25.600000000000001
sS'YHL039W'
p1295
F11.6
sS'YDL136W'
p1296
F4198
sS'YCR090C'
p1297
F46.200000000000003
sS'YKL056C'
p1298
F1614
sS'YGL008C'
p1299
F2509
sS'YKL065W-A'
p1300
F5.7400000000000002
sS'YFL025C'
p1301
F0.99299999999999999
sS'YKL009W'
p1302
F279
sS'YLR257W'
p1303
F120
sS'YIL144W'
p1304
F23.300000000000001
sS'YNL307C'
p1305
F108
sS'YOR332W'
p1306
F1020
sS'YKR056W'
p1307
F8.9499999999999993
sS'YCL057C-A'
p1308
F111
sS'YJR057W'
p1309
F9.3200000000000003
sS'YJL126W'
p1310
F0.38100000000000001
sS'YKL150W'
p1311
F314
sS'YJL159W'
p1312
F26.899999999999999
sS'YDR077W'
p1313
F13.1
sS'YHR063C'
p1314
F87.900000000000006
sS'YJL200C'
p1315
F106
sS'YGL211W'
p1316
F17.300000000000001
sS'YDR316W'
p1317
F3.3700000000000001
sS'YPL113C'
p1318
F0.35699999999999998
sS'YKL041W'
p1319
F28.199999999999999
sS'YLR377C'
p1320
F4.8499999999999996
sS'YNL107W'
p1321
F11.9
sS'YIR036C'
p1322
F54.200000000000003
sS'YNL067W'
p1323
F1700
sS'YCL044C'
p1324
F5.4199999999999999
sS'YLR227W-A'
p1325
F49.299999999999997
sS'YDR376W'
p1326
F2.7599999999999998
sS'YAL059W'
p1327
F22.699999999999999
sS'YNL007C'
p1328
F477
sS'YBR225W'
p1329
F0.66300000000000003
sS'YNL127W'
p1330
F2.0600000000000001
sS'YDR089W'
p1331
F8.0099999999999998
sS'YKL014C'
p1332
F10.1
sS'YLR237W'
p1333
F0.60399999999999998
sS'YMR021C'
p1334
F1.3300000000000001
sS'YJR040W'
p1335
F1.71
sS'YPR119W'
p1336
F7.9900000000000002
sS'YMR074C'
p1337
F98.299999999999997
sS'YGR203W'
p1338
F1.8
sS'YDR097C'
p1339
F27.899999999999999
sS'YBL086C'
p1340
F2.25
sS'YKL176C'
p1341
F0.29999999999999999
sS'YKR029C'
p1342
F4.46
sS'YHR045W'
p1343
F10.199999999999999
sS'YGL191W'
p1344
F29.600000000000001
sS'YJL104W'
p1345
F57.399999999999999
sS'YPR010C-A'
p1346
F5.1799999999999997
sS'YPL019C'
p1347
F101
sS'YFL041W'
p1348
F15.4
sS'YJL168C'
p1349
F4.0999999999999996
sS'YDR145W'
p1350
F107
sS'YFL009W'
p1351
F1.0700000000000001
sS'YDL174C'
p1352
F66.299999999999997
sS'YER091C'
p1353
F2148
sS'YJL062W'
p1354
F2.8199999999999998
sS'YMR194C-B'
p1355
F1.9099999999999999
sS'YNL325C'
p1356
F0.14399999999999999
sS'YMR010W'
p1357
F1.1200000000000001
sS'YDL203C'
p1358
F1.74
sS'YBR011C'
p1359
F2237
sS'YMR266W'
p1360
F29.300000000000001
sS'YLR215C'
p1361
F3.5699999999999998
sS'YML082W'
p1362
F2.6800000000000002
sS'YLR363W-A'
p1363
F20.100000000000001
sS'YMR287C'
p1364
F1.51
sS'YGR026W'
p1365
F6.79
sS'YDR216W'
p1366
F4.5
sS'YKL130C'
p1367
F12.699999999999999
sS'YPL162C'
p1368
F0.61399999999999999
sS'YNL236W'
p1369
F17.600000000000001
sS'YOL054W'
p1370
F13.699999999999999
sS'YFR001W'
p1371
F74.599999999999994
sS'YDR202C'
p1372
F0.81499999999999995
sS'YAR031W'
p1373
F2.54
sS'YBR220C'
p1374
F0.63800000000000001
sS'YPL131W'
p1375
F3155
sS'YIL115C'
p1376
F24
sS'YJL052W'
p1377
F4309
sS'YGL233W'
p1378
F2.3599999999999999
sS'YJL088W'
p1379
F204
sS'YGR113W'
p1380
F3.9199999999999999
sS'YLR319C'
p1381
F4.8200000000000003
sS'YKL033W-A'
p1382
F167
sS'YGL186C'
p1383
F1.5800000000000001
sS'YOL053W'
p1384
F0.48699999999999999
sS'YHR029C'
p1385
F118
sS'YGR209C'
p1386
F1564
sS'YIL009C-A'
p1387
F0.17399999999999999
sS'YDR234W'
p1388
F112
sS'YIL031W'
p1389
F0.48799999999999999
sS'YDR295C'
p1390
F6.4199999999999999
sS'YAL033W'
p1391
F9.1699999999999999
sS'YLR104W'
p1392
F12
sS'YGR155W'
p1393
F1297
sS'YMR300C'
p1394
F123
sS'YFR049W'
p1395
F66.799999999999997
sS'YNL130C'
p1396
F0.79100000000000004
sS'YNR036C'
p1397
F8.4299999999999997
sS'YDR108W'
p1398
F3.8599999999999999
sS'YNR049C'
p1399
F21
sS'YDR192C'
p1400
F10.4
sS'YOL112W'
p1401
F0.58399999999999996
sS'YKR004C'
p1402
F0.58599999999999997
sS'YML109W'
p1403
F0.45900000000000002
sS'YLR342W'
p1404
F186
sS'YOL083W'
p1405
F1.3300000000000001
sS'YLR335W'
p1406
F73.299999999999997
sS'YNL251C'
p1407
F35.5
sS'YJR102C'
p1408
F2.0800000000000001
sS'YJL036W'
p1409
F22.199999999999999
sS'YDR221W'
p1410
F6.8399999999999999
sS'YOR020C'
p1411
F750
sS'YBL028C'
p1412
F19.800000000000001
sS'YER123W'
p1413
F4.5300000000000002
sS'YBL004W'
p1414
F11.800000000000001
sS'YDR253C'
p1415
F0.87
sS'YBR164C'
p1416
F35
sS'YIL153W'
p1417
F2.4399999999999999
sS'YIL045W'
p1418
F1.3999999999999999
sS'YJR088C'
p1419
F42.5
sS'YIR029W'
p1420
F0.20399999999999999
sS'YHR074W'
p1421
F95.400000000000006
sS'YGR104C'
p1422
F19.699999999999999
sS'YLR368W'
p1423
F0.122
sS'YBR016W'
p1424
F14.1
sS'YFR030W'
p1425
F90
sS'YKL089W'
p1426
F1.55
sS'YOR006C'
p1427
F1.47
sS'YJL146W'
p1428
F1.6599999999999999
sS'YLR277C'
p1429
F2.7999999999999998
sS'YAL011W'
p1430
F3.7000000000000002
sS'YBR036C'
p1431
F1.49
sS'YBR244W'
p1432
F327
sS'YIL055C'
p1433
F0.81999999999999995
sS'YPL053C'
p1434
F18.699999999999999
sS'YGL243W'
p1435
F0.85499999999999998
sS'YOR028C'
p1436
F3.3500000000000001
sS'YBR179C'
p1437
F2.6400000000000001
sS'YDR282C'
p1438
F0.39400000000000002
sS'YDR009W'
p1439
F1.79
sS'YJR097W'
p1440
F1.0600000000000001
sS'YLR351C'
p1441
F39.5
sS'YOL094C'
p1442
F27.199999999999999
sS'YAL002W'
p1443
F1.1799999999999999
sS'YJL095W'
p1444
F0.58599999999999997
sS'YHR018C'
p1445
F238
sS'YDR408C'
p1446
F33.200000000000003
sS'YBR126C'
p1447
F274
sS'YOL149W'
p1448
F18.800000000000001
sS'YPL067C'
p1449
F10.9
sS'YNR014W'
p1450
F1.6399999999999999
sS'YOR046C'
p1451
F126
sS'YKR035W-A'
p1452
F52.799999999999997
sS'YNL141W'
p1453
F179
sS'YBL026W'
p1454
F314
sS'YMR220W'
p1455
F53
sS'YGR027W-B'
p1456
F12.800000000000001
sS'YLR396C'
p1457
F2.2200000000000002
sS'YDR121W'
p1458
F59.399999999999999
sS'YER125W'
p1459
F75.400000000000006
sS'YDR432W'
p1460
F550
sS'YOR308C'
p1461
F2.04
sS'YPL211W'
p1462
F40.5
sS'YDL077C'
p1463
F2.25
sS'YOR222W'
p1464
F39.100000000000001
sS'YEL021W'
p1465
F197
sS'YOL061W'
p1466
F77.200000000000003
sS'YER152C'
p1467
F6.3499999999999996
sS'YLR015W'
p1468
F2.4900000000000002
sS'YHR116W'
p1469
F14.6
sS'YPL259C'
p1470
F8.2400000000000002
sS'YDR523C'
p1471
F0.46200000000000002
sS'YPL220W'
p1472
F3130
sS'YLR008C'
p1473
F105
sS'YML026C'
p1474
F2434
sS'YLR464W'
p1475
F0.316
sS'YJL191W'
p1476
F2223
sS'YMR219W'
p1477
F9.5500000000000007
sS'YLR055C'
p1478
F26
sS'YGR017W'
p1479
F6.3099999999999996
sS'YDR031W'
p1480
F22.699999999999999
sS'YMR079W'
p1481
F425
sS'YOL005C'
p1482
F83.900000000000006
sS'YOL107W'
p1483
F0.14399999999999999
sS'YEL050C'
p1484
F30.100000000000001
sS'YFR016C'
p1485
F19.699999999999999
sS'YHR016C'
p1486
F18.899999999999999
sS'YOL072W'
p1487
F0.13300000000000001
sS'YLR450W'
p1488
F9.3300000000000001
sS'YNR048W'
p1489
F2.6899999999999999
sS'YPL202C'
p1490
F0.19900000000000001
sS'YOR155C'
p1491
F9.5099999999999998
sS'YDR191W'
p1492
F0.32700000000000001
sS'YHR084W'
p1493
F42.899999999999999
sS'YIL095W'
p1494
F1.23
sS'YIL017C'
p1495
F2.8199999999999998
sS'YOR326W'
p1496
F64.900000000000006
sS'YDR527W'
p1497
F10.5
sS'YOL123W'
p1498
F203
sS'YDR132C'
p1499
F0.28199999999999997
sS'YOR084W'
p1500
F50.100000000000001
sS'YNL084C'
p1501
F43.299999999999997
sS'YGR055W'
p1502
F7.1600000000000001
sS'YBR265W'
p1503
F69.5
sS'YOR070C'
p1504
F3.0600000000000001
sS'YHR089C'
p1505
F1626
sS'YBR084C-A'
p1506
F2199
sS'YAR042W'
p1507
F7.29
sS'YJR075W'
p1508
F62.299999999999997
sS'YHR207C'
p1509
F5.6699999999999999
sS'YHL038C'
p1510
F7.3300000000000001
sS'YER141W'
p1511
F19
sS'YGL053W'
p1512
F4.3700000000000001
sS'YKL213C'
p1513
F33.200000000000003
sS'YNL220W'
p1514
F323
sS'YDR210W-B'
p1515
F1.77
sS'YBL007C'
p1516
F68.900000000000006
sS'YGR060W'
p1517
F116
sS'YOR396W'
p1518
F0.32500000000000001
sS'YCL064C'
p1519
F91.400000000000006
sS'YML076C'
p1520
F10.5
sS'YKR060W'
p1521
F28.100000000000001
sS'YML029W'
p1522
F2.96
sS'YOR140W'
p1523
F7.8099999999999996
sS'YJR154W'
p1524
F1.05
sS'YOR152C'
p1525
F2.3500000000000001
sS'YDL234C'
p1526
F5.8499999999999996
sS'YML043C'
p1527
F3.3500000000000001
sS'YGL031C'
p1528
F4755
sS'YDR454C'
p1529
F526
sS'YCR048W'
p1530
F1.4299999999999999
sS'YDR119W-A'
p1531
F2.6400000000000001
sS'YDL182W'
p1532
F316
sS'YER069W'
p1533
F266
sS'YMR091C'
p1534
F43.700000000000003
sS'YER012W'
p1535
F230
sS'YDR104C'
p1536
F0.064000000000000001
sS'YPR172W'
p1537
F42.899999999999999
sS'YBL067C'
p1538
F4.7300000000000004
sS'YJR001W'
p1539
F7.5800000000000001
sS'YLR168C'
p1540
F1.26
sS'YDL019C'
p1541
F5.5099999999999998
sS'YML034W'
p1542
F2.9300000000000002
sS'YDL135C'
p1543
F150
sS'YPR023C'
p1544
F24.300000000000001
sS'YDR003W'
p1545
F0.58999999999999997
sS'YCR093W'
p1546
F26.899999999999999
sS'YDR324C'
p1547
F21.899999999999999
sS'YLR144C'
p1548
F9.8499999999999996
sS'YBL017C'
p1549
F36.899999999999999
sS'YKR059W'
p1550
F884
sS'YLR256W-A'
p1551
F41.299999999999997
sS'YPR058W'
p1552
F26
sS'YLR068W'
p1553
F67.700000000000003
sS'YMR073C'
p1554
F13.5
sS'YOL084W'
p1555
F1.0800000000000001
sS'YOR123C'
p1556
F18.199999999999999
sS'YML061C'
p1557
F3.4199999999999999
sS'YAL019W'
p1558
F11.800000000000001
sS'YNL202W'
p1559
F245
sS'YDL191W'
p1560
F4198
sS'YJL186W'
p1561
F101
sS'YHR101C'
p1562
F18.399999999999999
sS'YER163C'
p1563
F5.4100000000000001
sS'YER132C'
p1564
F0.98699999999999999
sS'YLR344W'
p1565
F2246
sS'YGR295C'
p1566
F0.126
sS'YBR069C'
p1567
F3.25
sS'YMR164C'
p1568
F0.088999999999999996
sS'YGR077C'
p1569
F0.20499999999999999
sS'YLR133W'
p1570
F12.9
sS'YPL280W'
p1571
F0.95199999999999996
sS'YDL017W'
p1572
F0.095000000000000001
sS'YDR512C'
p1573
F1.3300000000000001
sS'YDR113C'
p1574
F0.16300000000000001
sS'YLL031C'
p1575
F1.46
sS'YOR348C'
p1576
F0.36499999999999999
sS'YLR033W'
p1577
F55
sS'YOR097C'
p1578
F0.68400000000000005
sS'YLR088W'
p1579
F6.5499999999999998
sS'YBR230C'
p1580
F317
sS'YGR255C'
p1581
F3.9199999999999999
sS'YNL156C'
p1582
F26.600000000000001
sS'YGL110C'
p1583
F0.76200000000000001
sS'YDL051W'
p1584
F97.200000000000003
sS'YBL102W'
p1585
F18.300000000000001
sS'YMR242C'
p1586
F1713
sS'YPL237W'
p1587
F213
sS'YGR282C'
p1588
F677
sS'YNL183C'
p1589
F3.6699999999999999
sS'YEL043W'
p1590
F3.0699999999999998
sS'YMR077C'
p1591
F9.1799999999999997
sS'YPL183C'
p1592
F6.6699999999999999
sS'YDR166C'
p1593
F3.4500000000000002
sS'YPR118W'
p1594
F105
sS'YGR204W'
p1595
F413
sS'YGL248W'
p1596
F10.6
sS'YBL002W'
p1597
F1305
sS'YJL005W'
p1598
F3.8199999999999998
sS'YJR086W'
p1599
F22.699999999999999
sS'YJL050W'
p1600
F33
sS'YDR170W-A'
p1601
F25.899999999999999
sS'YCR017C'
p1602
F6.4900000000000002
sS'YGR112W'
p1603
F1.27
sS'YDR146C'
p1604
F5.1299999999999999
sS'YER177W'
p1605
F1481
sS'YHR056C'
p1606
F10.1
sS'YBR112C'
p1607
F69.200000000000003
sS'YBL081W'
p1608
F1.3600000000000001
sS'YDR248C'
p1609
F3.4700000000000002
sS'YJR016C'
p1610
F1042
sS'YDL202W'
p1611
F17.399999999999999
sS'YDL100C'
p1612
F281
sS'YFL008W'
p1613
F12.199999999999999
sS'YDR337W'
p1614
F5.71
sS'YGL055W'
p1615
F203
sS'YJL061W'
p1616
F15.1
sS'YBR080C'
p1617
F40.5
sS'YMR206W'
p1618
F0.58399999999999996
sS'YLR216C'
p1619
F1881
sS'YDR217C'
p1620
F0.56799999999999995
sS'YGR063C'
p1621
F20.600000000000001
sS'YDR441C'
p1622
F11.699999999999999
sS'YPL094C'
p1623
F10.5
sS'YNL020C'
p1624
F2.1000000000000001
sS'YOR101W'
p1625
F22.800000000000001
sS'YLR290C'
p1626
F6.79
sS'YER090W'
p1627
F188
sS'YIL123W'
p1628
F9.4700000000000006
sS'YMR246W'
p1629
F166
sS'YMR035W'
p1630
F0.46400000000000002
sS'YDR231C'
p1631
F16
sS'YOR291W'
p1632
F1.7
sS'YKL117W'
p1633
F344
sS'YCR015C'
p1634
F7.6100000000000003
sS'YOR178C'
p1635
F0.88400000000000001
sS'YKR011C'
p1636
F0.19500000000000001
sS'YGR123C'
p1637
F51.100000000000001
sS'YDR159W'
p1638
F1.2
sS'YFL066C'
p1639
F0.34999999999999998
sS'YNL193W'
p1640
F2.6299999999999999
sS'YDR062W'
p1641
F122
sS'YML058W'
p1642
F81.900000000000006
sS'YOR071C'
p1643
F0.096000000000000002
sS'YHR182W'
p1644
F0.17899999999999999
sS'YER034W'
p1645
F21.199999999999999
sS'YOR165W'
p1646
F28.800000000000001
sS'YHR190W'
p1647
F198
sS'YLR106C'
p1648
F19.800000000000001
sS'YKL157W'
p1649
F167
sS'YKR002W'
p1650
F18.399999999999999
sS'YGR044C'
p1651
F0.97299999999999998
sS'YOL159C-A'
p1652
F13.5
sS'YBR003W'
p1653
F14.1
sS'YDR200C'
p1654
F1.95
sS'YDR255C'
p1655
F2.4700000000000002
sS'YFL002W-A'
p1656
F1.8700000000000001
sS'YOR130C'
p1657
F9.4100000000000001
sS'YPL083C'
p1658
F0.82699999999999996
sS'YNL011C'
p1659
F0.32200000000000001
sS'YDR357C'
p1660
F2.6200000000000001
sS'YDL099W'
p1661
F78
sS'YGL226C-A'
p1662
F24.199999999999999
sS'YBR130C'
p1663
F31.699999999999999
sS'YLR274W'
p1664
F19.300000000000001
sS'YGL126W'
p1665
F4.9800000000000004
sS'YBR247C'
p1666
F45.100000000000001
sS'YLR185W'
p1667
F1750
sS'YJL210W'
p1668
F0.23799999999999999
sS'YLR369W'
p1669
F4.9800000000000004
sS'YIL154C'
p1670
F7.6600000000000001
sS'YPL149W'
p1671
F0.377
sS'YOR007C'
p1672
F576
sS'YIL101C'
p1673
F0.122
sS'YBR165W'
p1674
F0.27200000000000002
sS'YCR087C-A'
p1675
F64.400000000000006
sS'YDL220C'
p1676
F2.1499999999999999
sS'YGR170W'
p1677
F0.48699999999999999
sS'YHR075C'
p1678
F6.5999999999999996
sS'YBR038W'
p1679
F0.93000000000000005
sS'YLR157C'
p1680
F1.5700000000000001
sS'YNL142W'
p1681
F1.1599999999999999
sS'YOL148C'
p1682
F17.5
sS'YFR031C'
p1683
F5.1699999999999999
sS'YPL154C'
p1684
F744
sS'YHR019C'
p1685
F755
sS'YGR161W-A'
p1686
F2.5899999999999999
sS'YOR367W'
p1687
F14.6
sS'YJR110W'
p1688
F0.373
sS'YIL149C'
p1689
F7.1200000000000001
sS'YPL101W'
p1690
F4.1100000000000003
sS'YGR138C'
p1691
F15.4
sS'YPL075W'
p1692
F4.54
sS'YLR258W'
p1693
F59.299999999999997
sS'YNR015W'
p1694
F20.100000000000001
sS'YJR098C'
p1695
F0.14599999999999999
sS'YBR127C'
p1696
F1105
sS'YLR350W'
p1697
F11.199999999999999
sS'YFL024C'
p1698
F9.25
sS'YOR094W'
p1699
F40.5
sS'YLR047C'
p1700
F0.93000000000000005
sS'YAL061W'
p1701
F2.2599999999999998
sS'YHR176W'
p1702
F2.2400000000000002
sS'YGR163W'
p1703
F9.1500000000000004
sS'YJL127C'
p1704
F1.1699999999999999
sS'YKL022C'
p1705
F0.70999999999999996
sS'YEL040W'
p1706
F84.400000000000006
sS'YIL130W'
p1707
F34.100000000000001
sS'YBR242W'
p1708
F12.699999999999999
sS'YBL092W'
p1709
F5358
sS'YDR368W'
p1710
F351
sS'YJL158C'
p1711
F47.5
sS'YGR229C'
p1712
F61.899999999999999
sS'YDL164C'
p1713
F17.399999999999999
sS'YJR050W'
p1714
F0.92400000000000004
sS'YDR177W'
p1715
F99.799999999999997
sS'YER061C'
p1716
F7.5700000000000003
sS'YJL101C'
p1717
F16.199999999999999
sS'YLR234W'
p1718
F2.1099999999999999
sS'YKL140W'
p1719
F11
sS'YKL195W'
p1720
F79.200000000000003
sS'YKL179C'
p1721
F21.100000000000001
sS'YPR110C'
p1722
F360
sS'YDR088C'
p1723
F6.1200000000000001
sS'YCR020C-A'
p1724
F0.96099999999999997
sS'YKL042W'
p1725
F2.9700000000000002
sS'YPL194W'
p1726
F5.2400000000000002
sS'YLR135W'
p1727
F0.75800000000000001
sS'YNL066W'
p1728
F10.9
sS'YPL112C'
p1729
F14.800000000000001
sS'YPL030W'
p1730
F6.3499999999999996
sS'YAL058W'
p1731
F0.76000000000000001
sS'YKL013C'
p1732
F118
sS'YLR316C'
p1733
F1.0900000000000001
sS'YER089C'
p1734
F66.599999999999994
sS'YDR508C'
p1735
F15
sS'YFL033C'
p1736
F2.3100000000000001
sS'YNL124W'
p1737
F6.1799999999999997
sS'YHR098C'
p1738
F27.399999999999999
sS'YGL225W'
p1739
F58.799999999999997
sS'YIL016W'
p1740
F47.899999999999999
sS'YJL098W'
p1741
F4.9000000000000004
sS'YLR451W'
p1742
F2.4399999999999999
sS'YFR017C'
p1743
F25.699999999999999
sS'YPL240C'
p1744
F1325
sS'YHR017W'
p1745
F6.8099999999999996
sS'YNR034W-A'
p1746
F289
sS'YOL044W'
p1747
F0.47399999999999998
sS'YMR310C'
p1748
F2.3300000000000001
sS'YNR057C'
p1749
F4.25
sS'YDR186C'
p1750
F0.55600000000000005
sS'YDL213C'
p1751
F200
sS'YOR085W'
p1752
F34.100000000000001
sS'YHR206W'
p1753
F32
sS'YCL010C'
p1754
F19.100000000000001
sS'YGR189C'
p1755
F26.300000000000001
sS'YNL278W'
p1756
F1.3700000000000001
sS'YNL158W'
p1757
F8.1999999999999993
sS'YJR085C'
p1758
F202
sS'YOR069W'
p1759
F13.1
sS'YGR038W'
p1760
F8.1099999999999994
sS'YKR001C'
p1761
F248
sS'YOL122C'
p1762
F0.17100000000000001
sS'YOR363C'
p1763
F1.6299999999999999
sS'YNL087W'
p1764
F22.100000000000001
sS'YBR104W'
p1765
F7.0899999999999999
sS'YNL223W'
p1766
F0.40799999999999997
sS'YBR227C'
p1767
F20.300000000000001
sS'YBR195C'
p1768
F6.8300000000000001
sS'YOR341W'
p1769
F169
sS'YLR378C'
p1770
F117
sS'YOR067C'
p1771
F0.35399999999999998
sS'YNL024C-A'
p1772
F28
sS'YDR296W'
p1773
F17.100000000000001
sS'YGL232W'
p1774
F51
sS'YPR091C'
p1775
F36.799999999999997
sS'YOR109W'
p1776
F26.199999999999999
sS'YGR027W-A'
p1777
F47.399999999999999
sS'YIL116W'
p1778
F121
sS'YPL032C'
p1779
F34.100000000000001
sS'YOL100W'
p1780
F2.0899999999999999
sS'YBR091C'
p1781
F12.300000000000001
sS'YJR138W'
p1782
F1.1399999999999999
sS'YLR442C'
p1783
F15.1
sS'YNL133C'
p1784
F10.4
sS'YJR103W'
p1785
F40.5
sS'YHR028C'
p1786
F16.699999999999999
sS'YGR156W'
p1787
F12.699999999999999
sS'YDR331W'
p1788
F3.0699999999999998
sS'YFR048W'
p1789
F1.1000000000000001
sS'YGL169W'
p1790
F6.75
sS'YNR037C'
p1791
F9.7599999999999998
sS'YOL113W'
p1792
F0.45900000000000002
sS'YCL024W'
p1793
F1.77
sS'YJR158W'
p1794
F0.066000000000000003
sS'YMR307W'
p1795
F356
sS'YHR090C'
p1796
F12.9
sS'YAL032C'
p1797
F1.2
sS'YGL145W'
p1798
F6.0899999999999999
sS'YGL112C'
p1799
F53.5
sS'YHR137W'
p1800
F276
sS'YOR021C'
p1801
F74.5
sS'YNL283C'
p1802
F0.43099999999999999
sS'YNL252C'
p1803
F19.199999999999999
sS'YBR187W'
p1804
F9.25
sS'YER133W'
p1805
F326
sS'YMR198W'
p1806
F0.111
sS'YKL197C'
p1807
F1.6299999999999999
sS'YMR201C'
p1808
F8.8000000000000007
sS'YER042W'
p1809
F65.700000000000003
sS'YOL006C'
p1810
F74
sS'YCR003W'
p1811
F1.29
sS'YLR132C'
p1812
F0.57399999999999995
sS'YER020W'
p1813
F17.899999999999999
sS'YER162C'
p1814
F2.8100000000000001
sS'YOR020W-A'
p1815
F9.0199999999999996
sS'YNL255C'
p1816
F1386
sS'YDR511W'
p1817
F25.600000000000001
sS'YML011C'
p1818
F11
sS'YKL035W'
p1819
F507
sS'YNL201C'
p1820
F2.27
sS'YDL190C'
p1821
F20.100000000000001
sS'YCR028C-A'
p1822
F314
sS'YHR102W'
p1823
F3.1400000000000001
sS'YER112W'
p1824
F53.399999999999999
sS'YMR250W'
p1825
F44.399999999999999
sS'YER075C'
p1826
F0.88400000000000001
sS'YJL187C'
p1827
F3.25
sS'YEL015W'
p1828
F8.6199999999999992
sS'YGR254W'
p1829
F8226
sS'YLR018C'
p1830
F7.4500000000000002
sS'YKR085C'
p1831
F14.5
sS'YBR020W'
p1832
F68.299999999999997
sS'YPL045W'
p1833
F6.4400000000000004
sS'YLR418C'
p1834
F62.399999999999999
sS'YOL078W'
p1835
F0.97699999999999998
sS'YLR063W'
p1836
F1.4199999999999999
sS'YER059W'
p1837
F8.4499999999999993
sS'YMR243C'
p1838
F56.799999999999997
sS'YPL230W'
p1839
F3.27
sS'YGL111W'
p1840
F25.5
sS'YLR271W'
p1841
F0.70899999999999996
sS'YBR289W'
p1842
F7.2999999999999998
sS'YHR139C'
p1843
F16.699999999999999
sS'YPL153C'
p1844
F9.5999999999999996
sS'YBL025W'
p1845
F0.98299999999999998
sS'YPL048W'
p1846
F299
sS'YOL066C'
p1847
F2.75
sS'YDR126W'
p1848
F0.25
sS'YPR133C'
p1849
F86.700000000000003
sS'YKL212W'
p1850
F255
sS'YMR221C'
p1851
F3.6899999999999999
sS'YGL167C'
p1852
F50.899999999999999
sS'YHR115C'
p1853
F2.2000000000000002
sS'YOR223W'
p1854
F1.2
sS'YEL022W'
p1855
F16.600000000000001
sS'YPR188C'
p1856
F23.899999999999999
sS'YNL284C-A'
p1857
F28.800000000000001
sS'YOL019W'
p1858
F6.4199999999999999
sS'YER153C'
p1859
F0.28699999999999998
sS'YOR374W'
p1860
F397
sS'YJL190C'
p1861
F1912
sS'YMR218C'
p1862
F0.27800000000000002
sS'YLR052W'
p1863
F35.200000000000003
sS'YGR196C'
p1864
F5.6699999999999999
sS'YNL068C'
p1865
F6.9900000000000002
sS'YOR212W'
p1866
F4.5800000000000001
sS'YPL256C'
p1867
F0.96599999999999997
sS'YDR520C'
p1868
F0.40200000000000002
sS'YKL201C'
p1869
F1.1399999999999999
sS'YMR037C'
p1870
F26.699999999999999
sS'YLR249W'
p1871
F4587
sS'YGL198W'
p1872
F3.8700000000000001
sS'YBL049W'
p1873
F1.74
sS'YGR054W'
p1874
F154
sS'YEL053C'
p1875
F0.66800000000000004
sS'YMR280C'
p1876
F0.58799999999999997
sS'YPR166C'
p1877
F3.02
sS'YJL042W'
p1878
F6.9299999999999997
sS'YER037W'
p1879
F0.42199999999999999
sS'YPL037C'
p1880
F2024
sS'YER057C'
p1881
F734
sS'YNL301C'
p1882
F2959
sS'YKL145W'
p1883
F146
sS'YJL111W'
p1884
F131
sS'YCR014C'
p1885
F1.6399999999999999
sS'YGR122W'
p1886
F3.96
sS'YKR010C'
p1887
F6.6100000000000003
sS'YDL043C'
p1888
F15.699999999999999
sS'YLL067C'
p1889
F0.312
sS'YNL192W'
p1890
F9.1999999999999993
sS'YLL010C'
p1891
F6.79
sS'YNL160W'
p1892
F452
sS'YLR436C'
p1893
F1.02
sS'YLR158C'
p1894
F1.5700000000000001
sS'YKL114C'
p1895
F83.599999999999994
sS'YML024W'
p1896
F2309
sS'YIL136W'
p1897
F31.100000000000001
sS'YML093W'
p1898
F30.300000000000001
sS'YJR077C'
p1899
F974
sS'YHR197W'
p1900
F39.299999999999997
sS'YCR081W'
p1901
F2.7200000000000002
sS'YBR002C'
p1902
F2.9100000000000001
sS'YDR423C'
p1903
F1.3500000000000001
sS'YPR004C'
p1904
F80.599999999999994
sS'YKL109W'
p1905
F0.20200000000000001
sS'YGR261C'
p1906
F13.1
sS'YKL154W'
p1907
F33.100000000000001
sS'YLR035C-A'
p1908
F3.3999999999999999
sS'YDR158W'
p1909
F1287
sS'YGL148W'
p1910
F447
sS'YOR111W'
p1911
F5.6900000000000004
sS'YMR116C'
p1912
F4399
sS'YDL074C'
p1913
F17.399999999999999
sS'YOR164C'
p1914
F54.299999999999997
sS'Q0105'
p1915
F2.3900000000000001
sS'YLR107W'
p1916
F0.58599999999999997
sS'YNL047C'
p1917
F0.159
sS'YPL082C'
p1918
F31.699999999999999
sS'YDR256C'
p1919
F52.399999999999999
sS'YNL302C'
p1920
F2202
sS'YGL030W'
p1921
F2244
sS'YGR283C'
p1922
F2.7200000000000002
sS'YDL052C'
p1923
F94.400000000000006
sS'YER175C'
p1924
F17
sS'YIR012W'
p1925
F53
sS'YMR174C'
p1926
F52.899999999999999
sS'YJL033W'
p1927
F17.100000000000001
sS'YML075C'
p1928
F25.699999999999999
sS'YMR230W'
p1929
F956
sS'YDR050C'
p1930
F11485
sS'YGR061C'
p1931
F295
sS'YLL007C'
p1932
F2.0800000000000001
sS'YNL265C'
p1933
F3.8900000000000001
sS'YCR032W'
p1934
F0.063
sS'YNL312W'
p1935
F102
sS'YER011W'
p1936
F0.35099999999999998
sS'YCL049C'
p1937
F1.3500000000000001
sS'YOL152W'
p1938
F0.156
sS'YBL066C'
p1939
F2.2400000000000002
sS'YPL241C'
p1940
F0.79200000000000004
sS'YGL107C'
p1941
F18.199999999999999
sS'YGR271C-A'
p1942
F16.100000000000001
sS'YDR169C'
p1943
F8.9000000000000004
sS'YLR098C'
p1944
F0.89400000000000002
sS'YOR238W'
p1945
F3.5899999999999999
sS'YLR410W-B'
p1946
F1.8200000000000001
sS'YLR410W-A'
p1947
F2.3199999999999998
sS'YPR022C'
p1948
F1.3700000000000001
sS'YNL284C-B'
p1949
F8.3499999999999996
sS'YMR090W'
p1950
F48.600000000000001
sS'YIR038C'
p1951
F72.900000000000006
sS'YHR099W'
p1952
F19.300000000000001
sS'YEL071W'
p1953
F539
sS'YKR058W'
p1954
F7.0899999999999999
sS'YBR098W'
p1955
F0.628
sS'YML062C'
p1956
F5.5099999999999998
sS'YGL121C'
p1957
F42
sS'YPR108W'
p1958
F177
sS'YKL152C'
p1959
F5956
sS'YDR369C'
p1960
F2.5800000000000001
sS'YBR106W'
p1961
F1050
sS'YBL093C'
p1962
F16.699999999999999
sS'YKL054C'
p1963
F180
sS'YAL062W'
p1964
F71.200000000000003
sS'YLR390W-A'
p1965
F678
sS'YHR171W'
p1966
F0.68100000000000005
sS'YGR162W'
p1967
F164
sS'YMR298W'
p1968
F54.799999999999997
sS'YBR291C'
p1969
F7.5199999999999996
sS'YNL078W'
p1970
F0.56699999999999995
sS'YDR032C'
p1971
F777
sS'YJL124C'
p1972
F39.5
sS'YOR076C'
p1973
F1.6499999999999999
sS'YDR179C'
p1974
F0.92200000000000004
sS'YKL023W'
p1975
F4.9000000000000004
sS'YPR174C'
p1976
F6.5300000000000002
sS'YJR051W'
p1977
F15.800000000000001
sS'YKL094W'
p1978
F23.600000000000001
sS'YNL022C'
p1979
F19.199999999999999
sS'YPR131C'
p1980
F2.7599999999999998
sS'YIL131C'
p1981
F11.5
sS'YKL143W'
p1982
F9.0500000000000007
sS'YBR146W'
p1983
F13.5
sS'YDR318W'
p1984
F3.7200000000000002
sS'YFL034W'
p1985
F1.99
sS'YPL031C'
p1986
F9.1799999999999997
sS'YAL044W-A'
p1987
F25.399999999999999
sS'YKL012W'
p1988
F0.91800000000000004
sS'YPL115C'
p1989
F9.1699999999999999
sS'YPL179W'
p1990
F0.254
sS'YNL125C'
p1991
F5.21
sS'YNL065W'
p1992
F0.13400000000000001
sS'YMR001C'
p1993
F2.8399999999999999
sS'YNL030W'
p1994
F2297
sS'YJR135C'
p1995
F1.8
sS'YDR321W'
p1996
F111
sS'YFR032C-A'
p1997
F847
sS'YNR001C'
p1998
F449
sS'YNL178W'
p1999
F4063
sS'YPL036W'
p2000
F1712
sS'YDR147W'
p2001
F0.97499999999999998
sS'YMR031C'
p2002
F72.700000000000003
sS'YBL080C'
p2003
F0.20999999999999999
sS'YMR076C'
p2004
F12.199999999999999
sS'YGR205W'
p2005
F29
sS'YDR356W'
p2006
F10.9
sS'YGR180C'
p2007
F574
sS'YDR167W'
p2008
F38.700000000000003
sS'YDL083C'
p2009
F1764
sS'YMR290C'
p2010
F114
sS'YJR066W'
p2011
F3.2599999999999998
sS'YJR017C'
p2012
F140
sS'YPL180W'
p2013
F2.7400000000000002
sS'YJL116C'
p2014
F5
sS'YCR053W'
p2015
F871
sS'YJL106W'
p2016
F0.089999999999999997
sS'YLL055W'
p2017
F0.34999999999999998
sS'YNL027W'
p2018
F11.699999999999999
sS'YPL022W'
p2019
F22.199999999999999
sS'YDR440W'
p2020
F1.6200000000000001
sS'YJL060W'
p2021
F84.700000000000003
sS'YBL100W-A'
p2022
F1.6699999999999999
sS'YDL101C'
p2023
F11.6
sS'YBL100W-B'
p2024
F1.48
sS'YDL205C'
p2025
F31.800000000000001
sS'YPL198W'
p2026
F2021
sS'YML080W'
p2027
F8.4100000000000001
sS'YNL116W'
p2028
F3.77
sS'YMR285C'
p2029
F18.399999999999999
sS'YMR016C'
p2030
F6.7599999999999998
sS'YDR210W'
p2031
F20.100000000000001
sS'YIL122W'
p2032
F1.5
sS'YIR001C'
p2033
F37.200000000000003
sS'YDL230W'
p2034
F6.6900000000000004
sS'YDR236C'
p2035
F14.800000000000001
sS'YML115C'
p2036
F14.800000000000001
sS'YJR113C'
p2037
F11.6
sS'YBR279W'
p2038
F42.100000000000001
sS'YGL075C'
p2039
F0.23899999999999999
sS'YAR033W'
p2040
F2.8599999999999999
sS'YIR034C'
p2041
F125
sS'YLL018C-A'
p2042
F8.0199999999999996
sS'YIL117C'
p2043
F3.4300000000000002
sS'YAL055W'
p2044
F10.800000000000001
sS'YGL181W'
p2045
F16.699999999999999
sS'YOL052C'
p2046
F28.100000000000001
sS'YIL156W-B'
p2047
F9.3000000000000007
sS'YDR475C'
p2048
F1.3200000000000001
sS'YPL137C'
p2049
F2.21
sS'YOL158C'
p2050
F0.66200000000000003
sS'YOL103W'
p2051
F0.28299999999999997
sS'YOR122C'
p2052
F1853
sS'YBR151W'
p2053
F36.700000000000003
sS'YCL025C'
p2054
F4.3600000000000003
sS'YNR034W'
p2055
F19.300000000000001
sS'YGL231C'
p2056
F32.899999999999999
sS'YGR157W'
p2057
F42.399999999999999
sS'YNL282W'
p2058
F0.34399999999999997
sS'YBR286W'
p2059
F495
sS'YGL144C'
p2060
F0.59799999999999998
sS'YDR297W'
p2061
F2.52
sS'YJR100C'
p2062
F2.98
sS'YML070W'
p2063
F292
sS'YBL006C'
p2064
F14.300000000000001
sS'YLR340W'
p2065
F3248
sS'YMR306W'
p2066
F0.26200000000000001
sS'YDL113C'
p2067
F5.2699999999999996
sS'YGR108W'
p2068
F0.32600000000000001
sS'YJR068W'
p2069
F44
sS'YFL065C'
p2070
F0.23799999999999999
sS'YBL020W'
p2071
F0.17499999999999999
sS'YLR299W'
p2072
F4.8499999999999996
sS'YBR246W'
p2073
F1.6299999999999999
sS'YPL110C'
p2074
F5.4699999999999998
sS'YDL178W'
p2075
F40.5
sS'YLR275W'
p2076
F2.2200000000000002
sS'YOR004W'
p2077
F27.899999999999999
sS'YER095W'
p2078
F20.199999999999999
sS'YLR186W'
p2079
F287
sS'YDR462W'
p2080
F6.1900000000000004
sS'YDL131W'
p2081
F267
sS'YKL043W'
p2082
F0.312
sS'YIL155C'
p2083
F41.600000000000001
sS'YGR171C'
p2084
F1.5800000000000001
sS'YMR177W'
p2085
F1.26
sS'YJL148W'
p2086
F70.099999999999994
sS'YPL065W'
p2087
F4.5499999999999998
sS'YAL048C'
p2088
F0.312
sS'YPL055C'
p2089
F4.9100000000000001
sS'YAL013W'
p2090
F3.0299999999999998
sS'YGL093W'
p2091
F11.800000000000001
sS'YDR098C'
p2092
F56
sS'YIL020C'
p2093
F18.899999999999999
sS'YJL054W'
p2094
F17
sS'YNR003C'
p2095
F16.5
sS'YCR067C'
p2096
F8.5600000000000005
sS'YIL148W'
p2097
F2517
sS'YNR016C'
p2098
F429
sS'YHR080C'
p2099
F0.63700000000000001
sS'YLR259C'
p2100
F1292
sS'YML086C'
p2101
F162
sS'YGL184C'
p2102
F23.199999999999999
sS'YGR231C'
p2103
F121
sS'YPL157W'
p2104
F0.20599999999999999
sS'YKL005C'
p2105
F5.9000000000000004
sS'YBR120C'
p2106
F42
sS'YLR085C'
p2107
F1.6299999999999999
sS'YDR280W'
p2108
F6.6600000000000001
sS'YMR058W'
p2109
F150
sS'YKL215C'
p2110
F12.5
sS'YDR418W'
p2111
F2116
sS'YDR268W'
p2112
F4.3700000000000001
sS'YDR061W'
p2113
F4.1799999999999997
sS'Q0120'
p2114
F0.38800000000000001
sS'YKL178C'
p2115
F0.77500000000000002
sS'YBL024W'
p2116
F204
sS'YMR241W'
p2117
F293
sS'YOL067C'
p2118
F23.899999999999999
sS'YGR028W'
p2119
F3.0600000000000001
sS'YDL075W'
p2120
F3183
sS'YDR127W'
p2121
F320
sS'YNL279W'
p2122
F0.63300000000000001
sS'YCL034W'
p2123
F14.1
sS'YOL018C'
p2124
F3.02
sS'YBR288C'
p2125
F5.5800000000000001
sS'YOR220W'
p2126
F44.200000000000003
sS'YKR092C'
p2127
F77.900000000000006
sS'YMR222C'
p2128
F49.100000000000001
sS'YLL048C'
p2129
F21.699999999999999
sS'YMR284W'
p2130
F2.0099999999999998
sS'YNL264C'
p2131
F16.600000000000001
sS'YNL155W'
p2132
F5.6600000000000001
sS'YER180C-A'
p2133
F11.699999999999999
sS'YOR290C'
p2134
F3.0899999999999999
sS'YLL024C'
p2135
F2933
sS'YHL007C'
p2136
F12.199999999999999
sS'YGL106W'
p2137
F455
sS'YOL027C'
p2138
F62.5
sS'YPL277C'
p2139
F1.01
sS'YOR211C'
p2140
F8.9199999999999999
sS'YCR002C'
p2141
F122
sS'YOR347C'
p2142
F94.700000000000003
sS'YDR103W'
p2143
F0.219
sS'YIL047C'
p2144
F6.9299999999999997
sS'YPL120W'
p2145
F1.6499999999999999
sS'YIL075C'
p2146
F129
sS'YOL145C'
p2147
F50.5
sS'YGL226W'
p2148
F2.3300000000000001
sS'YIL019W'
p2149
F2.6899999999999999
sS'YOR324C'
p2150
F0.82099999999999995
sS'YHR149C'
p2151
F4.3099999999999996
sS'YLR324W'
p2152
F20.100000000000001
sS'YOL098C'
p2153
F22.199999999999999
sS'YOR353C'
p2154
F9.6199999999999992
sS'YNR074C'
p2155
F5.8399999999999999
sS'YER074W-A'
p2156
F22.699999999999999
sS'YDR005C'
p2157
F13.9
sS'YHR014W'
p2158
F9.4800000000000004
sS'YDR204W'
p2159
F11.699999999999999
sS'YHL025W'
p2160
F5.96
sS'YIL097W'
p2161
F1.4399999999999999
sS'YOL045W'
p2162
F7.7999999999999998
sS'YFR010W'
p2163
F123
sS'YHL009C'
p2164
F4.2699999999999996
sS'YMR311C'
p2165
F79.799999999999997
sS'YHL021C'
p2166
F89.299999999999997
sS'YPR101W'
p2167
F0.42699999999999999
sS'YML118W'
p2168
F0.17899999999999999
sS'YHR205W'
p2169
F22.800000000000001
sS'YKL052C'
p2170
F8.8300000000000001
sS'YGR037C'
p2171
F1690
sS'YLR304C'
p2172
F680
sS'YOR236W'
p2173
F10.199999999999999
sS'YOL121C'
p2174
F2137
sS'YOL041C'
p2175
F123
sS'YGR188C'
p2176
F1.3999999999999999
sS'YML052W'
p2177
F137
sS'YER143W'
p2178
F6.5099999999999998
sS'YOR106W'
p2179
F33.399999999999999
sS'YDL153C'
p2180
F34
sS'YGL064C'
p2181
F3.2400000000000002
sS'YFR053C'
p2182
F766
sS'YGR284C'
p2183
F46.299999999999997
sS'YDL053C'
p2184
F40.399999999999999
sS'YCL050C'
p2185
F718
sS'YMR004W'
p2186
F9.7899999999999991
sS'YGR095C'
p2187
F9.8200000000000003
sS'YMR240C'
p2188
F1.26
sS'YAL038W'
p2189
F14778
sS'YML074C'
p2190
F279
sS'YKR062W'
p2191
F34.799999999999997
sS'YBR235W'
p2192
F0.246
sS'YPR069C'
p2193
F383
sS'YLR200W'
p2194
F146
sS'YMR215W'
p2195
F68.799999999999997
sS'YDR051C'
p2196
F43.100000000000001
sS'YOR237W'
p2197
F0.41899999999999998
sS'YER010C'
p2198
F20.800000000000001
sS'YER176W'
p2199
F3.6299999999999999
sS'YPL279C'
p2200
F0.11899999999999999
sS'YKR003W'
p2201
F37.600000000000001
sS'YBR078W'
p2202
F672
sS'YMR097C'
p2203
F0.435
sS'YPL161C'
p2204
F2.8399999999999999
sS'YBR030W'
p2205
F0.77600000000000002
sS'YLR336C'
p2206
F4.8200000000000003
sS'YDL133W'
p2207
F0.64200000000000002
sS'YNL117W'
p2208
F53.100000000000001
sS'YOR131C'
p2209
F37.399999999999999
sS'YDL022W'
p2210
F378
sS'YPR021C'
p2211
F1.05
sS'YLR044C'
p2212
F12925
sS'YHR096C'
p2213
F6.79
sS'YIR033W'
p2214
F1.78
sS'YHR091C'
p2215
F2.3900000000000001
sS'YKR037C'
p2216
F9.5999999999999996
sS'YMR271C'
p2217
F31.699999999999999
sS'YBR065C'
p2218
F6.46
sS'YLR099C'
p2219
F1.01
sS'YML126C'
p2220
F883
sS'YGL114W'
p2221
F1.79
sS'YEL070W'
p2222
F0.041000000000000002
sS'YML032C'
p2223
F42.200000000000003
sS'YBL005W-A'
p2224
F18.699999999999999
sS'YLR146C'
p2225
F6.6100000000000003
sS'YGR271W'
p2226
F1.98
sS'YCL032W'
p2227
F2.5299999999999998
sS'YHR135C'
p2228
F42.200000000000003
sS'YDR429C'
p2229
F260
sS'YAL047C'
p2230
F0.75700000000000001
sS'YMR199W'
p2231
F0.92100000000000004
sS'YER118C'
p2232
F13.6
sS'YML010W'
p2233
F52.899999999999999
sS'YMR253C'
p2234
F5.5999999999999996
sS'YER074W'
p2235
F3212
sS'YER021W'
p2236
F44
sS'YBR052C'
p2237
F113
sS'YER134C'
p2238
F59.600000000000001
sS'YEL052W'
p2239
F9.6600000000000001
sS'YNL088W'
p2240
F21.5
sS'YPL093W'
p2241
F174
sS'YEL009C'
p2242
F14.300000000000001
sS'YER161C'
p2243
F15.300000000000001
sS'YJL180C'
p2244
F9.2799999999999994
sS'YHR103W'
p2245
F2.4900000000000002
sS'YOR001W'
p2246
F9.2300000000000004
sS'YNL200C'
p2247
F34.899999999999999
sS'YDR498C'
p2248
F9.2799999999999994
sS'YOR257W'
p2249
F22.199999999999999
sS'YDR461C-A'
p2250
F19.800000000000001
sS'YGR002C'
p2251
F13.699999999999999
sS'YER129W'
p2252
F0.92400000000000004
sS'YBR058C-A'
p2253
F20.600000000000001
sS'YGR004W'
p2254
F1.3899999999999999
sS'YLL066C'
p2255
F0.311
sS'YDR111C'
p2256
F0.050999999999999997
sS'YGR253C'
p2257
F322
sS'YDR510W'
p2258
F340
sS'YHR218W-A'
p2259
F0.53100000000000003
sS'YKR082W'
p2260
F15.5
sS'YOR027W'
p2261
F717
sS'YPL050C'
p2262
F29.600000000000001
sS'YCR079W'
p2263
F0.72399999999999998
sS'Q0115'
p2264
F0.41599999999999998
sS'YPR045C'
p2265
F3.1499999999999999
sS'YLR419W'
p2266
F3.71
sS'YPR010C'
p2267
F223
sS'YPL231W'
p2268
F1024
sS'YLR148W'
p2269
F3.96
sS'YMR137C'
p2270
F0.17699999999999999
sS'YDR164C'
p2271
F14.6
sS'YDR251W'
p2272
F14.199999999999999
sS'YKL155C'
p2273
F1.95
sS'YBL005W-B'
p2274
F6.4800000000000004
sS'YJR069C'
p2275
F143
sS'YKL033W'
p2276
F1.0900000000000001
sS'YDR119W'
p2277
F17.5
sS'YGR023W'
p2278
F3.1499999999999999
sS'YKR055W'
p2279
F19.899999999999999
sS'YFL042C'
p2280
F3.4199999999999999
sS'YPL081W'
p2281
F1687
sS'YDR351W'
p2282
F1.04
sS'YOL119C'
p2283
F0.094
sS'YIL082W'
p2284
F35.100000000000001
sS'YDR148C'
p2285
F94.400000000000006
sS'YPL181W'
p2286
F2.5
sS'YJR034W'
p2287
F19.399999999999999
sS'YLR121C'
p2288
F3.4300000000000002
sS'YDL064W'
p2289
F30.5
sS'YDL045W-A'
p2290
F1.98
sS'YHR054C'
p2291
F1.8
sS'YDL204W'
p2292
F36.399999999999999
sS'YDL106C'
p2293
F1.8400000000000001
sS'YDR335W'
p2294
F14
sS'YPR141C'
p2295
F1.04
sS'YMR183C'
p2296
F112
sS'YNR070W'
p2297
F0.53500000000000003
sS'YHR081W'
p2298
F20.399999999999999
sS'YGL056C'
p2299
F31
sS'YKR031C'
p2300
F0.39100000000000001
sS'YGL076C'
p2301
F2083
sS'YGL189C'
p2302
F1347
sS'YPR036W-A'
p2303
F30.399999999999999
sS'YPL014W'
p2304
F1.04
sS'YEL020W-A'
p2305
F572
sS'YHR181W'
p2306
F4.6600000000000001
sS'YDR342C'
p2307
F90.799999999999997
sS'YDR443C'
p2308
F3.8399999999999999
sS'YDR211W'
p2309
F44.899999999999999
sS'YCR095C'
p2310
F1.95
sS'YDR261C-D'
p2311
F16.100000000000001
sS'YLL011W'
p2312
F14.800000000000001
sS'YCR077C'
p2313
F33.5
sS'YJR144W'
p2314
F110
sS'YJL029C'
p2315
F3.1800000000000002
sS'YER056C'
p2316
F25.899999999999999
sS'YGL130W'
p2317
F9.3300000000000001
sS'YMR157C'
p2318
F8.1099999999999994
sS'YLR437C'
p2319
F1.1299999999999999
sS'YCL005W-A'
p2320
F9.4000000000000004
sS'YNL306W'
p2321
F22.300000000000001
sS'YLR429W'
p2322
F68.400000000000006
sS'YNL191W'
p2323
F3.0299999999999998
sS'YDR237W'
p2324
F6.8399999999999999
sS'YDR060W'
p2325
F40.100000000000001
sS'YKR048C'
p2326
F222
sS'YOR182C'
p2327
F1491
sS'YMR080C'
p2328
F16.600000000000001
sS'YKR013W'
p2329
F10.300000000000001
sS'YOR194C'
p2330
F27.399999999999999
sS'YBR001C'
p2331
F0.89600000000000002
sS'YNL246W'
p2332
F19
sS'YPL003W'
p2333
F3.1899999999999999
sS'YGR145W'
p2334
F32.700000000000003
sS'YLR393W'
p2335
F2.0899999999999999
sS'YHR196W'
p2336
F23.899999999999999
sS'YMR048W'
p2337
F6.0499999999999998
sS'YKL108W'
p2338
F4.9000000000000004
sS'YPR067W'
p2339
F8.2400000000000002
sS'YML092C'
p2340
F242
sS'YOR167C'
p2341
F2092
sS'YMR117C'
p2342
F31.300000000000001
sS'YDL124W'
p2343
F526
sS'YPR107C'
p2344
F4
sS'YJR074W'
p2345
F24.399999999999999
sS'YPR127W'
p2346
F8.5600000000000005
sS'YGR266W'
p2347
F11.5
sS'YOR259C'
p2348
F260
sS'YJL167W'
p2349
F419
sS'YAL012W'
p2350
F1386
sS'YHR163W'
p2351
F186
sS'YJR134C'
p2352
F5.4900000000000002
sS'YMR288W'
p2353
F6.4500000000000002
sS'YIL156W'
p2354
F0.14699999999999999
sS'YDR261W-A'
p2355
F2.3399999999999999
sS'YDR261W-B'
p2356
F1.5800000000000001
sS'YDR499W'
p2357
F19.5
sS'YPL196W'
p2358
F7.3600000000000003
sS'YDR518W'
p2359
F54
sS'YLR272C'
p2360
F2.7999999999999998
sS'YER022W'
p2361
F8.6400000000000006
sS'YJL149W'
p2362
F0.25600000000000001
sS'YNR017W'
p2363
F90.799999999999997
sS'YKL059C'
p2364
F6.3399999999999999
sS'YGL092W'
p2365
F14.9
sS'YDR364C'
p2366
F0.13800000000000001
sS'YLR352W'
p2367
F7.1600000000000001
sS'YKL006W'
p2368
F3585
sS'YGR136W'
p2369
F26.800000000000001
sS'YGR118W'
p2370
F4618
sS'YPL156C'
p2371
F0.59799999999999998
sS'YOR153W'
p2372
F109
sS'YML122C'
p2373
F0.35199999999999998
sS'YDR041W'
p2374
F11.699999999999999
sS'YMR124W'
p2375
F3.5800000000000001
sS'YGL201C'
p2376
F11.1
sS'YPR084W'
p2377
F0.60699999999999998
sS'YKL084W'
p2378
F0.745
sS'YDR099W'
p2379
F1315
sS'YBL069W'
p2380
F8.75
sS'YBR121C'
p2381
F512
sS'YLR229C'
p2382
F200
sS'YJR052W'
p2383
F3.3700000000000001
sS'YKL188C'
p2384
F18.899999999999999
sS'YMR062C'
p2385
F250
sS'YMR015C'
p2386
F58.600000000000001
sS'YKL020C'
p2387
F0.248
sS'YAL007C'
p2388
F92.299999999999997
sS'YHR170W'
p2389
F73.200000000000003
sS'YGL135W'
p2390
F3130
sS'YJL125C'
p2391
F13.300000000000001
sS'YBR107C'
p2392
F3.4900000000000002
sS'YLR312W-A'
p2393
F13.699999999999999
sS'YBL090W'
p2394
F3.9199999999999999
sS'YDR259C'
p2395
F2.1000000000000001
sS'YGL120C'
p2396
F128
sS'YBR278W'
p2397
F7.3600000000000003
sS'YBR009C'
p2398
F2297
sS'YKL068W'
p2399
F28.300000000000001
sS'YPL129W'
p2400
F92.299999999999997
sS'YKL093W'
p2401
F3.6299999999999999
sS'YGL202W'
p2402
F648
sS'YMR002W'
p2403
F119
sS'YDR260C'
p2404
F3.2799999999999998
sS'YKL142W'
p2405
F188
sS'YPL049C'
p2406
F78
sS'YNL064C'
p2407
F1144
sS'YNL031C'
p2408
F1806
sS'YOR110W'
p2409
F16
sS'YLR045C'
p2410
F8.1099999999999994
sS'YER081W'
p2411
F336
sS'YJL070C'
p2412
F0.89100000000000001
sS'YPL178W'
p2413
F5.0499999999999998
sS'YGL057C'
p2414
F3.3100000000000001
sS'YDR373W'
p2415
F4.1100000000000003
sS'YJL165C'
p2416
F5.4100000000000001
sS'YDR322W'
p2417
F9.9800000000000004
sS'YOL111C'
p2418
F67.900000000000006
sS'YOR098C'
p2419
F8.1899999999999995
sS'YDL120W'
p2420
F76
sS'YGL227W'
p2421
F12.9
sS'YCR030C'
p2422
F24.300000000000001
sS'YFR011C'
p2423
F40
sS'YIL074C'
p2424
F266
sS'YMR312W'
p2425
F6.6500000000000004
sS'YCL033C'
p2426
F13
sS'YIL161W'
p2427
F15.9
sS'YLL043W'
p2428
F1.6799999999999999
sS'YOL144W'
p2429
F20.899999999999999
sS'YOR066W'
p2430
F0.098000000000000004
sS'YLR395C'
p2431
F8.8900000000000006
sS'YHL008C'
p2432
F0.439
sS'YLR457C'
p2433
F1.3400000000000001
sS'YCL016C'
p2434
F0.435
sS'YHR039C'
p2435
F171
sS'YBR274W'
p2436
F4.2999999999999998
sS'YBL101C'
p2437
F6.1799999999999997
sS'YGL178W'
p2438
F1.04
sS'YLR113W'
p2439
F66.700000000000003
sS'YNL249C'
p2440
F1.53
sS'YLR110C'
p2441
F9.3800000000000008
sS'YPL118W'
p2442
F7.7199999999999998
sS'YER142C'
p2443
F2.4500000000000002
sS'YML119W'
p2444
F0.56399999999999995
sS'YPR018W'
p2445
F2.29
sS'YGR036C'
p2446
F0.32500000000000001
sS'YNL225C'
p2447
F4.6100000000000003
sS'YGR121C'
p2448
F0.495
sS'YKL006C-A'
p2449
F37.799999999999997
sS'YMR045C'
p2450
F7.96
sS'YHR043C'
p2451
F12.1
sS'YGL065C'
p2452
F21.899999999999999
sS'YKR087C'
p2453
F1.79
sS'YDR180W'
p2454
F0.57799999999999996
sS'YOR052C'
p2455
F2.7200000000000002
sS'YHR199C-A'
p2456
F21.699999999999999
sS'YDL134C'
p2457
F77.299999999999997
sS'YLR243W'
p2458
F8.2899999999999991
sS'YGR096W'
p2459
F0.16700000000000001
sS'YLR196W'
p2460
F98.099999999999994
sS'YDL112W'
p2461
F17.899999999999999
sS'YAL054C'
p2462
F12.1
sS'YPL168W'
p2463
F0.67700000000000005
sS'YOL051W'
p2464
F25.5
sS'YMR135C'
p2465
F10.9
sS'YCR009C'
p2466
F290
sS'YPL236C'
p2467
F0.128
sS'YHR155W'
p2468
F0.17299999999999999
sS'YAL009W'
p2469
F2.3500000000000001
sS'YOR045W'
p2470
F134
sS'YDR476C'
p2471
F23.199999999999999
sS'YDL046W'
p2472
F115
sS'YOL102C'
p2473
F2.75
sS'YBR252W'
p2474
F104
sS'YGR116W'
p2475
F46.200000000000003
sS'YIL110W'
p2476
F7.5899999999999999
sS'YGR268C'
p2477
F1.0900000000000001
sS'YPL183W-A'
p2478
F8.6999999999999993
sS'YJL206C'
p2479
F0.123
sS'YIL069C'
p2480
F3212
sS'YJR083C'
p2481
F3.6000000000000001
sS'YOL159C'
p2482
F2.0499999999999998
sS'YBR169C'
p2483
F170
sS'YNL135C'
p2484
F1130
sS'YJR101W'
p2485
F7.1200000000000001
sS'YGL147C'
p2486
F2144
sS'YBR263W'
p2487
F431
sS'YOL086C'
p2488
F15773
sS'YBL001C'
p2489
F17.5
sS'YNR035C'
p2490
F104
sS'YDR019C'
p2491
F145
sS'YLL058W'
p2492
F0.184
sS'YBR150C'
p2493
F2.0899999999999999
sS'YJL085W'
p2494
F4.5199999999999996
sS'YDL160C'
p2495
F124
sS'YDR224C'
p2496
F1309
sS'YIL066C'
p2497
F28.800000000000001
sS'YEL055C'
p2498
F16.399999999999999
sS'YER119C'
p2499
F1.55
sS'YDR477W'
p2500
F34.100000000000001
sS'YGR058W'
p2501
F0.54600000000000004
sS'YDR381C-A'
p2502
F11
sS'YGL129C'
p2503
F14.4
sS'YMR196W'
p2504
F23.100000000000001
sS'YBR053C'
p2505
F20
sS'YMR161W'
p2506
F16.100000000000001
sS'YPL077C'
p2507
F0.22700000000000001
sS'YNL207W'
p2508
F26.899999999999999
sS'YDL192W'
p2509
F744
sS'YLR029C'
p2510
F3343
sS'YBR082C'
p2511
F1516
sS'YER160C'
p2512
F11.9
sS'YJL133C-A'
p2513
F28
sS'YER080W'
p2514
F56.200000000000003
sS'YBL034C'
p2515
F0.84499999999999997
sS'YIL157C'
p2516
F21.5
sS'YOL008W'
p2517
F2.1400000000000001
sS'YER077C'
p2518
F1.27
sS'YGL246C'
p2519
F14
sS'YBR089C-A'
p2520
F281
sS'YCR054C'
p2521
F4.3499999999999996
sS'YDR045C'
p2522
F72.200000000000003
sS'YGR240C'
p2523
F953
sS'YPL232W'
p2524
F42
sS'YKR083C'
p2525
F12.800000000000001
sS'YMR209C'
p2526
F10.1
sS'YEL017W'
p2527
F6.79
sS'YGR252W'
p2528
F24.399999999999999
sS'YDL003W'
p2529
F5.6200000000000001
sS'YER128W'
p2530
F14
sS'YDL235C'
p2531
F40.799999999999997
sS'YMR322C'
p2532
F0.95199999999999996
sS'YIL125W'
p2533
F138
sS'YDL078C'
p2534
F293
sS'YGR003W'
p2535
F0.26500000000000001
sS'YDR517W'
p2536
F72.099999999999994
sS'YGR074W'
p2537
F61.600000000000001
sS'YOR256C'
p2538
F0.57999999999999996
sS'YPR011C'
p2539
F2.02
sS'YLL061W'
p2540
F0.71699999999999997
sS'YDR110W'
p2541
F4.5499999999999998
sS'YLR061W'
p2542
F2414
sS'YAR010C'
p2543
F53.299999999999997
sS'YKL214C'
p2544
F67.5
sS'YOL088C'
p2545
F34.600000000000001
sS'YHL040C'
p2546
F0.42499999999999999
sS'YOR361C'
p2547
F133
sS'YOR221C'
p2548
F23.5
sS'YKR095W'
p2549
F16.899999999999999
sS'YMR223W'
p2550
F11.199999999999999
sS'YPL214C'
p2551
F4.2699999999999996
sS'YGR029W'
p2552
F22.300000000000001
sS'YDL199C'
p2553
F0.94199999999999995
sS'YOR334W'
p2554
F0.80600000000000005
sS'YOL064C'
p2555
F95.200000000000003
sS'YGR236C'
p2556
F0.77200000000000002
sS'YBL023C'
p2557
F5.9400000000000004
sS'YNL074C'
p2558
F7.3799999999999999
sS'YML067C'
p2559
F32.399999999999999
sS'YOR274W'
p2560
F0.14899999999999999
sS'YJR084W'
p2561
F3.8100000000000001
sS'YJL045W'
p2562
F36.100000000000001
sS'YNL079C'
p2563
F1102
sS'YGR256W'
p2564
F164
sS'YER151C'
p2565
F46.299999999999997
sS'YIL098C'
p2566
F4.5700000000000003
sS'YLR005W'
p2567
F10.199999999999999
sS'YIL084C'
p2568
F3.0800000000000001
sS'YDL171C'
p2569
F168
sS'YOR382W'
p2570
F6.1699999999999999
sS'YNL267W'
p2571
F3.8399999999999999
sS'YCL001W'
p2572
F27.300000000000001
sS'YGR198W'
p2573
F4.7999999999999998
sS'YKL189W'
p2574
F2.3199999999999998
sS'YAR007C'
p2575
F118
sS'YLR050C'
p2576
F68.299999999999997
sS'YGR010W'
p2577
F1.45
sS'YML064C'
p2578
F101
sS'YKR091W'
p2579
F0.77200000000000002
sS'YLR414C'
p2580
F13.300000000000001
sS'YOR124C'
p2581
F12.699999999999999
sS'YCR016W'
p2582
F27.399999999999999
sS'YLL012W'
p2583
F0.44500000000000001
sS'YCL052C'
p2584
F1.95
sS'YLR438W'
p2585
F238
sS'YOR296W'
p2586
F0.217
sS'YHR167W'
p2587
F15.5
sS'YJR010W'
p2588
F164
sS'YML031W'
p2589
F19.600000000000001
sS'YJL044C'
p2590
F5.3300000000000001
sS'YMR154C'
p2591
F0.068000000000000005
sS'YCR094W'
p2592
F2.1499999999999999
sS'YBR085W'
p2593
F103
sS'YMR036C'
p2594
F0.18099999999999999
sS'YPR164W'
p2595
F0.503
sS'YER039C'
p2596
F2.4900000000000002
sS'YGL131C'
p2597
F0.54200000000000004
sS'YGR218W'
p2598
F76.700000000000003
sS'YML112W'
p2599
F2.2400000000000002
sS'YEL060C'
p2600
F115
sS'YKR049C'
p2601
F12.4
sS'YPL145C'
p2602
F256
sS'YPR179C'
p2603
F1.74
sS'YHR195W'
p2604
F4.54
sS'YGR267C'
p2605
F62.600000000000001
sS'YDR261C-C'
p2606
F55.100000000000001
sS'YDL225W'
p2607
F17.100000000000001
sS'YLR330W'
p2608
F80.700000000000003
sS'YDL125C'
p2609
F335
sS'YMR114C'
p2610
F0.98899999999999999
sS'YPR066W'
p2611
F0.17699999999999999
sS'YGL022W'
p2612
F11.699999999999999
sS'YML079W'
p2613
F51.200000000000003
sS'YBL037W'
p2614
F5.1399999999999997
sS'YIL118W'
p2615
F64.299999999999997
sS'YMR049C'
p2616
F76.799999999999997
sS'YDR229W'
p2617
F9.5099999999999998
sS'YOR166C'
p2618
F1.1699999999999999
sS'YPR124W'
p2619
F17.800000000000001
sS'YLL029W'
p2620
F23.699999999999999
sS'YDL181W'
p2621
F339
sS'YOR344C'
p2622
F7.25
sS'YPL257W-A'
p2623
F55.700000000000003
sS'YPR068C'
p2624
F0.49399999999999999
sS'YDR258C'
p2625
F192
sS'YDR374W-A'
p2626
F2.4399999999999999
sS'YER017C'
p2627
F8.1899999999999995
sS'YBR022W'
p2628
F5.9900000000000002
sS'YMR214W'
p2629
F31.899999999999999
sS'YBR079C'
p2630
F317
sS'YNR066C'
p2631
F0.63400000000000001
sS'YKR063C'
p2632
F0.79200000000000004
sS'YDR500C'
p2633
F1094
sS'YGL032C'
p2634
F2.71
sS'YMR176W'
p2635
F0.34100000000000003
sS'YCL063W'
p2636
F0.54000000000000004
sS'YER048C'
p2637
F113
sS'YPR020W'
p2638
F276
sS'YML048W'
p2639
F115
sS'YNL112W'
p2640
F327
sS'YLR027C'
p2641
F712
sS'YBR031W'
p2642
F3179
sS'YDL132W'
p2643
F72.5
sS'YEL077C'
p2644
F0.27100000000000002
sS'YBL064C'
p2645
F86.200000000000003
sS'YGR245C'
p2646
F31.600000000000001
sS'YOR148C'
p2647
F1.24
sS'YPL119C'
p2648
F35.200000000000003
sS'YNL173C'
p2649
F19.899999999999999
sS'YPL243W'
p2650
F131
sS'YMR096W'
p2651
F31.399999999999999
sS'YDL025C'
p2652
F3.9199999999999999
sS'YLR147C'
p2653
F6.8399999999999999
sS'YLR167W'
p2654
F4198
sS'YMR270C'
p2655
F0.998
sS'YLR293C'
p2656
F627
sS'YDL147W'
p2657
F138
sS'YJR053W'
p2658
F2.3799999999999999
sS'YFL029C'
p2659
F2.0499999999999998
sS'YJL171C'
p2660
F89.900000000000006
sS'YBL091C'
p2661
F94.900000000000006
sS'YPR072W'
p2662
F25.199999999999999
sS'YMR237W'
p2663
F28.199999999999999
sS'YMR014W'
p2664
F6.6299999999999999
sS'YDR453C'
p2665
F79.299999999999997
sS'YDR197W'
p2666
F0.22500000000000001
sS'YER072W'
p2667
F16.699999999999999
sS'YDL167C'
p2668
F12
sS'YER082C'
p2669
F35.100000000000001
sS'YIL137C'
p2670
F34.700000000000003
sS'YKL069W'
p2671
F13.1
sS'YNL123W'
p2672
F18.199999999999999
sS'YMR003W'
p2673
F3.7999999999999998
sS'YDR372C'
p2674
F41.399999999999999
sS'YPL177C'
p2675
F2.6000000000000001
sS'YJL164C'
p2676
F19.100000000000001
sS'YDL031W'
p2677
F19.199999999999999
sS'YLR373C'
p2678
F15.5
sS'YKL092C'
p2679
F1.1399999999999999
sS'YFL016C'
p2680
F48.600000000000001
sS'YDR322C-A'
p2681
F157
sS'YJL162C'
p2682
F0.58299999999999996
sS'YKL198C'
p2683
F0.28899999999999998
sS'YLR260W'
p2684
F0.57199999999999995
sS'YPL117C'
p2685
F235
sS'YPR109W'
p2686
F2.5
sS'YNL041C'
p2687
F2.8199999999999998
sS'YJR035W'
p2688
F0.75700000000000001
sS'YDR350C'
p2689
F0.11
sS'YDR070C'
p2690
F116
sS'YKR054C'
p2691
F0.125
sS'YJR019C'
p2692
F8.9700000000000006
sS'YJL006C'
p2693
F0.59899999999999998
sS'YBL082C'
p2694
F2.4500000000000002
sS'YDL081C'
p2695
F2042
sS'YLR149C'
p2696
F0.45700000000000002
sS'YKL032C'
p2697
F47.600000000000001
sS'YHL030W'
p2698
F13.1
sS'YGL013C'
p2699
F9.3399999999999999
sS'YLR191W'
p2700
F0.66400000000000003
sS'YFL018C'
p2701
F559
sS'YMR070W'
p2702
F29.100000000000001
sS'YJL139C'
p2703
F0.57599999999999996
sS'YGR207C'
p2704
F98
sS'YDR212W'
p2705
F192
sS'YBL047C'
p2706
F62.700000000000003
sS'YLR170C'
p2707
F0.42799999999999999
sS'YNL052W'
p2708
F46.5
sS'YPL097W'
p2709
F4.7999999999999998
sS'YDL207W'
p2710
F2.1099999999999999
sS'YDR334W'
p2711
F3.1600000000000001
sS'YPL015C'
p2712
F3.25
sS'YLR211C'
p2713
F2.6099999999999999
sS'YGL213C'
p2714
F14.4
sS'YMR038C'
p2715
F385
sS'YER155C'
p2716
F12.5
sS'YJL066C'
p2717
F64.099999999999994
sS'YNL025C'
p2718
F0.70899999999999996
sS'YOL137W'
p2719
F4.0899999999999999
sS'YNR029C'
p2720
F3.7999999999999998
sS'YEL029C'
p2721
F3.7599999999999998
sS'YGR091W'
p2722
F0.41199999999999998
sS'YBR122C'
p2723
F19.800000000000001
sS'YHR001W'
p2724
F31.300000000000001
sS'YGR117C'
p2725
F5.1500000000000004
sS'YGR223C'
p2726
F3
sS'YJL010C'
p2727
F11.199999999999999
sS'YBR199W'
p2728
F40.299999999999997
sS'YHR033W'
p2729
F3.7200000000000002
sS'YJR007W'
p2730
F453
sS'YJR148W'
p2731
F232
sS'YBR253W'
p2732
F35.799999999999997
sS'YFR029W'
p2733
F0.099000000000000005
sS'YIL035C'
p2734
F31
sS'YIL111W'
p2735
F46.200000000000003
sS'YKR094C'
p2736
F2517
sS'YBR153W'
p2737
F3.7200000000000002
sS'YJR082C'
p2738
F11
sS'YML121W'
p2739
F5.29
sS'YOL087C'
p2740
F7.2800000000000002
sS'YDR210C-C'
p2741
F43.100000000000001
sS'YNL134C'
p2742
F382
sS'YNR061C'
p2743
F0.377
sS'YDR210C-D'
p2744
F12.4
sS'YJL084C'
p2745
F5.7999999999999998
sS'YHR154W'
p2746
F2.1200000000000001
sS'YOR008C'
p2747
F30.100000000000001
sS'YGR014W'
p2748
F6.5
sS'YJR142W'
p2749
F3.79
sS'YGR285C'
p2750
F681
sS'YDR291W'
p2751
F1.22
sS'YHL014C'
p2752
F1.1499999999999999
sS'YBR262C'
p2753
F5.1900000000000004
sS'YMR304W'
p2754
F10
sS'YBR119W'
p2755
F1.21
sS'YKL010C'
p2756
F8.7200000000000006
sS'YPL255W'
p2757
F0.755
sS'YMR289W'
p2758
F1.49
sS'YER070W'
p2759
F83.700000000000003
sS'YPL199C'
p2760
F49.200000000000003
sS'YIL177C'
p2761
F0.33400000000000002
sS'YAL015C'
p2762
F3.1899999999999999
sS'YFL036W'
p2763
F0.94399999999999995
sS'YGR177C'
p2764
F5.7999999999999998
sS'YDL209C'
p2765
F6.0099999999999998
sS'YKL045W'
p2766
F1.49
sS'YJR022W'
p2767
F18.899999999999999
sS'YIL051C'
p2768
F1319
sS'YPL057C'
p2769
F0.70099999999999996
sS'YNR010W'
p2770
F15.800000000000001
sS'YDR365C'
p2771
F88.700000000000003
sS'YPL151C'
p2772
F3.0800000000000001
sS'YKL007W'
p2773
F81.400000000000006
sS'YDL082W'
p2774
F2122
sS'YNL169C'
p2775
F16.699999999999999
sS'YFR034C'
p2776
F2.6299999999999999
sS'YGL206C'
p2777
F387
sS'YGL091C'
p2778
F1.75
sS'YCL038C'
p2779
F0.77200000000000002
sS'YLR180W'
p2780
F1158
sS'YDR460W'
p2781
F17.199999999999999
sS'YOR377W'
p2782
F0.501
sS'YLR364W'
p2783
F46.899999999999999
sS'YKL058W'
p2784
F67.299999999999997
sS'YKL085W'
p2785
F498
sS'YJR124C'
p2786
F1.3700000000000001
sS'YHL047C'
p2787
F0.14099999999999999
sS'YOR360C'
p2788
F7.21
sS'YOR335C'
p2789
F401
sS'YHL018W'
p2790
F3.1099999999999999
sS'YDL055C'
p2791
F1897
sS'YDR416W'
p2792
F0.99299999999999999
sS'YMR099C'
p2793
F238
sS'YLR193C'
p2794
F0.312
sS'YHR023W'
p2795
F2.9700000000000002
sS'YOL065C'
p2796
F3.6000000000000001
sS'YMR181C'
p2797
F0.80700000000000005
sS'YER051W'
p2798
F0.20599999999999999
sS'YPR158C-D'
p2799
F12.1
sS'YKL217W'
p2800
F1.1599999999999999
sS'YBL022C'
p2801
F44.899999999999999
sS'YGL164C'
p2802
F3.9399999999999999
sS'YJR032W'
p2803
F19.5
sS'YPR158C-C'
p2804
F41.5
sS'YER156C'
p2805
F71.700000000000003
sS'YLL050C'
p2806
F943
sS'YGR013W'
p2807
F4.1699999999999999
sS'YHR057C'
p2808
F3.7799999999999998
sS'YOR095C'
p2809
F73.700000000000003
sS'YEL038W'
p2810
F21.5
sS'YCL014W'
p2811
F2.3900000000000001
sS'YOL025W'
p2812
F1.03
sS'YLL026W'
p2813
F606
sS'YDR286C'
p2814
F2.6699999999999999
sS'YGL108C'
p2815
F8.8100000000000005
sS'YJL153C'
p2816
F75.099999999999994
sS'YPL090C'
p2817
F2442
sS'YOR328W'
p2818
F5.1299999999999999
sS'YDR436W'
p2819
F2.9700000000000002
sS'YGR199W'
p2820
F2.6099999999999999
sS'YHL050C'
p2821
F0.26900000000000002
sS'YMR028W'
p2822
F8.6099999999999994
sS'YPL208W'
p2823
F11.800000000000001
sS'YLR306W'
p2824
F2.8199999999999998
sS'YOL147C'
p2825
F66.400000000000006
sS'YNL280C'
p2826
F39.200000000000003
sS'YDR007W'
p2827
F1.6899999999999999
sS'YIL160C'
p2828
F103
sS'YGR222W'
p2829
F2.8700000000000001
sS'YGL220W'
p2830
F131
sS'YPR089W'
p2831
F2.98
sS'YBR233W'
p2832
F2.3399999999999999
sS'YGL171W'
p2833
F29.899999999999999
sS'YDL095W'
p2834
F101
sS'YNL032W'
p2835
F2.8900000000000001
sS'YLR051C'
p2836
F7.2000000000000002
sS'YGR082W'
p2837
F119
sS'YMR291W'
p2838
F11.5
sS'YKL104C'
p2839
F216
sS'YHR012W'
p2840
F31.899999999999999
sS'YDR388W'
p2841
F166
sS'YIL022W'
p2842
F106
sS'YNL248C'
p2843
F82.5
sS'YGL063W'
p2844
F0.41599999999999998
sS'YMR313C'
p2845
F3.1499999999999999
sS'YGR206W'
p2846
F2.2200000000000002
sS'YGR119C'
p2847
F39.5
sS'YPL212C'
p2848
F86.900000000000006
sS'YDR181C'
p2849
F2.3399999999999999
sS'YOL127W'
p2850
F5416
sS'YNL095C'
p2851
F0.124
sS'YMR228W'
p2852
F0.96399999999999997
sS'YLR326W'
p2853
F0.28399999999999997
sS'YNL224C'
p2854
F2.5499999999999998
sS'YAL020C'
p2855
F0.217
sS'YBR275C'
p2856
F0.75800000000000001
sS'YDR539W'
p2857
F23.699999999999999
sS'YML132W'
p2858
F0.016
sS'YLR267W'
p2859
F0.47899999999999998
sS'YBR025C'
p2860
F1204
sS'YML001W'
p2861
F142
sS'YLL028W'
p2862
F4.6900000000000004
sS'YOR187W'
p2863
F246
sS'YER016W'
p2864
F4.5800000000000001
sS'YDR501W'
p2865
F0.28799999999999998
sS'YGR286C'
p2866
F9.4499999999999993
sS'YOR100C'
p2867
F0.59199999999999997
sS'YCR037C'
p2868
F1.6399999999999999
sS'YMR044W'
p2869
F1.4299999999999999
sS'YOL115W'
p2870
F7.8300000000000001
sS'YMR217W'
p2871
F547
sS'YKL128C'
p2872
F45.200000000000003
sS'YOR239W'
p2873
F98.099999999999994
sS'YJR008W'
p2874
F1.2
sS'YHR003C'
p2875
F53.399999999999999
sS'YCR086W'
p2876
F25.300000000000001
sS'YKL222C'
p2877
F0.40400000000000003
sS'YML110C'
p2878
F56.5
sS'YDR494W'
p2879
F7.96
sS'YLR026C'
p2880
F30.899999999999999
sS'YLR139C'
p2881
F0.625
sS'YGR246C'
p2882
F8.3599999999999994
sS'YEL076C'
p2883
F0.19800000000000001
sS'YMR277W'
p2884
F6.2400000000000002
sS'Q0045'
p2885
F15.6
sS'YMR095C'
p2886
F4.4299999999999997
sS'YML049C'
p2887
F2.3399999999999999
sS'YLR064W'
p2888
F8.4100000000000001
sS'YDR100W'
p2889
F66.700000000000003
sS'YLL004W'
p2890
F1.74
sS'YER049W'
p2891
F69.200000000000003
sS'YGL125W'
p2892
F34.100000000000001
sS'YMR244C-A'
p2893
F15.4
sS'YML117W'
p2894
F9.8100000000000005
sS'YEL054C'
p2895
F2116
sS'YMR255W'
p2896
F28.399999999999999
sS'YMR239C'
p2897
F3.6400000000000001
sS'YNL006W'
p2898
F24.300000000000001
sS'YNR072W'
p2899
F0.063
sS'YER136W'
p2900
F288
sS'YER116C'
p2901
F1.53
sS'YMR160W'
p2902
F0.74299999999999999
sS'YER056C-A'
p2903
F2271
sS'YDR028C'
p2904
F13.9
sS'YOR217W'
p2905
F22
sS'YNL327W'
p2906
F1.48
sS'YPR074C'
p2907
F797
sS'YCR057C'
p2908
F8.7799999999999994
sS'YNL206C'
p2909
F11.5
sS'YMR197C'
p2910
F30.699999999999999
sS'YAR071W'
p2911
F55.799999999999997
sS'YLR060W'
p2912
F563
sS'YDR516C'
p2913
F56.899999999999999
sS'Q0130'
p2914
F1.6699999999999999
sS'YPL233W'
p2915
F22.699999999999999
sS'YHR024C'
p2916
F22.399999999999999
sS'YIR006C'
p2917
F58.600000000000001
sS'YPR140W'
p2918
F0.96099999999999997
sS'YGR251W'
p2919
F7.8700000000000001
sS'YLR105C'
p2920
F0.71499999999999997
sS'YPL122C'
p2921
F12.300000000000001
sS'YPR047W'
p2922
F2.46
sS'YKL219W'
p2923
F0.435
sS'YML091C'
p2924
F2.8599999999999999
sS'YLR353W'
p2925
F0.38800000000000001
sS'YBR049C'
p2926
F123
sS'YDR044W'
p2927
F95
sS'YKR080W'
p2928
F68.5
sS'YNL010W'
p2929
F470
sS'YKL078W'
p2930
F5.1399999999999997
sS'YDL002C'
p2931
F112
sS'YDL110C'
p2932
F111
sS'YPL215W'
p2933
F10.4
sS'YOR037W'
p2934
F0.67000000000000004
sS'YIR037W'
p2935
F653
sS'YDR071C'
p2936
F499
sS'YDR162C'
p2937
F28.300000000000001
sS'YMR134W'
p2938
F2.8100000000000001
sS'YGL012W'
p2939
F16.399999999999999
sS'YBR137W'
p2940
F40.299999999999997
sS'YDR301W'
p2941
F1.1399999999999999
sS'YOR093C'
p2942
F0.58799999999999997
sS'YGR129W'
p2943
F26.5
sS'YPL107W'
p2944
F1.95
sS'YKR057W'
p2945
F2168
sS'YAR018C'
p2946
F0.70099999999999996
sS'YEL059C-A'
p2947
F8.4399999999999995
sS'YDR353W'
p2948
F865
sS'YMR139W'
p2949
F5.5
sS'YJL001W'
p2950
F127
sS'YDL080C'
p2951
F171
sS'YJL049W'
p2952
F1.03
sS'YHR183W'
p2953
F1055
sS'YDL085C-A'
p2954
F557
sS'YDR017C'
p2955
F7.5899999999999999
sS'YOR129C'
p2956
F0.056000000000000001
sS'YDR213W'
p2957
F0.151
sS'YOL080C'
p2958
F5.5599999999999996
sS'YPR167C'
p2959
F9.5299999999999994
sS'YDL206W'
p2960
F0.13700000000000001
sS'YHR060W'
p2961
F8.4600000000000009
sS'YGL105W'
p2962
F866
sS'YER094C'
p2963
F219
sS'YHL027W'
p2964
F2.1600000000000001
sS'YDL104C'
p2965
F0.749
sS'YGR208W'
p2966
F43.299999999999997
sS'YKL119C'
p2967
F1.8400000000000001
sS'YLR212C'
p2968
F5.3399999999999999
sS'YHR042W'
p2969
F214
sS'YBL058W'
p2970
F124
sS'YER101C'
p2971
F0.80600000000000005
sS'YMR155W'
p2972
F0.16400000000000001
sS'YKR079C'
p2973
F2.9100000000000001
sS'YFL062W'
p2974
F0.056000000000000001
sS'YNL197C'
p2975
F9.1600000000000001
sS'YLR086W'
p2976
F2.3999999999999999
sS'YLR439W'
p2977
F11.5
sS'YER054C'
p2978
F3.9500000000000002
sS'YML030W'
p2979
F106
sS'YCL051W'
p2980
F0.60699999999999998
sS'YML065W'
p2981
F4.1500000000000004
sS'YOR190W'
p2982
F0.10100000000000001
sS'YOR127W'
p2983
F1.3799999999999999
sS'YER001W'
p2984
F33.899999999999999
sS'YDR235W'
p2985
F0.745
sS'YJL047C'
p2986
F1.75
sS'YOR319W'
p2987
F46
sS'YBL074C'
p2988
F0.215
sS'YPR125W'
p2989
F18.699999999999999
sS'YGL023C'
p2990
F3.9399999999999999
sS'YHR049W'
p2991
F208
sS'YEL061C'
p2992
F0.45000000000000001
sS'YBR007C'
p2993
F0.080000000000000002
sS'YMR115W'
p2994
F14
sS'YPL001W'
p2995
F7.6799999999999997
sS'YDR228C'
p2996
F2.2000000000000002
sS'YHR194W'
p2997
F0.114
sS'YOR340C'
p2998
F75.200000000000003
sS'YMR260C'
p2999
F359
sS'YLR102C'
p3000
F0.69699999999999995
sS'YPR030W'
p3001
F0.35799999999999998
sS'YML078W'
p3002
F557
sS'YCR083W'
p3003
F67.400000000000006
sS'YOR158W'
p3004
F18.199999999999999
sS'YGR140W'
p3005
F4.4500000000000002
sS'YGR279C'
p3006
F223
sS'YDL208W'
p3007
F225
sS'YIR018W'
p3008
F0.41599999999999998
sS'YPL074W'
p3009
F0.69199999999999995
sS'YIL129C'
p3010
F1.48
sS'YNL320W'
p3011
F4.3300000000000001
sS'YKL046C'
p3012
F9.2400000000000002
sS'YDR067C'
p3013
F4.75
sS'YBR145W'
p3014
F77.200000000000003
sS'YDR339C'
p3015
F10.699999999999999
sS'YAL014C'
p3016
F2.7000000000000002
sS'YFL037W'
p3017
F699
sS'YJR132W'
p3018
F7.3600000000000003
sS'YPL169C'
p3019
F33.5
sS'YHR161C'
p3020
F3.6899999999999999
sS'YGR174C'
p3021
F18.800000000000001
sS'YCR063W'
p3022
F1.3500000000000001
sS'YLR084C'
p3023
F2.1499999999999999
sS'YDL224C'
p3024
F4.0300000000000002
sS'YLR181C'
p3025
F10.699999999999999
sS'YLR225C'
p3026
F7.3700000000000001
sS'YGL207W'
p3027
F114
sS'YGL090W'
p3028
F4.04
sS'YNL111C'
p3029
F24.5
sS'YOR168W'
p3030
F218
sS'YPL058C'
p3031
F20.399999999999999
sS'YLR454W'
p3032
F1.04
sS'YGR134W'
p3033
F0.38100000000000001
sS'YLR270W'
p3034
F131
sS'YNR011C'
p3035
F0.56000000000000005
sS'YGR097W'
p3036
F5.6399999999999997
sS'YIL050W'
p3037
F0.17499999999999999
sS'YGR169C'
p3038
F1.1499999999999999
sS'YLR309C'
p3039
F18.399999999999999
sS'YOR205C'
p3040
F0.153
sS'YHR156C'
p3041
F0.19700000000000001
sS'YBR083W'
p3042
F3.8500000000000001
sS'YPR086W'
p3043
F31.5
sS'YKL086W'
p3044
F0.49199999999999999
sS'YJR125C'
p3045
F59.799999999999997
sS'YIL068C'
p3046
F2.0099999999999998
sS'YMR060C'
p3047
F4.3700000000000001
sS'YDR153C'
p3048
F16.699999999999999
sS'YJL065C'
p3049
F6.8099999999999996
sS'YLR459W'
p3050
F0.28000000000000003
sS'YGR120C'
p3051
F10.9
sS'YJR003C'
p3052
F1.52
sS'YPR169W-A'
p3053
F9.0099999999999998
sS'YJL170C'
p3054
F2.3799999999999999
sS'YKL026C'
p3055
F0.27000000000000002
sS'YLR048W'
p3056
F1414
sS'YDL144C'
p3057
F14.699999999999999
sS'YFL028C'
p3058
F52.200000000000003
sS'YJR078W'
p3059
F6.0700000000000003
sS'YBR105C'
p3060
F0.46600000000000003
sS'YLR080W'
p3061
F3.3199999999999998
sS'YKR020W'
p3062
F9.4499999999999993
sS'YDR371W'
p3063
F0.72299999999999998
sS'YDR456W'
p3064
F8.9900000000000002
sS'YDR308C'
p3065
F11.800000000000001
sS'YLR372W'
p3066
F164
sS'YDL140C'
p3067
F69.099999999999994
sS'YNL062C'
p3068
F13.9
sS'YMR295C'
p3069
F485
sS'YPL116W'
p3070
F13.199999999999999
sS'YLR238W'
p3071
F1.0600000000000001
sS'YPL176C'
p3072
F0.044999999999999998
sS'YLR228C'
p3073
F2.5800000000000001
sS'YBR248C'
p3074
F154
sS'YJL072C'
p3075
F0.997
sS'YDR435C'
p3076
F3.5299999999999998
sS'YHR172W'
p3077
F0.874
sS'YOR112W'
p3078
F12.4
sS'YFL017C'
p3079
F37.799999999999997
sS'YDL168W'
p3080
F115
sS'YPR132W'
p3081
F4618
sS'YKL144C'
p3082
F6.5999999999999996
sS'YNL175C'
p3083
F191
sS'YGR173W'
p3084
F127
sS'YDL240W'
p3085
F1.6299999999999999
sS'YBR234C'
p3086
F84.5
sS'YPR073C'
p3087
F42.100000000000001
sS'YJR143C'
p3088
F46.799999999999997
sS'YOR356W'
p3089
F70.799999999999997
sS'YBR193C'
p3090
F21
sS'YGR152C'
p3091
F18
sS'YAR027W'
p3092
F5.1600000000000001
sS'YKL163W'
p3093
F1.78
sS'YHR013C'
p3094
F47.200000000000003
sS'YHR072W'
p3095
F43.200000000000003
sS'YBR196C'
p3096
F2844
sS'YOL040C'
p3097
F5256
sS'YGL045W'
p3098
F2.4300000000000002
sS'YDR428C'
p3099
F9.3499999999999996
sS'YNL021W'
p3100
F7.8499999999999996
sS'YNL305C'
p3101
F1.97
sS'YGL221C'
p3102
F89.5
sS'YHR144C'
p3103
F0.18099999999999999
sS'YDR006C'
p3104
F2.0499999999999998
sS'YIL072W'
p3105
F0.11700000000000001
sS'YGR034W'
p3106
F1980
sS'YDR182W'
p3107
F27.600000000000001
sS'YKL004W'
p3108
F17.300000000000001
sS'YDR190C'
p3109
F236
sS'YNL290W'
p3110
F54.299999999999997
sS'YBL010C'
p3111
F0.38700000000000001
sS'YML133C'
p3112
F0.36899999999999999
sS'YAL031C'
p3113
F2.25
sS'YDR139C'
p3114
F15.1
sS'YOR372C'
p3115
F2.1800000000000002
sS'YBR276C'
p3116
F2.8100000000000001
sS'YMR314W'
p3117
F364
sS'YFL002W-B'
p3118
F2.5899999999999999
sS'YAL021C'
p3119
F26.100000000000001
sS'YNL247W'
p3120
F141
sS'YOR035C'
p3121
F5.2599999999999998
sS'YHR128W'
p3122
F437
sS'YGL122C'
p3123
F153
sS'YOR316C'
p3124
F24.399999999999999
sS'YMR107W'
p3125
F1.8700000000000001
sS'YNL227C'
p3126
F4.0499999999999998
sS'YPR204W'
p3127
F0.34000000000000002
sS'YBR123C'
p3128
F10.300000000000001
sS'YIL112W'
p3129
F5.8399999999999999
sS'YBR198C'
p3130
F59.700000000000003
sS'YLR241W'
p3131
F1.25
sS'YLR143W'
p3132
F2.3900000000000001
sS'YGL205W'
p3133
F218
sS'YFR028C'
p3134
F42.600000000000001
sS'YDL188C'
p3135
F50.600000000000001
sS'YNR047W'
p3136
F3.2599999999999998
sS'YOR343W-B'
p3137
F1.4399999999999999
sS'YOR343W-A'
p3138
F1.6100000000000001
sS'YNR028W'
p3139
F2.71
sS'YDR470C'
p3140
F1.7
sS'YAL056W'
p3141
F0.45300000000000001
sS'YIL043C'
p3142
F290
sS'YKL071W'
p3143
F6.4699999999999998
sS'YPL134C'
p3144
F15.6
sS'YOR042W'
p3145
F50.100000000000001
sS'YGL141W'
p3146
F1.0900000000000001
sS'YKR089C'
p3147
F3.02
sS'YBR152W'
p3148
F5.5800000000000001
sS'YJL087C'
p3149
F8.9000000000000004
sS'YLR347C'
p3150
F205
sS'YLR460C'
p3151
F1.29
sS'YDR292C'
p3152
F25
sS'YBR264C'
p3153
F8.3599999999999994
sS'YNL157W'
p3154
F76.099999999999994
sS'YKR072C'
p3155
F17.899999999999999
sS'YBL014C'
p3156
F0.73399999999999999
sS'YNL137C'
p3157
F17
sS'YML025C'
p3158
F5.4400000000000004
sS'YNR060W'
p3159
F0.63300000000000001
sS'YBL003C'
p3160
F1126
sS'YML120C'
p3161
F67.799999999999997
sS'YHR005C-A'
p3162
F479
sS'YLR435W'
p3163
F4.3899999999999997
sS'YOR216C'
p3164
F22
sS'YNL164C'
p3165
F0.77800000000000002
sS'YHR208W'
p3166
F1317
sS'YDL065C'
p3167
F36.399999999999999
sS'YMR194W'
p3168
F2118
sS'YBR035C'
p3169
F309
sS'YGL035C'
p3170
F12.300000000000001
sS'YBL036C'
p3171
F122
sS'YOR249C'
p3172
F0.115
sS'YGR183C'
p3173
F22.399999999999999
sS'YMR238W'
p3174
F32.299999999999997
sS'YPR191W'
p3175
F480
sS'YJL020C'
p3176
F41.5
sS'YBR118W'
p3177
F11158
sS'YER137C'
p3178
F0.754
sS'YDL030W'
p3179
F3.1699999999999999
sS'YER117W'
p3180
F2382
sS'YDR027C'
p3181
F1.6699999999999999
sS'YDL049C'
p3182
F1.3100000000000001
sS'YBR170C'
p3183
F22.800000000000001
sS'YER071C'
p3184
F2.8799999999999999
sS'YNL272C'
p3185
F7.1100000000000003
sS'YBR048W'
p3186
F4467
sS'YKL218C'
p3187
F41
sS'YKR081C'
p3188
F110
sS'YPL263C'
p3189
F50.299999999999997
sS'YGR001C'
p3190
F64
sS'YDL001W'
p3191
F2.5600000000000001
sS'YBL107C'
p3192
F0.49299999999999999
sS'YLR367W'
p3193
F1851
sS'YHR051W'
p3194
F435
sS'YOL013C'
p3195
F0.58599999999999997
sS'YJL183W'
p3196
F29.800000000000001
sS'YPL218W'
p3197
F402
sS'YGR250C'
p3198
F8.6099999999999994
sS'YDR515W'
p3199
F7.21
sS'YDR116C'
p3200
F11.199999999999999
sS'YPR033C'
p3201
F368
sS'YHR209W'
p3202
F0.69999999999999996
sS'YGL252C'
p3203
F34.200000000000003
sS'YOR201C'
p3204
F9.4600000000000009
sS'YOR276W'
p3205
F104
sS'YMR309C'
p3206
F190
sS'YGL250W'
p3207
F1.3799999999999999
sS'YBL059C-A'
p3208
F98.700000000000003
sS'YHR022C'
p3209
F1.47
sS'YOR089C'
p3210
F145
sS'YOL031C'
p3211
F7.1399999999999997
sS'YHR119W'
p3212
F0.502
sS'YHL019C'
p3213
F1.28
sS'YPL217C'
p3214
F25.300000000000001
sS'YBR166C'
p3215
F13.9
sS'YLR166C'
p3216
F2.7599999999999998
sS'YNL258C'
p3217
F2.4300000000000002
sS'YOR336W'
p3218
F6.4100000000000001
sS'YJR094W-A'
p3219
F1645
sS'YKL216W'
p3220
F2179
sS'YGR012W'
p3221
F25.899999999999999
sS'YBL021C'
p3222
F1.49
sS'YHR215W'
p3223
F77.099999999999994
sS'YHR055C'
p3224
F68.099999999999994
sS'YHL004W'
p3225
F16.600000000000001
sS'YLL045C'
p3226
F3032
sS'YGR234W'
p3227
F1213
sS'YMR050C'
p3228
F12.4
sS'YDR458C'
p3229
F9.0600000000000005
sS'YLR007W'
p3230
F3.5699999999999998
sS'YPL252C'
p3231
F13.5
sS'YKR097W'
p3232
F40.200000000000003
sS'YML102W'
p3233
F4.1799999999999997
sS'YER157W'
p3234
F3.77
sS'YOL022C'
p3235
F72.700000000000003
sS'YBR019C'
p3236
F12.1
sS'YNL261W'
p3237
F0.86599999999999999
sS'YHR094C'
p3238
F28.100000000000001
sS'YMR054W'
p3239
F6.6200000000000001
sS'YOL007C'
p3240
F0.74399999999999999
sS'YBL059W'
p3241
F2.71
sS'YDL027C'
p3242
F2.9399999999999999
sS'YER053C'
p3243
F32.100000000000001
sS'YOR126C'
p3244
F2.6699999999999999
sS'YJR121W'
p3245
F882
sS'YLL014W'
p3246
F23.899999999999999
sS'YJL046W'
p3247
F2.0099999999999998
sS'YCR021C'
p3248
F81.700000000000003
sS'YDR049W'
p3249
F1.3200000000000001
sS'YAL028W'
p3250
F0.52600000000000002
sS'YKR014C'
p3251
F226
sS'YKR078W'
p3252
F0.85699999999999998
sS'YDR279W'
p3253
F3.04
sS'YAL060W'
p3254
F49.600000000000001
sS'YOR191W'
p3255
F2.4399999999999999
sS'YLR412W'
p3256
F1.3200000000000001
sS'YIL057C'
p3257
F8.8100000000000005
sS'YER002W'
p3258
F41
sS'YDR170C'
p3259
F28.899999999999999
sS'Q0140'
p3260
F9.0299999999999994
sS'YBL075C'
p3261
F519
sS'YPR122W'
p3262
F0.049000000000000002
sS'YMR006C'
p3263
F5.5199999999999996
sS'YOR159C'
p3264
F0.68200000000000005
sS'YML020W'
p3265
F0.40999999999999998
sS'YGL020C'
p3266
F34.100000000000001
sS'YOR160W'
p3267
F4.4400000000000004
sS'YMR083W'
p3268
F760
sS'YOR294W'
p3269
F127
sS'YEL062W'
p3270
F0.81200000000000006
sS'YMR261C'
p3271
F48.299999999999997
sS'YMR112C'
p3272
F20.300000000000001
sS'YER138C'
p3273
F15.199999999999999
sS'YPR031W'
p3274
F0.192
sS'YBR006W'
p3275
F30
sS'YLR038C'
p3276
F265
sS'YPR085C'
p3277
F0.32000000000000001
sS'YJR012C'
p3278
F8.3200000000000003
sS'YNL096C'
p3279
F1577
sS'YLR187W'
p3280
F3.7200000000000002
sS'YNL212W'
p3281
F7.6699999999999999
sS'YCR036W'
p3282
F3.9500000000000002
sS'YDR038C'
p3283
F5.21
sS'YGR287C'
p3284
F0.111
sS'YER015W'
p3285
F150
sS'YKR095W-A'
p3286
F31.600000000000001
sS'YMR216C'
p3287
F11.699999999999999
sS'YML006C'
p3288
F1.27
sS'YCL061C'
p3289
F1.21
sS'YDR439W'
p3290
F4.4699999999999998
sS'YOR099W'
p3291
F105
sS'YBR024W'
p3292
F3.3599999999999999
sS'YDR502C'
p3293
F1222
sS'YGR065C'
p3294
F0.064000000000000001
sS'YLR401C'
p3295
F23.600000000000001
sS'YLR125W'
p3296
F1.1799999999999999
sS'YER171W'
p3297
F25.199999999999999
sS'YDL047W'
p3298
F36.799999999999997
sS'YGR247W'
p3299
F3.1699999999999999
sS'YDR101C'
p3300
F119
sS'YHR079C'
p3301
F0.19900000000000001
sS'YLR245C'
p3302
F15.800000000000001
sS'YPR026W'
p3303
F1.5900000000000001
sS'YML046W'
p3304
F0.42899999999999999
sS'YGL124C'
p3305
F0.624
sS'YDR107C'
p3306
F3.1899999999999999
sS'YLR070C'
p3307
F0.20799999999999999
sS'YDL130W'
p3308
F1806
sS'YMR276W'
p3309
F78.700000000000003
sS'YOL089C'
p3310
F3.3700000000000001
sS'YDL160C-A'
p3311
F33.700000000000003
sS'YEL075C'
p3312
F0.503
sS'YER139C'
p3313
F11.699999999999999
sS'YOL030W'
p3314
F126
sS'YPL245W'
p3315
F6.5800000000000001
sS'YMR094W'
p3316
F1.6599999999999999
sS'YLR138W'
p3317
F2.1699999999999999
sS'YNL190W'
p3318
F0.439
sS'YLR016C'
p3319
F0.94499999999999995
sS'YGL027C'
p3320
F29.199999999999999
sS'YJR099W'
p3321
F11.199999999999999
sS'YML045W-A'
p3322
F32.5
sS'YKL027W'
p3323
F33.100000000000001
sS'YJL173C'
p3324
F193
sS'YFL039C'
p3325
F3164
sS'YHR199C'
p3326
F64.099999999999994
sS'YDL033C'
p3327
F0.67200000000000004
sS'YDL090C'
p3328
F1.3400000000000001
sS'YMR061W'
p3329
F9.8000000000000007
sS'YJL128C'
p3330
F15.800000000000001
sS'YJR002W'
p3331
F37.5
sS'YDL145C'
p3332
F381
sS'YER019C-A'
p3333
F22.899999999999999
sS'YGR260W'
p3334
F4.4199999999999999
sS'YKL127W'
p3335
F113
sS'YNL061W'
p3336
F139
sS'YKR021W'
p3337
F1.0900000000000001
sS'YDR398W'
p3338
F18.300000000000001
sS'YOR307C'
p3339
F0.31900000000000001
sS'YFL014W'
p3340
F2667
sS'YDR457W'
p3341
F7.8600000000000003
sS'YLR386W'
p3342
F4.6900000000000004
sS'YIL135C'
p3343
F4.7300000000000004
sS'YLR371W'
p3344
F0.80900000000000005
sS'YDR261C'
p3345
F14
sS'YMR005W'
p3346
F31
sS'YDR370C'
p3347
F0.11700000000000001
sS'YLR262C'
p3348
F41.799999999999997
sS'YLR028C'
p3349
F168
sS'YNL121C'
p3350
F223
sS'YDR087C'
p3351
F92.900000000000006
sS'YIL133C'
p3352
F1792
sS'YPR135W'
p3353
F7.5199999999999996
sS'YBR081C'
p3354
F16.399999999999999
sS'YPL175W'
p3355
F0.68999999999999995
sS'YDL237W'
p3356
F28.5
sS'YLR092W'
p3357
F0.82199999999999995
sS'YJL166W'
p3358
F83.200000000000003
sS'YDR072C'
p3359
F0.44700000000000001
sS'YER044C'
p3360
F43.799999999999997
sS'YMR072W'
p3361
F1180
sS'YLR248W'
p3362
F70.700000000000003
sS'YOR283W'
p3363
F57.799999999999997
sS'YJL102W'
p3364
F2.1899999999999999
sS'YKL105C'
p3365
F2.7200000000000002
sS'YML012W'
p3366
F228
sS'YBR249C'
p3367
F956
sS'YNL181W'
p3368
F11.5
sS'YDL087C'
p3369
F5.0099999999999998
sS'YDL245C'
p3370
F0.066000000000000003
sS'YGL011C'
p3371
F167
sS'YOL009C'
p3372
F1.0700000000000001
sS'YHL023C'
p3373
F0.28499999999999998
sS'YDR352W'
p3374
F3.27
sS'YKL129C'
p3375
F12.800000000000001
sS'YDR163W'
p3376
F9.6099999999999994
sS'YML051W'
p3377
F0.499
sS'YDR238C'
p3378
F106
sS'YOR173W'
p3379
F30.399999999999999
sS'YOR104W'
p3380
F6.6500000000000004
sS'YMR122W-A'
p3381
F1.98
sS'YCR098C'
p3382
F2.48
sS'YPL026C'
p3383
F1.6899999999999999
sS'YFR031C-A'
p3384
F1745
sS'YLR389C'
p3385
F22.600000000000001
sS'YDR243C'
p3386
F0.91000000000000003
sS'YHR082C'
p3387
F19.100000000000001
sS'YPL091W'
p3388
F250
sS'YIL030C'
p3389
F11.4
sS'YGR109W-B'
p3390
F5.4800000000000004
sS'YGR109W-A'
p3391
F36.799999999999997
sS'YEL076C-A'
p3392
F0.316
sS'YPL017C'
p3393
F1.55
sS'YPR168W'
p3394
F20.600000000000001
sS'YJL048C'
p3395
F0.159
sS'YPR113W'
p3396
F72.200000000000003
sS'YKL161C'
p3397
F3.3300000000000001
sS'YKR036C'
p3398
F4.9699999999999998
sS'YGL050W'
p3399
F10.800000000000001
sS'YBR251W'
p3400
F5.7800000000000002
sS'YIR035C'
p3401
F22.199999999999999
sS'YJL110C'
p3402
F0.66300000000000003
sS'YMR234W'
p3403
F4.4900000000000002
sS'YIR008C'
p3404
F32.5
sS'YLR240W'
p3405
F1.3300000000000001
sS'YOR039W'
p3406
F140
sS'YBL035C'
p3407
F5.1200000000000001
sS'YIL040W'
p3408
F27.300000000000001
sS'YDR471W'
p3409
F2797
sS'YGR135W'
p3410
F163
sS'YGL166W'
p3411
F18.600000000000001
sS'YGL219C'
p3412
F0.184
sS'YOR040W'
p3413
F0.89100000000000001
sS'YAL051W'
p3414
F1.1699999999999999
sS'YDR036C'
p3415
F4.75
sS'YGR125W'
p3416
F5.1699999999999999
sS'YHR114W'
p3417
F10.5
sS'YGL080W'
p3418
F8.6799999999999997
sS'YKL138C-A'
p3419
F7.0800000000000001
sS'YPL140C'
p3420
F8.3599999999999994
sS'YLR449W'
p3421
F55.200000000000003
sS'YNL136W'
p3422
F1.6399999999999999
sS'YKL049C'
p3423
F7.0099999999999998
sS'YDR293C'
p3424
F29.600000000000001
sS'YHR138C'
p3425
F55.299999999999997
sS'YBR155W'
p3426
F51.200000000000003
sS'YJR080C'
p3427
F17.699999999999999
sS'YNR038W'
p3428
F8.6300000000000008
sS'YIR024C'
p3429
F0.35099999999999998
sS'YGL140C'
p3430
F2.1800000000000002
sS'YCL029C'
p3431
F1.4299999999999999
sS'YGR169C-A'
p3432
F295
sS'YML123C'
p3433
F174
sS'YPR189W'
p3434
F9.5399999999999991
sS'YLR239C'
p3435
F1.8300000000000001
sS'YJL160C'
p3436
F2.27
sS'YGL079W'
p3437
F3.9300000000000002
sS'YAL017W'
p3438
F4.6500000000000004
sS'YJR024C'
p3439
F16.300000000000001
sS'YFL038C'
p3440
F388
sS'YDR325W'
p3441
F6.0300000000000002
sS'YIL056W'
p3442
F8.1300000000000008
sS'YLR083C'
p3443
F22.600000000000001
sS'YNL029C'
p3444
F0.122
sS'YBR142W'
p3445
F15.4
sS'YOR231W'
p3446
F0.25600000000000001
sS'YNL077W'
p3447
F1.23
sS'YHR166C'
p3448
F7.1600000000000001
sS'YGR175C'
p3449
F124
sS'YJR131W'
p3450
F5.3799999999999999
sS'YIR017C'
p3451
F4.9299999999999997
sS'YKL047W'
p3452
F5.4400000000000004
sS'YIL128W'
p3453
F15.1
sS'YFL004W'
p3454
F62.200000000000003
sS'YKL187C'
p3455
F6.8499999999999996
sS'YKL096W'
p3456
F63.799999999999997
sS'YBR108W'
p3457
F7.4699999999999998
sS'YKL172W'
p3458
F65.900000000000006
sS'YJR137C'
p3459
F70.5
sS'YNR012W'
p3460
F6.0800000000000001
sS'YGL256W'
p3461
F5.0199999999999996
sS'YBR028C'
p3462
F1.02
sS'YBR109C'
p3463
F463
sS'YJL151C'
p3464
F17.199999999999999
sS'YER113C'
p3465
F1.51
sS'YNL110C'
p3466
F29.399999999999999
sS'YNL076W'
p3467
F3.1400000000000001
sS'YLR182W'
p3468
F14.300000000000001
sS'YPL059W'
p3469
F185
sS'YBR173C'
p3470
F0.97399999999999998
sS'YDR424C'
p3471
F19.600000000000001
sS'YIL064W'
p3472
F8.4700000000000006
sS'YDR012W'
p3473
F3092
sS'YDR346C'
p3474
F134
sS'YHR021C'
p3475
F1426
sS'YLL060C'
p3476
F9.3000000000000007
sS'YGL253W'
p3477
F2361
sS'YPR178W'
p3478
F1.4199999999999999
sS'YHL032C'
p3479
F0.68799999999999994
sS'YMR308C'
p3480
F83.900000000000006
sS'YIL088C'
p3481
F0.90600000000000003
sS'YCR071C'
p3482
F6.0099999999999998
sS'YOR271C'
p3483
F257
sS'YBR292C'
p3484
F0.441
sS'YOL125W'
p3485
F1.7
sS'YGR133W'
p3486
F9.9700000000000006
sS'YNL097C'
p3487
F1.5800000000000001
sS'YNL259C'
p3488
F133
sS'YOR337W'
p3489
F7.3399999999999999
sS'YHR143W-A'
p3490
F376
sS'YML101C'
p3491
F23.5
sS'YHR118C'
p3492
F6.79
sS'YNL099C'
p3493
F11.4
sS'YGR048W'
p3494
F11.4
sS'YNL260C'
p3495
F1.6299999999999999
sS'YGR024C'
p3496
F0.78700000000000003
sS'YOL023W'
p3497
F0.46999999999999997
sS'YHL024W'
p3498
F0.27200000000000002
sS'YOR234C'
p3499
F1716
sS'YDR378C'
p3500
F86.299999999999997
sS'YHL003C'
p3501
F11.5
sS'YDR034C-D'
p3502
F1.5700000000000001
sS'YER154W'
p3503
F22.199999999999999
sS'YOR371C'
p3504
F2.0699999999999998
sS'YDR034C-C'
p3505
F2.0600000000000001
sS'YEL036C'
p3506
F7.6699999999999999
sS'YBR260C'
p3507
F3
sS'YHR010W'
p3508
F3450
sS'YDR400W'
p3509
F0.40100000000000002
sS'YJR104C'
p3510
F2343
sS'YGR197C'
p3511
F0.099000000000000005
sS'YFR043C'
p3512
F0.86099999999999999
sS'YAL042W'
p3513
F76.799999999999997
sS'YLR056W'
p3514
F89.599999999999994
sS'YIL008W'
p3515
F29.5
sS'YOR357C'
p3516
F11.699999999999999
sS'YNL069C'
p3517
F3207
sS'YFR038W'
p3518
F1.7
sS'YNL286W'
p3519
F8.3000000000000007
sS'YDR001C'
p3520
F28.899999999999999
sS'YIL162W'
p3521
F21.300000000000001
sS'YOL141W'
p3522
F1.72
sS'YGR080W'
p3523
F41.5
sS'YOL109W'
p3524
F1939
sS'YBL011W'
p3525
F6.9500000000000002
sS'YFR024C-A'
p3526
F34
sS'YDR183W'
p3527
F2.5
sS'YIL039W'
p3528
F6.5899999999999999
sS'YDR138W'
p3529
F16.199999999999999
sS'YHR129C'
p3530
F0.92700000000000005
sS'YOR317W'
p3531
F326
sS'YIR003W'
p3532
F25.399999999999999
sS'YBR255C-A'
p3533
F5.3799999999999999
sS'YDL079C'
p3534
F0.039
sS'YGR033C'
p3535
F5.7199999999999998
sS'YGR161C-C'
p3536
F44.5
sS'YGR161C-D'
p3537
F11.800000000000001
sS'YML130C'
p3538
F140
sS'YMR315W'
p3539
F237
sS'YLR328W'
p3540
F6.1100000000000003
sS'YPL271W'
p3541
F324
sS'YGL153W'
p3542
F26.800000000000001
sS'YNL291C'
p3543
F0.16400000000000001
sS'YHR218W'
p3544
F0.41699999999999998
sS'YDR384C'
p3545
F139
sS'YLR039C'
p3546
F3.27
sS'YML007W'
p3547
F25.5
sS'YJR010C-A'
p3548
F42.200000000000003
sS'YER063W'
p3549
F193
sS'YDR481C'
p3550
F69.200000000000003
sS'YER014W'
p3551
F3.71
sS'YAL027W'
p3552
F0.82499999999999996
sS'YMR171C'
p3553
F2.2200000000000002
sS'YPR041W'
p3554
F278
sS'YER172C'
p3555
F1.1200000000000001
sS'YCR019W'
p3556
F0.44900000000000001
sS'YNL180C'
p3557
F14.800000000000001
sS'YCR042C'
p3558
F10.1
sS'YNL213C'
p3559
F1.6200000000000001
sS'YOR185C'
p3560
F570
sS'YOR244W'
p3561
F11.1
sS'YEL003W'
p3562
F12.1
sS'YGL037C'
p3563
F432
sS'YBR058C'
p3564
F11.1
sS'YPL244C'
p3565
F0.434
sS'YLR024C'
p3566
F0.39600000000000002
sS'YLR071C'
p3567
F14.300000000000001
sS'YHR092C'
p3568
F18
sS'YGL049C'
p3569
F43
sS'YMR259C'
p3570
F8.8000000000000007
sS'YMR019W'
p3571
F6.6600000000000001
sS'YMR148W'
p3572
F8.7100000000000009
sS'YFL034C-A'
p3573
F207
sS'YDR434W'
p3574
F31.100000000000001
sS'YOR145C'
p3575
F26.800000000000001
sS'YFL034C-B'
p3576
F19.100000000000001
sS'YPR052C'
p3577
F478
sS'YMR121C'
p3578
F2116
sS'YPR025C'
p3579
F17.300000000000001
sS'YCL019W'
p3580
F1.95
sS'YBR087W'
p3581
F29.800000000000001
sS'YLR006C'
p3582
F6.3399999999999999
sS'YDR330W'
p3583
F4.3399999999999999
sS'YER149C'
p3584
F5.5499999999999998
sS'Q0085'
p3585
F133
sS'YER114C'
p3586
F4.6699999999999999
sS'YOR375C'
p3587
F1245
sS'YDR057W'
p3588
F1.46
sS'YPR190C'
p3589
F36.399999999999999
sS'YOR128C'
p3590
F130
sS'YHR107C'
p3591
F115
sS'YAR002W'
p3592
F17.699999999999999
sS'YHR127W'
p3593
F2.3900000000000001
sS'YHL048W'
p3594
F0.96499999999999997
sS'YOR262W'
p3595
F9.9900000000000002
sS'YDL048C'
p3596
F0.41499999999999998
sS'YDR365W-A'
p3597
F55.700000000000003
sS'YEL056W'
p3598
F33.700000000000003
sS'YDR026C'
p3599
F0.63600000000000001
sS'YMR272C'
p3600
F51.899999999999999
sS'YAL022C'
p3601
F1.02
sS'YER083C'
p3602
F45.799999999999997
sS'YAR073W'
p3603
F134
sS'YLR066W'
p3604
F18.199999999999999
sS'YDR514C'
p3605
F0.34200000000000003
sS'YDR383C'
p3606
F12.9
sS'YDL103C'
p3607
F81
sS'YOR253W'
p3608
F87.5
sS'YMR125W'
p3609
F46.700000000000003
sS'YOR202W'
p3610
F42.799999999999997
sS'YDR033W'
p3611
F471
sS'YGL245W'
p3612
F854
sS'YNL273W'
p3613
F0.35799999999999998
sS'YCR051W'
p3614
F115
sS'YDR452W'
p3615
F6.9000000000000004
sS'YOL012C'
p3616
F158
sS'YPL219W'
p3617
F2.6899999999999999
sS'YPL262W'
p3618
F189
sS'YGR006W'
p3619
F1.48
sS'YDL119C'
p3620
F7.6699999999999999
sS'YPR203W'
p3621
F0.187
sS'YNL182C'
p3622
F50.600000000000001
sS'YPL020C'
p3623
F2.3900000000000001
sS'YNR053C'
p3624
F60.5
sS'YGL028C'
p3625
F32.200000000000003
sS'YER045C'
p3626
F1.55
sS'YKL151C'
p3627
F17.800000000000001
sS'YLR289W'
p3628
F0.23300000000000001
sS'YNL040W'
p3629
F9.9900000000000002
sS'YOR284W'
p3630
F0.68300000000000005
sS'YDL086W'
p3631
F137
sS'YCL040W'
p3632
F456
sS'YBL091C-A'
p3633
F0.36899999999999999
sS'YOR163W'
p3634
F25.300000000000001
sS'YLR422W'
p3635
F1.0800000000000001
sS'YLR093C'
p3636
F33
sS'YIR031C'
p3637
F7.7400000000000002
sS'YDR073W'
p3638
F0.83799999999999997
sS'YLR361C-A'
p3639
F22.600000000000001
sS'YJR065C'
p3640
F272
sS'YNL042W'
p3641
F3.3900000000000001
sS'YKR093W'
p3642
F16.600000000000001
sS'YNL308C'
p3643
F39.100000000000001
sS'YMR030W'
p3644
F7.6299999999999999
sS'YPL010W'
p3645
F112
sS'YOR022C'
p3646
F1.54
sS'YOR198C'
p3647
F717
sS'YHR058C'
p3648
F17.800000000000001
sS'YMR056C'
p3649
F34.700000000000003
sS'YDR239C'
p3650
F2.48
sS'YJR049C'
p3651
F7.5
sS'YHR216W'
p3652
F200
sS'YML085C'
p3653
F302
sS'YML069W'
p3654
F59.600000000000001
sS'YKR019C'
p3655
F0.53700000000000003
sS'YJL099W'
p3656
F0.97199999999999998
sS'YPR169W'
p3657
F18.800000000000001
sS'YDR242W'
p3658
F0.16800000000000001
sS'YLR175W'
p3659
F390
sS'YNL166C'
p3660
F26.600000000000001
sS'YDR064W'
p3661
F2496
sS'YMR275C'
p3662
F3.9399999999999999
sS'YPR158W-A'
p3663
F43.5
sS'YBL056W'
p3664
F66.299999999999997
sS'YLR456W'
p3665
F0.39100000000000001
sS'YOR192C'
p3666
F0.59799999999999998
sS'YER052C'
p3667
F319
sS'YLR427W'
p3668
F13.699999999999999
sS'YPR158W-B'
p3669
F12.4
sS'YLL015W'
p3670
F5
sS'YMR202W'
p3671
F359
sS'YJL074C'
p3672
F14.699999999999999
sS'YJL138C'
p3673
F884
sS'YER003C'
p3674
F310
sS'YHR104W'
p3675
F184
sS'YKR077W'
p3676
F0.624
sS'YDL149W'
p3677
F0.63100000000000001
sS'YDR173C'
p3678
F4.3799999999999999
sS'YGL254W'
p3679
F0.92300000000000004
sS'YCL057W'
p3680
F46.100000000000001
sS'YJL025W'
p3681
F0.73699999999999999
sS'YLR413W'
p3682
F40.200000000000003
sS'YBR072W'
p3683
F947
sS'YBR005W'
p3684
F4.0199999999999996
sS'YBR029C'
p3685
F10
sS'YMR262W'
p3686
F4.2999999999999998
sS'YPR063C'
p3687
F183
sS'YLR153C'
p3688
F506
sS'YEL063C'
p3689
F1.3899999999999999
sS'YBL076C'
p3690
F614
sS'YMR113W'
p3691
F2.9700000000000002
sS'YKL001C'
p3692
F77.799999999999997
sS'YMR297W'
p3693
F250
sS'YLR128W'
p3694
F1.52
sS'YKR068C'
p3695
F18.600000000000001
sS'YGL067W'
p3696
F13.199999999999999
sS'YML021C'
p3697
F2.02
sS'YGL021W'
p3698
F0.42699999999999999
sS'YPR032W'
p3699
F13.5
sS'YDL173W'
p3700
F17.399999999999999
sS'YJR027W'
p3701
F13.5
sS'YBR143C'
p3702
F381
sS'YJR047C'
p3703
F305
sS'YDR086C'
p3704
F196
sS'YHR072W-A'
p3705
F345
sS'YJR130C'
p3706
F8.4399999999999995
sS'YJL062W-A'
p3707
F12.300000000000001
sS'YPL072W'
p3708
F0.125
sS'YAL016W'
p3709
F71.599999999999994
sS'YMR292W'
p3710
F0.996
sS'YPR112C'
p3711
F28
sS'YBR061C'
p3712
F9.0899999999999999
sS'YJL134W'
p3713
F1.0600000000000001
sS'YKL146W'
p3714
F2.2799999999999998
sS'YDR449C'
p3715
F8.4900000000000002
sS'YKL156W'
p3716
F1424
sS'YJL019W'
p3717
F2.9500000000000002
sS'YLR081W'
p3718
F2.7599999999999998
sS'YNR039C'
p3719
F1.8999999999999999
sS'YBR010W'
p3720
F1806
sS'YKL080W'
p3721
F245
sS'YPL152W'
p3722
F0.86199999999999999
sS'YBL099W'
p3723
F773
sS'YLR183C'
p3724
F0.16700000000000001
sS'YDR063W'
p3725
F42.600000000000001
sS'YGL224C'
p3726
F25.899999999999999
sS'YKL186C'
p3727
F22.399999999999999
sS'YGL123W'
p3728
F5045
sS'YPL064C'
p3729
F8.5800000000000001
sS'YHR070W'
p3730
F15.6
sS'YBR175W'
p3731
F59.600000000000001
sS'YNR013C'
p3732
F14
sS'YHR073W'
p3733
F4.3700000000000001
sS'YBR172C'
p3734
F7.0599999999999996
sS'YIR022W'
p3735
F42.5
sS'YJL172W'
p3736
F96.200000000000003
sS'YAR002C-A'
p3737
F98.700000000000003
sS'YBL078C'
p3738
F15.9
sS'YHR083W'
p3739
F0.50900000000000001
sS'YNL222W'
p3740
F9.5
sS'YOL101C'
p3741
F0.45800000000000002
sS'YFR039C'
p3742
F2.0800000000000001
sS'YKR042W'
p3743
F118
sS'YKL160W'
p3744
F11.800000000000001
sS'YOL077W-A'
p3745
F53.600000000000001
sS'YPL029W'
p3746
F1.6000000000000001
sS'YBR236C'
p3747
F9.6600000000000001
sS'YDL091C'
p3748
F1.6599999999999999
sS'YCL027W'
p3749
F3.8999999999999999
sS'YMR066W'
p3750
F66.599999999999994
sS'YHR198C'
p3751
F3.6800000000000002
sS'YKL024C'
p3752
F177
sS'YGL196W'
p3753
F15
sS'YKL126W'
p3754
F30.800000000000001
sS'YKL011C'
p3755
F6.5999999999999996
sS'YJL129C'
p3756
F0.084000000000000005
sS'YLR209C'
p3757
F31.5
sS'YHR158C'
p3758
F30.800000000000001
sS'YIR005W'
p3759
F4.8200000000000003
sS'YDR264C'
p3760
F9.3699999999999992
sS'YJL225C'
p3761
F0.33100000000000002
sS'YER137C-A'
p3762
F55.700000000000003
sS'YKL064W'
p3763
F1.8400000000000001
sS'YLR265C'
p3764
F0.23899999999999999
sS'YKR022C'
p3765
F0.94799999999999995
sS'YNL035C'
p3766
F25.600000000000001
sS'YMR026C'
p3767
F4.0599999999999996
sS'YPL016W'
p3768
F5.5899999999999999
sS'YPL061W'
p3769
F2500
sS'YLR370C'
p3770
F97.099999999999994
sS'YNL177C'
p3771
F18.300000000000001
sS'YDR343C'
p3772
F84.200000000000003
sS'YDR326C'
p3773
F1.6399999999999999
sS'YLR387C'
p3774
F9.25
sS'YLR250W'
p3775
F18
sS'YAL034C'
p3776
F0.71099999999999997
sS'YML103C'
p3777
F12.800000000000001
sS'YKL122C'
p3778
F93.900000000000006
sS'YHR011W'
p3779
F2.0099999999999998
sS'YAL043C'
p3780
F16.199999999999999
sS'YOL093W'
p3781
F3.3399999999999999
sS'YIL078W'
p3782
F479
sS'YOL042W'
p3783
F2.0099999999999998
sS'YLR425W'
p3784
F0.13800000000000001
sS'YHR146W'
p3785
F135
sS'YPL125W'
p3786
F5.2400000000000002
sS'YIL070C'
p3787
F161
sS'YCL037C'
p3788
F204
sS'YHL020C'
p3789
F5.4699999999999998
sS'YGR081C'
p3790
F29.899999999999999
sS'YDR289C'
p3791
F32.200000000000003
sS'YOR054C'
p3792
F9.4499999999999993
sS'YFR042W'
p3793
F3.23
sS'YHR076W'
p3794
F22.899999999999999
sS'YIL052C'
p3795
F2262
sS'YOR354C'
p3796
F9.6099999999999994
sS'YOR157C'
p3797
F222
sS'YJL039C'
p3798
F23.100000000000001
sS'YOR036W'
p3799
F2.1499999999999999
sS'YJR090C'
p3800
F1.5600000000000001
sS'YML131W'
p3801
F22.600000000000001
sS'YDR395W'
p3802
F48.600000000000001
sS'YGL150C'
p3803
F22.899999999999999
sS'YNL209W'
p3804
F2671
sS'YGL040C'
p3805
F130
sS'YJR145C'
p3806
F3340
sS'YNL292W'
p3807
F55.600000000000001
sS'YLR305C'
p3808
F6.4800000000000004
sS'YDR171W'
p3809
F103
sS'YBR194W'
p3810
F8.2899999999999991
sS'YGR179C'
p3811
F5.7400000000000002
sS'YOL108C'
p3812
F28.699999999999999
sS'YJL092W'
p3813
F0.060999999999999999
sS'YMR316W'
p3814
F2.2799999999999998
sS'YOL140W'
p3815
F319
sS'YAL023C'
p3816
F105
sS'YNR009W'
p3817
F2.3100000000000001
sS'YNL148C'
p3818
F0.81499999999999995
sS'YIL138C'
p3819
F379
sS'YCL045C'
p3820
F25.100000000000001
sS'YJR127C'
p3821
F1.27
sS'YNL330C'
p3822
F21.699999999999999
sS'YGL223C'
p3823
F2.2799999999999998
sS'YGR184C'
p3824
F4.4299999999999997
sS'YIL143C'
p3825
F7.4199999999999999
sS'YGR092W'
p3826
F9.0500000000000007
sS'YKR030W'
p3827
F0.59699999999999998
sS'YKL002W'
p3828
F16.899999999999999
sS'YJL207C'
p3829
F1.22
sS'YLR247C'
p3830
F1.8
sS'YOR038C'
p3831
F7.1100000000000003
sS'YOR014W'
p3832
F19.600000000000001
sS'YOR057W'
p3833
F15.9
sS'YIR009W'
p3834
F4.21
sS'YDL189W'
p3835
F4.4000000000000004
sS'YOR362C'
p3836
F281
sS'YAL041W'
p3837
F3.4500000000000002
sS'YLR345W'
p3838
F2.2599999999999998
sS'YKL073W'
p3839
F42
sS'YLR448W'
p3840
F1702
sS'YGR103W'
p3841
F125
sS'YGR032W'
p3842
F66.299999999999997
sS'YHR151C'
p3843
F0.13800000000000001
sS'YDR386W'
p3844
F9.6699999999999999
sS'YJL081C'
p3845
F29.800000000000001
sS'YIL041W'
p3846
F386
sS'YGR178C'
p3847
F17.699999999999999
sS'YDR152W'
p3848
F187
sS'YBR056W-A'
p3849
F8.25
sS'YNL100W'
p3850
F25.699999999999999
sS'YLR078C'
p3851
F16.300000000000001
sS'YBR154C'
p3852
F191
sS'YBR216C'
p3853
F1.25
sS'YNL245C'
p3854
F2.1600000000000001
sS'YGL143C'
p3855
F0.26100000000000001
sS'YLR001C'
p3856
F11.4
sS'YLR126C'
p3857
F10.300000000000001
sS'YJR123W'
p3858
F5057
sS'YOR304C-A'
p3859
F47.299999999999997
sS'YMR318C'
p3860
F282
sS'YCL018W'
p3861
F104
sS'YBR294W'
p3862
F0.078
sS'YKR074W'
p3863
F25.899999999999999
sS'YHR108W'
p3864
F101
sS'YHL011C'
p3865
F155
sS'YDL067C'
p3866
F11
sS'YLR109W'
p3867
F8055
sS'YER111C'
p3868
F2.8799999999999999
sS'YLR227W-B'
p3869
F13.699999999999999
sS'YDR025W'
p3870
F4467
sS'YOL020W'
p3871
F0.27600000000000002
sS'YBR086C'
p3872
F77.599999999999994
sS'YDR135C'
p3873
F33.799999999999997
sS'YBL030C'
p3874
F1942
sS'YMR256C'
p3875
F86.299999999999997
sS'YPL229W'
p3876
F1.29
sS'YMR236W'
p3877
F63
sS'YER148W'
p3878
F115
sS'YGL242C'
p3879
F78.599999999999994
sS'YNL270C'
p3880
F0.23699999999999999
sS'YHL015W'
p3881
F2958
sS'YOR151C'
p3882
F155
sS'YIL087C'
p3883
F92.799999999999997
sS'YLL054C'
p3884
F0.57599999999999996
sS'YLL013C'
p3885
F10.5
sS'YDR472W'
p3886
F6.9000000000000004
sS'YDR313C'
p3887
F0.22900000000000001
sS'YNR024W'
p3888
F25.199999999999999
sS'YMR192W'
p3889
F10.4
sS'YLL021W'
p3890
F20.199999999999999
sS'YER073W'
p3891
F239
sS'YER038C'
p3892
F0.55300000000000005
sS'YCR031C'
p3893
F1911
sS'YLL038C'
p3894
F12.300000000000001
sS'YBR046C'
p3895
F26
sS'YOR056C'
p3896
F25.699999999999999
sS'YDR545W'
p3897
F0.32500000000000001
sS'YDR479C'
p3898
F0.28799999999999998
sS'YIL067C'
p3899
F1.3200000000000001
sS'YNL051W'
p3900
F1.1299999999999999
sS'YHL033C'
p3901
F2728
sS'YOR270C'
p3902
F220
sS'YPL195W'
p3903
F18
sS'YHR020W'
p3904
F716
sS'YOL068C'
p3905
F1.72
sS'YLL006W'
p3906
F2.7799999999999998
sS'YCR068W'
p3907
F2.9199999999999999
sS'YDR363W-A'
p3908
F38.899999999999999
sS'YOL033W'
p3909
F0.89500000000000002
sS'YMR105C'
p3910
F284
sS'YBR238C'
p3911
F0.5
sS'YDR415C'
p3912
F2.1499999999999999
sS'YGL161C'
p3913
F10.4
sS'YPR051W'
p3914
F3.1899999999999999
sS'YOL133W'
p3915
F64.099999999999994
sS'YGR049W'
p3916
F6.1600000000000001
sS'YIL038C'
p3917
F28.5
sS'YNL263C'
p3918
F7.8300000000000001
sS'YKR099W'
p3919
F15.5
sS'YOR096W'
p3920
F3428
sS'YDR538W'
p3921
F0.73799999999999999
sS'YPR137C-B'
p3922
F14.4
sS'YOR312C'
p3923
F1713
sS'YPR115W'
p3924
F3.1800000000000002
sS'YDR128W'
p3925
F0.60399999999999998
sS'YOR193W'
p3926
F0.63400000000000001
sS'YLR410W'
p3927
F38.100000000000001
sS'YER004W'
p3928
F67.299999999999997
sS'YOR144C'
p3929
F0.161
sS'YMR052W'
p3930
F1.04
sS'YOR142W'
p3931
F281
sS'YKR016W'
p3932
F57.5
sS'YMR158W'
p3933
F14.199999999999999
sS'YLR114C'
p3934
F10.800000000000001
sS'YHR044C'
p3935
F5.9100000000000001
sS'YNL194C'
p3936
F0.90000000000000002
sS'YDR105C'
p3937
F0.216
sS'YMR203W'
p3938
F259
sS'YLL036C'
p3939
F17.399999999999999
sS'YBR191W'
p3940
F1276
sS'YDR519W'
p3941
F93.700000000000003
sS'YGR278W'
p3942
F0.38700000000000001
sS'YDL029W'
p3943
F148
sS'YER102W'
p3944
F1666
sS'YKR076W'
p3945
F8.9800000000000004
sS'YDR210W-A'
p3946
F2.2599999999999998
sS'YDR069C'
p3947
F0.56399999999999995
sS'YKL141W'
p3948
F7.7999999999999998
sS'YBL057C'
p3949
F9.3800000000000008
sS'YFR037C'
p3950
F131
sS'YMR175W'
p3951
F2.1099999999999999
sS'YLR034C'
p3952
F18.800000000000001
sS'YPL004C'
p3953
F681
sS'YER019W'
p3954
F19
sS'YHR039C-A'
p3955
F1101
sS'YDR225W'
p3956
F1126
sS'YMR263W'
p3957
F6.2400000000000002
sS'YDR270W'
p3958
F0.68400000000000005
sS'YGL097W'
p3959
F108
sS'YKR069W'
p3960
F3.4399999999999999
sS'YBR008C'
p3961
F6.0599999999999996
sS'YDR172W'
p3962
F309
sS'YDL121C'
p3963
F25.100000000000001
sS'YHR041C'
p3964
F40.299999999999997
sS'YBR211C'
p3965
F7.8799999999999999
sS'YLR129W'
p3966
F26.399999999999999
sS'YPR120C'
p3967
F0.73599999999999999
sS'YPR062W'
p3968
F251
sS'YBL041W'
p3969
F179
sS'YGL127C'
p3970
F4.2599999999999998
sS'YDR528W'
p3971
F0.28499999999999998
sS'YHR219W'
p3972
F0.311
sS'YNR032C-A'
p3973
F33.5
sS'YPR065W'
p3974
F0.76700000000000002
sS'YPR056W'
p3975
F14
sS'YLR150W'
p3976
F1980
sS'YBR026C'
p3977
F95.299999999999997
sS'YMR172W'
p3978
F1.9399999999999999
sS'YNL214W'
p3979
F0.48199999999999998
sS'YDL185W'
p3980
F717
sS'YLR403W'
p3981
F10.4
sS'YBR268W'
p3982
F18.100000000000001
sS'YPR180W'
p3983
F43.700000000000003
sS'YEL013W'
p3984
F126
sS'YDL007W'
p3985
F98.700000000000003
sS'YPR083W'
p3986
F0.75800000000000001
sS'YNL094W'
p3987
F0.128
sS'YGR047C'
p3988
F9.5299999999999994
sS'YDR385W'
p3989
F2269
sS'YDR480W'
p3990
F12.1
sS'YML004C'
p3991
F47.899999999999999
sS'YMR210W'
p3992
F0.68600000000000005
sS'YEL058W'
p3993
F70.200000000000003
sS'YBR256C'
p3994
F179
sS'YLR141W'
p3995
F0.69499999999999995
sS'YPL227C'
p3996
F2.7999999999999998
sS'YDL010W'
p3997
F4.1399999999999997
sS'YLR325C'
p3998
F2977
sS'YLL009C'
p3999
F57.899999999999999
sS'YBR059C'
p4000
F12
sS'YML019W'
p4001
F13
sS'YPR024W'
p4002
F42.399999999999999
sS'YDR493W'
p4003
F21.199999999999999
sS'YMR129W'
p4004
F19.600000000000001
sS'YLR163C'
p4005
F20.899999999999999
sS'YGL036W'
p4006
F0.83699999999999997
sS'YPL247C'
p4007
F18
sS'YMR258C'
p4008
F2.4900000000000002
sS'YDR328C'
p4009
F248
sS'YBR060C'
p4010
F0.61599999999999999
sS'YMR123W'
p4011
F401
sS'YLR072W'
p4012
F0.69399999999999995
sS'YKL167C'
p4013
F2.8100000000000001
sS'YOR181W'
p4014
F3.8300000000000001
sS'YIR023W'
p4015
F4.3200000000000003
sS'YBL095W'
p4016
F1.6200000000000001
sS'YDL092W'
p4017
F40.200000000000003
sS'YKR043C'
p4018
F270
sS'YGR244C'
p4019
F97.5
sS'YMR067C'
p4020
F7.5899999999999999
sS'YJL011C'
p4021
F17.699999999999999
sS'YHR148W'
p4022
F15.800000000000001
sS'YDL143W'
p4023
F399
sS'YKL138C'
p4024
F5.4100000000000001
sS'YBL079W'
p4025
F23.899999999999999
sS'YNL056W'
p4026
F0.72099999999999997
sS'YCR092C'
p4027
F5.5800000000000001
sS'YDR347W'
p4028
F40.5
sS'YFL001W'
p4029
F2.2599999999999998
sS'YDR150W'
p4030
F21.5
sS'YAL036C'
p4031
F70.299999999999997
sS'YMR167W'
p4032
F0.98599999999999999
sS'YGL212W'
p4033
F5.4400000000000004
sS'YPL188W'
p4034
F28.300000000000001
sS'YMR027W'
p4035
F44.799999999999997
sS'YPL173W'
p4036
F2.6499999999999999
sS'YNL132W'
p4037
F66.799999999999997
sS'YKL125W'
p4038
F0.28100000000000003
sS'YPR060C'
p4039
F172
sS'YKL170W'
p4040
F16
sS'YKR023W'
p4041
F6.3099999999999996
sS'YNL036W'
p4042
F43.899999999999999
sS'YOR115C'
p4043
F8.4700000000000006
sS'YCR033W'
p4044
F4.4900000000000002
sS'YKL038W'
p4045
F0.624
sS'YJR025C'
p4046
F119
sS'YPR137C-A'
p4047
F53.299999999999997
sS'YMR296C'
p4048
F90.700000000000003
sS'YDR267C'
p4049
F11.699999999999999
sS'YLR286C'
p4050
F27.899999999999999
sS'YNL016W'
p4051
F277
sS'YJL208C'
p4052
F5.3499999999999996
sS'YLR384C'
p4053
F45
sS'YDR307W'
p4054
F0.28100000000000003
sS'YBR208C'
p4055
F21.399999999999999
sS'YML099C'
p4056
F0.68799999999999994
sS'YOR162C'
p4057
F1.3700000000000001
sS'YLR421C'
p4058
F164
sS'YMR145C'
p4059
F186
sS'YDR161W'
p4060
F39
sS'YMR110C'
p4061
F30.899999999999999
sS'YDL212W'
p4062
F29.699999999999999
sS'YCR035C'
p4063
F12.4
sS'YJR064W'
p4064
F188
sS'YGL128C'
p4065
F1.6299999999999999
sS'YDR496C'
p4066
F73.700000000000003
sS'YOR285W'
p4067
F265
sS'YHR077C'
p4068
F1.8700000000000001
sS'YJL002C'
p4069
F62.600000000000001
sS'YML022W'
p4070
F346
sS'YCR065W'
p4071
F0.82199999999999995
sS'YOR298C-A'
p4072
F1248
sS'YLR288C'
p4073
F0.873
sS'YPR159W'
p4074
F49.600000000000001
sS'YIR030C'
p4075
F2.2799999999999998
sS'YDR074W'
p4076
F83.299999999999997
sS'YKL107W'
p4077
F0.191
sS'YPL079W'
p4078
F1090
sS'YAL035W'
p4079
F262
sS'YHR059W'
p4080
F10.6
sS'YPR075C'
p4081
F6.6399999999999997
sS'YGL137W'
p4082
F220
sS'YDR375C'
p4083
F2.5
sS'YDL085W'
p4084
F0.27900000000000003
sS'YPL011C'
p4085
F11.300000000000001
sS'YFL049W'
p4086
F6.0099999999999998
sS'YPR184W'
p4087
F8.0800000000000001
sS'YKR018C'
p4088
F26.600000000000001
sS'YNL309W'
p4089
F2.2200000000000002
sS'YER099C'
p4090
F17.100000000000001
sS'YDL150W'
p4091
F30.5
sS'YJR048W'
p4092
F185
sS'YHR186C'
p4093
F3.7799999999999998
sS'YLR174W'
p4094
F28.199999999999999
sS'YNL038W'
p4095
F0.79100000000000004
sS'YKL003C'
p4096
F11.9
sS'YAL053W'
p4097
F4.8399999999999999
sS'YNL149C'
p4098
F60.799999999999997
sS'YBR218C'
p4099
F205
sS'YGL095C'
p4100
F5.9000000000000004
sS'YBR257W'
p4101
F0.40899999999999997
sS'YHR001W-A'
p4102
F43.100000000000001
sS'YBR188C'
p4103
F1.1799999999999999
sS'YOR215C'
p4104
F97.400000000000006
sS'YPL028W'
p4105
F802
sS'YNR008W'
p4106
F3.8100000000000001
sS'YMR321C'
p4107
F119
sS'YIL079C'
p4108
F3.7599999999999998
sS'YHR069C'
p4109
F14.199999999999999
sS'YDR329C'
p4110
F2.8900000000000001
sS'YGL180W'
p4111
F2.52
sS'YIL142W'
p4112
F194
sS'YFR025C'
p4113
F5.6100000000000003
sS'YLR195C'
p4114
F48.899999999999999
sS'YOR017W'
p4115
F2.1099999999999999
sS'YDL035C'
p4116
F0.106
sS'YJL140W'
p4117
F104
sS'YDR473C'
p4118
F0.878
sS'YCR020W-B'
p4119
F121
sS'YNL009W'
p4120
F65.099999999999994
sS'YGL082W'
p4121
F21.899999999999999
sS'YHR002W'
p4122
F0.192
sS'YPL146C'
p4123
F15.199999999999999
sS'YKL072W'
p4124
F0.13400000000000001
sS'YPL139C'
p4125
F7.6900000000000004
sS'YNL138W'
p4126
F356
sS'YPL100W'
p4127
F2.5699999999999998
sS'YPR098C'
p4128
F0.51400000000000001
sS'YNR065C'
p4129
F0.51500000000000001
sS'YJL071W'
p4130
F1.8100000000000001
sS'YDL236W'
p4131
F97.099999999999994
sS'YJL080C'
p4132
F352
sS'YIL046W'
p4133
F37.100000000000001
sS'YAL066W'
p4134
F0.70499999999999996
sS'YML005W'
p4135
F1.75
sS'YGL142C'
p4136
F0.40500000000000003
sS'YFR009W'
p4137
F62.799999999999997
sS'YKR096W'
p4138
F1.04
sS'YHR150W'
p4139
F0.46600000000000003
sS'YGR102C'
p4140
F1.3500000000000001
sS'YDR081C'
p4141
F15.5
sS'YJL137C'
p4142
F4.7199999999999998
sS'YCR102C'
p4143
F0.54100000000000004
sS'YKL065C'
p4144
F91.099999999999994
sS'YIL173W'
p4145
F0.45300000000000001
sS'YMR286W'
p4146
F19.699999999999999
sS'YBR139W'
p4147
F16.100000000000001
sS'YBR115C'
p4148
F35.600000000000001
sS'YBR140C'
p4149
F0.52000000000000002
sS'YDR448W'
p4150
F15.6
sS'YBR189W'
p4151
F2532
sS'YJR111C'
p4152
F16.100000000000001
sS'YHR085W'
p4153
F7.5499999999999998
sS'YHR188C'
p4154
F22.199999999999999
sS'YMR208W'
p4155
F71.099999999999994
sS'YGR093W'
p4156
F5.9500000000000002
sS'YLR315W'
p4157
F1.6399999999999999
sS'YLR291C'
p4158
F30.300000000000001
sS'YFL023W'
p4159
F12.699999999999999
sS'YOR184W'
p4160
F472
sS'YPL189C-A'
p4161
F8.9900000000000002
sS'YHR164C'
p4162
F0.375
sS'YKL081W'
p4163
F1065
sS'YDR092W'
p4164
F40.399999999999999
sS'YNL139C'
p4165
F10.6
sS'YPL108W'
p4166
F0.60399999999999998
sS'YDR361C'
p4167
F118
sS'YLR462W'
p4168
F0.79000000000000004
sS'YBR171W'
p4169
F20.100000000000001
sS'YNL005C'
p4170
F21.399999999999999
sS'YER173W'
p4171
F0.10299999999999999
sS'YMR162C'
p4172
F0.078
sS'YJL157C'
p4173
F3.5299999999999998
sS'YLR226W'
p4174
F1.1200000000000001
sS'YMR170C'
p4175
F36.600000000000001
sS'YNL070W'
p4176
F25
sS'YCR043C'
p4177
F1.3600000000000001
sS'YBR093C'
p4178
F38.700000000000003
sS'YOL032W'
p4179
F9.3599999999999994
sS'YDR314C'
p4180
F0.54700000000000004
sS'YHR027C'
p4181
F144
sS'YPR139C'
p4182
F12.699999999999999
sS'YMR185W'
p4183
F0.224
sS'YFR007W'
p4184
F1.47
sS'YNL293W'
p4185
F1.78
sS'YKR090W'
p4186
F2.4199999999999999
sS'YLR333C'
p4187
F3128
sS'YNL026W'
p4188
F11.4
sS'YDR365W-B'
p4189
F15
sS'YLR103C'
p4190
F0.433
sS'YOR273C'
p4191
F3.1499999999999999
sS'YPR187W'
p4192
F98.400000000000006
sS'YBR245C'
p4193
F54.600000000000001
sS'YBR200W'
p4194
F4.9100000000000001
sS'YNL262W'
p4195
F1.8500000000000001
sS'YAR028W'
p4196
F9.9399999999999995
sS'YDR079C-A'
p4197
F23.899999999999999
sS'YML107C'
p4198
F0.71899999999999997
sS'YIL083C'
p4199
F30.399999999999999
sS'YGL077C'
p4200
F1.2
sS'YEL018W'
p4201
F8.5099999999999998
sS'YDL193W'
p4202
F12.1
sS'YGR270W'
p4203
F9.0800000000000001
sS'YJR061W'
p4204
F0.065000000000000002
sS'YOL069W'
p4205
F18.300000000000001
sS'YKL184W'
p4206
F1.6499999999999999
sS'YDR412W'
p4207
F4.04
sS'YGL160W'
p4208
F0.49299999999999999
sS'YOL011W'
p4209
F1.26
sS'YBR302C'
p4210
F0.016
sS'YOR091W'
p4211
F43.5
sS'YJL199C'
p4212
F2.8999999999999999
sS'YML125C'
p4213
F117
sS'YGL208W'
p4214
F46.600000000000001
sS'YDL116W'
p4215
F12.300000000000001
sS'YNL233W'
p4216
F3.1200000000000001
sS'YNL284C'
p4217
F15.6
sS'YFR041C'
p4218
F11.1
sS'YOL092W'
p4219
F17.600000000000001
sS'YKL100C'
p4220
F25.399999999999999
sS'YOR355W'
p4221
F9.3399999999999999
sS'YGR086C'
p4222
F763
sS'YPL111W'
p4223
F350
sS'YPL106C'
p4224
F1812
sS'YGR031W'
p4225
F4.7199999999999998
sS'YOL143C'
p4226
F518
sS'YAL034W-A'
p4227
F26.100000000000001
sS'YGR195W'
p4228
F17.199999999999999
sS'YBR237W'
p4229
F0.185
sS'YIL026C'
p4230
F4.0099999999999998
sS'YDR178W'
p4231
F23
sS'YGL151W'
p4232
F16.899999999999999
sS'YBR197C'
p4233
F2.5299999999999998
sS'YCR076C'
p4234
F2.2400000000000002
sS'YHR147C'
p4235
F2.1099999999999999
sS'YOR329C'
p4236
F2.4700000000000002
sS'YJR091C'
p4237
F6.29
sS'YHR038W'
p4238
F8.6699999999999999
sS'YGL058W'
p4239
F32.600000000000001
sS'YKL182W'
p4240
F1148
sS'YGR124W'
p4241
F823
sS'YLR399C'
p4242
F25
sS'YNL231C'
p4243
F64.700000000000003
sS'YPL126W'
p4244
F32.799999999999997
sS'YNL050C'
p4245
F13.800000000000001
sS'YDR311W'
p4246
F13.5
sS'YNL244C'
p4247
F1107
sS'YNR027W'
p4248
F1.3700000000000001
sS'YAL024C'
p4249
F0.41699999999999998
sS'YPL150W'
p4250
F0.065000000000000002
sS'YLR438C-A'
p4251
F33.899999999999999
sS'YFL026W'
p4252
F3.6800000000000002
sS'YJL197W'
p4253
F5.96
sS'YMR213W'
p4254
F0.52100000000000002
sS'YBR233W-A'
p4255
F33.799999999999997
sS'YOR251C'
p4256
F50.299999999999997
sS'YPR181C'
p4257
F203
sS'YCL008C'
p4258
F0.52500000000000002
sS'YEL006W'
p4259
F0.64700000000000002
sS'YBR092C'
p4260
F113
sS'YMR173W'
p4261
F667
sS'YOR393W'
p4262
F10.5
sS'YDR529C'
p4263
F329
sS'YCR075W-A'
p4264
F5.0099999999999998
sS'YDL059C'
p4265
F23.5
sS'YOR204W'
p4266
F522
sS'YEL012W'
p4267
F19.399999999999999
sS'YBL040C'
p4268
F10.300000000000001
sS'YBL113C'
p4269
F0.20699999999999999
sS'YJL012C'
p4270
F215
sS'YPR043W'
p4271
F1645
sS'YDR382W'
p4272
F3728
sS'YDR483W'
p4273
F162
sS'YBL103C'
p4274
F20
sS'YOR219C'
p4275
F1.6299999999999999
sS'YDR505C'
p4276
F6.2300000000000004
sS'YKL206C'
p4277
F15
sS'YHR132W-A'
p4278
F38.5
sS'YIL053W'
p4279
F1726
sS'YIL082W-A'
p4280
F5.8700000000000001
sS'YLR022C'
p4281
F81.299999999999997
sS'YGR068C'
p4282
F1.97
sS'YOR390W'
p4283
F0.11899999999999999
sS'YPL246C'
p4284
F27.5
sS'YOR246C'
p4285
F9.7100000000000009
sS'YPL226W'
p4286
F184
sS'YDR397C'
p4287
F57.700000000000003
sS'YER088C'
p4288
F8.4299999999999997
sS'YLR375W'
p4289
F6.0800000000000001
sS'YGL039W'
p4290
F32.799999999999997
sS'YER183C'
p4291
F1.8799999999999999
sS'YML018C'
p4292
F0.39500000000000002
sS'YEL001C'
p4293
F271
sS'YLR160C'
p4294
F1.5700000000000001
sS'YOL021C'
p4295
F27.100000000000001
sS'YHR030C'
p4296
F81.400000000000006
sS'YMR319C'
p4297
F13.9
sS'YMR235C'
p4298
F304
sS'YHR109W'
p4299
F0.51500000000000001
sS'YER055C'
p4300
F467
sS'YBL031W'
p4301
F0.51200000000000001
sS'YEL034W'
p4302
F2799
sS'YHL001W'
p4303
F3551
sS'YNR050C'
p4304
F404
sS'YOR373W'
p4305
F1.6599999999999999
sS'YLR019W'
p4306
F9.7100000000000009
sS'YKR100C'
p4307
F3.5600000000000001
sS'YJL079C'
p4308
F60.700000000000003
sS'YDR391C'
p4309
F19.100000000000001
sS'YBR023C'
p4310
F4.1299999999999999
sS'YOR260W'
p4311
F46.799999999999997
sS'YPL040C'
p4312
F0.97999999999999998
sS'YPL260W'
p4313
F70.799999999999997
sS'YHL049C'
p4314
F0.628
sS'YAL003W'
p4315
F3629
sS'YOR303W'
p4316
F187
sS'YIL063C'
p4317
F81.799999999999997
sS'YOL010W'
p4318
F16
sS'YAR075W'
p4319
F69.599999999999994
sS'YNL271C'
p4320
F3.3500000000000001
sS'YGL048C'
p4321
F112
sS'YHL016C'
p4322
F0.36699999999999999
sS'Q0110'
p4323
F0.45000000000000001
sS'YMR193W'
p4324
F11.9
sS'YLL039C'
p4325
F484
sS'YNL176C'
p4326
F0.158
sS'YOR380W'
p4327
F0.112
sS'YPR143W'
p4328
F41.299999999999997
sS'YMR111C'
p4329
F3.8900000000000001
sS'YDR129C'
p4330
F304
sS'YGL019W'
p4331
F44.200000000000003
sS'YCL035C'
p4332
F401
sS'YOR018W'
p4333
F4.1299999999999999
sS'YMR046C'
p4334
F27.899999999999999
sS'YHR053C'
p4335
F68.099999999999994
sS'YER047C'
p4336
F1.29
sS'YOR138C'
p4337
F4.6399999999999997
sS'YPR029C'
p4338
F8.1199999999999992
sS'YMR144W'
p4339
F4.5899999999999999
sS'YCR066W'
p4340
F1.9199999999999999
sS'YJL034W'
p4341
F637
sS'YGL062W'
p4342
F140
sS'YCR088W'
p4343
F315
sS'YOR252W'
p4344
F54.899999999999999
sS'YDR208W'
p4345
F0.52200000000000002
sS'YJL058C'
p4346
F0.26500000000000001
sS'YDR075W'
p4347
F0.94199999999999995
sS'YLR142W'
p4348
F0.91000000000000003
sS'YLR177W'
p4349
F1.1000000000000001
sS'YFL048C'
p4350
F55.299999999999997
sS'YLR117C'
p4351
F0.95499999999999996
sS'YGR220C'
p4352
F0.27700000000000002
sS'YBR014C'
p4353
F9.8800000000000008
sS'YLR359W'
p4354
F245
sS'YPL012W'
p4355
F62.799999999999997
sS'YJR006W'
p4356
F1
sS'YOR176W'
p4357
F145
sS'YHR187W'
p4358
F2.6400000000000001
sS'YDL108W'
p4359
F12.199999999999999
sS'YKL061W'
p4360
F6.25
sS'YGR275W'
p4361
F119
sS'YMR071C'
p4362
F64
sS'YOR286W'
p4363
F170
sS'YGR021W'
p4364
F1.52
sS'YDL084W'
p4365
F559
sS'YGL016W'
p4366
F8.8200000000000003
sS'YOL103W-B'
p4367
F14.1
sS'YDL216C'
p4368
F0.094
sS'YOR142W-A'
p4369
F43.5
sS'YCR073W-A'
p4370
F39.899999999999999
sS'YMR120C'
p4371
F266
sS'YLL022C'
p4372
F3.7000000000000002
sS'YOR143C'
p4373
F5.8799999999999999
sS'YER029C'
p4374
F13.199999999999999
sS'YCL055W'
p4375
F3.3900000000000001
sS'YLR411W'
p4376
F0.88800000000000001
sS'YDR490C'
p4377
F2.7599999999999998
sS'YER005W'
p4378
F0.75600000000000001
sS'YER105C'
p4379
F18
sS'YKR075C'
p4380
F0.61899999999999999
sS'YBL054W'
p4381
F3.52
sS'YDL028C'
p4382
F0.53400000000000003
sS'YCR024C'
p4383
F1.25
sS'YEL002C'
p4384
F74
sS'YCR008W'
p4385
F1.5700000000000001
sS'YBL104C'
p4386
F3.4100000000000001
sS'YMR102C'
p4387
F1.3999999999999999
sS'YOR192C-A'
p4388
F2.3100000000000001
sS'YPR144C'
p4389
F14.6
sS'YLR119W'
p4390
F1.1000000000000001
sS'YBL016W'
p4391
F94.200000000000003
sS'YMR051C'
p4392
F44.5
sS'YDR175C'
p4393
F15.1
sS'YLR082C'
p4394
F6.6200000000000001
sS'YER190W'
p4395
F0.29299999999999998
sS'YMR229C'
p4396
F145
sS'YPR034W'
p4397
F40.600000000000001
sS'YMR159C'
p4398
F3.25
sS'YOR189W'
p4399
F29.100000000000001
sS'YGR233C'
p4400
F13.9
sS'YMR264W'
p4401
F35
sS'YPR121W'
p4402
F0.029000000000000001
sS'YGL136C'
p4403
F0.86799999999999999
sS'YCR039C'
p4404
F0.112
sS'YGL139W'
p4405
F2.77
sS'YLR065C'
p4406
F22.800000000000001
sS'YOR280C'
p4407
F7.8200000000000003
sS'YMR086W'
p4408
F8.9399999999999995
sS'YGR007W'
p4409
F14.800000000000001
sS'YNL315C'
p4410
F18.699999999999999
sS'YER018C'
p4411
F9.3800000000000008
sS'YOR299W'
p4412
F2.3900000000000001
sS'YEL065W'
p4413
F0.38300000000000001
sS'YJR045C'
p4414
F1147
sS'YHR189W'
p4415
F0.96499999999999997
sS'YLR385C'
p4416
F6.8200000000000003
sS'YOL124C'
p4417
F2.6899999999999999
sS'YJR029W'
p4418
F12.800000000000001
sS'YBR141C'
p4419
F0.24299999999999999
sS'YMR008C'
p4420
F21.800000000000001
sS'YHR036W'
p4421
F0.44500000000000001
sS'YDR084C'
p4422
F4.2300000000000004
sS'YDR140W'
p4423
F2.2000000000000002
sS'YJL117W'
p4424
F58.100000000000001
sS'YJL076W'
p4425
F51.5
sS'YDR013W'
p4426
F0.38200000000000001
sS'YKL062W'
p4427
F14.5
sS'YPL249C-A'
p4428
F2765
sS'YDL042C'
p4429
F8.8499999999999996
sS'YDR080W'
p4430
F1.1200000000000001
sS'YLR218C'
p4431
F6.6699999999999999
sS'YIL077C'
p4432
F9.0500000000000007
sS'YBR114W'
p4433
F1.3400000000000001
sS'YPL250C'
p4434
F0.60099999999999998
sS'YNR043W'
p4435
F219
sS'YHR165C'
p4436
F1.3
sS'YJL218W'
p4437
F1.3200000000000001
sS'YNL075W'
p4438
F25.300000000000001
sS'YKL028W'
p4439
F8.6999999999999993
sS'YIL126W'
p4440
F37.600000000000001
sS'YLR221C'
p4441
F4.9299999999999997
sS'YDR093W'
p4442
F4
sS'YMR282C'
p4443
F1.3400000000000001
sS'YIL109C'
p4444
F158
sS'YHR046C'
p4445
F16.800000000000001
sS'YIR014W'
p4446
F0.24399999999999999
sS'YPL070W'
p4447
F2.21
sS'YLR361C'
p4448
F0.34100000000000003
sS'YDR362C'
p4449
F11.1
sS'YFL022C'
p4450
F504
sS'YPL109C'
p4451
F0.312
sS'YJL156C'
p4452
F0.85299999999999998
sS'YNL253W'
p4453
F1.2
sS'YNL115C'
p4454
F12.1
sS'YNL071W'
p4455
F482
sS'YLR283W'
p4456
F0.97699999999999998
sS'YMR064W'
p4457
F0.151
sS'YKL166C'
p4458
F48.399999999999999
sS'YMR088C'
p4459
F0.156
sS'YGR211W'
p4460
F197
sS'YJL174W'
p4461
F42.299999999999997
sS'YDL123W'
p4462
F3.4500000000000002
sS'YDL093W'
p4463
F0.121
sS'YJL069C'
p4464
F29.199999999999999
sS'YDL218W'
p4465
F7.4299999999999997
sS'YLR298C'
p4466
F0.96599999999999997
sS'YER098W'
p4467
F0.53500000000000003
sS'YHR047C'
p4468
F61.799999999999997
sS'YOR232W'
p4469
F160
sS'YDR262W'
p4470
F2.9399999999999999
sS'YML095C'
p4471
F17.899999999999999
sS'YPR137W'
p4472
F33.899999999999999
sS'YJL016W'
p4473
F0.13400000000000001
sS'YGL001C'
p4474
F160
sS'YNL195C'
p4475
F4.5599999999999996
sS'YDR464W'
p4476
F4.9699999999999998
sS'YDR444W'
p4477
F0.187
sS'YDL115C'
p4478
F0.495
sS'YER087W'
p4479
F4.7699999999999996
sS'YMR024W'
p4480
F11.800000000000001
sS'YPR156C'
p4481
F7.9900000000000002
sS'YDR359C'
p4482
F10.800000000000001
sS'YKL124W'
p4483
F2.2999999999999998
sS'YDR304C'
p4484
F239
sS'YKL171W'
p4485
F0.35799999999999998
sS'YDL219W'
p4486
F13.5
sS'YPL038W'
p4487
F15.9
sS'YOR136W'
p4488
F644
sS'YDR266C'
p4489
F10.199999999999999
sS'YGL194C'
p4490
F1.27
sS'YDR206W'
p4491
F0.86599999999999999
sS'YKL091C'
p4492
F10.6
sS'YOR116C'
p4493
F46
sS'YLR207W'
p4494
F1.6899999999999999
sS'YNL037C'
p4495
F354
sS'YFL013C'
p4496
F31.199999999999999
sS'YDR265W'
p4497
F3.1400000000000001
sS'YPL063W'
p4498
F128
sS'YFR040W'
p4499
F3.8999999999999999
sS'YML124C'
p4500
F153
sS'YIL107C'
p4501
F69
sS'YOL142W'
p4502
F27.600000000000001
sS'YDR287W'
p4503
F2.7200000000000002
sS'YNL268W'
p4504
F2.6499999999999999
sS'YDR405W'
p4505
F27.699999999999999
sS'YLL008W'
p4506
F39.799999999999997
sS'YLR303W'
p4507
F634
sS'YGL200C'
p4508
F215
sS'YML081W'
p4509
F2.0899999999999999
sS'YGR087C'
p4510
F790
sS'YCL011C'
p4511
F41.200000000000003
sS'YLR099W-A'
p4512
F34.100000000000001
sS'YGL041W-A'
p4513
F25.100000000000001
sS'YCL031C'
p4514
F19.899999999999999
sS'YIL027C'
p4515
F52.799999999999997
sS'YFR013W'
p4516
F14.800000000000001
sS'YPL127C'
p4517
F86.200000000000003
sS'YGL156W'
p4518
F7.5700000000000003
sS'YBR261C'
p4519
F38.899999999999999
sS'YPL078C'
p4520
F238
sS'YOR061W'
p4521
F67
sS'YNR026C'
p4522
F13.4
sS'YLR190W'
p4523
F1.3300000000000001
sS'YGL059W'
p4524
F0.214
sS'YGR147C'
p4525
F4.4900000000000002
sS'YDR002W'
p4526
F1090
sS'YJR092W'
p4527
F1.3400000000000001
sS'YOR311C'
p4528
F9.6500000000000004
sS'YMR039C'
p4529
F45.799999999999997
sS'YAL025C'
p4530
F44.100000000000001
sS'YOR034C'
p4531
F0.082000000000000003
sS'YDR046C'
p4532
F1.8400000000000001
sS'YDL141W'
p4533
F11.5
sS'YGL094C'
p4534
F1.3700000000000001
sS'YNL039W'
p4535
F5.3399999999999999
sS'YHR068W'
p4536
F357
sS'YDR039C'
p4537
F5.2000000000000002
sS'YGR030C'
p4538
F4.1600000000000001
sS'YGR149W'
p4539
F3.54
sS'YJL057C'
p4540
F1.1299999999999999
sS'YJL177W'
p4541
F1927
sS'YML116W'
p4542
F0.161
sS'YGR130C'
p4543
F86
sS'YIR002C'
p4544
F0.86499999999999999
sS'YJL205C'
p4545
F0.79200000000000004
sS'YJR118C'
p4546
F30.600000000000001
sS'YOR016C'
p4547
F24.100000000000001
sS'YDL217C'
p4548
F2.02
sS'YGR165W'
p4549
F10.300000000000001
sS'YGL066W'
p4550
F31
sS'YGR128C'
p4551
F74.200000000000003
sS'YLR087C'
p4552
F0.029999999999999999
sS'YBR254C'
p4553
F3.4199999999999999
sS'YGR235C'
p4554
F21.199999999999999
sS'YBR136W'
p4555
F4.4299999999999997
sS'YJL026W'
p4556
F364
sS'YKL193C'
p4557
F71.700000000000003
sS'YNL153C'
p4558
F100
sS'YGL083W'
p4559
F2.46
sS'YBR214W'
p4560
F33.299999999999997
sS'YLR310C'
p4561
F2.46
sS'YNL281W'
p4562
F141
sS'YLR036C'
p4563
F0.35399999999999998
sS'YPL138C'
p4564
F0.17999999999999999
sS'YGR042W'
p4565
F0.42399999999999999
sS'YJL141C'
p4566
F7.2300000000000004
sS'YKL075C'
p4567
F6.5199999999999996
sS'YNL287W'
p4568
F210
sS'YDR358W'
p4569
F17.300000000000001
sS'YFR008W'
p4570
F5.0800000000000001
sS'YNL102W'
p4571
F7.8700000000000001
sS'YPL147W'
p4572
F0.27600000000000002
sS'YOR125C'
p4573
F7.4699999999999998
sS'YOL077C'
p4574
F66.700000000000003
sS'YNL001W'
p4575
F12.800000000000001
sS'YDR137W'
p4576
F1.3899999999999999
sS'YMR128W'
p4577
F15.1
sS'YKL209C'
p4578
F0.28000000000000003
sS'YGR181W'
p4579
F152
sS'YFL011W'
p4580
F0.055
sS'YBR084W'
p4581
F122
sS'YLR003C'
p4582
F16.800000000000001
sS'YOR386W'
p4583
F4.6100000000000003
sS'YDL061C'
p4584
F3049
sS'YLR441C'
p4585
F2767
sS'YIL010W'
p4586
F14.300000000000001
sS'YOR261C'
p4587
F151
sS'YNR051C'
p4588
F35.100000000000001
sS'YGR187C'
p4589
F46.299999999999997
sS'YDR056C'
p4590
F5.75
sS'YHL002W'
p4591
F9.9700000000000006
sS'YNL081C'
p4592
F5.3200000000000003
sS'YMR273C'
p4593
F0.58399999999999996
sS'YDL180W'
p4594
F0.96799999999999997
sS'YDR422C'
p4595
F3.6099999999999999
sS'YDL122W'
p4596
F34.899999999999999
sS'YNR073C'
p4597
F0.041000000000000002
sS'YBR287W'
p4598
F19.699999999999999
sS'YOR229W'
p4599
F13
sS'YDR338C'
p4600
F1.54
sS'YEL024W'
p4601
F76.599999999999994
sS'YHL017W'
p4602
F1.6200000000000001
sS'YLL056C'
p4603
F1.1899999999999999
sS'YOL017W'
p4604
F0.20000000000000001
sS'YIL085C'
p4605
F1.25
sS'YMR190C'
p4606
F0.058999999999999997
sS'YPL123C'
p4607
F4.0199999999999996
sS'YGR005C'
p4608
F10.199999999999999
sS'YBL032W'
p4609
F87
sS'YOR083W'
p4610
F0.28499999999999998
sS'YDR023W'
p4611
F816
sS'YFR052W'
p4612
F150
sS'YOR051C'
p4613
F74.299999999999997
sS'YGL240W'
p4614
F3.8100000000000001
sS'YOL103W-A'
p4615
F50.299999999999997
sS'YPL135W'
p4616
F16.899999999999999
sS'YCR052W'
p4617
F44.100000000000001
sS'YNL243W'
p4618
F61.899999999999999
sS'YDR497C'
p4619
F15.1
sS'YLR332W'
p4620
F11
sS'YKL067W'
p4621
F602
sS'YBR272C'
p4622
F2.3100000000000001
sS'YLR327C'
p4623
F45.600000000000001
sS'YDR298C'
p4624
F432
sS'YDR011W'
p4625
F24.800000000000001
sS'YIL061C'
p4626
F4.6399999999999997
sS'YBL009W'
p4627
F0.47999999999999998
sS'YOR272W'
p4628
F142
sS'YPL281C'
p4629
F10.5
sS'YOR058C'
p4630
F0.080000000000000002
sS'YOL059W'
p4631
F153
sS'YPR097W'
p4632
F9.3300000000000001
sS'YHL031C'
p4633
F38.700000000000003
sS'YPR103W'
p4634
F30.399999999999999
sS'YML100W'
p4635
F113
sS'YGL068W'
p4636
F231
sS'YOL151W'
p4637
F97.700000000000003
sS'YHR131C'
p4638
F0.058999999999999997
sS'YDR425W'
p4639
F0.98999999999999999
sS'YHR026W'
p4640
F1.8500000000000001
sS'YNL002C'
p4641
F164
sS'YOR275C'
p4642
F3.29
sS'YOR026W'
p4643
F23
sS'YOR358W'
p4644
F2.5699999999999998
sS'YML063W'
p4645
F2892
sS'YNL238W'
p4646
F4.4100000000000001
sS'YKL180W'
p4647
F2083
sS'YBR281C'
p4648
F21.699999999999999
sS'YJL198W'
p4649
F2.02
sS'YPL207W'
p4650
F30
sS'YHR004C'
p4651
F1.79
sS'YBR131W'
p4652
F0.20899999999999999
sS'YLR417W'
p4653
F0.187
sS'YBR231C'
p4654
F7.8899999999999997
sS'YGR027C'
p4655
F3170
sS'YOL135C'
p4656
F6.54
sS'YOR323C'
p4657
F270
sS'YLL041C'
p4658
F36.700000000000003
sS'YML106W'
p4659
F341
sS'YBR062C'
p4660
F1.8999999999999999
sS'YER036C'
p4661
F322
sS'YMR200W'
p4662
F15.5
sS'YCL054W'
p4663
F27.100000000000001
sS'YMR169C'
p4664
F48
sS'YOR195W'
p4665
F6.1799999999999997
sS'YPR070W'
p4666
F16.5
sS'YLR118C'
p4667
F56.5
sS'YER006W'
p4668
F173
sS'YGL117W'
p4669
F17.300000000000001
sS'YKL106W'
p4670
F8.6500000000000004
sS'YDR098C-B'
p4671
F13
sS'YDR098C-A'
p4672
F45
sS'YHR097C'
p4673
F27.899999999999999
sS'YER182W'
p4674
F5.7800000000000002
sS'YLL034C'
p4675
F14.9
sS'YML042W'
p4676
F22.899999999999999
sS'YBL105C'
p4677
F4.8099999999999996
sS'YOR196C'
p4678
F11.1
sS'YER174C'
p4679
F18.600000000000001
sS'YPL228W'
p4680
F20.5
sS'YBL072C'
p4681
F1666
sS'YGL119W'
p4682
F1.5600000000000001
sS'YGR232W'
p4683
F31.899999999999999
sS'YEL066W'
p4684
F4.6799999999999997
sS'YEL046C'
p4685
F622
sS'YBL055C'
p4686
F9.9499999999999993
sS'YPR035W'
p4687
F1012
sS'YBR071W'
p4688
F1.1100000000000001
sS'YNL314W'
p4689
F6.25
sS'YLL018C'
p4690
F911
sS'YOR281C'
p4691
F17.800000000000001
sS'YDR227W'
p4692
F1.8400000000000001
sS'YDL130W-A'
p4693
F236
sS'YML008C'
p4694
F734
sS'YPR019W'
p4695
F12
sS'YDR174W'
p4696
F311
sS'YLR100W'
p4697
F71.900000000000006
sS'YMR265C'
p4698
F0.26300000000000001
sS'YML073C'
p4699
F1950
sS'YMR087W'
p4700
F3.8100000000000001
sS'YLR455W'
p4701
F2.7000000000000002
sS'YGL101W'
p4702
F9.8300000000000001
sS'YOR250C'
p4703
F10.699999999999999
sS'YCR072C'
p4704
F31.199999999999999
sS'YBR044C'
p4705
F0.69899999999999995
sS'YIR032C'
p4706
F0.40699999999999997
sS'YJR105W'
p4707
F1282
sS'YPR042C'
p4708
F1.4099999999999999
sS'YCL009C'
p4709
F503
sS'YDL072C'
p4710
F70
sS'YER159C'
p4711
F44.5
sS'YDL005C'
p4712
F37.299999999999997
sS'YER122C'
p4713
F55.100000000000001
sS'YHR113W'
p4714
F38.100000000000001
sS'YMR212C'
p4715
F16.600000000000001
sS'YIL121W'
p4716
F3.0299999999999998
sS'YER048W-A'
p4717
F43.899999999999999
sS'YDR482C'
p4718
F5.1799999999999997
sS'YPR182W'
p4719
F13.300000000000001
sS'YJL196C'
p4720
F6.7699999999999996
sS'YPR117W'
p4721
F0.032000000000000001
sS'YBL112C'
p4722
F0.53100000000000003
sS'YDR034C'
p4723
F2.3599999999999999
sS'YGL054C'
p4724
F104
sS'YNL055C'
p4725
F2127
sS'YGL025C'
p4726
F28.199999999999999
sS'YNL230C'
p4727
F18.100000000000001
sS'YLR021W'
p4728
F3.6299999999999999
sS'YOL126C'
p4729
F18.5
sS'YLR420W'
p4730
F120
sS'YLR058C'
p4731
F934
sS'YMR142C'
p4732
F2779
sS'YGR191W'
p4733
F2.8399999999999999
sS'YLR134W'
p4734
F795
sS'YGR264C'
p4735
F387
sS'YDR506C'
p4736
F0.108
sS'YGL038C'
p4737
F14.5
sS'YLR074C'
p4738
F86.799999999999997
sS'YNL216W'
p4739
F46.799999999999997
sS'YKL207W'
p4740
F10.6
sS'YLR405W'
p4741
F0.58899999999999997
sS'YPL225W'
p4742
F235
sS'YPL270W'
p4743
F2.5800000000000001
sS'YKL039W'
p4744
F10.6
sS'YDL012C'
p4745
F73.299999999999997
sS'YPL249C'
p4746
F11.300000000000001
sS'YJL024C'
p4747
F53.299999999999997
sS'YPR148C'
p4748
F80.099999999999994
sS'YKR024C'
p4749
F7.9299999999999997
sS'YEL019C'
p4750
F1.8600000000000001
sS'YBR015C'
p4751
F72.5
sS'YER031C'
p4752
F144
sS'YMR065W'
p4753
F0.20200000000000001
sS'YMR089C'
p4754
F17.800000000000001
sS'YGL187C'
p4755
F277
sS'YDR345C'
p4756
F223
sS'YDL066W'
p4757
F574
sS'YBL046W'
p4758
F2.8900000000000001
sS'YKL165C'
p4759
F12.300000000000001
sS'YLR430W'
p4760
F7.6600000000000001
sS'YOR108W'
p4761
F131
sS'YNL339C'
p4762
F0.35499999999999998
sS'YPL051W'
p4763
F2.6899999999999999
sS'YJL068C'
p4764
F61.700000000000003
sS'YDL056W'
p4765
F8.8599999999999994
sS'YKL112W'
p4766
F29.5
sS'YNL054W'
p4767
F2.2000000000000002
sS'YBR183W'
p4768
F0.96299999999999997
sS'YPL043W'
p4769
F44.5
sS'YGR210C'
p4770
F36.100000000000001
sS'YML045W'
p4771
F10.199999999999999
sS'YDR156W'
p4772
F231
sS'YMR130W'
p4773
F6.0099999999999998
sS'YPR155C'
p4774
F2.2999999999999998
sS'YKL194C'
p4775
F4.7599999999999998
sS'YHR179W'
p4776
F817
sS'YOR117W'
p4777
F177
sS'YLR176C'
p4778
F0.31
sS'YNL049C'
p4779
F7.0700000000000003
sS'YGL195W'
p4780
F111
sS'YGR090W'
p4781
F49
sS'YOL086W-A'
p4782
F5.4800000000000004
sS'YKR025W'
p4783
F33.399999999999999
sS'YNL336W'
p4784
F0.14099999999999999
sS'YLR423C'
p4785
F0.83599999999999997
sS'YDR305C'
p4786
F23.399999999999999
sS'YDR205W'
p4787
F4.0899999999999999
sS'YJR059W'
p4788
F14.1
sS'YPR100W'
p4789
F9.5399999999999991
sS'YLR206W'
p4790
F34.399999999999999
sS'YPL186C'
p4791
F12.300000000000001
sS'YLR284C'
p4792
F50.299999999999997
sS'YPL171C'
p4793
F26.5
sS'YHL029C'
p4794
F0.58999999999999997
sS'YKL101W'
p4795
F0.68899999999999995
sS'YEL020C'
p4796
F4.3399999999999999
sS'YPR028W'
p4797
F173
sS'YNL185C'
p4798
F45.899999999999999
sS'YLR096W'
p4799
F5.0700000000000003
sS'YCL043C'
p4800
F695
sS'YJL035C'
p4801
F0.54900000000000004
sS'YKR017C'
p4802
F0.39000000000000001
sS'YKR052C'
p4803
F6.9699999999999998
sS'YBR073W'
p4804
F7.0499999999999998
sS'YMR047C'
p4805
F25.300000000000001
sS'YMR147W'
p4806
F1.6000000000000001
sS'YDR257C'
p4807
F2.5099999999999998
sS'YDL222C'
p4808
F24.100000000000001
sS'YER040W'
p4809
F7.0499999999999998
sS'YOR287C'
p4810
F0.65800000000000003
sS'YBL088C'
p4811
F0.052999999999999999
sS'YDR247W'
p4812
F3.8599999999999999
sS'YHR086W'
p4813
F5.1399999999999997
sS'YGR274C'
p4814
F12.300000000000001
sS'YIL021W'
p4815
F88.099999999999994
sS'YNL163C'
p4816
F9.1300000000000008
sS'YML055W'
p4817
F48.5
sS'YML088W'
p4818
F0.42099999999999999
sS'YGR078C'
p4819
F146
sS'YPR175W'
p4820
F4.7199999999999998
sS'YLR116W'
p4821
F2.8700000000000001
sS'YER008C'
p4822
F4.7000000000000002
sS'YDL148C'
p4823
F32.399999999999999
sS'YDL126C'
p4824
F715
sS'YMR127C'
p4825
F0.36199999999999999
sS'YPL013C'
p4826
F24
sS'YJR067C'
p4827
F5.8499999999999996
sS'YMR184W'
p4828
F27.600000000000001
sS'YLR192C'
p4829
F208
s.