(dp1
VYBR177C
p2
F237
sVYIL140W
p3
F100
sVYLR268W
p4
F91
sVYIR004W
p5
F229
sVYOR043W
p6
F59
sVYJL122W
p7
F446
sVYNL300W
p8
F506
sVYGR148C
p9
F3881
sVYJL204C
p10
F106
sVYLR244C
p11
F514
sVYPL144W
p12
F78
sVYBR135W
p13
F179
sVYBR160W
p14
F395
sVYNR007C
p15
F96
sVYJL082W
p16
F182
sVYHR007C
p17
F749
sVYLR197W
p18
F1245
sVYPL191C
p19
F50
sVYKL190W
p20
F337
sVYGL084C
p21
F151
sVYDR312W
p22
F90
sVYBR248C
p23
F2385
sVYNR067C
p24
F51
sVYKL063C
p25
F73
sVYFL010C
p26
F641
sVYDR141C
p27
F232
sVYGL135W
p28
F8323
sVYJR044C
p29
F97
sVYJR011C
p30
F42
sVYKL048C
p31
F49
sVYDR083W
p32
F95
sVYMR009W
p33
F79
sVYOR123C
p34
F214
sVYJL179W
p35
F82
sVYKL183W
p36
F95
sVYFL021W
p37
F472
sVYLR362W
p38
F65
sVYPR118W
p39
F123
sVYKL134C
p40
F63
sVYDR090C
p41
F421
sVYIL108W
p42
F65
sVYKL052C
p43
F69
sVYHR025W
p44
F854
sVYHL036W
p45
F62
sVYAL026C
p46
F266
sVYOL034W
p47
F50
sVYFL017W-A
p48
F335
sVYFR050C
p49
F1900
sVYGR126W
p50
F107
sVYIL062C
p51
F696
sVYDR016C
p52
F128
sVYAR019C
p53
F59
sVYDR299W
p54
F484
sVYGL071W
p55
F56
sVYDR196C
p56
F89
sVYBR202W
p57
F242
sVYHR101C
p58
F63
sVYNL239W
p59
F380
sVYNL255C
p60
F1907
sVYNL143C
p61
F89
sVYLL040C
p62
F152
sVYIL091C
p63
F181
sVYOR322C
p64
F109
sVYNL137C
p65
F47
sVYNL103W
p66
F73
sVYLR253W
p67
F74
sVYAL039C
p68
F150
sVYNR018W
p69
F161
sVYNL168C
p70
F114
sVYCR034W
p71
F1239
sVYFR047C
p72
F254
sVYBR215W
p73
F42
sVYFR037C
p74
F394
sVYBR159W
p75
F629
sVYML127W
p76
F219
sVYCL030C
p77
F12563
sVYGR084C
p78
F274
sVYCR002C
p79
F328
sVYNL242W
p80
F56
sVYPL128C
p81
F111
sVYOL090W
p82
F162
sVYCL028W
p83
F265
sVYJR140C
p84
F69
sVYBR191W
p85
F5641
sVYBR043C
p86
F898
sVYPL067C
p87
F62
sVYDR380W
p88
F115
sVYGR191W
p89
F701
sVYBR094W
p90
F113
sVYDR035W
p91
F1202
sVYDR485C
p92
F44
sVYLR011W
p93
F95
sVYOR216C
p94
F166
sVYPL239W
p95
F598
sVYPR183W
p96
F411
sVYLR069C
p97
F1810
sVYBL042C
p98
F1049
sVYEL017C-A
p99
F2757
sVYCR046C
p100
F161
sVYLR059C
p101
F336
sVYDR525W-A
p102
F1172
sVYIL056W
p103
F100
sVYDR507C
p104
F171
sVYEL007W
p105
F191
sVYLR020C
p106
F79
sVYKL204W
p107
F216
sVYDL042C
p108
F69
sVYMR226C
p109
F465
sVYDR531W
p110
F156
sVYMR233W
p111
F51
sVYDL060W
p112
F268
sVYLR002C
p113
F249
sVYOR303W
p114
F1969
sVYDR320C-A
p115
F107
sVYGR186W
p116
F138
sVYIR022W
p117
F201
sVYLR395C
p118
F50
sVYNR052C
p119
F172
sVYGR019W
p120
F507
sVYMR194W
p121
F2037
sVYOL076W
p122
F245
sVYER145C
p123
F618
sVYER110C
p124
F2184
sVYHR123W
p125
F122
sVYBL033C
p126
F368
sVYHR203C
p127
F3811
sVYOR304W
p128
F126
sVYER129W
p129
F67
sVYML112W
p130
F105
sVYGL062W
p131
F3120
sVYER169W
p132
F44
sVYOL016C
p133
F204
sVYOR226C
p134
F735
sVYGL241W
p135
F104
sVYMR238W
p136
F330
sVYLR108C
p137
F149
sVYNL186W
p138
F281
sVYBL063W
p139
F50
sVYPR024W
p140
F132
sVYDR226W
p141
F3474
sVYMR266W
p142
F321
sVYKL096W-A
p143
F2022
sVYCR060W
p144
F134
sVYJL036W
p145
F66
sVYBR016W
p146
F109
sVYBR036C
p147
F478
sVYMR015C
p148
F549
sVYDR246W
p149
F165
sVYLR163C
p150
F151
sVYCR028C
p151
F146
sVYLR115W
p152
F90
sVYNL288W
p153
F248
sVYHR089C
p154
F1674
sVYGL014W
p155
F231
sVYMR168C
p156
F48
sVYLR068W
p157
F122
sVYER027C
p158
F52
sVYPL228W
p159
F90
sVYMR104C
p160
F65
sVYPR056W
p161
F46
sVYGL169W
p162
F57
sVYER107C
p163
F131
sVYDL195W
p164
F966
sVYLR219W
p165
F105
sVYJL021C
p166
F200
sVYMR246W
p167
F1227
sVYEL047C
p168
F625
sVYPR016C
p169
F1124
sVYNL317W
p170
F66
sVYCR087C-A
p171
F112
sVYGR235C
p172
F218
sVYDR068W
p173
F190
sVYDL055C
p174
F7777
sVYBR009C
p175
F2214
sVYML009C
p176
F90
sVYML072C
p177
F487
sVYHR052W
p178
F573
sVYKR026C
p179
F175
sVYFL044C
p180
F46
sVYJL130C
p181
F3699
sVYJL078C
p182
F332
sVYNL173C
p183
F195
sVYBL085W
p184
F113
sVYKL173W
p185
F175
sVYGR200C
p186
F284
sVYLR383W
p187
F74
sVYKL035W
p188
F515
sVYIL127C
p189
F168
sVYDR348C
p190
F144
sVYKL182W
p191
F4562
sVYDR469W
p192
F75
sVYKL051W
p193
F354
sVYLR223C
p194
F144
sVYIR012W
p195
F535
sVYLR363C
p196
F282
sVYNR026C
p197
F101
sVYNR046W
p198
F593
sVYNL328C
p199
F43
sVYDR219C
p200
F62
sVYCR011C
p201
F258
sVYPL028W
p202
F1375
sVYKR046C
p203
F137
sVYKL164C
p204
F140
sVYJR005W
p205
F123
sVYMR031C
p206
F206
sVYBL098W
p207
F41
sVYDL095W
p208
F75
sVYOR174W
p209
F76
sVYER030W
p210
F299
sVYFL002C
p211
F124
sVYDR155C
p212
F3911
sVYPR149W
p213
F1398
sVYGL181W
p214
F147
sVYJL176C
p215
F88
sVYJR072C
p216
F258
sVYDR047W
p217
F144
sVYPL087W
p218
F76
sVYNL015W
p219
F280
sVYCR084C
p220
F369
sVYDR302W
p221
F343
sVYMR002W
p222
F1010
sVYJL054W
p223
F137
sVYOR118W
p224
F72
sVYPL170W
p225
F84
sVYML094W
p226
F151
sVYKR006C
p227
F410
sVYDL117W
p228
F81
sVYMR131C
p229
F334
sVYPR154W
p230
F153
sVYBR085C-A
p231
F1019
sVYJL109C
p232
F630
sVYER089C
p233
F341
sVYIL005W
p234
F79
sVYIL105C
p235
F87
sVYNL119W
p236
F70
sVYML126C
p237
F1101
sVYHR079C
p238
F55
sVYGR158C
p239
F289
sVYKL077W
p240
F344
sVYBR212W
p241
F200
sVYJR109C
p242
F18876
sVYKL025C
p243
F102
sVYLR254C
p244
F59
sVYGR085C
p245
F3919
sVYPL105C
p246
F159
sVYOL097C
p247
F685
sVYMR285C
p248
F42
sVYJL096W
p249
F87
sVYDR407C
p250
F57
sVYLR354C
p251
F1750
sVYKL029C
p252
F987
sVYBR258C
p253
F59
sVYLR301W
p254
F581
sVYNL146W
p255
F55
sVYFR019W
p256
F70
sVYJL070C
p257
F47
sVYHR142W
p258
F165
sVYNL241C
p259
F616
sVYJL154C
p260
F236
sVYDR091C
p261
F1319
sVYJL123C
p262
F295
sVYHR066W
p263
F242
sVYJL203W
p264
F80
sVYNL326C
p265
F75
sVYIL147C
p266
F57
sVYBR129C
p267
F42
sVYDL160C
p268
F488
sVYPR138C
p269
F335
sVYDL215C
p270
F5433
sVYGR167W
p271
F643
sVYJL143W
p272
F581
sVYGL238W
p273
F256
sVYIR003W
p274
F113
sVYNL104C
p275
F2260
sVYPL145C
p276
F815
sVYDR450W
p277
F449
sVYKL191W
p278
F170
sVYNR006W
p279
F72
sVYHR120W
p280
F56
sVYNL083W
p281
F52
sVYBL018C
p282
F112
sVYOR267C
p283
F194
sVYOR357C
p284
F67
sVYER111C
p285
F58
sVYEL031W
p286
F1033
sVYNR053C
p287
F553
sVYDL063C
p288
F193
sVYOL039W
p289
F150
sVYOR385W
p290
F68
sVYGR185C
p291
F1309
sVYER168C
p292
F201
sVYPL265W
p293
F4552
sVYIL083C
p294
F77
sVYOR081C
p295
F75
sVYNL298W
p296
F115
sVYDR392W
p297
F44
sVYBR290W
p298
F107
sVYCL010C
p299
F147
sVYML113W
p300
F148
sVYDR021W
p301
F78
sVYHL011C
p302
F538
sVYPL212C
p303
F484
sVYMR296C
p304
F364
sVYHR008C
p305
F366
sVYLR330W
p306
F396
sVYOR310C
p307
F1456
sVYFR051C
p308
F659
sVYHR024C
p309
F394
sVYGR129W
p310
F137
sVYFR004W
p311
F1367
sVYHR133C
p312
F228
sVYDR017C
p313
F152
sVYOL080C
p314
F114
sVYOR025W
p315
F198
sVYNR014W
p316
F137
sVYGR021W
p317
F128
sVYDR411C
p318
F105
sVYBR283C
p319
F1287
sVYIL090W
p320
F280
sVYBR205W
p321
F63
sVYML104C
p322
F39
sVYGL070C
p323
F347
sVYMR186W
p324
F9966
sVYDR195W
p325
F102
sVYOR319W
p326
F89
sVYPL019C
p327
F59
sVYNL256W
p328
F118
sVYOL058W
p329
F10537
sVYMR278W
p330
F51
sVYGR072W
p331
F79
sVYMR207C
p332
F43
sVYOR197W
p333
F212
sVYKR089C
p334
F103
sVYER166W
p335
F179
sVYPR057W
p336
F52
sVYLL032C
p337
F77
sVYCR027C
p338
F132
sVYER079W
p339
F69
sVYBR039W
p340
F1050
sVYER024W
p341
F156
sVYDR116C
p342
F120
sVYGR258C
p343
F39
sVYLR325C
p344
F1662
sVYDL056W
p345
F53
sVYGR234W
p346
F231
sVYKL117W
p347
F1590
sVYMR178W
p348
F159
sVYPR017C
p349
F118
sVYGL115W
p350
F170
sVYOR094W
p351
F244
sVYOL129W
p352
F147
sVYML071C
p353
F118
sVYBR077C
p354
F286
sVYDR176W
p355
F94
sVYDR122W
p356
F71
sVYNL090W
p357
F184
sVYBR042C
p358
F40
sVYOL062C
p359
F56
sVYDR381W
p360
F3721
sVYOR307C
p361
F103
sVYDR484W
p362
F94
sVYOR207C
p363
F312
sVYOR370C
p364
F299
sVYGR192C
p365
F24163
sVYBR095C
p366
F85
sVYJL018W
p367
F72
sVYHR111W
p368
F159
sVYBL045C
p369
F217
sVYML129C
p370
F158
sVYDR036C
p371
F116
sVYPR184W
p372
F44
sVYOR224C
p373
F375
sVYDL070W
p374
F48
sVYKL135C
p375
F191
sVYDR389W
p376
F94
sVYML111W
p377
F58
sVYOR359W
p378
F155
sVYLR056W
p379
F571
sVYKL205W
p380
F188
sVYLR407W
p381
F178
sVYBR055C
p382
F55
sVYOR175C
p383
F167
sVYER033C
p384
F45
sVYNL329C
p385
F56
sVYKL110C
p386
F116
sVYMR014W
p387
F191
sVYPR040W
p388
F105
sVYMR152W
p389
F158
sVYML057W
p390
F191
sVYKR038C
p391
F178
sVYLR432W
p392
F1659
sVYMR029C
p393
F80
sVYGL180W
p394
F95
sVYJL115W
p395
F276
sVYJR073C
p396
F835
sVYGL004C
p397
F63
sVYNL225C
p398
F40
sVYML097C
p399
F126
sVYKR007W
p400
F317
sVYLR055C
p401
F53
sVYJL055W
p402
F333
sVYPR102C
p403
F1140
sVYHR193C
p404
F3571
sVYMR292W
p405
F225
sVYBL099W
p406
F1449
sVYMR132C
p407
F43
sVYPL064C
p408
F46
sVYPL086C
p409
F184
sVYDL116W
p410
F275
sVYPL184C
p411
F287
sVYLR435W
p412
F330
sVYMR042W
p413
F55
sVYOR165W
p414
F194
sVYDR054C
p415
F319
sVYNL316C
p416
F51
sVYCL045C
p417
F448
sVYKR065C
p418
F216
sVYDR221W
p419
F77
sVYLR109W
p420
F18767
sVYKL103C
p421
F250
sVYMR109W
p422
F325
sVYDR232W
p423
F118
sVYDR245W
p424
F77
sVYLR114C
p425
F189
sVYBR017C
p426
F290
sVYJR060W
p427
F163
sVYOR289W
p428
F52
sVYPR071W
p429
F49
sVYHR175W
p430
F105
sVYGR166W
p431
F41
sVYDL161W
p432
F118
sVYDL212W
p433
F655
sVYNL161W
p434
F172
sVYJR055W
p435
F43
sVYDR096W
p436
F48
sVYKL102C
p437
F82
sVYIR006C
p438
F591
sVYGL099W
p439
F296
sVYOR191W
p440
F46
sVYLR315W
p441
F66
sVYNL005C
p442
F232
sVYFR021W
p443
F80
sVYNL129W
p444
F150
sVYJR139C
p445
F593
sVYKL016C
p446
F122
sVYBR133C
p447
F73
sVYBR162C
p448
F110
sVYJR013W
p449
F177
sVYDL113C
p450
F57
sVYKR094C
p451
F404
sVYPR072W
p452
F256
sVYJL079C
p453
F84
sVYBR111C
p454
F48
sVYKR027W
p455
F72
sVYFL047W
p456
F124
sVYHR053C
p457
F115
sVYPR122W
p458
F69
sVYLR380W
p459
F372
sVYKL061W
p460
F108
sVYJR042W
p461
F243
sVYKL169C
p462
F107
sVYMR012W
p463
F1124
sVYPL160W
p464
F3119
sVYGR100W
p465
F143
sVYLR133W
p466
F195
sVYDR349C
p467
F47
sVYOR171C
p468
F116
sVYDR214W
p469
F662
sVYIL126W
p470
F385
sVYIL106W
p471
F122
sVYPR111W
p472
F62
sVYLR295C
p473
F870
sVYDL201W
p474
F221
sVYOR048C
p475
F256
sVYNL297C
p476
F180
sVYOL081W
p477
F54
sVYIL033C
p478
F266
sVYGR128C
p479
F417
sVYOR002W
p480
F73
sVYIL048W
p481
F193
sVYDR189W
p482
F261
sVYLR337C
p483
F112
sVYOL056W
p484
F238
sVYGR116W
p485
F595
sVYFR052W
p486
F821
sVYMR302C
p487
F75
sVYBR282W
p488
F114
sVYHR132C
p489
F46
sVYMR083W
p490
F133
sVYGL073W
p491
F49
sVYDR194C
p492
F376
sVYMR244C-A
p493
F172
sVYNR030W
p494
F104
sVYHL029C
p495
F183
sVYIL093C
p496
F196
sVYML007C-A
p497
F330
sVYPL051W
p498
F81
sVYLR397C
p499
F116
sVYIL104C
p500
F106
sVYIL002C
p501
F61
sVYGL086W
p502
F48
sVYGR159C
p503
F2025
sVYAL044C
p504
F2032
sVYLR398C
p505
F327
sVYNL118C
p506
F413
sVYNR023W
p507
F45
sVYOL096C
p508
F92
sVYJR117W
p509
F588
sVYJL097W
p510
F517
sVYLR113W
p511
F282
sVYGR111W
p512
F69
sVYGL155W
p513
F63
sVYOR104W
p514
F158
sVYLR357W
p515
F134
sVYNL147W
p516
F326
sVYPR163C
p517
F1288
sVYBR222C
p518
F103
sVYPR101W
p519
F69
sVYNL091W
p520
F167
sVYBR096W
p521
F56
sVYDL015C
p522
F255
sVYLR017W
p523
F127
sVYHR110W
p524
F64
sVYDR430C
p525
F194
sVYGR193C
p526
F106
sVYDR487C
p527
F1284
sVYPR185W
p528
F53
sVYPL273W
p529
F1106
sVYNL327W
p530
F358
sVYNR035C
p531
F586
sVYCR044C
p532
F133
sVYNL219C
p533
F243
sVYGR040W
p534
F46
sVYER178W
p535
F590
sVYJL091C
p536
F190
sVYPR135W
p537
F58
sVYHR121W
p538
F77
sVYMR231W
p539
F111
sVYOL070C
p540
F120
sVYOL138C
p541
F70
sVYJL085W
p542
F112
sVYDR533C
p543
F103
sVYLR452C
p544
F133
sVYNR054C
p545
F109
sVYBL029C-A
p546
F92
sVYIL015W
p547
F116
sVYGL173C
p548
F866
sVYOL038W
p549
F1000
sVYNL275W
p550
F48
sVYAR015W
p551
F3126
sVYML114C
p552
F63
sVYDR020C
p553
F139
sVYHR201C
p554
F247
sVYPL213W
p555
F160
sVYLL051C
p556
F39
sVYDR427W
p557
F509
sVYGR008C
p558
F115
sVYKL211C
p559
F1614
sVYGL060W
p560
F84
sVYNL311C
p561
F148
sVYLR079W
p562
F54
sVYJL030W
p563
F45
sVYLR424W
p564
F41
sVYMR093W
p565
F224
sVYKR066C
p566
F117
sVYDR079W
p567
F43
sVYNL154C
p568
F261
sVYBR086C
p569
F132
sVYML070W
p570
F305
sVYOR150W
p571
F172
sVYDR055W
p572
F100
sVYBL061C
p573
F99
sVYJR110W
p574
F42
sVYMR140W
p575
F75
sVYLR095C
p576
F97
sVYBR034C
p577
F457
sVYMR108W
p578
F3326
sVYLR401C
p579
F51
sVYDR244W
p580
F55
sVYDL088C
p581
F226
sVYDL137W
p582
F104
sVYJR063W
p583
F930
sVYGR271W
p584
F144
sVYMR161W
p585
F96
sVYLR142W
p586
F589
sVYDR233C
p587
F2606
sVYLR131C
p588
F40
sVYDL040C
p589
F462
sVYDR527W
p590
F102
sVYGL046W
p591
F66
sVYCR059C
p592
F204
sVYML041C
p593
F55
sVYCR004C
p594
F562
sVYER078C
p595
F62
sVYML038C
p596
F196
sVYML014W
p597
F66
sVYKR071C
p598
F242
sVYKR031C
p599
F112
sVYGL112C
p600
F202
sVYOR233W
p601
F68
sVYGR257C
p602
F55
sVYBR127C
p603
F1866
sVYDL008W
p604
F127
sVYGR280C
p605
F253
sVYDL159W
p606
F57
sVYBL087C
p607
F708
sVYJR014W
p608
F467
sVYGL190C
p609
F96
sVYBR110W
p610
F113
sVYGL018C
p611
F80
sVYGR202C
p612
F79
sVYKL120W
p613
F1566
sVYJR041C
p614
F192
sVYDR379W
p615
F95
sVYOR206W
p616
F484
sVYHR169W
p617
F202
sVYDL175C
p618
F47
sVYHR104W
p619
F197
sVYDR447C
p620
F4203
sVYGL009C
p621
F16409
sVYNL059C
p622
F144
sVYFL026W
p623
F662
sVYDL102W
p624
F253
sVYJR009C
p625
F11797
sVYER092W
p626
F145
sVYIL121W
p627
F272
sVYMR149W
p628
F449
sVYIR010W
p629
F43
sVYDR331W
p630
F152
sVYOR293W
p631
F207
sVYML056C
p632
F397
sVYKR044W
p633
F40
sVYGL029W
p634
F396
sVYFL004W
p635
F169
sVYCR069W
p636
F57
sVYDL128W
p637
F105
sVYLR433C
p638
F184
sVYMR153W
p639
F195
sVYGR239C
p640
F107
sVYMR124W
p641
F107
sVYPR145W
p642
F14478
sVYJR070C
p643
F1128
sVYDL097C
p644
F405
sVYGR262C
p645
F157
sVYHR043C
p646
F44
sVYDL111C
p647
F226
sVYDR202C
p648
F80
sVYJL052W
p649
F45
sVYLR203C
p650
F192
sVYGR215W
p651
F115
sVYDR059C
p652
F183
sVYML096W
p653
F52
sVYHR192W
p654
F119
sVYCR082W
p655
F47
sVYDR300C
p656
F471
sVYGL087C
p657
F193
sVYPR080W
p658
F17708
sVYBR245C
p659
F247
sVYDR465C
p660
F134
sVYKL079W
p661
F80
sVYFR044C
p662
F427
sVYGR105W
p663
F198
sVYIL103W
p664
F101
sVYBR269C
p665
F89
sVYDR283C
p666
F74
sVYJR116W
p667
F88
sVYER007C-A
p668
F459
sVYNR022C
p669
F197
sVYDR409W
p670
F50
sVYBR221C
p671
F235
sVYAL005C
p672
F10199
sVYGR074W
p673
F191
sVYNL166C
p674
F117
sVYDR097C
p675
F72
sVYJL121C
p676
F116
sVYGR161C
p677
F139
sVYPL069C
p678
F85
sVYDL213C
p679
F574
sVYIL145C
p680
F283
sVYGL216W
p681
F110
sVYFL031W
p682
F57
sVYDR478W
p683
F44
sVYHR064C
p684
F1695
sVYKL015W
p685
F89
sVYKL179C
p686
F52
sVYJL145W
p687
F124
sVYDR377W
p688
F262
sVYJL201W
p689
F213
sVYNL126W
p690
F55
sVYKL040C
p691
F279
sVYLR249W
p692
F14424
sVYNL004W
p693
F287
sVYMR230W
p694
F2427
sVYDR363W-A
p695
F831
sVYOL139C
p696
F2895
sVYBR207W
p697
F411
sVYAR009C
p698
F70
sVYLR321C
p699
F225
sVYOR266W
p700
F42
sVYPL203W
p701
F98
sVYNR055C
p702
F76
sVYHR200W
p703
F129
sVYKL210W
p704
F1815
sVYNL221C
p705
F44
sVYLR194C
p706
F95
sVYNL085W
p707
F104
sVYDR394W
p708
F84
sVYPL210C
p709
F307
sVYDR399W
p710
F1949
sVYAR014C
p711
F228
sVYOR087W
p712
F221
sVYGL234W
p713
F2951
sVYOR347C
p714
F79
sVYAL029C
p715
F163
sVYNL108C
p716
F185
sVYFR053C
p717
F169
sVYLR226W
p718
F98
sVYMR301C
p719
F63
sVYLR336C
p720
F165
sVYDR294C
p721
F243
sVYFR002W
p722
F339
sVYHR135C
p723
F227
sVYJL217W
p724
F105
sVYNL250W
p725
F90
sVYMR011W
p726
F852
sVYGR089W
p727
F77
sVYOR039W
p728
F272
sVYDR325W
p729
F78
sVYBR181C
p730
F361
sVYMR188C
p731
F221
sVYNL124W
p732
F103
sVYBL005W
p733
F39
sVYOR078W
p734
F198
sVYOR243C
p735
F147
sVYLR130C
p736
F57
sVYER022W
p737
F132
sVYOL064C
p738
F594
sVYDR041W
p739
F42
sVYGL047W
p740
F59
sVYMR165C
p741
F95
sVYMR205C
p742
F7661
sVYIL094C
p743
F451
sVYER164W
p744
F250
sVYBL101C
p745
F166
sVYML017W
p746
F197
sVYHR037W
p747
F398
sVYPL236C
p748
F55
sVYOR274W
p749
F60
sVYBL051C
p750
F151
sVYGR281W
p751
F176
sVYPL161C
p752
F103
sVYJL063C
p753
F172
sVYOL021C
p754
F268
sVYEL042W
p755
F50
sVYBL027W
p756
F1777
sVYHL013C
p757
F123
sVYOL060C
p758
F144
sVYGL105W
p759
F1831
sVYBR097W
p760
F54
sVYDL076C
p761
F124
sVYDR120C
p762
F196
sVYER126C
p763
F3798
sVYOR113W
p764
F53
sVYGR194C
p765
F49
sVYDR486C
p766
F226
sVYJL192C
p767
F431
sVYHR117W
p768
F224
sVYOL130W
p769
F81
sVYOR238W
p770
F89
sVYBL047C
p771
F691
sVYDR265W
p772
F50
sVYLL023C
p773
F156
sVYGR014W
p774
F287
sVYOR014W
p775
F287
sVYPR161C
p776
F97
sVYML059C
p777
F105
sVYDR063W
p778
F112
sVYKR045C
p779
F53
sVYCR012W
p780
F15100
sVYGL026C
p781
F2951
sVYPR090W
p782
F135
sVYPR128C
p783
F52
sVYKL156W
p784
F3325
sVYPL084W
p785
F175
sVYNL010W
p786
F682
sVYDL110C
p787
F156
sVYMR134W
p788
F162
sVYDR301W
p789
F132
sVYJL053W
p790
F140
sVYPR104C
p791
F75
sVYMR069W
p792
F44
sVYGR214W
p793
F228
sVYGL006W
p794
F61
sVYPL006W
p795
F109
sVYOR133W
p796
F1467
sVYKR067W
p797
F225
sVYMR143W
p798
F2070
sVYNL310C
p799
F1625
sVYML028W
p800
F7420
sVYCR063W
p801
F278
sVYLL001W
p802
F51
sVYOR168W
p803
F1103
sVYNL189W
p804
F678
sVYMR043W
p805
F142
sVYER068W
p806
F308
sVYER013W
p807
F74
sVYMR269W
p808
F141
sVYKL053C-A
p809
F90
sVYGL122C
p810
F814
sVYLR143W
p811
F86
sVYLR043C
p812
F993
sVYDL018C
p813
F247
sVYJR062C
p814
F53
sVYCR018C-A
p815
F731
sVYPR160W
p816
F44
sVYPR073C
p817
F131
sVYML035C
p818
F233
sVYNL181W
p819
F79
sVYPL254W
p820
F63
sVYHL039W
p821
F142
sVYDL136W
p822
F2582
sVYCR090C
p823
F128
sVYKL056C
p824
F3807
sVYAL060W
p825
F1319
sVYFL025C
p826
F60
sVYKL009W
p827
F665
sVYIL144W
p828
F56
sVYOR124C
p829
F115
sVYOR332W
p830
F2128
sVYLR196W
p831
F786
sVYJR057W
p832
F80
sVYIL133C
p833
F100
sVYHR063C
p834
F43
sVYJL200C
p835
F5108
sVYGL211W
p836
F164
sVYDR316W
p837
F45
sVYPL195W
p838
F201
sVYIR036C
p839
F44
sVYNL067W
p840
F10146
sVYLR438W
p841
F361
sVYDR376W
p842
F67
sVYAL059W
p843
F132
sVYNL007C
p844
F1584
sVYKL096W
p845
F126
sVYJR137C
p846
F135
sVYKL014C
p847
F313
sVYLR237W
p848
F51
sVYMR074C
p849
F207
sVYHR051W
p850
F456
sVYGR277C
p851
F89
sVYKR029C
p852
F72
sVYJL104W
p853
F463
sVYOR296W
p854
F70
sVYFL041W
p855
F285
sVYJL168C
p856
F99
sVYDR145W
p857
F122
sVYER091C
p858
F13382
sVYJL062W
p859
F118
sVYPL085W
p860
F266
sVYDL103C
p861
F154
sVYMR010W
p862
F182
sVYDL203C
p863
F60
sVYBR011C
p864
F1796
sVYLR215C
p865
F50
sVYML082W
p866
F148
sVYLR363W-A
p867
F378
sVYMR287C
p868
F49
sVYKL130C
p869
F167
sVYNL021W
p870
F89
sVYFR001W
p871
F60
sVYPL198W
p872
F2398
sVYPL131W
p873
F5320
sVYIL115C
p874
F312
sVYPL007C
p875
F51
sVYGR095C
p876
F171
sVYJL088W
p877
F2319
sVYHR158C
p878
F171
sVYLR319C
p879
F89
sVYNL190W
p880
F52
sVYMR235C
p881
F802
sVYOR341W
p882
F1262
sVYPL091W
p883
F312
sVYDR295C
p884
F62
sVYAL033W
p885
F383
sVYGR155W
p886
F1490
sVYMR300C
p887
F1033
sVYFR049W
p888
F127
sVYNL130C
p889
F244
sVYDR108W
p890
F74
sVYNR049C
p891
F43
sVYML109W
p892
F58
sVYLR342W
p893
F106
sVYLR335W
p894
F328
sVYNL251C
p895
F548
sVYBL028C
p896
F720
sVYBL004W
p897
F177
sVYBR164C
p898
F343
sVYIL153W
p899
F73
sVYJR088C
p900
F388
sVYHR074W
p901
F46
sVYBR211C
p902
F68
sVYLR399C
p903
F506
sVYBR268W
p904
F125
sVYFR030W
p905
F88
sVYOR006C
p906
F59
sVYBR131W
p907
F45
sVYLR277C
p908
F106
sVYBR244W
p909
F404
sVYPL053C
p910
F82
sVYLR436C
p911
F113
sVYBR179C
p912
F57
sVYPL155C
p913
F54
sVYJR097W
p914
F151
sVYLR351C
p915
F250
sVYOL094C
p916
F89
sVYAL002W
p917
F50
sVYJL095W
p918
F46
sVYHR018C
p919
F2772
sVYDR408C
p920
F1111
sVYBR126C
p921
F513
sVYOL149W
p922
F144
sVYLR257W
p923
F1581
sVYGL202W
p924
F3473
sVYOR046C
p925
F419
sVYNL141W
p926
F413
sVYBL026W
p927
F275
sVYPR187W
p928
F1384
sVYEL018W
p929
F86
sVYDR432W
p930
F3679
sVYGR195W
p931
F220
sVYPL211W
p932
F861
sVYDL077C
p933
F47
sVYOL061W
p934
F351
sVYER152C
p935
F95
sVYHR116W
p936
F87
sVYPL259C
p937
F204
sVYOL100W
p938
F49
sVYPL220W
p939
F1806
sVYJL191W
p940
F603
sVYMR219W
p941
F103
sVYBL046W
p942
F89
sVYGR017W
p943
F247
sVYMR079W
p944
F1252
sVYOL005C
p945
F663
sVYOR213C
p946
F53
sVYOL107W
p947
F74
sVYFR016C
p948
F211
sVYLR450W
p949
F163
sVYKL088W
p950
F185
sVYIL095W
p951
F85
sVYOR326W
p952
F416
sVYLR396C
p953
F100
sVYOL123W
p954
F1509
sVYML116W
p955
F598
sVYNL084C
p956
F182
sVYGR055W
p957
F1218
sVYGR156W
p958
F154
sVYLR179C
p959
F845
sVYBR084C-A
p960
F1856
sVYCL011C
p961
F67
sVYHR207C
p962
F128
sVYHL038C
p963
F52
sVYER141W
p964
F345
sVYDR425W
p965
F68
sVYNL220W
p966
F1600
sVYBL007C
p967
F531
sVYGR060W
p968
F1470
sVYCL064C
p969
F111
sVYML076C
p970
F95
sVYKR060W
p971
F216
sVYML029W
p972
F41
sVYNL313C
p973
F352
sVYMR142C
p974
F2224
sVYGL031C
p975
F4816
sVYCR048W
p976
F39
sVYCR033W
p977
F78
sVYER069W
p978
F455
sVYMR091C
p979
F156
sVYPR172W
p980
F75
sVYMR208W
p981
F97
sVYHR098C
p982
F346
sVYDL019C
p983
F154
sVYML034W
p984
F51
sVYDL135C
p985
F257
sVYPR023C
p986
F43
sVYPL126W
p987
F415
sVYCR093W
p988
F436
sVYLR144C
p989
F67
sVYKR059W
p990
F1945
sVYDR168W
p991
F406
sVYJL186W
p992
F90
sVYER023W
p993
F727
sVYER163C
p994
F47
sVYER132C
p995
F114
sVYGR295C
p996
F139
sVYBR069C
p997
F83
sVYML016C
p998
F177
sVYGL040C
p999
F373
sVYKR084C
p1000
F150
sVYDL017W
p1001
F42
sVYDR040C
p1002
F132
sVYLL031C
p1003
F202
sVYLR033W
p1004
F191
sVYGL110C
p1005
F89
sVYDL051W
p1006
F574
sVYBL102W
p1007
F264
sVYMR242C
p1008
F3209
sVYOR230W
p1009
F1326
sVYEL043W
p1010
F106
sVYPL183C
p1011
F213
sVYDR166C
p1012
F103
sVYKR088C
p1013
F228
sVYNL068C
p1014
F57
sVYGR204W
p1015
F4690
sVYJL169W
p1016
F416
sVYJR080C
p1017
F58
sVYJL050W
p1018
F103
sVYDR170W-A
p1019
F473
sVYBR112C
p1020
F369
sVYPL158C
p1021
F43
sVYDL202W
p1022
F224
sVYDL100C
p1023
F429
sVYFL008W
p1024
F212
sVYJL061W
p1025
F274
sVYLR216C
p1026
F645
sVYDR217C
p1027
F77
sVYGR063C
p1028
F596
sVYDR441C
p1029
F166
sVYOR196C
p1030
F193
sVYOR101W
p1031
F102
sVYLR290C
p1032
F60
sVYER090W
p1033
F1418
sVYDR231C
p1034
F85
sVYOR291W
p1035
F112
sVYJL112W
p1036
F72
sVYFL006W
p1037
F95
sVYDR159W
p1038
F96
sVYMR173W
p1039
F510
sVYMR059W
p1040
F40
sVYDR062W
p1041
F291
sVYML058W
p1042
F1781
sVYER034W
p1043
F214
sVYJR076C
p1044
F236
sVYLR106C
p1045
F99
sVYKL157W
p1046
F344
sVYKR002W
p1047
F120
sVYBR003W
p1048
F88
sVYDR200C
p1049
F39
sVYPL050C
p1050
F62
sVYBR068C
p1051
F1497
sVYPR129W
p1052
F136
sVYGR260W
p1053
F171
sVYPL083C
p1054
F51
sVYMR135C
p1055
F39
sVYLR201C
p1056
F50
sVYBR130C
p1057
F155
sVYBR247C
p1058
F276
sVYLR185W
p1059
F3509
sVYLR369W
p1060
F104
sVYOR007C
p1061
F506
sVYKL004W
p1062
F354
sVYOL148C
p1063
F64
sVYFR031C
p1064
F112
sVYOR367W
p1065
F39
sVYGL203C
p1066
F273
sVYIL149C
p1067
F60
sVYNL271C
p1068
F103
sVYPL075W
p1069
F56
sVYLR258W
p1070
F108
sVYNR015W
p1071
F111
sVYIL078W
p1072
F2139
sVYLR350W
p1073
F132
sVYFL024C
p1074
F44
sVYBL103C
p1075
F95
sVYGR163W
p1076
F124
sVYGL126W
p1077
F110
sVYKL022C
p1078
F76
sVYLR018C
p1079
F196
sVYIL130W
p1080
F155
sVYDR368W
p1081
F221
sVYBR101C
p1082
F622
sVYDL164C
p1083
F144
sVYJR050W
p1084
F50
sVYDR177W
p1085
F196
sVYHR132W-A
p1086
F222
sVYKL008C
p1087
F222
sVYDR375C
p1088
F47
sVYIR001C
p1089
F40
sVYKL195W
p1090
F83
sVYGL210W
p1091
F249
sVYDR320C
p1092
F114
sVYPL112C
p1093
F139
sVYPL030W
p1094
F193
sVYGR207C
p1095
F337
sVYKL095W
p1096
F58
sVYGL225W
p1097
F1418
sVYIL016W
p1098
F396
sVYJL098W
p1099
F192
sVYLR451W
p1100
F47
sVYFR017C
p1101
F54
sVYML108W
p1102
F119
sVYIL076W
p1103
F664
sVYLR323C
p1104
F45
sVYOL028C
p1105
F66
sVYDR186C
p1106
F88
sVYBL038W
p1107
F59
sVYGL067W
p1108
F78
sVYDR424C
p1109
F70
sVYGR189C
p1110
F53
sVYNL278W
p1111
F121
sVYNL158W
p1112
F223
sVYOR069W
p1113
F124
sVYGR038W
p1114
F222
sVYKR001C
p1115
F579
sVYOR363C
p1116
F54
sVYNL087W
p1117
F354
sVYBR227C
p1118
F148
sVYBR278W
p1119
F55
sVYOR273C
p1120
F105
sVYDR296W
p1121
F225
sVYGL232W
p1122
F74
sVYPL107W
p1123
F83
sVYIL030C
p1124
F118
sVYPL032C
p1125
F174
sVYGR094W
p1126
F3080
sVYDL122W
p1127
F208
sVYJR138W
p1128
F90
sVYLR442C
p1129
F74
sVYNL133C
p1130
F41
sVYBR265W
p1131
F58
sVYBR287W
p1132
F112
sVYDL044C
p1133
F49
sVYMR307W
p1134
F1855
sVYAL032C
p1135
F45
sVYGL145W
p1136
F80
sVYHR137W
p1137
F179
sVYNL283C
p1138
F94
sVYBR187W
p1139
F45
sVYKL197C
p1140
F120
sVYOL006C
p1141
F106
sVYCR003W
p1142
F262
sVYLR132C
p1143
F93
sVYER020W
p1144
F143
sVYNL201C
p1145
F130
sVYDL190C
p1146
F229
sVYCR028C-A
p1147
F457
sVYHR102W
p1148
F122
sVYER112W
p1149
F202
sVYGR076C
p1150
F115
sVYER075C
p1151
F65
sVYEL015W
p1152
F162
sVYGR254W
p1153
F1106
sVYEL040W
p1154
F996
sVYKR085C
p1155
F111
sVYPL045W
p1156
F88
sVYLR418C
p1157
F215
sVYLR063W
p1158
F70
sVYER059W
p1159
F88
sVYOR234C
p1160
F2629
sVYGL111W
p1161
F177
sVYBR289W
p1162
F49
sVYOR132W
p1163
F106
sVYKR093W
p1164
F239
sVYPL048W
p1165
F685
sVYOL066C
p1166
F51
sVYKL212W
p1167
F761
sVYJL071W
p1168
F55
sVYGL167C
p1169
F464
sVYOR027W
p1170
F2593
sVYEL022W
p1171
F270
sVYPR188C
p1172
F44
sVYIL053W
p1173
F14626
sVYDL074C
p1174
F75
sVYNL073W
p1175
F42
sVYOR374W
p1176
F475
sVYJL190C
p1177
F1697
sVYMR218C
p1178
F77
sVYLR052W
p1179
F181
sVYGL107C
p1180
F243
sVYDR032C
p1181
F255
sVYNL106C
p1182
F74
sVYEL053C
p1183
F42
sVYDR236C
p1184
F59
sVYJL042W
p1185
F167
sVYPL037C
p1186
F3839
sVYCR092C
p1187
F65
sVYPL177C
p1188
F45
sVYKR010C
p1189
F48
sVYGL184C
p1190
F192
sVYMR058W
p1191
F1109
sVYDR061W
p1192
F87
sVYOR290C
p1193
F135
sVYKL114C
p1194
F52
sVYML024W
p1195
F307
sVYML093W
p1196
F284
sVYJR077C
p1197
F627
sVYHR197W
p1198
F194
sVYDL112W
p1199
F152
sVYDR391C
p1200
F125
sVYOR198C
p1201
F1239
sVYGR261C
p1202
F222
sVYKR003W
p1203
F77
sVYDR158W
p1204
F2654
sVYOL019W
p1205
F233
sVYOR164C
p1206
F59
sVYPL082C
p1207
F375
sVYNL302C
p1208
F2181
sVYGR283C
p1209
F45
sVYDL052C
p1210
F715
sVYER175C
p1211
F1037
sVYJL178C
p1212
F223
sVYJL033W
p1213
F283
sVYLR429W
p1214
F375
sVYMR308C
p1215
F574
sVYDR050C
p1216
F5770
sVYGR061C
p1217
F4086
sVYNL265C
p1218
F111
sVYNL312W
p1219
F326
sVYLR180W
p1220
F3854
sVYDR105C
p1221
F181
sVYPL241C
p1222
F84
sVYGL120C
p1223
F509
sVYPL240C
p1224
F4167
sVYGR271C-A
p1225
F210
sVYDR169C
p1226
F77
sVYPR022C
p1227
F75
sVYLR110C
p1228
F1031
sVYDL134C
p1229
F95
sVYEL071W
p1230
F1167
sVYMR272C
p1231
F77
sVYML062C
p1232
F120
sVYOR302W
p1233
F1180
sVYPR108W
p1234
F106
sVYNL041C
p1235
F132
sVYBR106W
p1236
F1903
sVYBL093C
p1237
F140
sVYKL054C
p1238
F3438
sVYLR390W-A
p1239
F552
sVYGR162W
p1240
F1905
sVYDL165W
p1241
F97
sVYBR291C
p1242
F161
sVYDR258C
p1243
F495
sVYJL124C
p1244
F313
sVYKL023W
p1245
F152
sVYKL094W
p1246
F225
sVYOL030W
p1247
F46
sVYPR131C
p1248
F80
sVYKL143W
p1249
F232
sVYFL034W
p1250
F90
sVYPL031C
p1251
F168
sVYIR002C
p1252
F61
sVYKL012W
p1253
F40
sVYER080W
p1254
F102
sVYNL125C
p1255
F440
sVYNL065W
p1256
F227
sVYJR135C
p1257
F47
sVYFR032C-A
p1258
F5351
sVYGL213C
p1259
F147
sVYJL004C
p1260
F118
sVYMR076C
p1261
F127
sVYGR205W
p1262
F93
sVYDR356W
p1263
F131
sVYPR174C
p1264
F113
sVYJR017C
p1265
F203
sVYPL180W
p1266
F76
sVYKL113C
p1267
F92
sVYNL027W
p1268
F120
sVYPL022W
p1269
F69
sVYOR362C
p1270
F1034
sVYJL060W
p1271
F144
sVYDL205C
p1272
F237
sVYML080W
p1273
F96
sVYNL099C
p1274
F47
sVYMR027W
p1275
F439
sVYLR291C
p1276
F294
sVYDR210W
p1277
F96
sVYGR048W
p1278
F172
sVYOR259C
p1279
F466
sVYML115C
p1280
F56
sVYJR113C
p1281
F160
sVYBR279W
p1282
F176
sVYOR281C
p1283
F299
sVYLL018C-A
p1284
F177
sVYIL117C
p1285
F161
sVYIR026C
p1286
F120
sVYOL052C
p1287
F443
sVYGR140W
p1288
F73
sVYPL137C
p1289
F300
sVYOL023W
p1290
F43
sVYGR097W
p1291
F141
sVYNL301C
p1292
F1979
sVYIL068C
p1293
F95
sVYNR034W
p1294
F191
sVYGL231C
p1295
F138
sVYOR241W
p1296
F366
sVYHR136C
p1297
F205
sVYNL282W
p1298
F95
sVYDR297W
p1299
F298
sVYAL031C
p1300
F59
sVYNL132W
p1301
F75
sVYMR070W
p1302
F96
sVYBR231C
p1303
F88
sVYHR162W
p1304
F373
sVYPL110C
p1305
F74
sVYHR055C
p1306
F108
sVYOR004W
p1307
F161
sVYBR166C
p1308
F264
sVYDR462W
p1309
F149
sVYJL148W
p1310
F529
sVYGL093W
p1311
F50
sVYDR098C
p1312
F115
sVYOR371C
p1313
F87
sVYPL009C
p1314
F343
sVYIL148W
p1315
F634
sVYGL200C
p1316
F674
sVYOR044W
p1317
F92
sVYNL052W
p1318
F182
sVYBR120C
p1319
F230
sVYDR280W
p1320
F354
sVYOR179C
p1321
F154
sVYKL215C
p1322
F246
sVYDR418W
p1323
F6454
sVYHR114W
p1324
F146
sVYBL024W
p1325
F652
sVYMR241W
p1326
F719
sVYOL067C
p1327
F465
sVYGL079W
p1328
F46
sVYDR127W
p1329
F2296
sVYCL034W
p1330
F101
sVYAR044W
p1331
F142
sVYBR288C
p1332
F76
sVYOR220W
p1333
F111
sVYJR067C
p1334
F120
sVYMR222C
p1335
F183
sVYLL048C
p1336
F335
sVYOR065W
p1337
F438
sVYNL264C
p1338
F39
sVYLL024C
p1339
F19107
sVYHL007C
p1340
F294
sVYMR129W
p1341
F47
sVYOL027C
p1342
F469
sVYDR033W
p1343
F1170
sVYPL120W
p1344
F50
sVYIL075C
p1345
F825
sVYOL145C
p1346
F490
sVYPL215W
p1347
F299
sVYHR149C
p1348
F89
sVYLR324W
p1349
F61
sVYOL098C
p1350
F352
sVYBR208C
p1351
F1950
sVYDR005C
p1352
F59
sVYOL045W
p1353
F114
sVYHL009C
p1354
F55
sVYMR311C
p1355
F391
sVYKL122C
p1356
F232
sVYHR205W
p1357
F128
sVYGR037C
p1358
F1549
sVYAL035W
p1359
F2001
sVYOR236W
p1360
F220
sVYOL121C
p1361
F1641
sVYBL039C
p1362
F1251
sVYGR188C
p1363
F40
sVYER143W
p1364
F85
sVYNL045W
p1365
F153
sVYGR284C
p1366
F616
sVYDL053C
p1367
F243
sVYPR004C
p1368
F802
sVYOR122C
p1369
F1633
sVYML074C
p1370
F450
sVYKR062W
p1371
F136
sVYNL286W
p1372
F60
sVYLR200W
p1373
F161
sVYMR215W
p1374
F107
sVYDR051C
p1375
F77
sVYGR062C
p1376
F109
sVYOR109W
p1377
F259
sVYER176W
p1378
F74
sVYOR181W
p1379
F114
sVYGL127C
p1380
F156
sVYBR030W
p1381
F85
sVYLR440C
p1382
F111
sVYDL232W
p1383
F922
sVYNL330C
p1384
F85
sVYGR244C
p1385
F363
sVYKR037C
p1386
F68
sVYDR496C
p1387
F633
sVYGR117C
p1388
F80
sVYOR298C-A
p1389
F3015
sVYML032C
p1390
F68
sVYLR146C
p1391
F100
sVYBR267W
p1392
F315
sVYLR189C
p1393
F76
sVYER118C
p1394
F138
sVYML010W
p1395
F741
sVYMR253C
p1396
F117
sVYER074W
p1397
F2437
sVYBR052C
p1398
F307
sVYER134C
p1399
F238
sVYEL052W
p1400
F100
sVYMR162C
p1401
F69
sVYER161C
p1402
F71
sVYJL180C
p1403
F40
sVYHR103W
p1404
F49
sVYOR001W
p1405
F175
sVYDR498C
p1406
F78
sVYGR002C
p1407
F90
sVYGR075C
p1408
F114
sVYMR120C
p1409
F9195
sVYDR510W
p1410
F992
sVYKR082W
p1411
F388
sVYEL014C
p1412
F131
sVYOR042W
p1413
F236
sVYBR023C
p1414
F159
sVYPR045C
p1415
F85
sVYPR010C
p1416
F1407
sVYPL231W
p1417
F2784
sVYLR148W
p1418
F112
sVYKL155C
p1419
F92
sVYJR069C
p1420
F374
sVYBR162W-A
p1421
F89
sVYDR119W
p1422
F555
sVYNR031C
p1423
F98
sVYPL081W
p1424
F5599
sVYIR035C
p1425
F47
sVYDR148C
p1426
F43
sVYPL181W
p1427
F84
sVYDL106C
p1428
F64
sVYDR335W
p1429
F190
sVYPR141C
p1430
F43
sVYGR206W
p1431
F71
sVYGL189C
p1432
F5416
sVYML081W
p1433
F60
sVYHR181W
p1434
F188
sVYDR443C
p1435
F45
sVYDR211W
p1436
F415
sVYCR095C
p1437
F56
sVYMR128W
p1438
F257
sVYLL011W
p1439
F383
sVYCR077C
p1440
F219
sVYJL029C
p1441
F108
sVYER056C
p1442
F3997
sVYMR157C
p1443
F45
sVYER036C
p1444
F1551
sVYML075C
p1445
F320
sVYCR017C
p1446
F111
sVYLR084C
p1447
F279
sVYDR060W
p1448
F624
sVYBL072C
p1449
F5399
sVYOR182C
p1450
F2711
sVYMR080C
p1451
F375
sVYGL187C
p1452
F77
sVYBR001C
p1453
F50
sVYNL246W
p1454
F144
sVYGL025C
p1455
F66
sVYHR196W
p1456
F407
sVYPR067W
p1457
F130
sVYML092C
p1458
F1360
sVYOR167C
p1459
F2695
sVYML025C
p1460
F118
sVYDL124W
p1461
F127
sVYDR257C
p1462
F183
sVYJR074W
p1463
F61
sVYGR266W
p1464
F127
sVYGR219W
p1465
F61
sVYAL012W
p1466
F1325
sVYHR163W
p1467
F435
sVYJR134C
p1468
F75
sVYMR288W
p1469
F52
sVYIL156W
p1470
F51
sVYBR241C
p1471
F128
sVYLR272C
p1472
F83
sVYDL226C
p1473
F375
sVYNR017W
p1474
F350
sVYKL059C
p1475
F69
sVYGL092W
p1476
F404
sVYJL012C-A
p1477
F79
sVYKL006W
p1478
F2928
sVYGR136W
p1479
F376
sVYNL097C
p1480
F66
sVYPL135W
p1481
F1192
sVYOR018W
p1482
F113
sVYDR513W
p1483
F51
sVYDR461W
p1484
F1576
sVYGL201C
p1485
F219
sVYNL113W
p1486
F935
sVYDR099W
p1487
F2478
sVYBR121C
p1488
F2253
sVYMR062C
p1489
F2050
sVYLR292C
p1490
F400
sVYAL007C
p1491
F383
sVYHR170W
p1492
F474
sVYLR312W-A
p1493
F216
sVYLR262C-A
p1494
F610
sVYKL068W
p1495
F242
sVYBR262C
p1496
F235
sVYDL166C
p1497
F292
sVYKL142W
p1498
F310
sVYPL049C
p1499
F63
sVYGL212W
p1500
F159
sVYNL122C
p1501
F67
sVYLR045C
p1502
F154
sVYER081W
p1503
F1370
sVYIL136W
p1504
F48
sVYPL178W
p1505
F487
sVYDR373W
p1506
F158
sVYHR060W
p1507
F65
sVYDR322W
p1508
F110
sVYOL111C
p1509
F447
sVYOR098C
p1510
F225
sVYGL227W
p1511
F78
sVYOR350C
p1512
F54
sVYFR011C
p1513
F248
sVYIL074C
p1514
F659
sVYIL161W
p1515
F91
sVYLL043W
p1516
F142
sVYOL144W
p1517
F100
sVYNR021W
p1518
F605
sVYHL008C
p1519
F59
sVYIL021W
p1520
F341
sVYHR039C
p1521
F259
sVYER131W
p1522
F3577
sVYGL178W
p1523
F149
sVYBR070C
p1524
F101
sVYGR036C
p1525
F132
sVYGR118W
p1526
F2115
sVYGR121C
p1527
F737
sVYDL184C
p1528
F5690
sVYGL065C
p1529
F46
sVYDR180W
p1530
F49
sVYAL001C
p1531
F42
sVYIR005W
p1532
F114
sVYIL036W
p1533
F88
sVYPL047W
p1534
F125
sVYOL051W
p1535
F163
sVYDR476C
p1536
F130
sVYEL003W
p1537
F121
sVYJR112W
p1538
F96
sVYBR225W
p1539
F57
sVYMR086W
p1540
F193
sVYPL183W-A
p1541
F129
sVYIL158W
p1542
F61
sVYIL069C
p1543
F1967
sVYJR083C
p1544
F105
sVYJL173C
p1545
F286
sVYBR169C
p1546
F147
sVYNL135C
p1547
F1375
sVYJR101W
p1548
F114
sVYGL147C
p1549
F3115
sVYBR263W
p1550
F285
sVYNL281W
p1551
F799
sVYBL001C
p1552
F43
sVYBR185C
p1553
F131
sVYDR019C
p1554
F677
sVYOR232W
p1555
F148
sVYGR150C
p1556
F71
sVYDR224C
p1557
F7684
sVYEL055C
p1558
F280
sVYMR196W
p1559
F62
sVYML013W
p1560
F158
sVYNL207W
p1561
F231
sVYDL192W
p1562
F2065
sVYBR082C
p1563
F892
sVYOR210W
p1564
F1313
sVYJR022W
p1565
F57
sVYER077C
p1566
F44
sVYGL246C
p1567
F158
sVYBR089C-A
p1568
F714
sVYCR054C
p1569
F95
sVYKR083C
p1570
F65
sVYEL017W
p1571
F61
sVYGR252W
p1572
F42
sVYDL003W
p1573
F48
sVYER128W
p1574
F61
sVYDL078C
p1575
F221
sVYGR003W
p1576
F40
sVYDR517W
p1577
F194
sVYGL043W
p1578
F201
sVYDR110W
p1579
F67
sVYOL088C
p1580
F68
sVYOR361C
p1581
F1806
sVYOR185C
p1582
F45
sVYKR095W
p1583
F141
sVYMR223W
p1584
F47
sVYFL034C-A
p1585
F2366
sVYLR193C
p1586
F77
sVYBL023C
p1587
F192
sVYGL078C
p1588
F638
sVYDL133C-A
p1589
F5186
sVYOR329C
p1590
F57
sVYER151C
p1591
F362
sVYLL027W
p1592
F228
sVYCL001W
p1593
F84
sVYGR198W
p1594
F40
sVYNL078W
p1595
F47
sVYAR007C
p1596
F301
sVYLR050C
p1597
F60
sVYGR010W
p1598
F41
sVYML064C
p1599
F54
sVYLR414C
p1600
F429
sVYNL307C
p1601
F384
sVYCR016W
p1602
F227
sVYLL012W
p1603
F174
sVYCL052C
p1604
F80
sVYDR067C
p1605
F70
sVYMR056C
p1606
F43
sVYML031W
p1607
F273
sVYJL044C
p1608
F101
sVYCR094W
p1609
F108
sVYGL186C
p1610
F93
sVYDR234W
p1611
F1282
sVYGR218W
p1612
F655
sVYEL060C
p1613
F155
sVYPR179C
p1614
F51
sVYHR195W
p1615
F91
sVYGL091C
p1616
F111
sVYDL125C
p1617
F810
sVYML026C
p1618
F488
sVYPL002C
p1619
F44
sVYGL022W
p1620
F348
sVYML079W
p1621
F55
sVYJL153C
p1622
F81
sVYDR229W
p1623
F105
sVYJR075W
p1624
F109
sVYPR124W
p1625
F65
sVYLL029W
p1626
F368
sVYGR285C
p1627
F2516
sVYNL232W
p1628
F333
sVYER017C
p1629
F178
sVYMR214W
p1630
F49
sVYCR030C
p1631
F160
sVYER177W
p1632
F3701
sVYDR500C
p1633
F2707
sVYGL032C
p1634
F77
sVYEL019C
p1635
F84
sVYML048W
p1636
F77
sVYNL112W
p1637
F2221
sVYDL132W
p1638
F110
sVYBL064C
p1639
F106
sVYNL162W
p1640
F2282
sVYPL243W
p1641
F369
sVYDR497C
p1642
F900
sVYDL025C
p1643
F206
sVYGR229C
p1644
F459
sVYDL147W
p1645
F682
sVYBR104W
p1646
F89
sVYJL171C
p1647
F305
sVYBL091C
p1648
F64
sVYOR262W
p1649
F87
sVYOR335C
p1650
F3189
sVYKL021C
p1651
F224
sVYDL167C
p1652
F182
sVYLR388W
p1653
F463
sVYIL137C
p1654
F88
sVYKL069W
p1655
F190
sVYNL123W
p1656
F196
sVYMR003W
p1657
F50
sVYDR372C
p1658
F198
sVYBR119W
p1659
F41
sVYLR373C
p1660
F110
sVYKL092C
p1661
F102
sVYFL016C
p1662
F458
sVYDR322C-A
p1663
F77
sVYNL032W
p1664
F120
sVYKL152C
p1665
F14302
sVYJR035W
p1666
F44
sVYKR054C
p1667
F77
sVYOR330C
p1668
F104
sVYPL221W
p1669
F276
sVYDL081C
p1670
F8611
sVYIR034C
p1671
F12318
sVYDR165W
p1672
F312
sVYGL013C
p1673
F93
sVYLR191W
p1674
F56
sVYJR068W
p1675
F104
sVYDL178W
p1676
F313
sVYML086C
p1677
F533
sVYPL097W
p1678
F66
sVYDL207W
p1679
F75
sVYPL079W
p1680
F1936
sVYPL015C
p1681
F120
sVYNR001C
p1682
F160
sVYMR038C
p1683
F694
sVYJL066C
p1684
F41
sVYDR343C
p1685
F2940
sVYBR122C
p1686
F133
sVYDR477W
p1687
F251
sVYBR199W
p1688
F50
sVYJR148W
p1689
F3093
sVYBR253W
p1690
F120
sVYIL035C
p1691
F462
sVYIL159W
p1692
F54
sVYJR082C
p1693
F67
sVYML121W
p1694
F227
sVYNL134C
p1695
F195
sVYNR061C
p1696
F61
sVYJL084C
p1697
F95
sVYHR154W
p1698
F91
sVYOR008C
p1699
F376
sVYDR291W
p1700
F39
sVYGR151C
p1701
F41
sVYMR304W
p1702
F185
sVYKL010C
p1703
F204
sVYOR128C
p1704
F1435
sVYFL036W
p1705
F1577
sVYJR133W
p1706
F60
sVYIL157C
p1707
F81
sVYIL051C
p1708
F53
sVYPL057C
p1709
F221
sVYNR010W
p1710
F92
sVYDR365C
p1711
F322
sVYKL007W
p1712
F374
sVYNL169C
p1713
F58
sVYGL206C
p1714
F1566
sVYDL225W
p1715
F286
sVYHR070W
p1716
F229
sVYDR460W
p1717
F52
sVYKL085W
p1718
F235
sVYNR043W
p1719
F584
sVYOR360C
p1720
F134
sVYOR227W
p1721
F45
sVYOL089C
p1722
F39
sVYDR416W
p1723
F53
sVYLL026W
p1724
F923
sVYHR023W
p1725
F116
sVYBL022C
p1726
F191
sVYGL164C
p1727
F84
sVYER156C
p1728
F195
sVYPL255W
p1729
F61
sVYGR013W
p1730
F66
sVYML103C
p1731
F328
sVYEL038W
p1732
F129
sVYCL014W
p1733
F111
sVYOR377W
p1734
F44
sVYGL172W
p1735
F222
sVYGL108C
p1736
F75
sVYPL040C
p1737
F82
sVYPL090C
p1738
F1695
sVYDR388W
p1739
F168
sVYPL208W
p1740
F62
sVYDR007W
p1741
F123
sVYGL220W
p1742
F183
sVYPL122C
p1743
F69
sVYGR082W
p1744
F804
sVYMR291W
p1745
F355
sVYHL027W
p1746
F62
sVYNL248C
p1747
F431
sVYLR285W
p1748
F321
sVYGR119C
p1749
F325
sVYLR326W
p1750
F64
sVYNL224C
p1751
F81
sVYBR275C
p1752
F39
sVYDR539W
p1753
F68
sVYMR212C
p1754
F155
sVYBR025C
p1755
F1498
sVYML001W
p1756
F368
sVYLL028W
p1757
F516
sVYOR187W
p1758
F303
sVYER016W
p1759
F60
sVYOL115W
p1760
F64
sVYKL128C
p1761
F407
sVYGL035C
p1762
F54
sVYMR039C
p1763
F148
sVYCR086W
p1764
F42
sVYML058W-A
p1765
F78
sVYER035W
p1766
F132
sVYGR246C
p1767
F64
sVYMR277W
p1768
F126
sVYMR095C
p1769
F596
sVYML049C
p1770
F664
sVYBR067C
p1771
F1136
sVYDR100W
p1772
F274
sVYER049W
p1773
F118
sVYGL125W
p1774
F129
sVYEL054C
p1775
F1379
sVYMR255W
p1776
F201
sVYGL068W
p1777
F458
sVYLR028C
p1778
F476
sVYER136W
p1779
F773
sVYML012W
p1780
F912
sVYER056C-A
p1781
F3382
sVYDR028C
p1782
F204
sVYOR217W
p1783
F131
sVYBL035C
p1784
F79
sVYCR057C
p1785
F341
sVYNL206C
p1786
F61
sVYHR105W
p1787
F64
sVYLR060W
p1788
F1224
sVYMR016C
p1789
F160
sVYPL233W
p1790
F93
sVYIL063C
p1791
F65
sVYGR251W
p1792
F139
sVYPR047W
p1793
F45
sVYML091C
p1794
F89
sVYBR049C
p1795
F366
sVYDR044W
p1796
F86
sVYKR080W
p1797
F1020
sVYDL002C
p1798
F48
sVYDR354W
p1799
F636
sVYJR032W
p1800
F117
sVYIR037W
p1801
F139
sVYMR195W
p1802
F93
sVYOL057W
p1803
F88
sVYJL101C
p1804
F129
sVYKR057W
p1805
F3472
sVYNL040W
p1806
F120
sVYDR353W
p1807
F1737
sVYMR139W
p1808
F87
sVYHR009C
p1809
F77
sVYHR183W
p1810
F15768
sVYDL085C-A
p1811
F328
sVYJL138C
p1812
F3494
sVYPR143W
p1813
F481
sVYML085C
p1814
F172
sVYIL022W
p1815
F755
sVYNL322C
p1816
F389
sVYGR208W
p1817
F845
sVYKL119C
p1818
F61
sVYLR212C
p1819
F639
sVYHR042W
p1820
F377
sVYBL058W
p1821
F202
sVYKR079C
p1822
F100
sVYDR171W
p1823
F95
sVYLR086W
p1824
F97
sVYDR066C
p1825
F47
sVYML030W
p1826
F54
sVYPR169W
p1827
F111
sVYOR127W
p1828
F91
sVYER001W
p1829
F59
sVYDR235W
p1830
F82
sVYJL047C
p1831
F47
sVYMR313C
p1832
F103
sVYPR125W
p1833
F363
sVYGL023C
p1834
F97
sVYHR049W
p1835
F483
sVYLR175W
p1836
F1112
sVYDL126C
p1837
F1413
sVYDR228C
p1838
F67
sVYOR340C
p1839
F389
sVYMR260C
p1840
F1074
sVYGR264C
p1841
F1915
sVYOR158W
p1842
F150
sVYDL208W
p1843
F1371
sVYPL074W
p1844
F54
sVYJR025C
p1845
F266
sVYKL046C
p1846
F262
sVYBR145W
p1847
F1054
sVYAL014C
p1848
F62
sVYAL041W
p1849
F158
sVYOR075W
p1850
F56
sVYCR020W-B
p1851
F338
sVYHR161C
p1852
F112
sVYDL224C
p1853
F111
sVYLR181C
p1854
F102
sVYLR225C
p1855
F79
sVYGL207W
p1856
F830
sVYNL111C
p1857
F199
sVYPL058C
p1858
F141
sVYLR454W
p1859
F86
sVYPL100W
p1860
F41
sVYLR270W
p1861
F96
sVYNR011C
p1862
F57
sVYOL103W
p1863
F54
sVYIL050W
p1864
F50
sVYLR309C
p1865
F131
sVYPR086W
p1866
F147
sVYKL086W
p1867
F60
sVYNR044W
p1868
F55
sVYBR151W
p1869
F132
sVYDR153C
p1870
F286
sVYJL065C
p1871
F149
sVYJR003C
p1872
F133
sVYDL144C
p1873
F95
sVYFL028C
p1874
F412
sVYBR105C
p1875
F471
sVYPL117C
p1876
F1031
sVYDR371W
p1877
F53
sVYDR456W
p1878
F181
sVYDR308C
p1879
F67
sVYLR372W
p1880
F1827
sVYNL062C
p1881
F153
sVYMR004W
p1882
F141
sVYER083C
p1883
F221
sVYBR118W
p1884
F19116
sVYDR324C
p1885
F299
sVYHR172W
p1886
F64
sVYOR112W
p1887
F154
sVYGR157W
p1888
F718
sVYDL168W
p1889
F325
sVYDR262W
p1890
F101
sVYNL175C
p1891
F279
sVYGR173W
p1892
F325
sVYDL240W
p1893
F82
sVYBR234C
p1894
F353
sVYOR356W
p1895
F129
sVYFR013W
p1896
F104
sVYGR152C
p1897
F89
sVYMR177W
p1898
F70
sVYHR013C
p1899
F237
sVYGR083C
p1900
F443
sVYCL035C
p1901
F451
sVYOR136W
p1902
F104
sVYGL221C
p1903
F124
sVYHR144C
p1904
F53
sVYDR006C
p1905
F55
sVYGR034W
p1906
F4417
sVYDR190C
p1907
F577
sVYNL290W
p1908
F176
sVYBL010C
p1909
F61
sVYOR131C
p1910
F171
sVYDR139C
p1911
F47
sVYGR123C
p1912
F273
sVYJR147W
p1913
F70
sVYMR314W
p1914
F1187
sVYLR455W
p1915
F189
sVYAL021C
p1916
F276
sVYNL247W
p1917
F642
sVYMR092C
p1918
F433
sVYOR316C
p1919
F380
sVYNL227C
p1920
F60
sVYBR123C
p1921
F62
sVYIL112W
p1922
F98
sVYPL118W
p1923
F89
sVYGR090W
p1924
F583
sVYFR028C
p1925
F75
sVYNR028W
p1926
F110
sVYOR151C
p1927
F1239
sVYIL043C
p1928
F158
sVYKL071W
p1929
F5323
sVYPL134C
p1930
F202
sVYGL141W
p1931
F50
sVYBR152W
p1932
F161
sVYJL087C
p1933
F124
sVYLR347C
p1934
F1072
sVYNL157W
p1935
F138
sVYKR072C
p1936
F240
sVYBR218C
p1937
F3059
sVYAL036C
p1938
F445
sVYBL003C
p1939
F4996
sVYML120C
p1940
F382
sVYGL174W
p1941
F90
sVYLR172C
p1942
F451
sVYKR103W
p1943
F68
sVYLR153C
p1944
F2978
sVYDL065C
p1945
F110
sVYGL244W
p1946
F347
sVYOR239W
p1947
F519
sVYBL036C
p1948
F261
sVYOR249C
p1949
F40
sVYNL229C
p1950
F204
sVYBR080C
p1951
F408
sVYPR191W
p1952
F203
sVYDL030W
p1953
F43
sVYNR033W
p1954
F103
sVYDR027C
p1955
F100
sVYBR170C
p1956
F187
sVYNL272C
p1957
F168
sVYPL263C
p1958
F313
sVYGR001C
p1959
F696
sVYDL001W
p1960
F128
sVYOR140W
p1961
F99
sVYGR250C
p1962
F139
sVYDR515W
p1963
F114
sVYOR254C
p1964
F493
sVYOR276W
p1965
F1029
sVYMR309C
p1966
F1628
sVYOR089C
p1967
F666
sVYIL065C
p1968
F110
sVYHR119W
p1969
F57
sVYHL019C
p1970
F39
sVYNL258C
p1971
F140
sVYOR336W
p1972
F58
sVYJR094W-A
p1973
F1810
sVYKL216W
p1974
F1124
sVYGR012W
p1975
F45
sVYHL004W
p1976
F107
sVYOR209C
p1977
F460
sVYNL098C
p1978
F1102
sVYML102W
p1979
F130
sVYER157W
p1980
F148
sVYOL022C
p1981
F100
sVYGR270W
p1982
F124
sVYEL037C
p1983
F48
sVYDL131W
p1984
F3545
sVYMR054W
p1985
F66
sVYER053C
p1986
F73
sVYLL014W
p1987
F40
sVYCL050C
p1988
F1034
sVYGR047C
p1989
F100
sVYDR049W
p1990
F113
sVYKR014C
p1991
F525
sVYPR079W
p1992
F146
sVYJL026W
p1993
F140
sVYLR412W
p1994
F95
sVYER002W
p1995
F520
sVYDR170C
p1996
F243
sVYDR272W
p1997
F382
sVYPR008W
p1998
F72
sVYOR160W
p1999
F175
sVYGL133W
p2000
F149
sVYMR261C
p2001
F281
sVYMR112C
p2002
F49
sVYJL039C
p2003
F189
sVYLR038C
p2004
F41
sVYNL096C
p2005
F3347
sVYLR187W
p2006
F134
sVYNL212W
p2007
F232
sVYCR036W
p2008
F109
sVYDR038C
p2009
F101
sVYMR216C
p2010
F226
sVYML006C
p2011
F44
sVYCL061C
p2012
F70
sVYDR502C
p2013
F1258
sVYGR065C
p2014
F327
sVYER062C
p2015
F214
sVYER171W
p2016
F104
sVYGR247W
p2017
F83
sVYDR101C
p2018
F581
sVYML046W
p2019
F58
sVYDL130W
p2020
F8425
sVYMR276W
p2021
F90
sVYEL002C
p2022
F561
sVYER139C
p2023
F137
sVYDR495C
p2024
F75
sVYLR138W
p2025
F116
sVYLR016C
p2026
F43
sVYKL027W
p2027
F221
sVYBR079C
p2028
F2510
sVYDR152W
p2029
F536
sVYDL090C
p2030
F60
sVYMR061W
p2031
F69
sVYJL128C
p2032
F177
sVYDL145C
p2033
F898
sVYER019C-A
p2034
F286
sVYBL097W
p2035
F72
sVYKL127W
p2036
F176
sVYNL061W
p2037
F651
sVYKR021W
p2038
F77
sVYDR398W
p2039
F412
sVYMR239C
p2040
F140
sVYFL014W
p2041
F521
sVYDR457W
p2042
F161
sVYLR386W
p2043
F127
sVYIL135C
p2044
F78
sVYLR371W
p2045
F45
sVYKL067W
p2046
F502
sVYNL121C
p2047
F238
sVYDR087C
p2048
F261
sVYER084W
p2049
F92
sVYBR081C
p2050
F174
sVYJL166W
p2051
F107
sVYNL044W
p2052
F788
sVYER044C
p2053
F59
sVYMR072W
p2054
F860
sVYLR248W
p2055
F173
sVYOR283W
p2056
F559
sVYKL105C
p2057
F65
sVYKL075C
p2058
F54
sVYJR033C
p2059
F72
sVYDL087C
p2060
F82
sVYBL068W
p2061
F209
sVYGL011C
p2062
F1266
sVYDR352W
p2063
F217
sVYKL129C
p2064
F203
sVYMR123W
p2065
F621
sVYDR238C
p2066
F872
sVYNL323W
p2067
F206
sVYMR122W-A
p2068
F740
sVYFR024C-A
p2069
F305
sVYFR031C-A
p2070
F3305
sVYDR243C
p2071
F43
sVYHR082C
p2072
F174
sVYGR209C
p2073
F2328
sVYPR168W
p2074
F231
sVYPR113W
p2075
F315
sVYKR036C
p2076
F71
sVYBR251W
p2077
F63
sVYIL113W
p2078
F102
sVYLR240W
p2079
F53
sVYGR093W
p2080
F52
sVYIL040W
p2081
F171
sVYDR471W
p2082
F2892
sVYGR135W
p2083
F987
sVYDL234C
p2084
F101
sVYHR003C
p2085
F74
sVYAL019W
p2086
F184
sVYLR344W
p2087
F3977
sVYLR449W
p2088
F463
sVYNL156C
p2089
F247
sVYDR293C
p2090
F496
sVYBR155W
p2091
F199
sVYBL002W
p2092
F5385
sVYNR038W
p2093
F223
sVYGL140C
p2094
F177
sVYCL029C
p2095
F40
sVYHR152W
p2096
F41
sVYBR188C
p2097
F71
sVYPR189W
p2098
F245
sVYGR028W
p2099
F82
sVYAL017W
p2100
F75
sVYBR242W
p2101
F53
sVYBR142W
p2102
F251
sVYHR166C
p2103
F45
sVYGR175C
p2104
F2083
sVYJR131W
p2105
F64
sVYDR338C
p2106
F49
sVYIL128W
p2107
F191
sVYNL127W
p2108
F83
sVYNR012W
p2109
F47
sVYGL097W
p2110
F537
sVYHR073W
p2111
F132
sVYJL151C
p2112
F731
sVYER113C
p2113
F84
sVYNL110C
p2114
F559
sVYNL076W
p2115
F40
sVYDR367W
p2116
F226
sVYHR072W
p2117
F172
sVYPL059W
p2118
F302
sVYOR261C
p2119
F492
sVYDR012W
p2120
F1822
sVYHR045W
p2121
F88
sVYHR021C
p2122
F2487
sVYGL253W
p2123
F7239
sVYJL010C
p2124
F271
sVYIL088C
p2125
F109
sVYGL162W
p2126
F42
sVYOR271C
p2127
F74
sVYOR057W
p2128
F78
sVYNL259C
p2129
F43
sVYOR337W
p2130
F90
sVYML101C
p2131
F167
sVYHR118C
p2132
F41
sVYNL081C
p2133
F133
sVYHR216W
p2134
F275
sVYGR024C
p2135
F92
sVYKR092C
p2136
F495
sVYKR096W
p2137
F84
sVYGR203W
p2138
F143
sVYHL003C
p2139
F420
sVYER154W
p2140
F357
sVYDR390C
p2141
F154
sVYEL036C
p2142
F73
sVYBR260C
p2143
F88
sVYHR010W
p2144
F123
sVYDR400W
p2145
F88
sVYJR104C
p2146
F3893
sVYNL231C
p2147
F574
sVYPL124W
p2148
F55
sVYHL021C
p2149
F175
sVYIL008W
p2150
F160
sVYOL041C
p2151
F426
sVYBR235W
p2152
F53
sVYDR001C
p2153
F185
sVYOL141W
p2154
F74
sVYGR080W
p2155
F120
sVYBL011W
p2156
F191
sVYDR183W
p2157
F53
sVYGL222C
p2158
F95
sVYDR138W
p2159
F128
sVYOR317W
p2160
F542
sVYGR033C
p2161
F96
sVYMR315W
p2162
F109
sVYLR328W
p2163
F167
sVYPL271W
p2164
F791
sVYGL153W
p2165
F175
sVYDR384C
p2166
F176
sVYLR039C
p2167
F94
sVYML007W
p2168
F65
sVYDR039C
p2169
F130
sVYBR090C
p2170
F743
sVYMR171C
p2171
F87
sVYPR041W
p2172
F1171
sVYER172C
p2173
F105
sVYNL180C
p2174
F570
sVYPL249C-A
p2175
F2281
sVYCR035C
p2176
F199
sVYOR244W
p2177
F71
sVYDL046W
p2178
F52
sVYDR503C
p2179
F79
sVYGL037C
p2180
F349
sVYLR048W
p2181
F4413
sVYDR492W
p2182
F53
sVYLR071C
p2183
F149
sVYGR240C
p2184
F5999
sVYEL058W
p2185
F150
sVYMR259C
p2186
F193
sVYMR019W
p2187
F48
sVYMR148W
p2188
F182
sVYBR061C
p2189
F87
sVYDR434W
p2190
F158
sVYFL034C-B
p2191
F66
sVYPR052C
p2192
F1087
sVYPR025C
p2193
F64
sVYBR087W
p2194
F60
sVYLR006C
p2195
F88
sVYER149C
p2196
F84
sVYBL037W
p2197
F149
sVYER114C
p2198
F184
sVYOR375C
p2199
F5261
sVYPR190C
p2200
F52
sVYLR075W
p2201
F5347
sVYAR002W
p2202
F154
sVYHR127W
p2203
F114
sVYOR153W
p2204
F873
sVYMR237W
p2205
F219
sVYDL064W
p2206
F309
sVYLR066W
p2207
F116
sVYDR046C
p2208
F106
sVYOR253W
p2209
F110
sVYMR125W
p2210
F485
sVYGL245W
p2211
F1988
sVYNL273W
p2212
F66
sVYCR051W
p2213
F169
sVYOL012C
p2214
F589
sVYPL262W
p2215
F256
sVYDL119C
p2216
F44
sVYGL129C
p2217
F162
sVYPL020C
p2218
F50
sVYCL040W
p2219
F56
sVYOR163W
p2220
F218
sVYLR422W
p2221
F81
sVYLR093C
p2222
F49
sVYMR044W
p2223
F43
sVYDR073W
p2224
F41
sVYNL308C
p2225
F227
sVYPR074C
p2226
F4804
sVYHR058C
p2227
F194
sVYDR239C
p2228
F48
sVYJR049C
p2229
F100
sVYGL010W
p2230
F51
sVYML069W
p2231
F528
sVYMR026C
p2232
F64
sVYHR085W
p2233
F87
sVYGR279C
p2234
F199
sVYDR034W-B
p2235
F79
sVYMR275C
p2236
F100
sVYBL056W
p2237
F416
sVYML067C
p2238
F386
sVYER052C
p2239
F2532
sVYLR427W
p2240
F60
sVYLL015W
p2241
F111
sVYPL061W
p2242
F7162
sVYER003C
p2243
F298
sVYER103W
p2244
F96
sVYPL115C
p2245
F114
sVYMR184W
p2246
F55
sVYCL057W
p2247
F294
sVYLR413W
p2248
F1150
sVYBR005W
p2249
F80
sVYDL120W
p2250
F131
sVYPR063C
p2251
F223
sVYGR231C
p2252
F68
sVYBL076C
p2253
F3735
sVYMR113W
p2254
F116
sVYKR068C
p2255
F165
sVYOR099W
p2256
F80
sVYLR387C
p2257
F306
sVYPR032W
p2258
F110
sVYDL173W
p2259
F283
sVYBR143C
p2260
F1395
sVYHR072W-A
p2261
F760
sVYJR130C
p2262
F392
sVYJL062W-A
p2263
F58
sVYAL016W
p2264
F591
sVYHR167W
p2265
F89
sVYKL146W
p2266
F49
sVYDR449C
p2267
F233
sVYOR070C
p2268
F79
sVYLR367W
p2269
F2176
sVYKL080W
p2270
F983
sVYIL052C
p2271
F1806
sVYNR013C
p2272
F144
sVYBR109C
p2273
F1284
sVYBR172C
p2274
F217
sVYDR346C
p2275
F778
sVYAR002C-A
p2276
F561
sVYGL233W
p2277
F98
sVYKL160W
p2278
F327
sVYOL077W-A
p2279
F142
sVYBR236C
p2280
F67
sVYKL024C
p2281
F371
sVYKL126W
p2282
F219
sVYBR189W
p2283
F2225
sVYDR264C
p2284
F399
sVYKL064W
p2285
F57
sVYNL035C
p2286
F95
sVYLR287C
p2287
F202
sVYPL016W
p2288
F121
sVYJL074C
p2289
F121
sVYLR370C
p2290
F546
sVYNL177C
p2291
F97
sVYDR454C
p2292
F912
sVYGR081C
p2293
F294
sVYLR250W
p2294
F224
sVYNR039C
p2295
F114
sVYAL043C
p2296
F128
sVYOL093W
p2297
F138
sVYER042W
p2298
F166
sVYHR146W
p2299
F506
sVYPL125W
p2300
F163
sVYIL070C
p2301
F213
sVYCL037C
p2302
F1847
sVYHL020C
p2303
F74
sVYIL009W
p2304
F98
sVYOR063W
p2305
F4079
sVYOL140W
p2306
F943
sVYGL223C
p2307
F77
sVYBL016W
p2308
F251
sVYGL150C
p2309
F185
sVYGR125W
p2310
F209
sVYJR145C
p2311
F4215
sVYNL197C
p2312
F274
sVYNR024W
p2313
F93
sVYOR354C
p2314
F151
sVYJL092W
p2315
F54
sVYAL023C
p2316
F49
sVYGL076C
p2317
F3830
sVYGR132C
p2318
F76
sVYIL138C
p2319
F450
sVYLR439W
p2320
F105
sVYJR127C
p2321
F49
sVYIL143C
p2322
F84
sVYGR092W
p2323
F123
sVYKL002W
p2324
F106
sVYDR328C
p2325
F276
sVYOR038C
p2326
F39
sVYDL235C
p2327
F339
sVYLR390W
p2328
F70
sVYLR345W
p2329
F53
sVYLR448W
p2330
F2462
sVYGR103W
p2331
F537
sVYDR311W
p2332
F84
sVYIL041W
p2333
F583
sVYDR472W
p2334
F74
sVYNL155W
p2335
F106
sVYNL100W
p2336
F162
sVYPR171W
p2337
F120
sVYBR216C
p2338
F93
sVYNL245C
p2339
F133
sVYLR001C
p2340
F125
sVYLR126C
p2341
F45
sVYOR304C-A
p2342
F106
sVYMR318C
p2343
F440
sVYKR074W
p2344
F117
sVYHR108W
p2345
F483
sVYOR214C
p2346
F59
sVYOL020W
p2347
F386
sVYBL071W-A
p2348
F694
sVYDR135C
p2349
F426
sVYMR256C
p2350
F321
sVYPL229W
p2351
F61
sVYMR236W
p2352
F377
sVYER148W
p2353
F476
sVYOL011W
p2354
F50
sVYLL013C
p2355
F183
sVYMR192W
p2356
F140
sVYGR078C
p2357
F326
sVYER073W
p2358
F801
sVYMR229C
p2359
F1169
sVYLL038C
p2360
F156
sVYGR007W
p2361
F133
sVYOL124C
p2362
F106
sVYDR479C
p2363
F41
sVYOR086C
p2364
F315
sVYNL051W
p2365
F74
sVYHL033C
p2366
F12680
sVYOR270C
p2367
F2940
sVYPR060C
p2368
F526
sVYGL252C
p2369
F257
sVYOL033W
p2370
F45
sVYBR238C
p2371
F53
sVYER155C
p2372
F200
sVYGL058W
p2373
F345
sVYIL038C
p2374
F304
sVYKR099W
p2375
F56
sVYML100W
p2376
F141
sVYPR115W
p2377
F60
sVYDR128W
p2378
F62
sVYPL043W
p2379
F342
sVYLR410W
p2380
F411
sVYER004W
p2381
F180
sVYGL119W
p2382
F136
sVYMR052W
p2383
F68
sVYOR142W
p2384
F54
sVYLL036C
p2385
F136
sVYCR023C
p2386
F90
sVYDR519W
p2387
F83
sVYGR278W
p2388
F44
sVYDL029W
p2389
F41
sVYER102W
p2390
F5466
sVYBL057C
p2391
F52
sVYBR073W
p2392
F91
sVYLR034C
p2393
F123
sVYLR083C
p2394
F491
sVYBR028C
p2395
F175
sVYPR175W
p2396
F85
sVYMR263W
p2397
F97
sVYDR270W
p2398
F58
sVYDR172W
p2399
F1440
sVYDL121C
p2400
F412
sVYPR033C
p2401
F1231
sVYGR104C
p2402
F57
sVYLR129W
p2403
F85
sVYPR062W
p2404
F491
sVYDL058W
p2405
F141
sVYPR065W
p2406
F79
sVYLR150W
p2407
F5485
sVYNL214W
p2408
F66
sVYDL185W
p2409
F4243
sVYLR403W
p2410
F134
sVYPR180W
p2411
F101
sVYEL013W
p2412
F541
sVYGL056C
p2413
F350
sVYDR385W
p2414
F5124
sVYCR043C
p2415
F341
sVYPL227C
p2416
F185
sVYDL010W
p2417
F79
sVYLL009C
p2418
F1171
sVYBR059C
p2419
F180
sVYJL146W
p2420
F89
sVYGR241C
p2421
F141
sVYGL036W
p2422
F54
sVYOR188W
p2423
F47
sVYJL207C
p2424
F165
sVYDR103W
p2425
F60
sVYKL167C
p2426
F207
sVYIR023W
p2427
F114
sVYDL092W
p2428
F283
sVYKR043C
p2429
F606
sVYER053C-A
p2430
F92
sVYLR166C
p2431
F168
sVYMR067C
p2432
F67
sVYJL011C
p2433
F159
sVYKL138C
p2434
F161
sVYBL079W
p2435
F241
sVYNL056W
p2436
F152
sVYPL093W
p2437
F1038
sVYDR347W
p2438
F154
sVYFL001W
p2439
F81
sVYDR150W
p2440
F119
sVYER086W
p2441
F500
sVYGL197W
p2442
F74
sVYDR207C
p2443
F69
sVYLR264W
p2444
F307
sVYKL170W
p2445
F617
sVYKR023W
p2446
F48
sVYNL036W
p2447
F2305
sVYKL038W
p2448
F49
sVYLR208W
p2449
F696
sVYNL016W
p2450
F1345
sVYLR384C
p2451
F401
sVYDR307W
p2452
F109
sVYPR019W
p2453
F242
sVYLR421C
p2454
F289
sVYMR145C
p2455
F107
sVYDR161W
p2456
F183
sVYLR090W
p2457
F53
sVYBR102C
p2458
F95
sVYNL183C
p2459
F343
sVYOR285W
p2460
F655
sVYJL002C
p2461
F783
sVYML022W
p2462
F499
sVYJR031C
p2463
F104
sVYDR074W
p2464
F326
sVYHR059W
p2465
F77
sVYMR121C
p2466
F111
sVYPL011C
p2467
F81
sVYFL049W
p2468
F47
sVYKR018C
p2469
F321
sVYER099C
p2470
F74
sVYDL150W
p2471
F203
sVYJR048W
p2472
F128
sVYHR186C
p2473
F73
sVYHR084W
p2474
F103
sVYNL236W
p2475
F172
sVYAL053W
p2476
F68
sVYNL149C
p2477
F361
sVYGL095C
p2478
F82
sVYOL007C
p2479
F84
sVYHR001W-A
p2480
F70
sVYJR132W
p2481
F111
sVYOR215C
p2482
F197
sVYJR119C
p2483
F42
sVYHR069C
p2484
F220
sVYDR329C
p2485
F81
sVYFR025C
p2486
F158
sVYOR017W
p2487
F60
sVYJL140W
p2488
F198
sVYDR473C
p2489
F48
sVYPL169C
p2490
F274
sVYKL192C
p2491
F862
sVYDR310C
p2492
F105
sVYPL146C
p2493
F231
sVYKL072W
p2494
F41
sVYNL138W
p2495
F267
sVYGR178C
p2496
F230
sVYNL001W
p2497
F250
sVYDL236W
p2498
F440
sVYJL080C
p2499
F2060
sVYFR009W
p2500
F730
sVYMR182C
p2501
F43
sVYGR102C
p2502
F43
sVYDR081C
p2503
F47
sVYIL173W
p2504
F41
sVYBR139W
p2505
F49
sVYBR115C
p2506
F4840
sVYIR015W
p2507
F57
sVYDR448W
p2508
F65
sVYJR111C
p2509
F85
sVYJR046W
p2510
F60
sVYDL005C
p2511
F120
sVYFL023W
p2512
F94
sVYOR184W
p2513
F1574
sVYKL081W
p2514
F3862
sVYDR092W
p2515
F537
sVYNL139C
p2516
F178
sVYPL108W
p2517
F51
sVYDR361C
p2518
F502
sVYBR171W
p2519
F498
sVYNL088W
p2520
F170
sVYHR206W
p2521
F58
sVYKL181W
p2522
F223
sVYDL229W
p2523
F1189
sVYOL032W
p2524
F76
sVYML063W
p2525
F6489
sVYHR027C
p2526
F491
sVYNR047W
p2527
F128
sVYNL293W
p2528
F40
sVYKR090W
p2529
F81
sVYLR333C
p2530
F2425
sVYHL030W
p2531
F148
sVYBR200W
p2532
F120
sVYNL262W
p2533
F122
sVYDR079C-A
p2534
F53
sVYGL077C
p2535
F1091
sVYPL204W
p2536
F267
sVYOL069W
p2537
F48
sVYDR412W
p2538
F188
sVYDR129C
p2539
F1070
sVYOL134C
p2540
F82
sVYGR026W
p2541
F379
sVYML125C
p2542
F367
sVYDR288W
p2543
F87
sVYNL284C
p2544
F180
sVYOL092W
p2545
F571
sVYOR355W
p2546
F58
sVYGR086C
p2547
F912
sVYPL111W
p2548
F4398
sVYPL106C
p2549
F3378
sVYOL143C
p2550
F112
sVYAL034W-A
p2551
F39
sVYNL233W
p2552
F75
sVYBR237W
p2553
F84
sVYGL151W
p2554
F220
sVYBR197C
p2555
F96
sVYHR147C
p2556
F74
sVYJR091C
p2557
F143
sVYGR031W
p2558
F129
sVYGR124W
p2559
F2654
sVYDR003W
p2560
F179
sVYBL017C
p2561
F270
sVYNR027W
p2562
F82
sVYAL024C
p2563
F57
sVYPL150W
p2564
F45
sVYLR438C-A
p2565
F517
sVYJL197W
p2566
F239
sVYBR233W-A
p2567
F65
sVYGL055W
p2568
F598
sVYML005W
p2569
F68
sVYNL215W
p2570
F64
sVYDR529C
p2571
F775
sVYEL012W
p2572
F86
sVYER123W
p2573
F185
sVYPR043W
p2574
F5749
sVYDR382W
p2575
F7523
sVYDR483W
p2576
F82
sVYLL008W
p2577
F277
sVYDR505C
p2578
F98
sVYKL206C
p2579
F152
sVYER061C
p2580
F143
sVYLR022C
p2581
F198
sVYGR068C
p2582
F45
sVYPL246C
p2583
F300
sVYPL226W
p2584
F1661
sVYLR073C
p2585
F112
sVYGL039W
p2586
F184
sVYML018C
p2587
F537
sVYEL001C
p2588
F661
sVYHR090C
p2589
F84
sVYDL066W
p2590
F725
sVYHR030C
p2591
F142
sVYBR085W
p2592
F71
sVYPL270W
p2593
F158
sVYHL001W
p2594
F2612
sVYNR050C
p2595
F7539
sVYOR373W
p2596
F62
sVYKR100C
p2597
F156
sVYCL017C
p2598
F612
sVYGR180C
p2599
F4980
sVYOR260W
p2600
F499
sVYPL260W
p2601
F593
sVYIL084C
p2602
F57
sVYNR016C
p2603
F3057
sVYOL010W
p2604
F298
sVYLR064W
p2605
F569
sVYGL048C
p2606
F782
sVYOR083W
p2607
F120
sVYMR193W
p2608
F156
sVYLL039C
p2609
F123
sVYCR053W
p2610
F4139
sVYER072W
p2611
F281
sVYKL106W
p2612
F119
sVYGL019W
p2613
F327
sVYER047C
p2614
F49
sVYOR138C
p2615
F158
sVYLR420W
p2616
F266
sVYCR088W
p2617
F687
sVYOR252W
p2618
F236
sVYDR208W
p2619
F61
sVYDR075W
p2620
F65
sVYHR087W
p2621
F112
sVYFL048C
p2622
F409
sVYLR117C
p2623
F41
sVYGR220C
p2624
F161
sVYBR014C
p2625
F46
sVYPL012W
p2626
F642
sVYMR089C
p2627
F265
sVYOR176W
p2628
F179
sVYHR187W
p2629
F152
sVYDL108W
p2630
F66
sVYNL172W
p2631
F41
sVYGR275W
p2632
F140
sVYMR071C
p2633
F431
sVYOR286W
p2634
F385
sVYPR110C
p2635
F823
sVYGL016W
p2636
F126
sVYKL033W
p2637
F57
sVYLL022C
p2638
F99
sVYOR143C
p2639
F48
sVYER029C
p2640
F168
sVYCL055W
p2641
F77
sVYER105C
p2642
F299
sVYNL058C
p2643
F45
sVYBL104C
p2644
F127
sVYMR102C
p2645
F46
sVYCR071C
p2646
F130
sVYPR144C
p2647
F210
sVYDR175C
p2648
F60
sVYPR034W
p2649
F335
sVYMR159C
p2650
F43
sVYOR189W
p2651
F210
sVYOR108W
p2652
F811
sVYOR154W
p2653
F44
sVYGR233C
p2654
F76
sVYDL188C
p2655
F59
sVYGR268C
p2656
F52
sVYBR046C
p2657
F105
sVYNL315C
p2658
F101
sVYER018C
p2659
F63
sVYOR299W
p2660
F58
sVYEL065W
p2661
F171
sVYOR056C
p2662
F232
sVYIL125W
p2663
F427
sVYMR295C
p2664
F616
sVYJL136C
p2665
F5282
sVYPL026C
p2666
F88
sVYDR140W
p2667
F103
sVYKL112W
p2668
F393
sVYJL076W
p2669
F365
sVYDR080W
p2670
F84
sVYLR218C
p2671
F64
sVYPL250C
p2672
F52
sVYHR165C
p2673
F120
sVYKL028W
p2674
F171
sVYLR222C
p2675
F369
sVYLR221C
p2676
F449
sVYDR093W
p2677
F177
sVYIL109C
p2678
F526
sVYHR046C
p2679
F164
sVYIR014W
p2680
F67
sVYPL070W
p2681
F44
sVYDR362C
p2682
F42
sVYNR040W
p2683
F84
sVYKL166C
p2684
F139
sVYJR007W
p2685
F1980
sVYGR211W
p2686
F683
sVYKL139W
p2687
F132
sVYJL069C
p2688
F297
sVYNL185C
p2689
F145
sVYLR168C
p2690
F126
sVYLR298C
p2691
F53
sVYHR047C
p2692
F893
sVYPR137W
p2693
F239
sVYGL001C
p2694
F119
sVYDR464W
p2695
F44
sVYDL115C
p2696
F50
sVYDL140C
p2697
F1137
sVYPR156C
p2698
F310
sVYDR304C
p2699
F136
sVYDL219W
p2700
F69
sVYCR024C-A
p2701
F3895
sVYDR266C
p2702
F86
sVYGL194C
p2703
F92
sVYOR116C
p2704
F436
sVYKR024C
p2705
F198
sVYNL037C
p2706
F70
sVYFL013C
p2707
F153
sVYPL063W
p2708
F286
sVYFR040W
p2709
F190
sVYML124C
p2710
F226
sVYEL059C-A
p2711
F44
sVYOL142W
p2712
F341
sVYGL209W
p2713
F88
sVYDR405W
p2714
F153
sVYIL007C
p2715
F56
sVYCL031C
p2716
F448
sVYIL027C
p2717
F389
sVYPL127C
p2718
F392
sVYNL243W
p2719
F339
sVYBR261C
p2720
F150
sVYOR061W
p2721
F337
sVYBR196C
p2722
F8412
sVYLR190W
p2723
F41
sVYGR147C
p2724
F269
sVYJR092W
p2725
F108
sVYOR311C
p2726
F43
sVYGR030C
p2727
F125
sVYDL141W
p2728
F186
sVYNL039W
p2729
F62
sVYHR068W
p2730
F660
sVYGR130C
p2731
F251
sVYDR458C
p2732
F78
sVYOR016C
p2733
F247
sVYJR121W
p2734
F1810
sVYGR165W
p2735
F44
sVYGL066W
p2736
F100
sVYOR344C
p2737
F43
sVYBR254C
p2738
F123
sVYFR024C
p2739
F293
sVYDR313C
p2740
F76
sVYIL047C
p2741
F192
sVYLR245C
p2742
F164
sVYKL193C
p2743
F167
sVYNL153C
p2744
F405
sVYGL083W
p2745
F72
sVYBR214W
p2746
F89
sVYLR310C
p2747
F93
sVYJR085C
p2748
F67
sVYBR249C
p2749
F4397
sVYNL287W
p2750
F847
sVYFR008W
p2751
F58
sVYNL102W
p2752
F83
sVYOL077C
p2753
F930
sVYKL209C
p2754
F347
sVYBR084W
p2755
F267
sVYDL061C
p2756
F1483
sVYIL010W
p2757
F41
sVYDR397C
p2758
F424
sVYNR051C
p2759
F377
sVYGR187C
p2760
F521
sVYDR056C
p2761
F362
sVYHL002W
p2762
F111
sVYHR122W
p2763
F166
sVYMR273C
p2764
F52
sVYDR422C
p2765
F66
sVYOR229W
p2766
F146
sVYHL017W
p2767
F66
sVYJR010C-A
p2768
F195
sVYGL049C
p2769
F374
sVYDR023W
p2770
F1508
sVYHL034C
p2771
F1590
sVYOR051C
p2772
F264
sVYNL209W
p2773
F4810
sVYOR312C
p2774
F2664
sVYLR332W
p2775
F558
sVYBR272C
p2776
F79
sVYDR298C
p2777
F141
sVYDR011W
p2778
F490
sVYIL061C
p2779
F50
sVYOR272W
p2780
F205
sVYGL254W
p2781
F57
sVYOL059W
p2782
F1037
sVYFR006W
p2783
F87
sVYOR095C
p2784
F268
sVYOL151W
p2785
F110
sVYHR131C
p2786
F44
sVYKL213C
p2787
F106
sVYOR275C
p2788
F58
sVYOR358W
p2789
F49
sVYKR052C
p2790
F82
sVYNL238W
p2791
F209
sVYBR281C
p2792
F51
sVYJL198W
p2793
F133
sVYPL207W
p2794
F172
sVYGR027C
p2795
F5029
sVYOL135C
p2796
F136
sVYOR323C
p2797
F232
sVYLL041C
p2798
F254
sVYML106W
p2799
F763
sVYCR009C
p2800
F579
sVYNL191W
p2801
F64
sVYOR195W
p2802
F50
sVYPR070W
p2803
F96
sVYLR118C
p2804
F90
sVYER006W
p2805
F670
sVYLR182W
p2806
F63
sVYMR105C
p2807
F91
sVYPR051W
p2808
F149
sVYLL034C
p2809
F160
sVYBL105C
p2810
F149
sVYMR251W-A
p2811
F2266
sVYDR069C
p2812
F53
sVYKR048C
p2813
F432
sVYGR232W
p2814
F106
sVYEL066W
p2815
F111
sVYEL046C
p2816
F5632
sVYBL055C
p2817
F69
sVYPR035W
p2818
F19379
sVYDL189W
p2819
F137
sVYLL018C
p2820
F1644
sVYDL123W
p2821
F377
sVYDR227W
p2822
F63
sVYDL130W-A
p2823
F129
sVYML008C
p2824
F1377
sVYDL054C
p2825
F325
sVYMR037C
p2826
F114
sVYDR174W
p2827
F861
sVYOR265W
p2828
F163
sVYML073C
p2829
F2146
sVYGL137W
p2830
F970
sVYGL101W
p2831
F281
sVYHR143W-A
p2832
F597
sVYJR105W
p2833
F2243
sVYPR042C
p2834
F153
sVYCL009C
p2835
F812
sVYDL072C
p2836
F535
sVYER159C
p2837
F355
sVYEL048C
p2838
F66
sVYER122C
p2839
F358
sVYMR189W
p2840
F1504
sVYER048W-A
p2841
F464
sVYDR482C
p2842
F103
sVYPR182W
p2843
F273
sVYJL196C
p2844
F918
sVYDR034C
p2845
F77
sVYGL054C
p2846
F739
sVYOL126C
p2847
F57
sVYLR058C
p2848
F5684
sVYOR247W
p2849
F58
sVYGL038C
p2850
F90
sVYLR074C
p2851
F331
sVYPL116W
p2852
F92
sVYPL225W
p2853
F422
sVYDL043C
p2854
F61
sVYDL012C
p2855
F72
sVYPL249C
p2856
F57
sVYJL024C
p2857
F244
sVYBR015C
p2858
F84
sVYER031C
p2859
F394
sVYJR006W
p2860
F68
sVYDR345C
p2861
F2565
sVYJL177W
p2862
F2211
sVYKL165C
p2863
F150
sVYLR430W
p2864
F107
sVYDL182W
p2865
F5002
sVYGL139W
p2866
F71
sVYJL117W
p2867
F507
sVYOR248W
p2868
F70
sVYGR210C
p2869
F138
sVYDR156W
p2870
F265
sVYPR155C
p2871
F69
sVYHR179W
p2872
F1243
sVYNL049C
p2873
F159
sVYGL195W
p2874
F905
sVYDR250C
p2875
F52
sVYKR025W
p2876
F227
sVYNL336W
p2877
F129
sVYDR305C
p2878
F59
sVYDR205W
p2879
F126
sVYJR059W
p2880
F198
sVYPR100W
p2881
F115
sVYLR206W
p2882
F143
sVYER088C
p2883
F85
sVYDR358W
p2884
F47
sVYDR508C
p2885
F1898
sVYPR028W
p2886
F1086
sVYMR117C
p2887
F88
sVYLR096W
p2888
F69
sVYCR067C
p2889
F113
sVYGR269W
p2890
F156
sVYMR047C
p2891
F51
sVYPR107C
p2892
F80
sVYER040W
p2893
F137
sVYDR247W
p2894
F88
sVYHR086W
p2895
F127
sVYGR274C
p2896
F81
sVYLR100W
p2897
F300
sVYHR039C-A
p2898
F1505
sVYLR116W
p2899
F145
sVYER008C
p2900
F202
s.