(dp1
S'YBR177C'
p2
I2
sS'YIL140W'
p3
I1
sS'YLR268W'
p4
I4
sS'YOR011W'
p5
I0
sS'YPL043W'
p6
I4
sS'YJL155C'
p7
I2
sS'YLL062C'
p8
I1
sS'YHR067W'
p9
I2
sS'YAL008W'
p10
I2
sS'YNR028W'
p11
I3
sS'YMR111C'
p12
I2
sS'YBR255W'
p13
I1
sS'YFR027W'
p14
I1
sS'YJL122W'
p15
I10
sS'YOL115W'
p16
I3
sS'YNL007C'
p17
I6
sS'YNL300W'
p18
I2
sS'YAL056W'
p19
I3
sS'YJR122W'
p20
I1
sS'YLR152C'
p21
I1
sS'YDR459C'
p22
I3
sS'YIL034C'
p23
I2
sS'YLR244C'
p24
I6
sS'YNL003C'
p25
I4
sS'YBR111W-A'
p26
I7
sS'YJR084W'
p27
I2
sS'YBR135W'
p28
I3
sS'YBR004C'
p29
I2
sS'YBR160W'
p30
I7
sS'YLR313C'
p31
I1
sS'YNR007C'
p32
I2
sS'YJL082W'
p33
I1
sS'YHR007C'
p34
I14
sS'YIR004W'
p35
I6
sS'YPL191C'
p36
I2
sS'YKL190W'
p37
I8
sS'YGL084C'
p38
I3
sS'YLR348C'
p39
I13
sS'YBR248C'
p40
I5
sS'YNR067C'
p41
I2
sS'YNL152W'
p42
I1
sS'YLR382C'
p43
I1
sS'YKL063C'
p44
I5
sS'YFL045C'
p45
I53
sS'YFL010C'
p46
I6
sS'YDR141C'
p47
I0
sS'YJL131C'
p48
I1
sS'YDL170W'
p49
I1
sS'YIL124W'
p50
I8
sS'YJR044C'
p51
I4
sS'YJR011C'
p52
I3
sS'YPL039W'
p53
I2
sS'YKL048C'
p54
I1
sS'YMR009W'
p55
I2
sS'YOR123C'
p56
I3
sS'YJL179W'
p57
I15
sS'YOR097C'
p58
I3
sS'YKL183W'
p59
I6
sS'YLR189C'
p60
I1
sS'YDR363W'
p61
I2
sS'YFL021W'
p62
I1
sS'YPL194W'
p63
I0
sS'YLR362W'
p64
I2
sS'YPR118W'
p65
I11
sS'YMR283C'
p66
I1
sS'YOR074C'
p67
I1
sS'YNL166C'
p68
I4
sS'YKL134C'
p69
I1
sS'YDR090C'
p70
I3
sS'YIL108W'
p71
I2
sS'YKL052C'
p72
I3
sS'YBR273C'
p73
I3
sS'YFR005C'
p74
I5
sS'YOR313C'
p75
I2
sS'YHR009C'
p76
I4
sS'YAL026C'
p77
I1
sS'YOL034W'
p78
I1
sS'YJR135W-A'
p79
I7
sS'YFL017W-A'
p80
I3
sS'YFR050C'
p81
I9
sS'YBL008W'
p82
I1
sS'YLR079W'
p83
I3
sS'YLR447C'
p84
I35
sS'YGL237C'
p85
I1
sS'YOL058W'
p86
I1
sS'YIL062C'
p87
I15
sS'YNL295W'
p88
I1
sS'YDR016C'
p89
I10
sS'YNR032C-A'
p90
I7
sS'YPL059W'
p91
I8
sS'YAR019C'
p92
I0
sS'YDR299W'
p93
I5
sS'YOL116W'
p94
I2
sS'YJL140W'
p95
I16
sS'YBR182C'
p96
I1
sS'YGL257C'
p97
I5
sS'YDR196C'
p98
I6
sS'YBR202W'
p99
I2
sS'YHR101C'
p100
I1
sS'YNL239W'
p101
I2
sS'YDR410C'
p102
I8
sS'YBR280C'
p103
I0
sS'YGR020C'
p104
I21
sS'YNR045W'
p105
I1
sS'YPL143W'
p106
I261
sS'YKL148C'
p107
I0
sS'YML105C'
p108
I9
sS'YLL040C'
p109
I0
sS'YIL091C'
p110
I5
sS'YOR234C'
p111
I213
sS'YCL032W'
p112
I2
sS'YLR357W'
p113
I1
sS'YPL104W'
p114
I1
sS'YNL103W'
p115
I2
sS'YAL046C'
p116
I3
sS'YDR198C'
p117
I3
sS'YAL039C'
p118
I2
sS'YNR018W'
p119
I4
sS'YNL168C'
p120
I3
sS'YDL185W'
p121
I9
sS'YFR047C'
p122
I4
sS'YBR215W'
p123
I1
sS'YGL092W'
p124
I2
sS'YLR403W'
p125
I1
sS'YNL147W'
p126
I8
sS'YBR159W'
p127
I15
sS'YDR364C'
p128
I3
sS'YML127W'
p129
I4
sS'YCL030C'
p130
I9
sS'YHR078W'
p131
I2
sS'YGR084C'
p132
I5
sS'YDR286C'
p133
I3
sS'YFR018C'
p134
I2
sS'YCR002C'
p135
I3
sS'YER042W'
p136
I4
sS'YJR110W'
p137
I1
sS'YOR163W'
p138
I5
sS'YGL157W'
p139
I3
sS'YNL162W-A'
p140
I5
sS'YLR233C'
p141
I1
sS'YGR099W'
p142
I2
sS'YBL015W'
p143
I1
sS'YOL090W'
p144
I2
sS'YLR300W'
p145
I13
sS'YNL145W'
p146
I39
sS'YJL091C'
p147
I2
sS'YJR140C'
p148
I1
sS'YGR146C'
p149
I2
sS'YOR033C'
p150
I2
sS'YNR021W'
p151
I7
sS'YBR043C'
p152
I3
sS'YHR005C-A'
p153
I21
sS'YDR380W'
p154
I8
sS'YGL100W'
p155
I7
sS'YBR094W'
p156
I2
sS'YHR112C'
p157
I1
sS'YDR035W'
p158
I7
sS'YGR042W'
p159
I4
sS'YPL156C'
p160
I1
sS'YDR485C'
p161
I2
sS'YGR077C'
p162
I1
sS'YOR216C'
p163
I3
sS'YIL044C'
p164
I3
sS'YPL239W'
p165
I10
sS'YNL197C'
p166
I1
sS'YPR183W'
p167
I3
sS'YLR069C'
p168
I2
sS'YDL073W'
p169
I3
sS'YBL042C'
p170
I2
sS'YEL017C-A'
p171
I69
sS'YNL091W'
p172
I1
sS'YCR046C'
p173
I2
sS'YLR059C'
p174
I3
sS'YOL001W'
p175
I2
sS'YDR525W-A'
p176
I2
sS'YIL056W'
p177
I1
sS'YBR054W'
p178
I1
sS'YDR507C'
p179
I1
sS'YDR379C-A'
p180
I4
sS'YOL063C'
p181
I1
sS'YPL224C'
p182
I2
sS'YLR137W'
p183
I1
sS'YLR020C'
p184
I4
sS'YNL217W'
p185
I8
sS'YKL204W'
p186
I1
sS'YLR404W'
p187
I2
sS'YDL042C'
p188
I1
sS'YMR226C'
p189
I10
sS'YOR058C'
p190
I1
sS'YDR531W'
p191
I7
sS'YPL005W'
p192
I1
sS'YMR233W'
p193
I4
sS'YPL206C'
p194
I5
sS'YOL136C'
p195
I2
sS'YDL060W'
p196
I5
sS'YLR002C'
p197
I4
sS'YOR303W'
p198
I6
sS'YDR320C-A'
p199
I9
sS'YOR071C'
p200
I1
sS'YDR393W'
p201
I3
sS'YBR293W'
p202
I3
sS'YIR022W'
p203
I8
sS'YGL215W'
p204
I2
sS'YNR052C'
p205
I3
sS'YGR019W'
p206
I2
sS'YHR032W'
p207
I3
sS'YEL032W'
p208
I1
sS'YOL076W'
p209
I3
sS'YER145C'
p210
I8
sS'YER110C'
p211
I4
sS'YHR123W'
p212
I3
sS'YBL033C'
p213
I3
sS'YDR022C'
p214
I1
sS'YPL266W'
p215
I8
sS'YOR304W'
p216
I1
sS'YLR023C'
p217
I1
sS'YML112W'
p218
I1
sS'YHL010C'
p219
I0
sS'YGR183C'
p220
I12
sS'YER169W'
p221
I1
sS'YNL321W'
p222
I0
sS'YOR226C'
p223
I5
sS'YGL241W'
p224
I2
sS'YEL025C'
p225
I1
sS'YLR108C'
p226
I1
sS'YLR229C'
p227
I11
sS'YNL186W'
p228
I3
sS'YPR176C'
p229
I7
sS'YCL044C'
p230
I1
sS'YKR008W'
p231
I1
sS'YLR017W'
p232
I10
sS'YMR146C'
p233
I8
sS'YPR165W'
p234
I29
sS'YPR024W'
p235
I3
sS'YDR226W'
p236
I42
sS'YMR266W'
p237
I3
sS'YDR057W'
p238
I2
sS'YKR064W'
p239
I1
sS'YLR097C'
p240
I3
sS'YCR060W'
p241
I6
sS'YJL036W'
p242
I2
sS'YER041W'
p243
I1
sS'YBR016W'
p244
I3
sS'YER009W'
p245
I44
sS'YBR036C'
p246
I5
sS'YMR015C'
p247
I3
sS'YDL139C'
p248
I1
sS'YDR246W'
p249
I1
sS'YOL014W'
p250
I6
sS'YOR288C'
p251
I2
sS'YLR163C'
p252
I5
sS'YCR028C'
p253
I2
sS'YLR115W'
p254
I1
sS'YMR126C'
p255
I4
sS'YHR089C'
p256
I22
sS'YGL014W'
p257
I1
sS'YMR168C'
p258
I1
sS'YML043C'
p259
I3
sS'YLL035W'
p260
I2
sS'YMR258C'
p261
I3
sS'YNL323W'
p262
I3
sS'YER007W'
p263
I2
sS'YGL114W'
p264
I2
sS'YER027C'
p265
I2
sS'YER167W'
p266
I2
sS'YDL013W'
p267
I3
sS'YBL106C'
p268
I0
sS'YMR104C'
p269
I1
sS'YGL044C'
p270
I4
sS'YGL169W'
p271
I3
sS'YER107C'
p272
I7
sS'YNR044W'
p273
I1
sS'YBR038W'
p274
I1
sS'YLR219W'
p275
I1
sS'YDR117C'
p276
I2
sS'YLR120C'
p277
I2
sS'YCR026C'
p278
I2
sS'YBL052C'
p279
I2
sS'YBR060C'
p280
I1
sS'YPL202C'
p281
I5
sS'YEL047C'
p282
I4
sS'YPR036W'
p283
I16
sS'YIL026C'
p284
I1
sS'YNL317W'
p285
I1
sS'YCR087C-A'
p286
I6
sS'YGR235C'
p287
I7
sS'YDR068W'
p288
I5
sS'YDL055C'
p289
I82
sS'YOR130C'
p290
I4
sS'YDR177W'
p291
I13
sS'YEL043W'
p292
I1
sS'YJL003W'
p293
I2
sS'YML072C'
p294
I1
sS'YHR052W'
p295
I16
sS'YDR142C'
p296
I2
sS'YKR026C'
p297
I9
sS'YFL044C'
p298
I2
sS'YJR043C'
p299
I2
sS'YPL263C'
p300
I7
sS'YJR012C'
p301
I1
sS'YJL130C'
p302
I2
sS'YJL078C'
p303
I1
sS'YJR126C'
p304
I2
sS'YKL060C'
p305
I383
sS'YBL085W'
p306
I1
sS'YKL173W'
p307
I1
sS'YIR023W'
p308
I0
sS'YGR200C'
p309
I5
sS'YBR056W'
p310
I3
sS'YLR383W'
p311
I1
sS'YDL177C'
p312
I6
sS'YIL127C'
p313
I8
sS'YDR082W'
p314
I4
sS'YOR338W'
p315
I1
sS'YDR348C'
p316
I4
sS'YKL182W'
p317
I3
sS'YOR291W'
p318
I1
sS'YDR469W'
p319
I6
sS'YMR079W'
p320
I4
sS'YDR333C'
p321
I5
sS'YKL018C-A'
p322
I3
sS'YNL160W'
p323
I1
sS'YMR013C'
p324
I3
sS'YPL167C'
p325
I1
sS'YLR223C'
p326
I2
sS'YIR012W'
p327
I12
sS'YLR363C'
p328
I5
sS'YNR026C'
p329
I2
sS'YNR046W'
p330
I5
sS'YJL014W'
p331
I11
sS'YDR219C'
p332
I3
sS'YCR011C'
p333
I4
sS'YPL218W'
p334
I19
sS'YLR431C'
p335
I1
sS'YKR046C'
p336
I1
sS'YJR036C'
p337
I0
sS'YJR005W'
p338
I2
sS'YGR217W'
p339
I0
sS'YNL072W'
p340
I1
sS'YBL098W'
p341
I3
sS'YDL095W'
p342
I4
sS'YOR194C'
p343
I6
sS'YOR174W'
p344
I7
sS'YER030W'
p345
I7
sS'YFL002C'
p346
I3
sS'YDR155C'
p347
I67
sS'YPR149W'
p348
I11
sS'YGL181W'
p349
I2
sS'YJL176C'
p350
I1
sS'YJR072C'
p351
I12
sS'YDR047W'
p352
I6
sS'YKR039W'
p353
I1
sS'YPL087W'
p354
I6
sS'YNL015W'
p355
I3
sS'YCR084C'
p356
I1
sS'YDR302W'
p357
I8
sS'YGL003C'
p358
I1
sS'YJL054W'
p359
I2
sS'YHR178W'
p360
I1
sS'YOR118W'
p361
I3
sS'YDR268W'
p362
I3
sS'YLR283W'
p363
I1
sS'YPL170W'
p364
I5
sS'YOL003C'
p365
I2
sS'YML094W'
p366
I3
sS'YKR006C'
p367
I4
sS'YDL117W'
p368
I2
sS'YDR204W'
p369
I3
sS'YBR085C-A'
p370
I19
sS'YDR251W'
p371
I1
sS'YPL269W'
p372
I1
sS'YMR293C'
p373
I2
sS'YER089C'
p374
I1
sS'YAL038W'
p375
I76
sS'YIL105C'
p376
I2
sS'YNL119W'
p377
I5
sS'YNR006W'
p378
I1
sS'YML126C'
p379
I6
sS'YAL047C'
p380
I1
sS'YIL150C'
p381
I1
sS'YJL208C'
p382
I2
sS'YDR285W'
p383
I1
sS'YNL064C'
p384
I12
sS'YGR158C'
p385
I5
sS'YKL077W'
p386
I11
sS'YFR046C'
p387
I1
sS'YBR212W'
p388
I1
sS'YJR109C'
p389
I2
sS'YLR254C'
p390
I5
sS'YFR014C'
p391
I2
sS'YBR158W'
p392
I10
sS'YPL105C'
p393
I3
sS'YLR392C'
p394
I2
sS'YOL097C'
p395
I15
sS'YOR110W'
p396
I3
sS'YMR285C'
p397
I2
sS'YJL096W'
p398
I5
sS'YJR141W'
p399
I5
sS'YDR407C'
p400
I1
sS'YLR354C'
p401
I16
sS'YIL065C'
p402
I5
sS'YKL029C'
p403
I2
sS'YBR258C'
p404
I3
sS'YPL024W'
p405
I3
sS'YLR457C'
p406
I2
sS'YLR301W'
p407
I17
sS'YAL007C'
p408
I11
sS'YJL070C'
p409
I1
sS'YHR142W'
p410
I7
sS'YGR098C'
p411
I0
sS'YOR103C'
p412
I13
sS'YNL241C'
p413
I1
sS'YJL154C'
p414
I2
sS'YDR091C'
p415
I8
sS'YJL123C'
p416
I8
sS'YIR005W'
p417
I4
sS'YJL203W'
p418
I3
sS'YAL009W'
p419
I4
sS'YIL147C'
p420
I1
sS'YBR129C'
p421
I6
sS'YDL160C'
p422
I2
sS'YBR176W'
p423
I3
sS'YPR138C'
p424
I2
sS'YPL173W'
p425
I3
sS'YDL215C'
p426
I4
sS'YGR167W'
p427
I6
sS'YJL059W'
p428
I1
sS'YKL099C'
p429
I14
sS'YPL097W'
p430
I3
sS'YDR315C'
p431
I2
sS'YJL143W'
p432
I13
sS'YBR161W'
p433
I2
sS'YGL238W'
p434
I4
sS'YDL239C'
p435
I0
sS'YNL104C'
p436
I4
sS'YML081C-A'
p437
I11
sS'YIL118W'
p438
I13
sS'YNL151C'
p439
I6
sS'YKL191W'
p440
I2
sS'YLR220W'
p441
I5
sS'YHR006W'
p442
I3
sS'YHR120W'
p443
I2
sS'YOR023C'
p444
I1
sS'YGR106C'
p445
I31
sS'YKL021C'
p446
I8
sS'YHR025W'
p447
I3
sS'YNL083W'
p448
I2
sS'YPR147C'
p449
I5
sS'YNL258C'
p450
I3
sS'YBL018C'
p451
I8
sS'YOR098C'
p452
I1
sS'YOR357C'
p453
I8
sS'YOL137W'
p454
I1
sS'YLR410W'
p455
I2
sS'YDR530C'
p456
I1
sS'YDR131C'
p457
I2
sS'YER111C'
p458
I0
sS'YEL031W'
p459
I2
sS'YOL071W'
p460
I1
sS'YBL029C-A'
p461
I4
sS'YDL063C'
p462
I3
sS'YER144C'
p463
I1
sS'YNL163C'
p464
I2
sS'YOR385W'
p465
I4
sS'YGR185C'
p466
I7
sS'YJL189W'
p467
I323
sS'YMR238W'
p468
I3
sS'YER168C'
p469
I4
sS'YPL265W'
p470
I16
sS'YIL083C'
p471
I2
sS'YOR081C'
p472
I1
sS'YEL026W'
p473
I11
sS'YLL050C'
p474
I80
sS'YDR392W'
p475
I2
sS'YBR290W'
p476
I7
sS'YLR180W'
p477
I9
sS'YNL274C'
p478
I1
sS'YIL096C'
p479
I4
sS'YML113W'
p480
I3
sS'YDR021W'
p481
I5
sS'YHL011C'
p482
I12
sS'YPL212C'
p483
I5
sS'YMR296C'
p484
I2
sS'YHR136C'
p485
I17
sS'YGL173C'
p486
I1
sS'YLR330W'
p487
I4
sS'YPR095C'
p488
I1
sS'YOR310C'
p489
I14
sS'YFR051C'
p490
I2
sS'YHR024C'
p491
I3
sS'YOL038W'
p492
I16
sS'YDR188W'
p493
I8
sS'YAL027W'
p494
I4
sS'YPL152W'
p495
I1
sS'YGL236C'
p496
I1
sS'YGR129W'
p497
I2
sS'YAR018C'
p498
I1
sS'YHR133C'
p499
I18
sS'YDR541C'
p500
I1
sS'YOL080C'
p501
I5
sS'YOR369C'
p502
I591
sS'YOL117W'
p503
I1
sS'YOR086C'
p504
I1
sS'YGR021W'
p505
I2
sS'YDR411C'
p506
I3
sS'YBR283C'
p507
I6
sS'YIL090W'
p508
I2
sS'YBR205W'
p509
I9
sS'YOR321W'
p510
I1
sS'YML104C'
p511
I1
sS'YBR183W'
p512
I2
sS'YDL004W'
p513
I6
sS'YGL256W'
p514
I5
sS'YDR195W'
p515
I3
sS'YOR319W'
p516
I4
sS'YOL048C'
p517
I2
sS'YGR072W'
p518
I3
sS'YNL256W'
p519
I4
sS'YMR278W'
p520
I1
sS'YER184C'
p521
I1
sS'YLR136C'
p522
I1
sS'YPR071W'
p523
I2
sS'YMR207C'
p524
I0
sS'YML015C'
p525
I3
sS'YOR197W'
p526
I3
sS'YKR089C'
p527
I1
sS'YEL004W'
p528
I1
sS'YER166W'
p529
I1
sS'YDL014W'
p530
I16
sS'YHR015W'
p531
I0
sS'YLL032C'
p532
I1
sS'YCR027C'
p533
I3
sS'YLR186W'
p534
I10
sS'YBR039W'
p535
I5
sS'YER024W'
p536
I1
sS'YDR116C'
p537
I2
sS'YGR258C'
p538
I1
sS'YLR325C'
p539
I318
sS'YPL234C'
p540
I23
sS'YMR110C'
p541
I3
sS'YDL056W'
p542
I1
sS'YGR234W'
p543
I25
sS'YPL213W'
p544
I5
sS'YKL117W'
p545
I20
sS'YMR178W'
p546
I7
sS'YPR017C'
p547
I4
sS'YGL115W'
p548
I9
sS'YNL299W'
p549
I2
sS'YOL129W'
p550
I14
sS'YEL044W'
p551
I8
sS'YMR247C'
p552
I1
sS'YDR427W'
p553
I14
sS'YML071C'
p554
I2
sS'YBR077C'
p555
I6
sS'YDR176W'
p556
I2
sS'YPL177C'
p557
I5
sS'YDR122W'
p558
I1
sS'YER120W'
p559
I6
sS'YNL090W'
p560
I8
sS'YBR042C'
p561
I6
sS'YOL062C'
p562
I5
sS'YDR381W'
p563
I30
sS'YGL103W'
p564
I503
sS'YDR484W'
p565
I2
sS'YJL194W'
p566
I1
sS'YMR225C'
p567
I3
sS'YOR370C'
p568
I5
sS'YBR095C'
p569
I2
sS'YHR111W'
p570
I3
sS'YBL045C'
p571
I3
sS'YGL071W'
p572
I1
sS'YDR524C'
p573
I1
sS'YPR170W-B'
p574
I23
sS'YOR224C'
p575
I19
sS'YDL070W'
p576
I5
sS'YNL193W'
p577
I1
sS'YCR047C'
p578
I6
sS'YMR187C'
p579
I2
sS'YNL261W'
p580
I3
sS'YKL135C'
p581
I3
sS'YER064C'
p582
I4
sS'YOR241W'
p583
I6
sS'YOL002C'
p584
I15
sS'YML111W'
p585
I1
sS'YOR359W'
p586
I2
sS'YLL021W'
p587
I1
sS'YKL205W'
p588
I2
sS'YLR407W'
p589
I15
sS'YBR088C'
p590
I7
sS'YLR425W'
p591
I0
sS'YBR055C'
p592
I2
sS'YOR175C'
p593
I9
sS'YNL329C'
p594
I1
sS'YFL005W'
p595
I20
sS'YOR298W'
p596
I1
sS'YKL110C'
p597
I5
sS'YMR014W'
p598
I5
sS'YPR040W'
p599
I1
sS'YHR040W'
p600
I3
sS'YMR152W'
p601
I2
sS'YML057W'
p602
I1
sS'YDR178W'
p603
I1
sS'YKR038C'
p604
I7
sS'YGL028C'
p605
I5
sS'YLR288C'
p606
I2
sS'YGR216C'
p607
I3
sS'YJL115W'
p608
I2
sS'YJR073C'
p609
I4
sS'YGL004C'
p610
I2
sS'YLR204W'
p611
I3
sS'YML097C'
p612
I4
sS'YKR007W'
p613
I2
sS'YLR055C'
p614
I1
sS'YJL055W'
p615
I12
sS'YHR193C'
p616
I31
sS'YMR292W'
p617
I7
sS'YBL099W'
p618
I4
sS'YMR132C'
p619
I3
sS'YDR303C'
p620
I2
sS'YPL008W'
p621
I1
sS'YOR126C'
p622
I2
sS'YDL116W'
p623
I3
sS'YPL184C'
p624
I2
sS'YGL027C'
p625
I2
sS'YMR042W'
p626
I2
sS'YDR252W'
p627
I2
sS'YOR119C'
p628
I3
sS'YLL003W'
p629
I1
sS'YOR165W'
p630
I2
sS'YDR054C'
p631
I4
sS'YLR409C'
p632
I5
sS'YBR008C'
p633
I1
sS'YCL045C'
p634
I2
sS'YPL088W'
p635
I4
sS'YJL046W'
p636
I2
sS'YOR092W'
p637
I1
sS'YMR041C'
p638
I2
sS'YDR221W'
p639
I1
sS'YMR267W'
p640
I4
sS'YNL288W'
p641
I2
sS'YKR009C'
p642
I0
sS'YDR078C'
p643
I3
sS'YKL103C'
p644
I1
sS'YCR061W'
p645
I0
sS'YMR109W'
p646
I1
sS'YMR078C'
p647
I1
sS'YLR094C'
p648
I1
sS'YDL154W'
p649
I1
sS'YDR232W'
p650
I2
sS'YDR245W'
p651
I12
sS'YHR088W'
p652
I7
sS'YGR276C'
p653
I5
sS'YBR017C'
p654
I3
sS'YKR014C'
p655
I7
sS'YML037C'
p656
I1
sS'YDL138W'
p657
I1
sS'YOR056C'
p658
I7
sS'YJR060W'
p659
I7
sS'YLR141W'
p660
I1
sS'YPR162C'
p661
I1
sS'YDL089W'
p662
I1
sS'YLR178C'
p663
I1
sS'YHR175W'
p664
I3
sS'YGR166W'
p665
I1
sS'YDL161W'
p666
I3
sS'YKL101W'
p667
I1
sS'YOR191W'
p668
I1
sS'YDL212W'
p669
I24
sS'YNL161W'
p670
I2
sS'YGR184C'
p671
I1
sS'YDR096W'
p672
I0
sS'YJL126W'
p673
I4
sS'YPR111W'
p674
I1
sS'YBR175W'
p675
I8
sS'YPL046C'
p676
I5
sS'YGL099W'
p677
I2
sS'YIL119C'
p678
I1
sS'YIL002W-A'
p679
I10
sS'YPL124W'
p680
I3
sS'YPL193W'
p681
I2
sS'YKL196C'
p682
I19
sS'YLR231C'
p683
I3
sS'YPL011C'
p684
I4
sS'YFR021W'
p685
I1
sS'YKL098W'
p686
I2
sS'YJR139C'
p687
I31
sS'YKL016C'
p688
I7
sS'YBR133C'
p689
I1
sS'YGL017W'
p690
I3
sS'YBR162C'
p691
I6
sS'YIL004C'
p692
I7
sS'YPR129W'
p693
I2
sS'YKL174C'
p694
I3
sS'YJR013W'
p695
I4
sS'YJL133W'
p696
I4
sS'YGR260W'
p697
I7
sS'YDR143C'
p698
I1
sS'YDL176W'
p699
I1
sS'YBR111C'
p700
I10
sS'YPR037C'
p701
I3
sS'YKL121W'
p702
I0
sS'YML036W'
p703
I3
sS'YKR027W'
p704
I2
sS'YFL047W'
p705
I2
sS'YGR201C'
p706
I2
sS'YPR122W'
p707
I1
sS'YLR380W'
p708
I1
sS'YKL034W'
p709
I1
sS'YKL061W'
p710
I4
sS'YJR042W'
p711
I4
sS'YMR281W'
p712
I1
sS'YMR012W'
p713
I2
sS'YER093C'
p714
I1
sS'YGR100W'
p715
I1
sS'YLR133W'
p716
I0
sS'YNL023C'
p717
I1
sS'YDR349C'
p718
I2
sS'YIR011C'
p719
I8
sS'YOR171C'
p720
I3
sS'YDR214W'
p721
I5
sS'YIL126W'
p722
I1
sS'YIL106W'
p723
I1
sS'YLR201C'
p724
I1
sS'YLR295C'
p725
I6
sS'YDL201W'
p726
I2
sS'YDR468C'
p727
I7
sS'YDR332W'
p728
I1
sS'YHR168W'
p729
I1
sS'YOL102C'
p730
I5
sS'YOR064C'
p731
I3
sS'YOL154W'
p732
I1
sS'YPR008W'
p733
I1
sS'YOR048C'
p734
I2
sS'YJL147C'
p735
I2
sS'YFR003C'
p736
I5
sS'YNL297C'
p737
I1
sS'YOL081W'
p738
I0
sS'YIL033C'
p739
I1
sS'YOL036W'
p740
I1
sS'YGL148W'
p741
I17
sS'YOR002W'
p742
I5
sS'YPL133C'
p743
I3
sS'YPL162C'
p744
I2
sS'YIL048W'
p745
I1
sS'YDR189W'
p746
I3
sS'YLR337C'
p747
I0
sS'YOL056W'
p748
I5
sS'YGR116W'
p749
I2
sS'YFR052W'
p750
I8
sS'YMR302C'
p751
I1
sS'YBR282W'
p752
I6
sS'YOR079C'
p753
I5
sS'YDR404C'
p754
I5
sS'YHR132C'
p755
I5
sS'YGR088W'
p756
I1
sS'YLR103C'
p757
I1
sS'YLR188W'
p758
I1
sS'YGL073W'
p759
I1
sS'YDR194C'
p760
I6
sS'YOL049W'
p761
I6
sS'YDR014W'
p762
I1
sS'YKR074W'
p763
I12
sS'YMR244C-A'
p764
I2
sS'YIR006C'
p765
I1
sS'YHL029C'
p766
I1
sS'YIL093C'
p767
I5
sS'YBR204C'
p768
I2
sS'YDR466W'
p769
I1
sS'YLR397C'
p770
I2
sS'YJL210W'
p771
I1
sS'YFR045W'
p772
I1
sS'YIL104C'
p773
I4
sS'YIL151C'
p774
I1
sS'YIL002C'
p775
I1
sS'YGL086W'
p776
I2
sS'YGR159C'
p777
I22
sS'YJR155W'
p778
I1
sS'YAL044C'
p779
I39
sS'YLR355C'
p780
I24
sS'YLR369W'
p781
I2
sS'YPR081C'
p782
I1
sS'YNL118C'
p783
I3
sS'YNR030W'
p784
I2
sS'YNR023W'
p785
I2
sS'YOL096C'
p786
I2
sS'YGL228W'
p787
I4
sS'YDR284C'
p788
I7
sS'YJR117W'
p789
I2
sS'YJL097W'
p790
I5
sS'YBR259W'
p791
I1
sS'YGR111W'
p792
I3
sS'YGL155W'
p793
I4
sS'YPR108W'
p794
I12
sS'YOR007C'
p795
I17
sS'YLR451W'
p796
I1
sS'YDR406W'
p797
I0
sS'YBR193C'
p798
I2
sS'YJR101W'
p799
I9
sS'YLR359W'
p800
I45
sS'YPR163C'
p801
I22
sS'YHR143W'
p802
I9
sS'YBR222C'
p803
I2
sS'YPR088C'
p804
I8
sS'YLR131C'
p805
I0
sS'YPR101W'
p806
I9
sS'YER127W'
p807
I7
sS'YLR199C'
p808
I2
sS'YDL040C'
p809
I2
sS'YMR037C'
p810
I1
sS'YKR095W-A'
p811
I3
sS'YBR096W'
p812
I9
sS'YJL206C'
p813
I1
sS'YJL193W'
p814
I4
sS'YJR093C'
p815
I1
sS'YEL027W'
p816
I54
sS'YDL015C'
p817
I13
sS'YNL281W'
p818
I24
sS'YDR123C'
p819
I2
sS'YHR110W'
p820
I4
sS'YBR041W'
p821
I2
sS'YDR430C'
p822
I1
sS'YGR193C'
p823
I2
sS'YPR185W'
p824
I1
sS'YIL142W'
p825
I9
sS'YNR035C'
p826
I10
sS'YLR406C'
p827
I77
sS'YCR036W'
p828
I7
sS'YLR077W'
p829
I3
sS'YCR044C'
p830
I4
sS'YNL219C'
p831
I3
sS'YDR037W'
p832
I18
sS'YGR040W'
p833
I2
sS'YER178W'
p834
I5
sS'YLR057W'
p835
I2
sS'YCR004C'
p836
I8
sS'YPL222W'
p837
I0
sS'YLR320W'
p838
I0
sS'YHR005C'
p839
I10
sS'YPR135W'
p840
I1
sS'YAR008W'
p841
I4
sS'YHR121W'
p842
I10
sS'YDL179W'
p843
I4
sS'YHR034C'
p844
I2
sS'YBL019W'
p845
I1
sS'YMR231W'
p846
I1
sS'YOL070C'
p847
I3
sS'YOL138C'
p848
I0
sS'YOR188W'
p849
I1
sS'YMR216C'
p850
I2
sS'YJL085W'
p851
I2
sS'YDR533C'
p852
I2
sS'YOL148C'
p853
I2
sS'YLR452C'
p854
I3
sS'YNR054C'
p855
I2
sS'YER147C'
p856
I2
sS'YDR130C'
p857
I3
sS'YIL015W'
p858
I6
sS'YEL030W'
p859
I1
sS'YPR082C'
p860
I4
sS'YBR291C'
p861
I3
sS'YNL002C'
p862
I20
sS'YNL275W'
p863
I2
sS'YAR015W'
p864
I22
sS'YPR046W'
p865
I6
sS'YML114C'
p866
I1
sS'YDR020C'
p867
I4
sS'YHR201C'
p868
I11
sS'YJL093C'
p869
I2
sS'YOR320C'
p870
I5
sS'YNR001C'
p871
I6
sS'YOR347C'
p872
I0
sS'YNL082W'
p873
I1
sS'YLL051C'
p874
I2
sS'YDR395W'
p875
I4
sS'YOR279C'
p876
I4
sS'YGR008C'
p877
I6
sS'YLR036C'
p878
I4
sS'YKL211C'
p879
I6
sS'YGL060W'
p880
I1
sS'YNL311C'
p881
I2
sS'YLL002W'
p882
I1
sS'YJL030W'
p883
I3
sS'YLR424W'
p884
I2
sS'YGL123W'
p885
I263
sS'YKR066C'
p886
I4
sS'YDR079W'
p887
I2
sS'YMR268C'
p888
I1
sS'YNL154C'
p889
I5
sS'YBR086C'
p890
I2
sS'YML070W'
p891
I4
sS'YBR074W'
p892
I2
sS'YGR191W'
p893
I3
sS'YOR150W'
p894
I3
sS'YMR106C'
p895
I0
sS'YDR055W'
p896
I5
sS'YBL061C'
p897
I4
sS'YGL203C'
p898
I2
sS'YMR140W'
p899
I1
sS'YLR095C'
p900
I1
sS'YBR034C'
p901
I13
sS'YML014W'
p902
I2
sS'YLR401C'
p903
I3
sS'YDR244W'
p904
I2
sS'YLR304C'
p905
I4
sS'YKL018W'
p906
I2
sS'YDL088C'
p907
I2
sS'YJR063W'
p908
I4
sS'YGR271W'
p909
I0
sS'YMR161W'
p910
I5
sS'YDL157C'
p911
I13
sS'YDR233C'
p912
I11
sS'YJL184W'
p913
I4
sS'YER025W'
p914
I7
sS'YDR527W'
p915
I3
sS'YCR059C'
p916
I3
sS'YML041C'
p917
I4
sS'YDL197C'
p918
I1
sS'YER078C'
p919
I2
sS'YER130C'
p920
I4
sS'YDR115W'
p921
I9
sS'YDR428C'
p922
I3
sS'YIL077C'
p923
I2
sS'YGR071C'
p924
I1
sS'YCR106W'
p925
I0
sS'YMR204C'
p926
I1
sS'YML038C'
p927
I5
sS'YCL059C'
p928
I13
sS'YJL181W'
p929
I1
sS'YER109C'
p930
I1
sS'YKR071C'
p931
I8
sS'YKR031C'
p932
I1
sS'YDR489W'
p933
I1
sS'YGR196C'
p934
I2
sS'YNL101W'
p935
I2
sS'YOR233W'
p936
I3
sS'YLR011W'
p937
I2
sS'YPR049C'
p938
I1
sS'YDL057W'
p939
I1
sS'YGR257C'
p940
I4
sS'YNL070W'
p941
I11
sS'YHR150W'
p942
I1
sS'YLR263W'
p943
I0
sS'YPL235W'
p944
I8
sS'YDL008W'
p945
I5
sS'YBL050W'
p946
I8
sS'YJR086W'
p947
I5
sS'YGR280C'
p948
I3
sS'YGR237C'
p949
I1
sS'YLR031W'
p950
I3
sS'YDL159W'
p951
I1
sS'YJR014W'
p952
I7
sS'YJL132W'
p953
I1
sS'YGL190C'
p954
I4
sS'YBR110W'
p955
I5
sS'YDR144C'
p956
I2
sS'YOR180C'
p957
I2
sS'YPL018W'
p958
I2
sS'YGL018C'
p959
I1
sS'YMR075W'
p960
I1
sS'YGR202C'
p961
I4
sS'YKL120W'
p962
I16
sS'YJR041C'
p963
I1
sS'YKL175W'
p964
I2
sS'YKR028W'
p965
I2
sS'YFL046W'
p966
I4
sS'YDR379W'
p967
I1
sS'YMR179W'
p968
I1
sS'YLR381W'
p969
I1
sS'YNL176C'
p970
I1
sS'YHR169W'
p971
I6
sS'YMR286W'
p972
I7
sS'YDL175C'
p973
I2
sS'YHR104W'
p974
I2
sS'YGL009C'
p975
I14
sS'YKL168C'
p976
I1
sS'YDL200C'
p977
I4
sS'YDL102W'
p978
I1
sS'YLR237W'
p979
I1
sS'YER092W'
p980
I8
sS'YIL121W'
p981
I2
sS'YLR214W'
p982
I8
sS'YEL002C'
p983
I7
sS'YIR010W'
p984
I1
sS'YDR331W'
p985
I4
sS'YOR293W'
p986
I240
sS'YML056C'
p987
I23
sS'YKR044W'
p988
I2
sS'YJL127C'
p989
I1
sS'YGL029W'
p990
I12
sS'YFL004W'
p991
I5
sS'YKL149C'
p992
I2
sS'YNL078W'
p993
I2
sS'YER139C'
p994
I3
sS'YDL128W'
p995
I4
sS'YLR433C'
p996
I2
sS'YMR068W'
p997
I1
sS'YPL098C'
p998
I3
sS'YMR153W'
p999
I4
sS'YGR239C'
p1000
I1
sS'YIR015W'
p1001
I2
sS'YPL096W'
p1002
I4
sS'YER032W'
p1003
I0
sS'YJR070C'
p1004
I10
sS'YMR033W'
p1005
I6
sS'YDL097C'
p1006
I5
sS'YPR003C'
p1007
I1
sS'YGL005C'
p1008
I5
sS'YGR262C'
p1009
I6
sS'YPL160W'
p1010
I7
sS'YIR024C'
p1011
I2
sS'YDL111C'
p1012
I3
sS'YPL245W'
p1013
I8
sS'YOL016C'
p1014
I8
sS'YDR202C'
p1015
I2
sS'YPL007C'
p1016
I3
sS'YMR029C'
p1017
I4
sS'YBR066C'
p1018
I5
sS'YLR104W'
p1019
I5
sS'YGR215W'
p1020
I6
sS'YDR363W-A'
p1021
I24
sS'YOR335C'
p1022
I6
sS'YML096W'
p1023
I2
sS'YHR192W'
p1024
I3
sS'YCR082W'
p1025
I9
sS'YNL085W'
p1026
I3
sS'YDR300C'
p1027
I6
sS'YJL158C'
p1028
I12
sS'YGL087C'
p1029
I3
sS'YPL052W'
p1030
I6
sS'YIL003W'
p1031
I4
sS'YMR224C'
p1032
I1
sS'YBR245C'
p1033
I1
sS'YBR163W'
p1034
I2
sS'YDR465C'
p1035
I7
sS'YLR276C'
p1036
I6
sS'YJR154W'
p1037
I1
sS'YKL079W'
p1038
I2
sS'YFR044C'
p1039
I4
sS'YBR210W'
p1040
I6
sS'YPL103C'
p1041
I1
sS'YIL103W'
p1042
I5
sS'YBR269C'
p1043
I1
sS'YFR033C'
p1044
I7
sS'YDR283C'
p1045
I1
sS'YJR096W'
p1046
I3
sS'YNL037C'
p1047
I4
sS'YLR398C'
p1048
I1
sS'YBR192W'
p1049
I5
sS'YNL188W'
p1050
I3
sS'YJR116W'
p1051
I1
sS'YKL027W'
p1052
I6
sS'YGR143W'
p1053
I1
sS'YER007C-A'
p1054
I10
sS'YGR112W'
p1055
I1
sS'YNR022C'
p1056
I5
sS'YLR056W'
p1057
I10
sS'YBR125C'
p1058
I3
sS'YLR356W'
p1059
I1
sS'YBR221C'
p1060
I12
sS'YJL094C'
p1061
I1
sS'YGR074W'
p1062
I8
sS'YKL057C'
p1063
I2
sS'YGL098W'
p1064
I5
sS'YJR056C'
p1065
I4
sS'YDR097C'
p1066
I1
sS'YJL121C'
p1067
I3
sS'YGR161C'
p1068
I3
sS'YGR186W'
p1069
I2
sS'YIR001C'
p1070
I1
sS'YOR047C'
p1071
I3
sS'YDL213C'
p1072
I7
sS'YIL145C'
p1073
I3
sS'YKL195W'
p1074
I7
sS'YGL216W'
p1075
I1
sS'YDR317W'
p1076
I1
sS'YFL031W'
p1077
I18
sS'YDR478W'
p1078
I2
sS'YHR064C'
p1079
I20
sS'YKL015W'
p1080
I1
sS'YKL179C'
p1081
I4
sS'YMR020W'
p1082
I3
sS'YJR089W'
p1083
I1
sS'YJL145W'
p1084
I7
sS'YDR377W'
p1085
I16
sS'YIR007W'
p1086
I0
sS'YJL201W'
p1087
I1
sS'YLR314C'
p1088
I6
sS'YLR153C'
p1089
I5
sS'YLR146W-A'
p1090
I4
sS'YNL126W'
p1091
I1
sS'YBR132C'
p1092
I0
sS'YKL040C'
p1093
I10
sS'YPR114W'
p1094
I3
sS'YLR249W'
p1095
I68
sS'YNL004W'
p1096
I7
sS'YOR327C'
p1097
I7
sS'YIR025W'
p1098
I1
sS'YDR336W'
p1099
I6
sS'YDR320C'
p1100
I1
sS'YPL069C'
p1101
I3
sS'YOR265W'
p1102
I5
sS'YOL139C'
p1103
I49
sS'YIL092W'
p1104
I1
sS'YBR207W'
p1105
I4
sS'YPR133C'
p1106
I8
sS'YOL073C'
p1107
I3
sS'YLR321C'
p1108
I3
sS'YNL191W'
p1109
I2
sS'YOR266W'
p1110
I2
sS'YPL203W'
p1111
I1
sS'YNR055C'
p1112
I4
sS'YDR532C'
p1113
I3
sS'YHL040C'
p1114
I1
sS'YHR200W'
p1115
I7
sS'YDR184C'
p1116
I4
sS'YNR011C'
p1117
I1
sS'YNL167C'
p1118
I1
sS'YKL210W'
p1119
I4
sS'YNL221C'
p1120
I2
sS'YLR194C'
p1121
I3
sS'YOR278W'
p1122
I3
sS'YNL284C'
p1123
I6
sS'YER146W'
p1124
I17
sS'YLR426W'
p1125
I1
sS'YGL061C'
p1126
I3
sS'YDR394W'
p1127
I8
sS'YNL173C'
p1128
I2
sS'YPR145W'
p1129
I15
sS'YDR399W'
p1130
I53
sS'YAR014C'
p1131
I3
sS'YOR353C'
p1132
I2
sS'YOR087W'
p1133
I2
sS'YKL127W'
p1134
I4
sS'YHR159W'
p1135
I1
sS'YPL132W'
p1136
I5
sS'YIL114C'
p1137
I5
sS'YPL100W'
p1138
I3
sS'YGL234W'
p1139
I12
sS'YOL055C'
p1140
I1
sS'YPR093C'
p1141
I2
sS'YOL082W'
p1142
I4
sS'YAL029C'
p1143
I1
sS'YIL070C'
p1144
I6
sS'YKL013C'
p1145
I9
sS'YNL108C'
p1146
I3
sS'YDR421W'
p1147
I1
sS'YLR226W'
p1148
I4
sS'YHL035C'
p1149
I0
sS'YMR301C'
p1150
I1
sS'YGL171W'
p1151
I3
sS'YDR294C'
p1152
I2
sS'YFR002W'
p1153
I3
sS'YBR267W'
p1154
I6
sS'YJL217W'
p1155
I13
sS'YNL250W'
p1156
I0
sS'YMR011W'
p1157
I2
sS'YPR194C'
p1158
I0
sS'YGR089W'
p1159
I1
sS'YBL029W'
p1160
I1
sS'YDR325W'
p1161
I2
sS'YNR031C'
p1162
I1
sS'YHL028W'
p1163
I1
sS'YNL131W'
p1164
I11
sS'YEL020W-A'
p1165
I12
sS'YNL124W'
p1166
I2
sS'YJL073W'
p1167
I1
sS'YBL005W'
p1168
I1
sS'YOR322C'
p1169
I1
sS'YNL048W'
p1170
I4
sS'YOL125W'
p1171
I2
sS'YOR243C'
p1172
I5
sS'YNL327W'
p1173
I6
sS'YLR130C'
p1174
I11
sS'YER022W'
p1175
I3
sS'YBR057C'
p1176
I2
sS'YNR059W'
p1177
I2
sS'YDR041W'
p1178
I9
sS'YER186C'
p1179
I5
sS'YMR165C'
p1180
I1
sS'YPR105C'
p1181
I2
sS'YKR070W'
p1182
I4
sS'YNL059C'
p1183
I2
sS'YMR205C'
p1184
I5
sS'YIL094C'
p1185
I15
sS'YCR005C'
p1186
I106
sS'YER164W'
p1187
I1
sS'YBL101C'
p1188
I0
sS'YPR055W'
p1189
I1
sS'YML017W'
p1190
I2
sS'YIL016W'
p1191
I6
sS'YLR032W'
p1192
I1
sS'YOR274W'
p1193
I3
sS'YPR141C'
p1194
I1
sS'YBL051C'
p1195
I1
sS'YGR281W'
p1196
I1
sS'YLR089C'
p1197
I2
sS'YPL161C'
p1198
I3
sS'YMR298W'
p1199
I4
sS'YMR022W'
p1200
I4
sS'YDR488C'
p1201
I1
sS'YNL115C'
p1202
I1
sS'YJL063C'
p1203
I3
sS'YOL021C'
p1204
I1
sS'YNL080C'
p1205
I1
sS'YEL042W'
p1206
I2
sS'YLR113W'
p1207
I9
sS'YEL020C'
p1208
I1
sS'YHL013C'
p1209
I7
sS'YOL060C'
p1210
I1
sS'YML129C'
p1211
I3
sS'YGR009C'
p1212
I2
sS'YNL208W'
p1213
I12
sS'YMR185W'
p1214
I2
sS'YCL005W'
p1215
I3
sS'YGL105W'
p1216
I10
sS'YBR097W'
p1217
I0
sS'YLR014C'
p1218
I1
sS'YDL076C'
p1219
I6
sS'YOR137C'
p1220
I1
sS'YDR120C'
p1221
I7
sS'YER126C'
p1222
I17
sS'YPL060W'
p1223
I1
sS'YMR227C'
p1224
I1
sS'YPR186C'
p1225
I2
sS'YOR113W'
p1226
I0
sS'YGR194C'
p1227
I1
sS'YDR486C'
p1228
I3
sS'YJL192C'
p1229
I11
sS'YHR117W'
p1230
I1
sS'YOL130W'
p1231
I4
sS'YDR030C'
p1232
I1
sS'YOR014W'
p1233
I1
sS'YOR238W'
p1234
I3
sS'YNL325C'
p1235
I1
sS'YPL274W'
p1236
I1
sS'YNL257C'
p1237
I1
sS'YBL047C'
p1238
I1
sS'YNL293W'
p1239
I2
sS'YEL051W'
p1240
I18
sS'YLR207W'
p1241
I1
sS'YLL023C'
p1242
I2
sS'YKL203C'
p1243
I0
sS'YOL004W'
p1244
I1
sS'YOR275C'
p1245
I1
sS'YPL209C'
p1246
I1
sS'YGR014W'
p1247
I1
sS'YGL050W'
p1248
I3
sS'YPR161C'
p1249
I2
sS'YDL036C'
p1250
I2
sS'YMR032W'
p1251
I1
sS'YMR150C'
p1252
I6
sS'YFL007W'
p1253
I1
sS'YML059C'
p1254
I1
sS'YDL129W'
p1255
I4
sS'YDR063W'
p1256
I4
sS'YOR352W'
p1257
I1
sS'YPL099C'
p1258
I5
sS'YGR238C'
p1259
I0
sS'YCR012W'
p1260
I202
sS'YML121W'
p1261
I7
sS'YER035W'
p1262
I1
sS'YDR201W'
p1263
I5
sS'YOR065W'
p1264
I1
sS'YDR254W'
p1265
I1
sS'YPR128C'
p1266
I6
sS'YGR263C'
p1267
I2
sS'YKL156W'
p1268
I115
sS'YMR310C'
p1269
I2
sS'YHR191C'
p1270
I5
sS'YDL110C'
p1271
I2
sS'YDL098C'
p1272
I3
sS'YDR301W'
p1273
I1
sS'YJL053W'
p1274
I4
sS'YPR104C'
p1275
I2
sS'YNL182C'
p1276
I7
sS'YPL023C'
p1277
I2
sS'YGR214W'
p1278
I102
sS'YGL006W'
p1279
I1
sS'YPL006W'
p1280
I1
sS'YCR083W'
p1281
I3
sS'YKR067W'
p1282
I0
sS'YNL310C'
p1283
I2
sS'YML028W'
p1284
I39
sS'YOR080W'
p1285
I1
sS'YLL001W'
p1286
I2
sS'YOR168W'
p1287
I13
sS'YDR052C'
p1288
I2
sS'YNL189W'
p1289
I6
sS'YMR043W'
p1290
I3
sS'YPR173C'
p1291
I6
sS'YCL047C'
p1292
I3
sS'YJL031C'
p1293
I5
sS'YML077W'
p1294
I8
sS'YER068W'
p1295
I1
sS'YER013W'
p1296
I1
sS'YMR269W'
p1297
I2
sS'YKL053C-A'
p1298
I6
sS'YPL078C'
p1299
I12
sS'YMR092C'
p1300
I8
sS'YDL021W'
p1301
I1
sS'YLR143W'
p1302
I2
sS'YLR043C'
p1303
I35
sS'YJL008C'
p1304
I7
sS'YDL018C'
p1305
I4
sS'YPL176C'
p1306
I2
sS'YMR102C'
p1307
I1
sS'YML060W'
p1308
I1
sS'YJR062C'
p1309
I2
sS'YGR054W'
p1310
I2
sS'YDL156W'
p1311
I0
sS'YMR191W'
p1312
I2
sS'YBL060W'
p1313
I2
sS'YML035C'
p1314
I2
sS'YNL181W'
p1315
I4
sS'YPL254W'
p1316
I6
sS'YCL010C'
p1317
I4
sS'YNL277W'
p1318
I1
sS'YCR090C'
p1319
I12
sS'YPR171W'
p1320
I1
sS'YKL056C'
p1321
I252
sS'YAL060W'
p1322
I5
sS'YFL025C'
p1323
I1
sS'YKL009W'
p1324
I30
sS'YIL144W'
p1325
I1
sS'YPL270W'
p1326
I1
sS'YOR124C'
p1327
I1
sS'YOR332W'
p1328
I16
sS'YKR056W'
p1329
I3
sS'YCL057C-A'
p1330
I5
sS'YJR057W'
p1331
I7
sS'YHR164C'
p1332
I0
sS'YKL150W'
p1333
I4
sS'YIL133C'
p1334
I43
sS'YHR063C'
p1335
I8
sS'YJL200C'
p1336
I5
sS'YGL211W'
p1337
I6
sS'YDR316W'
p1338
I2
sS'YMR093W'
p1339
I4
sS'YPL113C'
p1340
I1
sS'YCR076C'
p1341
I3
sS'YPL195W'
p1342
I3
sS'YNL107W'
p1343
I4
sS'YIR036C'
p1344
I2
sS'YIL009C-A'
p1345
I5
sS'YBL063W'
p1346
I0
sS'YDR479C'
p1347
I1
sS'YAL059W'
p1348
I10
sS'YKL194C'
p1349
I1
sS'YOR030W'
p1350
I1
sS'YKL096W'
p1351
I3
sS'YDR089W'
p1352
I2
sS'YKL014C'
p1353
I1
sS'YGL160W'
p1354
I2
sS'YMR021C'
p1355
I3
sS'YNR036C'
p1356
I10
sS'YPL216W'
p1357
I1
sS'YJR040W'
p1358
I1
sS'YPR119W'
p1359
I3
sS'YJR015W'
p1360
I5
sS'YDR378C'
p1361
I25
sS'YOL122C'
p1362
I4
sS'YGR277C'
p1363
I5
sS'YBL086C'
p1364
I2
sS'YKL176C'
p1365
I2
sS'YKR029C'
p1366
I2
sS'YDR249C'
p1367
I3
sS'YGL191W'
p1368
I10
sS'YJL104W'
p1369
I11
sS'YPR010C-A'
p1370
I5
sS'YOR296W'
p1371
I1
sS'YFL041W'
p1372
I1
sS'YJL168C'
p1373
I3
sS'YDR145W'
p1374
I3
sS'YDL174C'
p1375
I1
sS'YJL062W'
p1376
I1
sS'YPL085W'
p1377
I0
sS'YDL103C'
p1378
I3
sS'YJR008W'
p1379
I1
sS'YDL203C'
p1380
I1
sS'YFR024C-A'
p1381
I7
sS'YML031W'
p1382
I3
sS'YLR215C'
p1383
I2
sS'YML082W'
p1384
I1
sS'YLR363W-A'
p1385
I7
sS'YLR439W'
p1386
I1
sS'YKL100C'
p1387
I3
sS'YDR216W'
p1388
I0
sS'YIL120W'
p1389
I1
sS'YKL130C'
p1390
I3
sS'YOR106W'
p1391
I3
sS'YPL138C'
p1392
I3
sS'YNL021W'
p1393
I1
sS'YNL236W'
p1394
I1
sS'YOL054W'
p1395
I2
sS'YFR001W'
p1396
I13
sS'YPR152C'
p1397
I2
sS'YBR220C'
p1398
I4
sS'YIL019W'
p1399
I6
sS'YIL115C'
p1400
I1
sS'YKR013W'
p1401
I7
sS'YGL233W'
p1402
I1
sS'YCL027W'
p1403
I1
sS'YGR113W'
p1404
I4
sS'YLR319C'
p1405
I1
sS'YKL033W-A'
p1406
I18
sS'YMR036C'
p1407
I2
sS'YMR235C'
p1408
I11
sS'YOL053W'
p1409
I3
sS'YHR029C'
p1410
I3
sS'YPL091W'
p1411
I7
sS'YPR164W'
p1412
I1
sS'YIL031W'
p1413
I0
sS'YDR295C'
p1414
I1
sS'YAL033W'
p1415
I8
sS'YLR203C'
p1416
I1
sS'YGR155W'
p1417
I17
sS'YGL208W'
p1418
I1
sS'YFR049W'
p1419
I3
sS'YNL044W'
p1420
I7
sS'YMR195W'
p1421
I19
sS'YDR108W'
p1422
I2
sS'YNR049C'
p1423
I4
sS'YDR192C'
p1424
I1
sS'YOL112W'
p1425
I3
sS'YKR004C'
p1426
I1
sS'YML109W'
p1427
I0
sS'YLR342W'
p1428
I4
sS'YLR335W'
p1429
I3
sS'YNL251C'
p1430
I2
sS'YJR102C'
p1431
I3
sS'YPL089C'
p1432
I1
sS'YHR134W'
p1433
I4
sS'YOR020C'
p1434
I22
sS'YBL028C'
p1435
I27
sS'YBL004W'
p1436
I1
sS'YBR164C'
p1437
I15
sS'YIL153W'
p1438
I1
sS'YIL045W'
p1439
I1
sS'YJR088C'
p1440
I9
sS'YHR074W'
p1441
I2
sS'YBR211C'
p1442
I4
sS'YLR368W'
p1443
I2
sS'YBR268W'
p1444
I5
sS'YFR030W'
p1445
I1
sS'YKL089W'
p1446
I2
sS'YOR006C'
p1447
I8
sS'YBR131W'
p1448
I1
sS'YLR277C'
p1449
I2
sS'YAL011W'
p1450
I1
sS'YDL155W'
p1451
I4
sS'YBR244W'
p1452
I16
sS'YNL050C'
p1453
I4
sS'YLR436C'
p1454
I1
sS'YOR028C'
p1455
I2
sS'YBR179C'
p1456
I1
sS'YDR282C'
p1457
I2
sS'YPL155C'
p1458
I1
sS'YJR097W'
p1459
I6
sS'YPR091C'
p1460
I1
sS'YLR351C'
p1461
I8
sS'YOL094C'
p1462
I2
sS'YPR031W'
p1463
I1
sS'YAL002W'
p1464
I0
sS'YJL095W'
p1465
I0
sS'YHR018C'
p1466
I8
sS'YDR408C'
p1467
I10
sS'YOR260W'
p1468
I3
sS'YBR126C'
p1469
I4
sS'YOL149W'
p1470
I6
sS'YLR257W'
p1471
I30
sS'YGL202W'
p1472
I6
sS'YPL106C'
p1473
I12
sS'YLR173W'
p1474
I1
sS'YOR046C'
p1475
I10
sS'YKR035W-A'
p1476
I8
sS'YNL141W'
p1477
I9
sS'YBL026W'
p1478
I13
sS'YMR220W'
p1479
I5
sS'YPR187W'
p1480
I18
sS'YKL032C'
p1481
I1
sS'YEL018W'
p1482
I4
sS'YDR121W'
p1483
I5
sS'YER125W'
p1484
I1
sS'YDR432W'
p1485
I5
sS'YGR195W'
p1486
I3
sS'YPL211W'
p1487
I26
sS'YMR115W'
p1488
I1
sS'YDL077C'
p1489
I1
sS'YOR222W'
p1490
I9
sS'YOL043C'
p1491
I1
sS'YOL061W'
p1492
I7
sS'YOR206W'
p1493
I7
sS'YGL104C'
p1494
I1
sS'YER152C'
p1495
I3
sS'YLR015W'
p1496
I2
sS'YPL259C'
p1497
I2
sS'YOL100W'
p1498
I1
sS'YNL283C'
p1499
I2
sS'YLR008C'
p1500
I8
sS'YHR210C'
p1501
I1
sS'YPR133W-A'
p1502
I7
sS'YMR219W'
p1503
I0
sS'YBL046W'
p1504
I3
sS'YGR017W'
p1505
I4
sS'YDR031W'
p1506
I3
sS'YJR061W'
p1507
I1
sS'YOL005C'
p1508
I4
sS'YCL054W'
p1509
I5
sS'YOL107W'
p1510
I1
sS'YEL050C'
p1511
I4
sS'YHR036W'
p1512
I2
sS'YHR016C'
p1513
I3
sS'YOL072W'
p1514
I2
sS'YLR450W'
p1515
I1
sS'YNR048W'
p1516
I2
sS'YGL159W'
p1517
I4
sS'YOR155C'
p1518
I3
sS'YGR109C'
p1519
I1
sS'YGL224C'
p1520
I4
sS'YIL017C'
p1521
I1
sS'YNL268W'
p1522
I4
sS'YOR307C'
p1523
I3
sS'YLR396C'
p1524
I1
sS'YHR147C'
p1525
I7
sS'YOL123W'
p1526
I6
sS'YDR132C'
p1527
I1
sS'YML116W'
p1528
I4
sS'YNL084C'
p1529
I8
sS'YGL066W'
p1530
I1
sS'YGR156W'
p1531
I1
sS'YOR070C'
p1532
I1
sS'YLR179C'
p1533
I9
sS'YOR386W'
p1534
I1
sS'YAR042W'
p1535
I1
sS'YOR166C'
p1536
I4
sS'YHR207C'
p1537
I4
sS'YOL086C'
p1538
I230
sS'YHL038C'
p1539
I1
sS'YOR051C'
p1540
I11
sS'YMR313C'
p1541
I1
sS'YDR425W'
p1542
I0
sS'YNL220W'
p1543
I32
sS'YBL007C'
p1544
I1
sS'YGR060W'
p1545
I12
sS'YCL064C'
p1546
I19
sS'YML076C'
p1547
I1
sS'YER174C'
p1548
I6
sS'YML029W'
p1549
I1
sS'YOR140W'
p1550
I0
sS'YOL133W'
p1551
I7
sS'YPR073C'
p1552
I12
sS'YNL313C'
p1553
I2
sS'YHR094C'
p1554
I2
sS'YGL219C'
p1555
I1
sS'YLR127C'
p1556
I1
sS'YPL042C'
p1557
I3
sS'YCR048W'
p1558
I1
sS'YCR033W'
p1559
I1
sS'YER069W'
p1560
I1
sS'YMR091C'
p1561
I3
sS'YER012W'
p1562
I4
sS'YDR104C'
p1563
I1
sS'YDR222W'
p1564
I1
sS'YBL067C'
p1565
I1
sS'YMR208W'
p1566
I3
sS'YHR098C'
p1567
I1
sS'YDL019C'
p1568
I1
sS'YML034W'
p1569
I1
sS'YDL135C'
p1570
I7
sS'YPR023C'
p1571
I3
sS'YLR042C'
p1572
I1
sS'YCR093W'
p1573
I1
sS'YLR144C'
p1574
I1
sS'YEL072W'
p1575
I2
sS'YPR058W'
p1576
I4
sS'YDL020C'
p1577
I4
sS'YDR168W'
p1578
I6
sS'YML061C'
p1579
I2
sS'YGL080W'
p1580
I6
sS'YOR093C'
p1581
I1
sS'YJL186W'
p1582
I5
sS'YER023W'
p1583
I12
sS'YER163C'
p1584
I3
sS'YPL268W'
p1585
I3
sS'YER132C'
p1586
I1
sS'YPL116W'
p1587
I1
sS'YPL140C'
p1588
I2
sS'YBR069C'
p1589
I10
sS'YML016C'
p1590
I2
sS'YGL040C'
p1591
I10
sS'YKR084C'
p1592
I3
sS'YDL017W'
p1593
I1
sS'YDR512C'
p1594
I2
sS'YDR113C'
p1595
I2
sS'YLL031C'
p1596
I1
sS'YLR033W'
p1597
I5
sS'YLR088W'
p1598
I2
sS'YBR021W'
p1599
I0
sS'YLR438C-A'
p1600
I13
sS'YGR255C'
p1601
I2
sS'YNL156C'
p1602
I8
sS'YGL110C'
p1603
I3
sS'YDL051W'
p1604
I23
sS'YDR179W-A'
p1605
I3
sS'YGL263W'
p1606
I1
sS'YBL102W'
p1607
I10
sS'YIL038C'
p1608
I2
sS'YGR282C'
p1609
I19
sS'YNL183C'
p1610
I1
sS'YCR030C'
p1611
I1
sS'YMR077C'
p1612
I4
sS'YPL183C'
p1613
I4
sS'YDR166C'
p1614
I1
sS'YKR088C'
p1615
I6
sS'YNL068C'
p1616
I1
sS'YGR204W'
p1617
I4
sS'YMR198W'
p1618
I2
sS'YJR080C'
p1619
I1
sS'YJL005W'
p1620
I0
sS'YJL050W'
p1621
I4
sS'YDL192W'
p1622
I85
sS'YOL095C'
p1623
I1
sS'YDR146C'
p1624
I1
sS'YKR063C'
p1625
I3
sS'YPL158C'
p1626
I1
sS'YDR248C'
p1627
I4
sS'YJR016C'
p1628
I20
sS'YDL202W'
p1629
I2
sS'YDL100C'
p1630
I16
sS'YFL008W'
p1631
I1
sS'YDR337W'
p1632
I4
sS'YOL006C'
p1633
I3
sS'YJL061W'
p1634
I3
sS'YLR216C'
p1635
I16
sS'YPR181C'
p1636
I2
sS'YDR217C'
p1637
I1
sS'YGR063C'
p1638
I9
sS'YDR441C'
p1639
I2
sS'YGL140C'
p1640
I1
sS'YPL094C'
p1641
I12
sS'YNL020C'
p1642
I1
sS'YOR101W'
p1643
I7
sS'YLR290C'
p1644
I3
sS'YER090W'
p1645
I3
sS'YIL123W'
p1646
I3
sS'YMR246W'
p1647
I6
sS'YMR035W'
p1648
I3
sS'YDR231C'
p1649
I2
sS'YLR352W'
p1650
I0
sS'YJL112W'
p1651
I3
sS'YCR015C'
p1652
I3
sS'YHR152W'
p1653
I4
sS'YKR011C'
p1654
I2
sS'YPR018W'
p1655
I1
sS'YDR159W'
p1656
I1
sS'YNL095C'
p1657
I1
sS'YGL185C'
p1658
I2
sS'YMR059W'
p1659
I3
sS'YDR062W'
p1660
I7
sS'YLL033W'
p1661
I2
sS'YNL265C'
p1662
I3
sS'YOR230W'
p1663
I5
sS'YML058W'
p1664
I11
sS'YML123C'
p1665
I38
sS'YOR251C'
p1666
I5
sS'YER034W'
p1667
I2
sS'YJR076C'
p1668
I5
sS'YHR190W'
p1669
I5
sS'YLR106C'
p1670
I0
sS'YKR065C'
p1671
I3
sS'YKL157W'
p1672
I2
sS'YKR002W'
p1673
I1
sS'YGR044C'
p1674
I3
sS'YOL159C-A'
p1675
I4
sS'YBR003W'
p1676
I2
sS'YDR200C'
p1677
I1
sS'YPL050C'
p1678
I13
sS'YBR068C'
p1679
I15
sS'YDR279W'
p1680
I3
sS'YDL113C'
p1681
I2
sS'YNL138W-A'
p1682
I3
sS'YNL011C'
p1683
I4
sS'YDR357C'
p1684
I6
sS'YDL099W'
p1685
I3
sS'YGL226C-A'
p1686
I8
sS'YPL067C'
p1687
I1
sS'YBR130C'
p1688
I2
sS'YJR021C'
p1689
I1
sS'YLR274W'
p1690
I3
sS'YPR016C'
p1691
I8
sS'YBR247C'
p1692
I3
sS'YBL040C'
p1693
I19
sS'YDR463W'
p1694
I3
sS'YIL001W'
p1695
I1
sS'YAL010C'
p1696
I1
sS'YIL154C'
p1697
I3
sS'YPL149W'
p1698
I6
sS'YIL047C'
p1699
I4
sS'YBR165W'
p1700
I5
sS'YHR097C'
p1701
I1
sS'YDL220C'
p1702
I0
sS'YGR170W'
p1703
I1
sS'YHR075C'
p1704
I1
sS'YKL004W'
p1705
I3
sS'YOR208W'
p1706
I1
sS'YNL142W'
p1707
I1
sS'YMR250W'
p1708
I1
sS'YFR031C'
p1709
I2
sS'YMR083W'
p1710
I12
sS'YHR019C'
p1711
I11
sS'YJR129C'
p1712
I1
sS'YOR367W'
p1713
I3
sS'YDR281C'
p1714
I7
sS'YAL003W'
p1715
I67
sS'YIL149C'
p1716
I1
sS'YNL271C'
p1717
I0
sS'YLR200W'
p1718
I8
sS'YPL075W'
p1719
I1
sS'YLR258W'
p1720
I2
sS'YNR015W'
p1721
I3
sS'YJR098C'
p1722
I1
sS'YBR127C'
p1723
I14
sS'YLR350W'
p1724
I3
sS'YMR253C'
p1725
I1
sS'YFL024C'
p1726
I1
sS'YPL243W'
p1727
I11
sS'YAL061W'
p1728
I1
sS'YGR163W'
p1729
I2
sS'YGL126W'
p1730
I4
sS'YKL022C'
p1731
I1
sS'YLR018C'
p1732
I6
sS'YNL164C'
p1733
I6
sS'YOR012W'
p1734
I2
sS'YBL092W'
p1735
I135
sS'YDR368W'
p1736
I6
sS'YBR101C'
p1737
I12
sS'YLR147C'
p1738
I4
sS'YDL164C'
p1739
I1
sS'YJR050W'
p1740
I5
sS'YLR105C'
p1741
I5
sS'YHR132W-A'
p1742
I8
sS'YKL008C'
p1743
I10
sS'YDR375C'
p1744
I2
sS'YHR062C'
p1745
I3
sS'YIL014W'
p1746
I4
sS'YBR149W'
p1747
I3
sS'YGL210W'
p1748
I4
sS'YPR110C'
p1749
I23
sS'YDR088C'
p1750
I3
sS'YCR020C-A'
p1751
I8
sS'YKL042W'
p1752
I1
sS'YLR376C'
p1753
I2
sS'YNL158W'
p1754
I4
sS'YNL066W'
p1755
I5
sS'YLR453C'
p1756
I1
sS'YPL112C'
p1757
I4
sS'YPL030W'
p1758
I2
sS'YAL058W'
p1759
I2
sS'YDR452W'
p1760
I5
sS'YLR316C'
p1761
I3
sS'YDR319C'
p1762
I3
sS'YFR022W'
p1763
I0
sS'YKL095W'
p1764
I1
sS'YJR136C'
p1765
I4
sS'YGL225W'
p1766
I8
sS'YHR037W'
p1767
I1
sS'YJL098W'
p1768
I3
sS'YKL137W'
p1769
I7
sS'YML108W'
p1770
I7
sS'YHR017W'
p1771
I4
sS'YOL044W'
p1772
I3
sS'YHR148W'
p1773
I6
sS'YLR323C'
p1774
I3
sS'YOL028C'
p1775
I2
sS'YDR186C'
p1776
I2
sS'YBR103W'
p1777
I4
sS'YBL038W'
p1778
I8
sS'YML117W'
p1779
I1
sS'YGL067W'
p1780
I2
sS'YDR424C'
p1781
I9
sS'YGR189C'
p1782
I5
sS'YNL278W'
p1783
I0
sS'YIR003W'
p1784
I1
sS'YOR069W'
p1785
I3
sS'YGR038W'
p1786
I3
sS'YKR001C'
p1787
I5
sS'YER140W'
p1788
I2
sS'YOR363C'
p1789
I1
sS'YNL087W'
p1790
I3
sS'YFL029C'
p1791
I2
sS'YNL223W'
p1792
I1
sS'YOR196C'
p1793
I5
sS'YBR227C'
p1794
I2
sS'YLR318W'
p1795
I1
sS'YBR278W'
p1796
I4
sS'YFR055W'
p1797
I16
sS'YOR067C'
p1798
I3
sS'YOR273C'
p1799
I2
sS'YNL024C-A'
p1800
I15
sS'YDR296W'
p1801
I3
sS'YGL232W'
p1802
I8
sS'YPL107W'
p1803
I2
sS'YMR108W'
p1804
I6
sS'YGR141W'
p1805
I3
sS'YOR109W'
p1806
I1
sS'YIL030C'
p1807
I1
sS'YIL116W'
p1808
I13
sS'YMR123W'
p1809
I6
sS'YPL032C'
p1810
I1
sS'YGR094W'
p1811
I7
sS'YJR138W'
p1812
I1
sS'YLR442C'
p1813
I2
sS'YDR191W'
p1814
I2
sS'YJR103W'
p1815
I3
sS'YHR028C'
p1816
I2
sS'YBR265W'
p1817
I3
sS'YOR381W'
p1818
I1
sS'YFR048W'
p1819
I2
sS'YBR287W'
p1820
I2
sS'YNR037C'
p1821
I5
sS'YDL044C'
p1822
I3
sS'YCL024W'
p1823
I1
sS'YMR307W'
p1824
I16
sS'YPL271W'
p1825
I5
sS'YAL032C'
p1826
I1
sS'YGL145W'
p1827
I2
sS'YGL112C'
p1828
I4
sS'YHR137W'
p1829
I10
sS'YOR021C'
p1830
I22
sS'YBR230C'
p1831
I2
sS'YNL252C'
p1832
I2
sS'YBR187W'
p1833
I17
sS'YNL046W'
p1834
I6
sS'YER133W'
p1835
I32
sS'YGL248W'
p1836
I2
sS'YKL197C'
p1837
I0
sS'YHR077C'
p1838
I2
sS'YCR003W'
p1839
I9
sS'YOR342C'
p1840
I4
sS'YER020W'
p1841
I1
sS'YER162C'
p1842
I1
sS'YOR020W-A'
p1843
I4
sS'YMR038C'
p1844
I11
sS'YDR511W'
p1845
I1
sS'YML011C'
p1846
I4
sS'YKL035W'
p1847
I5
sS'YNL201C'
p1848
I1
sS'YDL190C'
p1849
I2
sS'YCR028C-A'
p1850
I10
sS'YMR210W'
p1851
I2
sS'YHR102W'
p1852
I1
sS'YHR030C'
p1853
I4
sS'YDR043C'
p1854
I3
sS'YGR076C'
p1855
I3
sS'YER075C'
p1856
I1
sS'YJL187C'
p1857
I1
sS'YOR250C'
p1858
I1
sS'YEL015W'
p1859
I6
sS'YBL103C'
p1860
I2
sS'YEL040W'
p1861
I16
sS'YKR085C'
p1862
I9
sS'YPR131C'
p1863
I10
sS'YPL045W'
p1864
I2
sS'YLR418C'
p1865
I7
sS'YLR224W'
p1866
I3
sS'YPL128C'
p1867
I0
sS'YOL078W'
p1868
I1
sS'YLR063W'
p1869
I2
sS'YER059W'
p1870
I2
sS'YMR243C'
p1871
I16
sS'YGL111W'
p1872
I5
sS'YLR271W'
p1873
I2
sS'YBR289W'
p1874
I1
sS'YOR136W'
p1875
I5
sS'YOR361C'
p1876
I12
sS'YOR132W'
p1877
I1
sS'YBL025W'
p1878
I5
sS'YLR102C'
p1879
I1
sS'YOL066C'
p1880
I2
sS'YLR388W'
p1881
I102
sS'YKL212W'
p1882
I8
sS'YJL071W'
p1883
I2
sS'YGL167C'
p1884
I2
sS'YHR115C'
p1885
I2
sS'YOR223W'
p1886
I2
sS'YER124C'
p1887
I16
sS'YEL022W'
p1888
I1
sS'YPL188W'
p1889
I3
sS'YPR188C'
p1890
I7
sS'YIL053W'
p1891
I40
sS'YDL074C'
p1892
I5
sS'YNL073W'
p1893
I2
sS'YOR374W'
p1894
I1
sS'YJL190C'
p1895
I316
sS'YKL001C'
p1896
I8
sS'YLR052W'
p1897
I2
sS'YGL107C'
p1898
I2
sS'YOR269W'
p1899
I1
sS'YOR212W'
p1900
I7
sS'YPL256C'
p1901
I2
sS'YDR520C'
p1902
I2
sS'YKL201C'
p1903
I1
sS'YLL049W'
p1904
I2
sS'YMR221C'
p1905
I2
sS'YOL026C'
p1906
I4
sS'YNL106C'
p1907
I0
sS'YDL069C'
p1908
I2
sS'YGR016W'
p1909
I2
sS'YEL053C'
p1910
I1
sS'YDR236C'
p1911
I6
sS'YJL042W'
p1912
I0
sS'YER037W'
p1913
I2
sS'YPL037C'
p1914
I76
sS'YER057C'
p1915
I8
sS'YCR092C'
p1916
I1
sS'YKL145W'
p1917
I12
sS'YJL111W'
p1918
I8
sS'YCR014C'
p1919
I2
sS'YMR211W'
p1920
I4
sS'YKR010C'
p1921
I1
sS'YKR051W'
p1922
I3
sS'YMR034C'
p1923
I1
sS'YLL010C'
p1924
I2
sS'YMR058W'
p1925
I3
sS'YDR061W'
p1926
I4
sS'YNL113W'
p1927
I9
sS'YPR072W'
p1928
I3
sS'YJR112W-A'
p1929
I6
sS'YOR290C'
p1930
I0
sS'YKL114C'
p1931
I6
sS'YML093W'
p1932
I4
sS'YJR077C'
p1933
I3
sS'YHR197W'
p1934
I4
sS'YCR081W'
p1935
I0
sS'YBR002C'
p1936
I6
sS'YDR391C'
p1937
I2
sS'YPR106W'
p1938
I1
sS'YFR015C'
p1939
I0
sS'YDR276C'
p1940
I22
sS'YGR261C'
p1941
I3
sS'YKL154W'
p1942
I8
sS'YGR180C'
p1943
I19
sS'YDR158W'
p1944
I25
sS'YOR111W'
p1945
I2
sS'YMR116C'
p1946
I238
sS'YOL019W'
p1947
I1
sS'YOR164C'
p1948
I13
sS'YLR107W'
p1949
I6
sS'YMR073C'
p1950
I3
sS'YPL082C'
p1951
I1
sS'YDR323C'
p1952
I2
sS'YGL030W'
p1953
I225
sS'YGR283C'
p1954
I7
sS'YDL052C'
p1955
I2
sS'YER175C'
p1956
I2
sS'YMR308C'
p1957
I4
sS'YJL178C'
p1958
I11
sS'YIL084C'
p1959
I1
sS'YLR429W'
p1960
I5
sS'YDL183C'
p1961
I2
sS'YMR218C'
p1962
I2
sS'YDR050C'
p1963
I231
sS'YGR061C'
p1964
I5
sS'YLL007C'
p1965
I1
sS'YLL048C'
p1966
I2
sS'YCR032W'
p1967
I1
sS'YNL312W'
p1968
I5
sS'YDR105C'
p1969
I3
sS'YOR271C'
p1970
I4
sS'YPL241C'
p1971
I2
sS'YGL120C'
p1972
I4
sS'YLR145W'
p1973
I4
sS'YGR271C-A'
p1974
I13
sS'YDR169C'
p1975
I1
sS'YLR098C'
p1976
I1
sS'YNR041C'
p1977
I4
sS'YPR022C'
p1978
I1
sS'YLR110C'
p1979
I193
sS'YIR038C'
p1980
I3
sS'YHR099W'
p1981
I0
sS'YEL071W'
p1982
I34
sS'YKR058W'
p1983
I1
sS'YBR098W'
p1984
I1
sS'YML062C'
p1985
I6
sS'YPL233W'
p1986
I4
sS'YOR040W'
p1987
I2
sS'YNL041C'
p1988
I2
sS'YFL050C'
p1989
I1
sS'YDR369C'
p1990
I1
sS'YBR106W'
p1991
I62
sS'YKL132C'
p1992
I1
sS'YBL093C'
p1993
I13
sS'YKL054C'
p1994
I4
sS'YLR390W-A'
p1995
I9
sS'YHR171W'
p1996
I1
sS'YGR162W'
p1997
I7
sS'YDL165W'
p1998
I6
sS'YGR227W'
p1999
I1
sS'YDR258C'
p2000
I1
sS'YDR032C'
p2001
I12
sS'YJL124C'
p2002
I7
sS'YOR076C'
p2003
I2
sS'YDR179C'
p2004
I3
sS'YLR253W'
p2005
I3
sS'YKL023W'
p2006
I1
sS'YNL165W'
p2007
I1
sS'YJR051W'
p2008
I3
sS'YKL094W'
p2009
I8
sS'YNL022C'
p2010
I5
sS'YDR261C'
p2011
I2
sS'YIL131C'
p2012
I1
sS'YKL143W'
p2013
I6
sS'YBR146W'
p2014
I4
sS'YDR318W'
p2015
I4
sS'YFL034W'
p2016
I1
sS'YPL031C'
p2017
I3
sS'YAL044W-A'
p2018
I3
sS'YKL012W'
p2019
I3
sS'YER080W'
p2020
I2
sS'YJL164C'
p2021
I1
sS'YNL125C'
p2022
I1
sS'YNL065W'
p2023
I4
sS'YJR019C'
p2024
I1
sS'YJR135C'
p2025
I3
sS'YDR321W'
p2026
I10
sS'YFR032C-A'
p2027
I247
sS'YGL213C'
p2028
I3
sS'YNL178W'
p2029
I322
sS'YDR147W'
p2030
I3
sS'YJL004C'
p2031
I9
sS'YMR031C'
p2032
I2
sS'YBL080C'
p2033
I1
sS'YMR076C'
p2034
I1
sS'YGR205W'
p2035
I1
sS'YDR356W'
p2036
I1
sS'YMR136W'
p2037
I1
sS'YDR167W'
p2038
I6
sS'YPL172C'
p2039
I2
sS'YJL051W'
p2040
I1
sS'YJR017C'
p2041
I2
sS'YPL180W'
p2042
I1
sS'YHR057C'
p2043
I4
sS'YHR118C'
p2044
I1
sS'YOR380W'
p2045
I1
sS'YNL027W'
p2046
I1
sS'YPL022W'
p2047
I2
sS'YDR440W'
p2048
I1
sS'YJL060W'
p2049
I1
sS'YDL101C'
p2050
I2
sS'YDL205C'
p2051
I6
sS'YML080W'
p2052
I5
sS'YNL099C'
p2053
I5
sS'YMR027W'
p2054
I5
sS'YLR291C'
p2055
I3
sS'YDR210W'
p2056
I17
sS'YGR048W'
p2057
I4
sS'YDL230W'
p2058
I2
sS'YOR259C'
p2059
I13
sS'YML115C'
p2060
I3
sS'YJR113C'
p2061
I5
sS'YBR279W'
p2062
I3
sS'YGR024C'
p2063
I12
sS'YOR281C'
p2064
I7
sS'YIL117C'
p2065
I8
sS'YAL055W'
p2066
I1
sS'YHR041C'
p2067
I2
sS'YOL052C'
p2068
I2
sS'YGR140W'
p2069
I1
sS'YDR475C'
p2070
I1
sS'YPL137C'
p2071
I1
sS'YNL116W'
p2072
I1
sS'YOL023W'
p2073
I1
sS'YGR097W'
p2074
I1
sS'YHR156C'
p2075
I2
sS'YBR151W'
p2076
I7
sS'YCL025C'
p2077
I1
sS'YBR184W'
p2078
I1
sS'YGL231C'
p2079
I11
sS'YGR157W'
p2080
I3
sS'YNL282W'
p2081
I5
sS'YBR286W'
p2082
I10
sS'YGL144C'
p2083
I1
sS'YBR168W'
p2084
I2
sS'YDR297W'
p2085
I4
sS'YAL031C'
p2086
I1
sS'YBL006C'
p2087
I12
sS'YLR340W'
p2088
I44
sS'YGR108W'
p2089
I10
sS'YMR070W'
p2090
I1
sS'YBR264C'
p2091
I3
sS'YBR231C'
p2092
I1
sS'YHR162W'
p2093
I75
sS'YBR246W'
p2094
I3
sS'YPL110C'
p2095
I1
sS'YGR207C'
p2096
I9
sS'YLR275W'
p2097
I4
sS'YOR004W'
p2098
I15
sS'YOR073W'
p2099
I1
sS'YDR212W'
p2100
I9
sS'YBR166C'
p2101
I6
sS'YDR462W'
p2102
I4
sS'YKL043W'
p2103
I1
sS'YIL155C'
p2104
I0
sS'YGR171C'
p2105
I1
sS'YDL227C'
p2106
I3
sS'YPL065W'
p2107
I1
sS'YAL048C'
p2108
I1
sS'YPL055C'
p2109
I1
sS'YPL210C'
p2110
I9
sS'YAL013W'
p2111
I1
sS'YGL093W'
p2112
I1
sS'YDR098C'
p2113
I10
sS'YOR371C'
p2114
I0
sS'YPL095C'
p2115
I3
sS'YNR003C'
p2116
I6
sS'YOR330C'
p2117
I1
sS'YGL200C'
p2118
I17
sS'YJR099W'
p2119
I4
sS'YOR019W'
p2120
I1
sS'YOR044W'
p2121
I7
sS'YNL052W'
p2122
I5
sS'YNL192W'
p2123
I3
sS'YPL157W'
p2124
I5
sS'YKL005C'
p2125
I2
sS'YBR120C'
p2126
I3
sS'YLR085C'
p2127
I3
sS'YDR280W'
p2128
I11
sS'YOR179C'
p2129
I3
sS'YKL215C'
p2130
I1
sS'YGL166W'
p2131
I6
sS'YHR114W'
p2132
I1
sS'YHR138C'
p2133
I2
sS'YEL023C'
p2134
I1
sS'YMR241W'
p2135
I18
sS'YOL067C'
p2136
I1
sS'YGL079W'
p2137
I1
sS'YDL075W'
p2138
I137
sS'YDR127W'
p2139
I1
sS'YCL034W'
p2140
I5
sS'YOL018C'
p2141
I4
sS'YBR288C'
p2142
I4
sS'YOR220W'
p2143
I5
sS'YKR092C'
p2144
I7
sS'YMR222C'
p2145
I1
sS'YGR197C'
p2146
I1
sS'YMR284W'
p2147
I1
sS'YNL264C'
p2148
I2
sS'YNL155W'
p2149
I8
sS'YPR158W'
p2150
I2
sS'YOR142W'
p2151
I4
sS'YDR434W'
p2152
I5
sS'YGL106W'
p2153
I19
sS'YOL027C'
p2154
I2
sS'YOR211C'
p2155
I1
sS'YPL257W'
p2156
I2
sS'YPL135W'
p2157
I16
sS'YDR033W'
p2158
I19
sS'YPL120W'
p2159
I1
sS'YPL117C'
p2160
I19
sS'YIL075C'
p2161
I6
sS'YOL145C'
p2162
I3
sS'YOR022C'
p2163
I1
sS'YHR038W'
p2164
I1
sS'YJL099W'
p2165
I2
sS'YHR149C'
p2166
I1
sS'YIL020C'
p2167
I5
sS'YOL098C'
p2168
I2
sS'YBR208C'
p2169
I1
sS'YNR074C'
p2170
I4
sS'YER074W-A'
p2171
I16
sS'YDR005C'
p2172
I3
sS'YHL025W'
p2173
I11
sS'YGL091C'
p2174
I7
sS'YOL045W'
p2175
I1
sS'YFR010W'
p2176
I5
sS'YHL009C'
p2177
I1
sS'YDL112W'
p2178
I1
sS'YHL021C'
p2179
I2
sS'YJL109C'
p2180
I2
sS'YDR506C'
p2181
I0
sS'YHR205W'
p2182
I1
sS'YGR037C'
p2183
I17
sS'YIL008W'
p2184
I10
sS'YOR236W'
p2185
I3
sS'YBL039C'
p2186
I14
sS'YGR188C'
p2187
I1
sS'YNR058W'
p2188
I1
sS'YER143W'
p2189
I2
sS'YNL045W'
p2190
I1
sS'YPL012W'
p2191
I4
sS'YGL064C'
p2192
I1
sS'YFR053C'
p2193
I0
sS'YGR284C'
p2194
I9
sS'YDL053C'
p2195
I3
sS'YPR004C'
p2196
I5
sS'YOR122C'
p2197
I54
sS'YIL071C'
p2198
I2
sS'YMR240C'
p2199
I4
sS'YIL005W'
p2200
I1
sS'YKL109W'
p2201
I0
sS'YKR062W'
p2202
I3
sS'YNL286W'
p2203
I3
sS'YMR119W'
p2204
I3
sS'YPR069C'
p2205
I14
sS'YLL006W'
p2206
I1
sS'YMR215W'
p2207
I3
sS'YDR051C'
p2208
I6
sS'YGR062C'
p2209
I3
sS'YML128C'
p2210
I2
sS'YER010C'
p2211
I3
sS'YER176W'
p2212
I1
sS'YIL049W'
p2213
I2
sS'YKR003W'
p2214
I2
sS'YDL180W'
p2215
I3
sS'YGL127C'
p2216
I1
sS'YBR030W'
p2217
I2
sS'YLR336C'
p2218
I4
sS'YDL133W'
p2219
I5
sS'YDL232W'
p2220
I9
sS'YJL019W'
p2221
I0
sS'YDL022W'
p2222
I2
sS'YPR021C'
p2223
I1
sS'YGR244C'
p2224
I2
sS'YOR286W'
p2225
I5
sS'YKR037C'
p2226
I4
sS'YMR271C'
p2227
I2
sS'YBR065C'
p2228
I2
sS'YLR099C'
p2229
I1
sS'YOR149C'
p2230
I1
sS'YGR117C'
p2231
I5
sS'YOR298C-A'
p2232
I48
sS'YML032C'
p2233
I2
sS'YLR146C'
p2234
I5
sS'YDR240C'
p2235
I3
sS'YHR135C'
p2236
I2
sS'YDR429C'
p2237
I31
sS'YHR079C'
p2238
I1
sS'YDL035C'
p2239
I1
sS'YER118C'
p2240
I3
sS'YML010W'
p2241
I2
sS'YDL193W'
p2242
I2
sS'YER021W'
p2243
I10
sS'YBR052C'
p2244
I7
sS'YER134C'
p2245
I4
sS'YEL052W'
p2246
I2
sS'YMR162C'
p2247
I1
sS'YEL009C'
p2248
I24
sS'YER161C'
p2249
I2
sS'YBR083W'
p2250
I1
sS'YHR103W'
p2251
I2
sS'YNR019W'
p2252
I1
sS'YOR001W'
p2253
I2
sS'YNL047C'
p2254
I1
sS'YDR498C'
p2255
I2
sS'YNL240C'
p2256
I2
sS'YOR257W'
p2257
I4
sS'YDR461C-A'
p2258
I5
sS'YGR002C'
p2259
I2
sS'YDR042C'
p2260
I2
sS'YER129W'
p2261
I1
sS'YBR058C-A'
p2262
I24
sS'YOL113W'
p2263
I2
sS'YDR111C'
p2264
I2
sS'YMR120C'
p2265
I25
sS'YGR253C'
p2266
I16
sS'YDR510W'
p2267
I8
sS'YKR082W'
p2268
I2
sS'YLR228C'
p2269
I1
sS'YHR129C'
p2270
I1
sS'YLR019W'
p2271
I2
sS'YCR079W'
p2272
I1
sS'YPR045C'
p2273
I3
sS'YER058W'
p2274
I2
sS'YPR010C'
p2275
I4
sS'YPL231W'
p2276
I3
sS'YLR148W'
p2277
I2
sS'YMR137C'
p2278
I1
sS'YDR164C'
p2279
I1
sS'YKL155C'
p2280
I1
sS'YJR069C'
p2281
I6
sS'YBR162W-A'
p2282
I28
sS'YOR258W'
p2283
I3
sS'YDR119W'
p2284
I5
sS'YGR145W'
p2285
I3
sS'YKR055W'
p2286
I1
sS'YFL042C'
p2287
I0
sS'YDR351W'
p2288
I1
sS'YOL119C'
p2289
I4
sS'YMR188C'
p2290
I11
sS'YDR148C'
p2291
I2
sS'YPL181W'
p2292
I4
sS'YJR034W'
p2293
I2
sS'YLR121C'
p2294
I1
sS'YDL045W-A'
p2295
I3
sS'YOR003W'
p2296
I1
sS'YLR210W'
p2297
I2
sS'YBR063C'
p2298
I2
sS'YNL055C'
p2299
I8
sS'YNL026W'
p2300
I5
sS'YDL106C'
p2301
I1
sS'YDR335W'
p2302
I1
sS'YKR061W'
p2303
I3
sS'YHR081W'
p2304
I8
sS'YGL116W'
p2305
I1
sS'YGR206W'
p2306
I4
sS'YMR039C'
p2307
I6
sS'YPR036W-A'
p2308
I111
sS'YOR239W'
p2309
I3
sS'YPL014W'
p2310
I0
sS'YGR154C'
p2311
I2
sS'YHR181W'
p2312
I6
sS'YNL320W'
p2313
I2
sS'YDR443C'
p2314
I0
sS'YDR211W'
p2315
I6
sS'YCR095C'
p2316
I5
sS'YMR128W'
p2317
I2
sS'YLL011W'
p2318
I7
sS'YCR077C'
p2319
I2
sS'YML130C'
p2320
I2
sS'YJL029C'
p2321
I2
sS'YER056C'
p2322
I27
sS'YGL130W'
p2323
I5
sS'YMR157C'
p2324
I4
sS'YJL033W'
p2325
I3
sS'YER036C'
p2326
I11
sS'YCL005W-A'
p2327
I14
sS'YNL306W'
p2328
I10
sS'YML075C'
p2329
I2
sS'YCR017C'
p2330
I2
sS'YDR237W'
p2331
I4
sS'YOR297C'
p2332
I3
sS'YDR060W'
p2333
I4
sS'YKR048C'
p2334
I6
sS'YMR080C'
p2335
I2
sS'YPR144C'
p2336
I2
sS'YGL187C'
p2337
I9
sS'YMR193W'
p2338
I7
sS'YJL023C'
p2339
I3
sS'YBR001C'
p2340
I1
sS'YNL246W'
p2341
I5
sS'YOR315W'
p2342
I7
sS'YCL033C'
p2343
I4
sS'YHR196W'
p2344
I14
sS'YMR048W'
p2345
I2
sS'YKL108W'
p2346
I1
sS'YPR067W'
p2347
I1
sS'YML092C'
p2348
I9
sS'YJL047C'
p2349
I1
sS'YPR060C'
p2350
I15
sS'YML025C'
p2351
I2
sS'YDL124W'
p2352
I2
sS'YDR257C'
p2353
I4
sS'YJR074W'
p2354
I4
sS'YNL291C'
p2355
I2
sS'YGR266W'
p2356
I2
sS'YDL148C'
p2357
I4
sS'YJL167W'
p2358
I11
sS'YPL076W'
p2359
I1
sS'YHR163W'
p2360
I7
sS'YMR200W'
p2361
I12
sS'YKL011C'
p2362
I3
sS'YBR167C'
p2363
I3
sS'YIL156W'
p2364
I0
sS'YOR147W'
p2365
I2
sS'YML002W'
p2366
I1
sS'YPL196W'
p2367
I5
sS'YPL215W'
p2368
I3
sS'YLR272C'
p2369
I0
sS'YOR005C'
p2370
I1
sS'YDL226C'
p2371
I4
sS'YNR017W'
p2372
I5
sS'YKL059C'
p2373
I1
sS'YFR037C'
p2374
I7
sS'YCL039W'
p2375
I1
sS'YAL049C'
p2376
I5
sS'YJL212C'
p2377
I1
sS'YGR136W'
p2378
I4
sS'YNL097C'
p2379
I4
sS'YOR008C'
p2380
I4
sS'YOR018W'
p2381
I1
sS'YDR513W'
p2382
I8
sS'YDR461W'
p2383
I20
sS'YGL201C'
p2384
I1
sS'YGL047W'
p2385
I3
sS'YKL084W'
p2386
I1
sS'YBR121C'
p2387
I17
sS'YDL146W'
p2388
I1
sS'YKL133C'
p2389
I1
sS'YJR052W'
p2390
I2
sS'YKL188C'
p2391
I1
sS'YMR062C'
p2392
I4
sS'YLR292C'
p2393
I13
sS'YKL020C'
p2394
I1
sS'YHR170W'
p2395
I12
sS'YJL125C'
p2396
I4
sS'YLR312W-A'
p2397
I8
sS'YBL090W'
p2398
I8
sS'YLR262C-A'
p2399
I42
sS'YPR034W'
p2400
I3
sS'YKL068W'
p2401
I2
sS'YPL129W'
p2402
I8
sS'YDL166C'
p2403
I7
sS'YDR260C'
p2404
I3
sS'YKL142W'
p2405
I8
sS'YPL049C'
p2406
I3
sS'YGL212W'
p2407
I2
sS'YNL122C'
p2408
I3
sS'YLR045C'
p2409
I2
sS'YER081W'
p2410
I9
sS'YIL136W'
p2411
I2
sS'YPL178W'
p2412
I12
sS'YKL019W'
p2413
I3
sS'YPR041W'
p2414
I27
sS'YDR373W'
p2415
I13
sS'YGR233C'
p2416
I1
sS'YDR322W'
p2417
I2
sS'YNL008C'
p2418
I2
sS'YOL111C'
p2419
I2
sS'YDR004W'
p2420
I5
sS'YGL227W'
p2421
I1
sS'YOR350C'
p2422
I1
sS'YFR011C'
p2423
I4
sS'YIL074C'
p2424
I7
sS'YMR312W'
p2425
I1
sS'YIL161W'
p2426
I3
sS'YLL043W'
p2427
I2
sS'YOL144W'
p2428
I2
sS'YMR297W'
p2429
I8
sS'YLR395C'
p2430
I8
sS'YHL008C'
p2431
I1
sS'YOR096W'
p2432
I269
sS'YIL021W'
p2433
I9
sS'YCL016C'
p2434
I3
sS'YHR039C'
p2435
I2
sS'YBR274W'
p2436
I2
sS'YER131W'
p2437
I77
sS'YGL178W'
p2438
I0
sS'YNL249C'
p2439
I2
sS'YMR090W'
p2440
I3
sS'YKL088W'
p2441
I2
sS'YER142C'
p2442
I1
sS'YML119W'
p2443
I4
sS'YGR056W'
p2444
I1
sS'YGR036C'
p2445
I3
sS'YNL225C'
p2446
I3
sS'YKL006C-A'
p2447
I14
sS'YLR084C'
p2448
I1
sS'YGL065C'
p2449
I1
sS'YKR087C'
p2450
I7
sS'YDR180W'
p2451
I0
sS'YOR052C'
p2452
I7
sS'YLR243W'
p2453
I8
sS'YAL001C'
p2454
I1
sS'YLR196W'
p2455
I8
sS'YPL221W'
p2456
I2
sS'YIL036W'
p2457
I1
sS'YPL047W'
p2458
I7
sS'YMR135C'
p2459
I3
sS'YPL236C'
p2460
I2
sS'YHR155W'
p2461
I1
sS'YOR045W'
p2462
I18
sS'YDR476C'
p2463
I1
sS'YEL003W'
p2464
I16
sS'YJR112W'
p2465
I6
sS'YDL231C'
p2466
I1
sS'YBR252W'
p2467
I11
sS'YBR225W'
p2468
I0
sS'YIL110W'
p2469
I8
sS'YPL183W-A'
p2470
I4
sS'YIL158W'
p2471
I5
sS'YJR054W'
p2472
I4
sS'YOR264W'
p2473
I3
sS'YJR083C'
p2474
I2
sS'YOL159C'
p2475
I3
sS'YBR169C'
p2476
I1
sS'YNL135C'
p2477
I32
sS'YAL030W'
p2478
I2
sS'YBR263W'
p2479
I3
sS'YMR305C'
p2480
I6
sS'YBL001C'
p2481
I16
sS'YBR185C'
p2482
I2
sS'YOR010C'
p2483
I1
sS'YDR019C'
p2484
I19
sS'YNL207W'
p2485
I8
sS'YOR232W'
p2486
I17
sS'YGR150C'
p2487
I2
sS'YJR133W'
p2488
I5
sS'YEL065W'
p2489
I4
sS'YEL055C'
p2490
I2
sS'YER119C'
p2491
I1
sS'YGR058W'
p2492
I1
sS'YDR381C-A'
p2493
I5
sS'YMR196W'
p2494
I1
sS'YBR053C'
p2495
I3
sS'YML013W'
p2496
I1
sS'YPL077C'
p2497
I2
sS'YLL058W'
p2498
I1
sS'YDR499W'
p2499
I1
sS'YKL068W-A'
p2500
I9
sS'YBR082C'
p2501
I14
sS'YOR210W'
p2502
I25
sS'YJL133C-A'
p2503
I7
sS'YBL034C'
p2504
I0
sS'YMR252C'
p2505
I2
sS'YJR022W'
p2506
I3
sS'YOL008W'
p2507
I1
sS'YER077C'
p2508
I3
sS'YNL224C'
p2509
I2
sS'YGL246C'
p2510
I8
sS'YNL010W'
p2511
I29
sS'YCR054C'
p2512
I2
sS'YDR045C'
p2513
I14
sS'YPL232W'
p2514
I7
sS'YKR083C'
p2515
I4
sS'YMR209C'
p2516
I3
sS'YEL017W'
p2517
I2
sS'YGR252W'
p2518
I3
sS'YDL003W'
p2519
I3
sS'YER128W'
p2520
I1
sS'YJR123W'
p2521
I213
sS'YDL078C'
p2522
I10
sS'YGR003W'
p2523
I2
sS'YDR517W'
p2524
I3
sS'YGL043W'
p2525
I5
sS'YOR256C'
p2526
I2
sS'YPR011C'
p2527
I2
sS'YLL061W'
p2528
I1
sS'YDR110W'
p2529
I3
sS'YLR061W'
p2530
I136
sS'YKL214C'
p2531
I1
sS'YOL088C'
p2532
I6
sS'YDR419W'
p2533
I2
sS'YLR435W'
p2534
I7
sS'YPL057C'
p2535
I1
sS'YOR221C'
p2536
I2
sS'YOR185C'
p2537
I1
sS'YGL113W'
p2538
I1
sS'YKR095W'
p2539
I1
sS'YMR223W'
p2540
I2
sS'YPL214C'
p2541
I2
sS'YGR029W'
p2542
I6
sS'YFL034C-A'
p2543
I66
sS'YOR334W'
p2544
I2
sS'YLR193C'
p2545
I2
sS'YLR154C'
p2546
I4
sS'YBL023C'
p2547
I1
sS'YNR010W'
p2548
I1
sS'YML067C'
p2549
I9
sS'YGL078C'
p2550
I12
sS'YNL326C'
p2551
I3
sS'YNL079C'
p2552
I35
sS'YDR435C'
p2553
I2
sS'YER151C'
p2554
I1
sS'YIL098C'
p2555
I4
sS'YLR005W'
p2556
I4
sS'YPR052C'
p2557
I17
sS'YLL027W'
p2558
I4
sS'YJL076W'
p2559
I1
sS'YOR382W'
p2560
I2
sS'YOR144C'
p2561
I1
sS'YOR253W'
p2562
I14
sS'YNL069C'
p2563
I101
sS'YNL267W'
p2564
I1
sS'YCL001W'
p2565
I14
sS'YGR198W'
p2566
I2
sS'YKL189W'
p2567
I1
sS'YPR048W'
p2568
I4
sS'YAR007C'
p2569
I3
sS'YLR050C'
p2570
I3
sS'YGR010W'
p2571
I1
sS'YML064C'
p2572
I11
sS'YKR091W'
p2573
I1
sS'YER055C'
p2574
I57
sS'YNL307C'
p2575
I4
sS'YCR016W'
p2576
I5
sS'YLL012W'
p2577
I1
sS'YCL052C'
p2578
I4
sS'YDR067C'
p2579
I6
sS'YMR056C'
p2580
I1
sS'YHR167W'
p2581
I5
sS'YLR218C'
p2582
I2
sS'YLR087C'
p2583
I0
sS'YJL044C'
p2584
I4
sS'YCR094W'
p2585
I1
sS'YGL186C'
p2586
I8
sS'YDR234W'
p2587
I3
sS'YGL085W'
p2588
I3
sS'YGL131C'
p2589
I0
sS'YGR218W'
p2590
I2
sS'YEL060C'
p2591
I1
sS'YKR049C'
p2592
I3
sS'YPL028W'
p2593
I20
sS'YPL145C'
p2594
I9
sS'YPR179C'
p2595
I2
sS'YHR195W'
p2596
I6
sS'YGR267C'
p2597
I13
sS'YDL149W'
p2598
I0
sS'YDL125C'
p2599
I14
sS'YJL149W'
p2600
I1
sS'YPR006C'
p2601
I1
sS'YMR114C'
p2602
I1
sS'YPL002C'
p2603
I4
sS'YGL022W'
p2604
I4
sS'YML079W'
p2605
I5
sS'YKL017C'
p2606
I1
sS'YMR049C'
p2607
I2
sS'YDR229W'
p2608
I4
sS'YJR075W'
p2609
I6
sS'YPR124W'
p2610
I11
sS'YJL213W'
p2611
I5
sS'YLL029W'
p2612
I2
sS'YDL181W'
p2613
I2
sS'YOR344C'
p2614
I3
sS'YGR285C'
p2615
I12
sS'YNL232W'
p2616
I9
sS'YDR374W-A'
p2617
I5
sS'YER017C'
p2618
I1
sS'YBR022W'
p2619
I5
sS'YMR214W'
p2620
I3
sS'YBR079C'
p2621
I4
sS'YER177W'
p2622
I57
sS'YDR500C'
p2623
I112
sS'YGL032C'
p2624
I3
sS'YMR176W'
p2625
I1
sS'YCL063W'
p2626
I1
sS'YER048C'
p2627
I6
sS'YPR020W'
p2628
I5
sS'YML048W'
p2629
I5
sS'YNL112W'
p2630
I14
sS'YLR027C'
p2631
I5
sS'YDR107C'
p2632
I1
sS'YDL132W'
p2633
I3
sS'YBL064C'
p2634
I2
sS'YGR245C'
p2635
I4
sS'YOR148C'
p2636
I5
sS'YLR047C'
p2637
I1
sS'YDR497C'
p2638
I10
sS'YDL025C'
p2639
I2
sS'YGR229C'
p2640
I7
sS'YPR057W'
p2641
I4
sS'YMR270C'
p2642
I6
sS'YLR293C'
p2643
I15
sS'YDL147W'
p2644
I15
sS'YJR053W'
p2645
I1
sS'YPR065W'
p2646
I1
sS'YBR104W'
p2647
I10
sS'YJL171C'
p2648
I3
sS'YBL091C'
p2649
I4
sS'YOR262W'
p2650
I5
sS'YIL041W'
p2651
I3
sS'YHR061C'
p2652
I1
sS'YNL242W'
p2653
I0
sS'YDL167C'
p2654
I4
sS'YER082C'
p2655
I6
sS'YIL137C'
p2656
I1
sS'YKL069W'
p2657
I4
sS'YNL123W'
p2658
I3
sS'YMR003W'
p2659
I2
sS'YDR372C'
p2660
I13
sS'YBR119W'
p2661
I2
sS'YPL179W'
p2662
I2
sS'YEL056W'
p2663
I4
sS'YLR373C'
p2664
I1
sS'YKL092C'
p2665
I1
sS'YFL016C'
p2666
I3
sS'YDR451C'
p2667
I4
sS'YDR322C-A'
p2668
I11
sS'YJL162C'
p2669
I2
sS'YKL198C'
p2670
I1
sS'YLR260W'
p2671
I1
sS'YDR085C'
p2672
I0
sS'YNL032W'
p2673
I7
sS'YPR109W'
p2674
I4
sS'YKL152C'
p2675
I351
sS'YJR035W'
p2676
I1
sS'YDR350C'
p2677
I2
sS'YPL126W'
p2678
I4
sS'YMR129W'
p2679
I1
sS'YKR054C'
p2680
I0
sS'YMR001C'
p2681
I4
sS'YJL006C'
p2682
I4
sS'YPR074C'
p2683
I9
sS'YBL082C'
p2684
I2
sS'YDL081C'
p2685
I213
sS'YIR034C'
p2686
I1
sS'YMR138W'
p2687
I3
sS'YDR165W'
p2688
I8
sS'YGL013C'
p2689
I1
sS'YLR191W'
p2690
I4
sS'YFL018C'
p2691
I4
sS'YJR068W'
p2692
I7
sS'YJL139C'
p2693
I2
sS'YDL178W'
p2694
I9
sS'YER095W'
p2695
I3
sS'YLR456W'
p2696
I2
sS'YHR080C'
p2697
I1
sS'YML086C'
p2698
I2
sS'YKR030W'
p2699
I5
sS'YDL207W'
p2700
I2
sS'YDR334W'
p2701
I1
sS'YPL015C'
p2702
I1
sS'YLR211C'
p2703
I1
sS'YLR375W'
p2704
I3
sS'YDR514C'
p2705
I3
sS'YJL066C'
p2706
I1
sS'YHR182W'
p2707
I1
sS'YDL107W'
p2708
I2
sS'YNR029C'
p2709
I4
sS'YGR091W'
p2710
I1
sS'YBR122C'
p2711
I11
sS'YHR001W'
p2712
I5
sS'YDR477W'
p2713
I1
sS'YJL010C'
p2714
I3
sS'YOL105C'
p2715
I1
sS'YBR199W'
p2716
I11
sS'YLR242C'
p2717
I4
sS'YMR088C'
p2718
I3
sS'YJR148W'
p2719
I21
sS'YBR253W'
p2720
I6
sS'YIL035C'
p2721
I10
sS'YIL111W'
p2722
I7
sS'YIL159W'
p2723
I0
sS'YBR153W'
p2724
I4
sS'YJR082C'
p2725
I4
sS'YLR346C'
p2726
I2
sS'YOL087C'
p2727
I1
sS'YNL134C'
p2728
I3
sS'YJR106W'
p2729
I0
sS'YJL084C'
p2730
I0
sS'YHR154W'
p2731
I1
sS'YOL007C'
p2732
I2
sS'YPR134W'
p2733
I4
sS'YDR291W'
p2734
I1
sS'YHL014C'
p2735
I2
sS'YBR262C'
p2736
I9
sS'YMR304W'
p2737
I0
sS'YGR041W'
p2738
I1
sS'YKL010C'
p2739
I1
sS'YPL255W'
p2740
I2
sS'YMR289W'
p2741
I3
sS'YOL012C'
p2742
I4
sS'YPL168W'
p2743
I2
sS'YOR128C'
p2744
I9
sS'YAL015C'
p2745
I2
sS'YFL036W'
p2746
I0
sS'YGR177C'
p2747
I2
sS'YDL209C'
p2748
I4
sS'YKL045W'
p2749
I3
sS'YMR239C'
p2750
I6
sS'YIL157C'
p2751
I6
sS'YIL051C'
p2752
I20
sS'YNL255C'
p2753
I37
sS'YNL074C'
p2754
I1
sS'YDR365C'
p2755
I10
sS'YPL151C'
p2756
I3
sS'YKL007W'
p2757
I6
sS'YNL169C'
p2758
I2
sS'YFR034C'
p2759
I3
sS'YKL185W'
p2760
I3
sS'YDL225W'
p2761
I4
sS'YCL038C'
p2762
I1
sS'YHR070W'
p2763
I2
sS'YDR460W'
p2764
I3
sS'YMR028W'
p2765
I2
sS'YOR377W'
p2766
I3
sS'YLR364W'
p2767
I2
sS'YKL058W'
p2768
I11
sS'YKL085W'
p2769
I5
sS'YJR124C'
p2770
I4
sS'YHL047C'
p2771
I2
sS'YOR360C'
p2772
I10
sS'YOR227W'
p2773
I1
sS'YPR174C'
p2774
I2
sS'YOL089C'
p2775
I1
sS'YDR416W'
p2776
I3
sS'YGL129C'
p2777
I2
sS'YLL026W'
p2778
I3
sS'YHR023W'
p2779
I1
sS'YOL065C'
p2780
I2
sS'YGL251C'
p2781
I0
sS'YLL019C'
p2782
I1
sS'YBL022C'
p2783
I1
sS'YGL164C'
p2784
I2
sS'YER156C'
p2785
I6
sS'YNL298W'
p2786
I1
sS'YGR013W'
p2787
I1
sS'YML103C'
p2788
I1
sS'YEL038W'
p2789
I7
sS'YCL014W'
p2790
I0
sS'YOL025W'
p2791
I0
sS'YGL172W'
p2792
I7
sS'YCL002C'
p2793
I4
sS'YGL108C'
p2794
I4
sS'YPL040C'
p2795
I0
sS'YKL151C'
p2796
I3
sS'YLR051C'
p2797
I10
sS'YDR388W'
p2798
I4
sS'YGR199W'
p2799
I3
sS'YLR289W'
p2800
I1
sS'YPL208W'
p2801
I3
sS'YLR306W'
p2802
I3
sS'YOL147C'
p2803
I1
sS'YNL280C'
p2804
I4
sS'YDR007W'
p2805
I8
sS'YOR284W'
p2806
I1
sS'YGL220W'
p2807
I11
sS'YPR089W'
p2808
I1
sS'YBR233W'
p2809
I1
sS'YPL122C'
p2810
I2
sS'YMR295C'
p2811
I11
sS'YOR328W'
p2812
I1
sS'YGR082W'
p2813
I5
sS'YMR291W'
p2814
I1
sS'YKL113C'
p2815
I6
sS'YKL104C'
p2816
I3
sS'YHR012W'
p2817
I7
sS'YDR436W'
p2818
I1
sS'YHL027W'
p2819
I2
sS'YKL116C'
p2820
I1
sS'YHR202W'
p2821
I1
sS'YLR285W'
p2822
I6
sS'YGR119C'
p2823
I7
sS'YGR035C'
p2824
I5
sS'YDR181C'
p2825
I2
sS'YOL127W'
p2826
I230
sS'YHR039C-A'
p2827
I15
sS'YLR326W'
p2828
I2
sS'YGL179C'
p2829
I1
sS'YAL020C'
p2830
I2
sS'YPL048W'
p2831
I4
sS'YBR275C'
p2832
I0
sS'YDR539W'
p2833
I3
sS'YMR212C'
p2834
I4
sS'YBR025C'
p2835
I24
sS'YML001W'
p2836
I22
sS'YLL028W'
p2837
I1
sS'YOR187W'
p2838
I7
sS'YER016W'
p2839
I6
sS'YDR501W'
p2840
I1
sS'YGR286C'
p2841
I6
sS'YCR037C'
p2842
I3
sS'YMR044W'
p2843
I3
sS'YHR004C'
p2844
I3
sS'YMR217W'
p2845
I12
sS'YKL128C'
p2846
I8
sS'YGL035C'
p2847
I1
sS'YER170W'
p2848
I3
sS'YCR024C-A'
p2849
I49
sS'YKL222C'
p2850
I1
sS'YPR056W'
p2851
I6
sS'YDR494W'
p2852
I6
sS'YLR026C'
p2853
I2
sS'YKR086W'
p2854
I2
sS'YGL026C'
p2855
I4
sS'YGR246C'
p2856
I3
sS'YHR008C'
p2857
I4
sS'YMR277W'
p2858
I1
sS'YPL242C'
p2859
I1
sS'YLR046C'
p2860
I2
sS'YBR067C'
p2861
I14
sS'YCR024C-B'
p2862
I53
sS'YDR100W'
p2863
I6
sS'YLL004W'
p2864
I3
sS'YER049W'
p2865
I9
sS'YGL125W'
p2866
I0
sS'YML009C'
p2867
I9
sS'YLR164W'
p2868
I2
sS'YPR172W'
p2869
I1
sS'YDL033C'
p2870
I1
sS'YMR255W'
p2871
I5
sS'YGL068W'
p2872
I15
sS'YNL006W'
p2873
I5
sS'YLR028C'
p2874
I11
sS'YER136W'
p2875
I5
sS'YGL247W'
p2876
I4
sS'YER116C'
p2877
I2
sS'YML012W'
p2878
I30
sS'YOL009C'
p2879
I1
sS'YDR028C'
p2880
I2
sS'YOR217W'
p2881
I2
sS'YBL035C'
p2882
I1
sS'YPL010W'
p2883
I24
sS'YCR057C'
p2884
I3
sS'YNL206C'
p2885
I5
sS'YMR197C'
p2886
I3
sS'YLR060W'
p2887
I8
sS'YKL096W-A'
p2888
I58
sS'YDR516C'
p2889
I2
sS'YER076C'
p2890
I1
sS'YIL063C'
p2891
I6
sS'YPR140W'
p2892
I1
sS'YGR251W'
p2893
I5
sS'YLL060C'
p2894
I2
sS'YPR047W'
p2895
I1
sS'YKL219W'
p2896
I3
sS'YML091C'
p2897
I0
sS'YBR049C'
p2898
I1
sS'YDR044W'
p2899
I5
sS'YKR080W'
p2900
I36
sS'YEL016C'
p2901
I3
sS'YKL078W'
p2902
I1
sS'YDL002C'
p2903
I9
sS'YDR354W'
p2904
I4
sS'YJR032W'
p2905
I3
sS'YOR037W'
p2906
I3
sS'YIR037W'
p2907
I6
sS'YDR071C'
p2908
I21
sS'YDR162C'
p2909
I5
sS'YMR134W'
p2910
I2
sS'YGL012W'
p2911
I14
sS'YPL066W'
p2912
I1
sS'YOL057W'
p2913
I3
sS'YJL101C'
p2914
I1
sS'YBL069W'
p2915
I2
sS'YFR004W'
p2916
I11
sS'YDR353W'
p2917
I13
sS'YMR139W'
p2918
I2
sS'YJL001W'
p2919
I17
sS'YDL080C'
p2920
I3
sS'YJL049W'
p2921
I3
sS'YHR183W'
p2922
I13
sS'YDL085C-A'
p2923
I6
sS'YDR017C'
p2924
I3
sS'YOR129C'
p2925
I1
sS'YDR213W'
p2926
I1
sS'YML085C'
p2927
I3
sS'YPR167C'
p2928
I3
sS'YNL053W'
p2929
I1
sS'YDL206W'
p2930
I1
sS'YHR060W'
p2931
I5
sS'YER094C'
p2932
I23
sS'YIL022W'
p2933
I3
sS'YDL104C'
p2934
I1
sS'YGR208W'
p2935
I13
sS'YNL024C'
p2936
I4
sS'YPL053C'
p2937
I8
sS'YKL119C'
p2938
I7
sS'YLR212C'
p2939
I2
sS'YHR042W'
p2940
I2
sS'YCR075C'
p2941
I4
sS'YER101C'
p2942
I1
sS'YMR155W'
p2943
I2
sS'YKR079C'
p2944
I2
sS'YNL248C'
p2945
I9
sS'YDR171W'
p2946
I1
sS'YLR086W'
p2947
I1
sS'YGR105W'
p2948
I11
sS'YDR066C'
p2949
I2
sS'YCR020C'
p2950
I2
sS'YLR151C'
p2951
I1
sS'YOR025W'
p2952
I2
sS'YML030W'
p2953
I6
sS'YCL051W'
p2954
I1
sS'YML065W'
p2955
I2
sS'YCR097W'
p2956
I12
sS'YER001W'
p2957
I3
sS'YDR235W'
p2958
I4
sS'YGL194C-A'
p2959
I5
sS'YER038C'
p2960
I1
sS'YBL074C'
p2961
I2
sS'YDR275W'
p2962
I7
sS'YGL023C'
p2963
I1
sS'YHR049W'
p2964
I11
sS'YEL061C'
p2965
I1
sS'YBR007C'
p2966
I1
sS'YLR175W'
p2967
I29
sS'YDL126C'
p2968
I11
sS'YDR228C'
p2969
I2
sS'YHR194W'
p2970
I1
sS'YGR288W'
p2971
I1
sS'YOR295W'
p2972
I4
sS'YOR340C'
p2973
I5
sS'YMR260C'
p2974
I41
sS'YGR264C'
p2975
I13
sS'YNL110C'
p2976
I15
sS'YOR161C'
p2977
I1
sS'YML078W'
p2978
I5
sS'YOR158W'
p2979
I3
sS'YOR151C'
p2980
I4
sS'YDL208W'
p2981
I37
sS'YIR018W'
p2982
I4
sS'YPL074W'
p2983
I3
sS'YIL129C'
p2984
I1
sS'YKL046C'
p2985
I7
sS'YBR145W'
p2986
I2
sS'YDR339C'
p2987
I10
sS'YAL014C'
p2988
I2
sS'YFL037W'
p2989
I5
sS'YIL027C'
p2990
I16
sS'YOR075W'
p2991
I4
sS'YCR020W-B'
p2992
I13
sS'YHR161C'
p2993
I2
sS'YBR243C'
p2994
I2
sS'YNL199C'
p2995
I4
sS'YDL224C'
p2996
I1
sS'YLR181C'
p2997
I2
sS'YLR225C'
p2998
I4
sS'YDR524C-B'
p2999
I171
sS'YGL207W'
p3000
I3
sS'YNL111C'
p3001
I9
sS'YPL058C'
p3002
I1
sS'YLR454W'
p3003
I0
sS'YGR134W'
p3004
I1
sS'YCR073C'
p3005
I0
sS'YLR270W'
p3006
I1
sS'YGL070C'
p3007
I12
sS'YOL103W'
p3008
I5
sS'YHR071W'
p3009
I2
sS'YGR169C'
p3010
I1
sS'YLR309C'
p3011
I2
sS'YPR086W'
p3012
I5
sS'YPL148C'
p3013
I3
sS'YJR125C'
p3014
I4
sS'YIL068C'
p3015
I1
sS'YMR060C'
p3016
I3
sS'YDR153C'
p3017
I2
sS'YJL065C'
p3018
I3
sS'YPL127C'
p3019
I2
sS'YGR120C'
p3020
I3
sS'YJR003C'
p3021
I6
sS'YNR034W'
p3022
I1
sS'YDL144C'
p3023
I2
sS'YFL028C'
p3024
I7
sS'YBR105C'
p3025
I1
sS'YLR080W'
p3026
I1
sS'YMR016C'
p3027
I0
sS'YKR020W'
p3028
I2
sS'YDR371W'
p3029
I3
sS'YDR456W'
p3030
I2
sS'YDR308C'
p3031
I6
sS'YLR372W'
p3032
I28
sS'YNL062C'
p3033
I5
sS'YMR004W'
p3034
I2
sS'YER083C'
p3035
I2
sS'YHR050W'
p3036
I2
sS'YOR066W'
p3037
I1
sS'YDR324C'
p3038
I5
sS'YLR389C'
p3039
I1
sS'YJL072C'
p3040
I5
sS'YHR172W'
p3041
I1
sS'YOR112W'
p3042
I2
sS'YFL017C'
p3043
I7
sS'YDL168W'
p3044
I4
sS'YDR262W'
p3045
I5
sS'YIL134W'
p3046
I5
sS'YJL163C'
p3047
I1
sS'YNL175C'
p3048
I9
sS'YGR173W'
p3049
I7
sS'YDL240W'
p3050
I1
sS'YBR234C'
p3051
I3
sS'YOR061W'
p3052
I6
sS'YOR356W'
p3053
I2
sS'YFR013W'
p3054
I1
sS'YBR261C'
p3055
I2
sS'YAR027W'
p3056
I7
sS'YLR068W'
p3057
I5
sS'YHR013C'
p3058
I2
sS'YGR083C'
p3059
I3
sS'YKR077W'
p3060
I1
sS'YGL045W'
p3061
I1
sS'YCL035C'
p3062
I7
sS'YIL023C'
p3063
I6
sS'YOR308C'
p3064
I1
sS'YOL146W'
p3065
I5
sS'YGL221C'
p3066
I9
sS'YHR144C'
p3067
I4
sS'YDR006C'
p3068
I1
sS'YGR034W'
p3069
I292
sS'YBR229C'
p3070
I1
sS'YMR100W'
p3071
I2
sS'YPR084W'
p3072
I1
sS'YDR190C'
p3073
I11
sS'YNL290W'
p3074
I5
sS'YBL010C'
p3075
I2
sS'YJR100C'
p3076
I4
sS'YDR139C'
p3077
I17
sS'YBR276C'
p3078
I2
sS'YJR147W'
p3079
I1
sS'YMR314W'
p3080
I14
sS'YKR017C'
p3081
I2
sS'YAL021C'
p3082
I1
sS'YNL247W'
p3083
I5
sS'YOR035C'
p3084
I1
sS'YHR128W'
p3085
I9
sS'YDR538W'
p3086
I2
sS'YOR316C'
p3087
I2
sS'YCL011C'
p3088
I14
sS'YMR184W'
p3089
I4
sS'YBR123C'
p3090
I1
sS'YIL112W'
p3091
I1
sS'YBR198C'
p3092
I1
sS'YML049C'
p3093
I1
sS'YLR241W'
p3094
I3
sS'YGR090W'
p3095
I3
sS'YDL233W'
p3096
I1
sS'YFR028C'
p3097
I4
sS'YNR047W'
p3098
I0
sS'YPL019C'
p3099
I24
sS'YOL104C'
p3100
I2
sS'YNL071W'
p3101
I5
sS'YNL132W'
p3102
I1
sS'YDR470C'
p3103
I1
sS'YBR029C'
p3104
I2
sS'YJR149W'
p3105
I1
sS'YIL043C'
p3106
I19
sS'YDR386W'
p3107
I1
sS'YOR042W'
p3108
I2
sS'YGL141W'
p3109
I1
sS'YMR124W'
p3110
I1
sS'YBR152W'
p3111
I1
sS'YJL087C'
p3112
I1
sS'YLR347C'
p3113
I2
sS'YDR292C'
p3114
I4
sS'YPR063C'
p3115
I4
sS'YKR072C'
p3116
I2
sS'YOR131C'
p3117
I6
sS'YNL137C'
p3118
I2
sS'YAL036C'
p3119
I8
sS'YCL028W'
p3120
I3
sS'YML120C'
p3121
I1
sS'YGL174W'
p3122
I1
sS'YHR106W'
p3123
I2
sS'YLR172C'
p3124
I4
sS'YOL164W'
p3125
I2
sS'YHR208W'
p3126
I12
sS'YNL211C'
p3127
I4
sS'YDL065C'
p3128
I4
sS'YGL244W'
p3129
I4
sS'YBR035C'
p3130
I7
sS'YMR167W'
p3131
I1
sS'YBL036C'
p3132
I11
sS'YOR249C'
p3133
I2
sS'YBR296C'
p3134
I6
sS'YBR080C'
p3135
I2
sS'YPR191W'
p3136
I1
sS'YJL020C'
p3137
I1
sS'YDL030W'
p3138
I3
sS'YNR033W'
p3139
I2
sS'YDR027C'
p3140
I2
sS'YJL110C'
p3141
I1
sS'YHR068W'
p3142
I10
sS'YER071C'
p3143
I8
sS'YNL272C'
p3144
I1
sS'YKL218C'
p3145
I2
sS'YKR081C'
p3146
I6
sS'YEL011W'
p3147
I0
sS'YGR001C'
p3148
I4
sS'YDL001W'
p3149
I3
sS'YBL107C'
p3150
I6
sS'YLR067C'
p3151
I1
sS'YOL013C'
p3152
I2
sS'YJL183W'
p3153
I9
sS'YLL063C'
p3154
I1
sS'YGR250C'
p3155
I1
sS'YDR515W'
p3156
I2
sS'YPR033C'
p3157
I11
sS'YOR254C'
p3158
I11
sS'YOR201C'
p3159
I6
sS'YOR276W'
p3160
I34
sS'YMR309C'
p3161
I5
sS'YBL059C-A'
p3162
I7
sS'YMR023C'
p3163
I2
sS'YHR022C'
p3164
I2
sS'YOR089C'
p3165
I13
sS'YOL031C'
p3166
I3
sS'YHR119W'
p3167
I1
sS'YHL019C'
p3168
I1
sS'YHR076W'
p3169
I5
sS'YMR180C'
p3170
I2
sS'YGL163C'
p3171
I1
sS'YOR336W'
p3172
I1
sS'YJR094W-A'
p3173
I256
sS'YKL216W'
p3174
I34
sS'YML021C'
p3175
I3
sS'YGR012W'
p3176
I2
sS'YBL021C'
p3177
I5
sS'YHL004W'
p3178
I2
sS'YGR124W'
p3179
I16
sS'YLR007W'
p3180
I5
sS'YPL252C'
p3181
I4
sS'YLR139C'
p3182
I0
sS'YML102W'
p3183
I3
sS'YPL154C'
p3184
I5
sS'YER157W'
p3185
I3
sS'YOL022C'
p3186
I7
sS'YGR270W'
p3187
I1
sS'YEL037C'
p3188
I4
sS'YDR389W'
p3189
I1
sS'YMR054W'
p3190
I1
sS'YDR065W'
p3191
I2
sS'YBL059W'
p3192
I1
sS'YDL027C'
p3193
I1
sS'YER053C'
p3194
I1
sS'YNL305C'
p3195
I4
sS'YPL051W'
p3196
I4
sS'YJR121W'
p3197
I5
sS'YLL014W'
p3198
I15
sS'YCL050C'
p3199
I5
sS'YGR047C'
p3200
I1
sS'YDR049W'
p3201
I2
sS'YJL148W'
p3202
I23
sS'YPL153C'
p3203
I1
sS'YER100W'
p3204
I5
sS'YFR040W'
p3205
I1
sS'YKR078W'
p3206
I1
sS'YPR079W'
p3207
I3
sS'YGL008C'
p3208
I32
sS'YJL026W'
p3209
I6
sS'YLR412W'
p3210
I3
sS'YER002W'
p3211
I8
sS'YCR018C'
p3212
I6
sS'YPL101W'
p3213
I4
sS'YDL127W'
p3214
I1
sS'YBL075C'
p3215
I1
sS'YDR272W'
p3216
I8
sS'YMR006C'
p3217
I2
sS'YHR048W'
p3218
I1
sS'YOR159C'
p3219
I9
sS'YML020W'
p3220
I1
sS'YGL020C'
p3221
I7
sS'YOR160W'
p3222
I1
sS'YGL133W'
p3223
I1
sS'YOR294W'
p3224
I11
sS'YEL062W'
p3225
I1
sS'YMR261C'
p3226
I1
sS'YMR112C'
p3227
I4
sS'YJL039C'
p3228
I1
sS'YBR006W'
p3229
I1
sS'YLR038C'
p3230
I8
sS'YPR085C'
p3231
I1
sS'YOR038C'
p3232
I1
sS'YLR187W'
p3233
I0
sS'YNL212W'
p3234
I2
sS'YDR387C'
p3235
I2
sS'YPL072W'
p3236
I1
sS'YER015W'
p3237
I1
sS'YLR353W'
p3238
I1
sS'YML006C'
p3239
I1
sS'YCL061C'
p3240
I1
sS'YDR439W'
p3241
I1
sS'YNL148C'
p3242
I2
sS'YNL253W'
p3243
I3
sS'YBR024W'
p3244
I1
sS'YDR502C'
p3245
I4
sS'YGR065C'
p3246
I3
sS'YER062C'
p3247
I3
sS'YER171W'
p3248
I2
sS'YDL047W'
p3249
I3
sS'YGR247W'
p3250
I3
sS'YDR101C'
p3251
I7
sS'YPR026W'
p3252
I0
sS'YML046W'
p3253
I3
sS'YGL124C'
p3254
I4
sS'YDL130W'
p3255
I101
sS'YPR166C'
p3256
I6
sS'YMR276W'
p3257
I4
sS'YDL160C-A'
p3258
I4
sS'YLR165C'
p3259
I2
sS'YLR025W'
p3260
I5
sS'YCR069W'
p3261
I2
sS'YOL030W'
p3262
I3
sS'YLR049C'
p3263
I5
sS'YDR495C'
p3264
I1
sS'YLR138W'
p3265
I2
sS'YLR278C'
p3266
I1
sS'YLR016C'
p3267
I6
sS'YDR341C'
p3268
I10
sS'YJL013C'
p3269
I2
sS'YJL173C'
p3270
I5
sS'YPL068C'
p3271
I1
sS'YPR169W'
p3272
I7
sS'YHR199C'
p3273
I2
sS'YDR152W'
p3274
I7
sS'YDL090C'
p3275
I3
sS'YGR101W'
p3276
I4
sS'YMR061W'
p3277
I6
sS'YJL128C'
p3278
I1
sS'YJR002W'
p3279
I7
sS'YDL145C'
p3280
I3
sS'YER019C-A'
p3281
I35
sS'YBL097W'
p3282
I1
sS'YIL076W'
p3283
I17
sS'YDR309C'
p3284
I3
sS'YNL061W'
p3285
I3
sS'YKR021W'
p3286
I1
sS'YDR398W'
p3287
I7
sS'YHR209W'
p3288
I1
sS'YFL014W'
p3289
I3
sS'YDR457W'
p3290
I1
sS'YLR386W'
p3291
I1
sS'YIL135C'
p3292
I2
sS'YLR371W'
p3293
I1
sS'YKL067W'
p3294
I17
sS'YLR185W'
p3295
I81
sS'YMR005W'
p3296
I3
sS'YDR370C'
p3297
I5
sS'YPR107C'
p3298
I5
sS'YLR262C'
p3299
I10
sS'YOR207C'
p3300
I2
sS'YNL121C'
p3301
I3
sS'YDR087C'
p3302
I15
sS'YMR294W'
p3303
I3
sS'YDR265W'
p3304
I5
sS'YBR081C'
p3305
I1
sS'YPL175W'
p3306
I2
sS'YNR008W'
p3307
I1
sS'YLR092W'
p3308
I0
sS'YJL166W'
p3309
I12
sS'YDR072C'
p3310
I3
sS'YER044C'
p3311
I4
sS'YMR072W'
p3312
I10
sS'YLR248W'
p3313
I4
sS'YOR283W'
p3314
I9
sS'YKL105C'
p3315
I0
sS'YMR160W'
p3316
I0
sS'YKL075C'
p3317
I7
sS'YJR033C'
p3318
I0
sS'YDL087C'
p3319
I1
sS'YBL068W'
p3320
I6
sS'YGL011C'
p3321
I5
sS'YDR352W'
p3322
I4
sS'YKL129C'
p3323
I0
sS'YDR163W'
p3324
I3
sS'YML051W'
p3325
I1
sS'YDR238C'
p3326
I4
sS'YDL105W'
p3327
I1
sS'YMR122W-A'
p3328
I36
sS'YCR098C'
p3329
I1
sS'YPL026C'
p3330
I1
sS'YDR243C'
p3331
I1
sS'YHR082C'
p3332
I1
sS'YGR209C'
p3333
I40
sS'YML068W'
p3334
I3
sS'YPR168W'
p3335
I3
sS'YJL048C'
p3336
I2
sS'YPR113W'
p3337
I17
sS'YLR213C'
p3338
I1
sS'YKL161C'
p3339
I1
sS'YKR036C'
p3340
I2
sS'YBR251W'
p3341
I5
sS'YKL041W'
p3342
I5
sS'YMR099C'
p3343
I13
sS'YIR008C'
p3344
I5
sS'YLR240W'
p3345
I0
sS'YGR093W'
p3346
I4
sS'YIL040W'
p3347
I5
sS'YDR471W'
p3348
I94
sS'YGR135W'
p3349
I20
sS'YPL217C'
p3350
I3
sS'YKL144C'
p3351
I8
sS'YDL234C'
p3352
I1
sS'YHR003C'
p3353
I6
sS'YAL051W'
p3354
I1
sS'YDR036C'
p3355
I2
sS'YAL019W'
p3356
I1
sS'YKL138C-A'
p3357
I6
sS'YNL218W'
p3358
I1
sS'YLR449W'
p3359
I6
sS'YNL136W'
p3360
I3
sS'YKL049C'
p3361
I3
sS'YDR293C'
p3362
I1
sS'YBR155W'
p3363
I2
sS'YBL002W'
p3364
I47
sS'YNR038W'
p3365
I2
sS'YDR376W'
p3366
I3
sS'YCL029C'
p3367
I2
sS'YLR195C'
p3368
I7
sS'YBL024W'
p3369
I4
sS'YGR169C-A'
p3370
I9
sS'YBR188C'
p3371
I2
sS'YPR189W'
p3372
I1
sS'YLR239C'
p3373
I1
sS'YGR028W'
p3374
I4
sS'YAL017W'
p3375
I1
sS'YJR024C'
p3376
I10
sS'YFL038C'
p3377
I22
sS'YBR242W'
p3378
I4
sS'YLR083C'
p3379
I5
sS'YNL029C'
p3380
I2
sS'YBR142W'
p3381
I3
sS'YOR231W'
p3382
I2
sS'YNR013C'
p3383
I1
sS'YHR166C'
p3384
I2
sS'YGR175C'
p3385
I12
sS'YJR131W'
p3386
I1
sS'YIR017C'
p3387
I1
sS'YDR338C'
p3388
I1
sS'YIL128W'
p3389
I1
sS'YNL127W'
p3390
I1
sS'YBR108W'
p3391
I0
sS'YJR137C'
p3392
I1
sS'YNR012W'
p3393
I3
sS'YGL097W'
p3394
I6
sS'YHR073W'
p3395
I2
sS'YJL151C'
p3396
I9
sS'YIL010W'
p3397
I1
sS'YKL087C'
p3398
I1
sS'YNL076W'
p3399
I2
sS'YDR367W'
p3400
I4
sS'YHR072W'
p3401
I4
sS'YGR168C'
p3402
I3
sS'YBR173C'
p3403
I4
sS'YIL064W'
p3404
I7
sS'YOR261C'
p3405
I17
sS'YHR045W'
p3406
I5
sS'YHR021C'
p3407
I249
sS'YPL163C'
p3408
I3
sS'YGL253W'
p3409
I16
sS'YPR178W'
p3410
I2
sS'YHL032C'
p3411
I1
sS'YAR002C-A'
p3412
I16
sS'YIL088C'
p3413
I4
sS'YOL152W'
p3414
I1
sS'YMR183C'
p3415
I4
sS'YDR414C'
p3416
I2
sS'YNL259C'
p3417
I12
sS'YOR337W'
p3418
I1
sS'YMR010W'
p3419
I2
sS'YML101C'
p3420
I2
sS'YCL058W-A'
p3421
I4
sS'YPR094W'
p3422
I8
sS'YNL081C'
p3423
I4
sS'YGL059W'
p3424
I1
sS'YMR074C'
p3425
I17
sS'YGL075C'
p3426
I2
sS'YNR032W'
p3427
I4
sS'YPL253C'
p3428
I1
sS'YBL020W'
p3429
I3
sS'YHR051W'
p3430
I12
sS'YHL003C'
p3431
I15
sS'YER154W'
p3432
I1
sS'YDR422C'
p3433
I1
sS'YEL036C'
p3434
I5
sS'YBR260C'
p3435
I1
sS'YHR010W'
p3436
I327
sS'YDR400W'
p3437
I2
sS'YJR104C'
p3438
I36
sS'YER180C-A'
p3439
I4
sS'YFR043C'
p3440
I2
sS'YAL042W'
p3441
I15
sS'YHR204W'
p3442
I3
sS'YAL035W'
p3443
I6
sS'YOL041C'
p3444
I9
sS'YGR153W'
p3445
I1
sS'YFR038W'
p3446
I1
sS'YBR235W'
p3447
I1
sS'YDR001C'
p3448
I1
sS'YIL162W'
p3449
I1
sS'YNR061C'
p3450
I11
sS'YGR080W'
p3451
I2
sS'YOL109W'
p3452
I143
sS'YBL011W'
p3453
I1
sS'YOR043W'
p3454
I5
sS'YBR195C'
p3455
I3
sS'YDR183W'
p3456
I2
sS'YGL222C'
p3457
I1
sS'YDR138W'
p3458
I1
sS'YGR122W'
p3459
I2
sS'YOR317W'
p3460
I7
sS'YPL092W'
p3461
I5
sS'YGR033C'
p3462
I13
sS'YAL022C'
p3463
I4
sS'YJR144W'
p3464
I9
sS'YMR315W'
p3465
I2
sS'YLR328W'
p3466
I2
sS'YBR228W'
p3467
I2
sS'YGL153W'
p3468
I3
sS'YJR039W'
p3469
I1
sS'YGR046W'
p3470
I3
sS'YPR068C'
p3471
I2
sS'YDR384C'
p3472
I2
sS'YLR039C'
p3473
I1
sS'YML007W'
p3474
I3
sS'YOL017W'
p3475
I1
sS'YER063W'
p3476
I3
sS'YDR481C'
p3477
I12
sS'YER014W'
p3478
I2
sS'YMR171C'
p3479
I2
sS'YGL057C'
p3480
I1
sS'YER172C'
p3481
I1
sS'YNL180C'
p3482
I2
sS'YCR042C'
p3483
I1
sS'YNL213C'
p3484
I2
sS'YCR035C'
p3485
I9
sS'YOR244W'
p3486
I5
sS'YPL134C'
p3487
I2
sS'YDL046W'
p3488
I4
sS'YDR503C'
p3489
I2
sS'YGL037C'
p3490
I12
sS'YBR058C'
p3491
I2
sS'YPL244C'
p3492
I9
sS'YDR492W'
p3493
I3
sS'YLR024C'
p3494
I0
sS'YLR071C'
p3495
I1
sS'YGR240C'
p3496
I6
sS'YPL228W'
p3497
I2
sS'YEL058W'
p3498
I7
sS'YMR259C'
p3499
I1
sS'YKL024C'
p3500
I8
sS'YBR061C'
p3501
I4
sS'YHL007C'
p3502
I1
sS'YOR145C'
p3503
I13
sS'YFL034C-B'
p3504
I2
sS'YLR399C'
p3505
I4
sS'YPR025C'
p3506
I4
sS'YBR087W'
p3507
I9
sS'YLR006C'
p3508
I1
sS'YDR330W'
p3509
I1
sS'YER149C'
p3510
I2
sS'YBL037W'
p3511
I1
sS'YER114C'
p3512
I1
sS'YOR375C'
p3513
I15
sS'YPR190C'
p3514
I2
sS'YLR075W'
p3515
I433
sS'YOR306C'
p3516
I6
sS'YHR107C'
p3517
I2
sS'YAR002W'
p3518
I3
sS'YHR127W'
p3519
I3
sS'YOR153W'
p3520
I12
sS'YMR237W'
p3521
I2
sS'YDL064W'
p3522
I4
sS'YDL031W'
p3523
I3
sS'YMR257C'
p3524
I0
sS'YDR026C'
p3525
I2
sS'YMR272C'
p3526
I2
sS'YLR066W'
p3527
I5
sS'YBR047W'
p3528
I2
sS'YDR046C'
p3529
I5
sS'YEL029C'
p3530
I5
sS'YMR228W'
p3531
I4
sS'YMR125W'
p3532
I4
sS'YOR202W'
p3533
I4
sS'YOL128C'
p3534
I9
sS'YGL245W'
p3535
I7
sS'YNL273W'
p3536
I0
sS'YCR051W'
p3537
I4
sS'YER070W'
p3538
I4
sS'YPL219W'
p3539
I1
sS'YPL262W'
p3540
I3
sS'YGR006W'
p3541
I1
sS'YMR002W'
p3542
I18
sS'YGR079W'
p3543
I4
sS'YDL119C'
p3544
I3
sS'YDR160W'
p3545
I1
sS'YPL020C'
p3546
I1
sS'YNR053C'
p3547
I19
sS'YKR057W'
p3548
I249
sS'YER045C'
p3549
I1
sS'YKL039W'
p3550
I2
sS'YGL198W'
p3551
I5
sS'YNL040W'
p3552
I3
sS'YGR222W'
p3553
I5
sS'YDL086W'
p3554
I3
sS'YBL091C-A'
p3555
I1
sS'YOL092W'
p3556
I9
sS'YLR422W'
p3557
I0
sS'YPR115W'
p3558
I1
sS'YLR093C'
p3559
I11
sS'YIR031C'
p3560
I4
sS'YDR073W'
p3561
I1
sS'YJR065C'
p3562
I4
sS'YNL042W'
p3563
I1
sS'YJR030C'
p3564
I1
sS'YNL063W'
p3565
I2
sS'YKR093W'
p3566
I2
sS'YNL308C'
p3567
I4
sS'YML050W'
p3568
I1
sS'YOL064C'
p3569
I10
sS'YHR058C'
p3570
I4
sS'YDR239C'
p3571
I1
sS'YJR049C'
p3572
I2
sS'YOR292C'
p3573
I4
sS'YGL010W'
p3574
I2
sS'YML069W'
p3575
I10
sS'YKR019C'
p3576
I1
sS'YOR324C'
p3577
I1
sS'YMR026C'
p3578
I3
sS'YDR242W'
p3579
I1
sS'YHR085W'
p3580
I9
sS'YMR177W'
p3581
I3
sS'YOR172W'
p3582
I1
sS'YMR019W'
p3583
I1
sS'YDR064W'
p3584
I191
sS'YMR275C'
p3585
I1
sS'YBL056W'
p3586
I10
sS'YLR324W'
p3587
I1
sS'YER052C'
p3588
I3
sS'YLR427W'
p3589
I2
sS'YNL260C'
p3590
I4
sS'YLL015W'
p3591
I1
sS'YMR202W'
p3592
I24
sS'YPL061W'
p3593
I14
sS'YMR089C'
p3594
I2
sS'YER003C'
p3595
I4
sS'YER103W'
p3596
I3
sS'YPL115C'
p3597
I1
sS'YGR172C'
p3598
I4
sS'YDR173C'
p3599
I2
sS'YGL254W'
p3600
I1
sS'YCL057W'
p3601
I1
sS'YJL025W'
p3602
I1
sS'YLR413W'
p3603
I4
sS'YBR072W'
p3604
I1
sS'YBR005W'
p3605
I3
sS'YDL120W'
p3606
I5
sS'YMR262W'
p3607
I3
sS'YJL165C'
p3608
I1
sS'YGR070W'
p3609
I0
sS'YGR231C'
p3610
I6
sS'YEL063C'
p3611
I2
sS'YBL076C'
p3612
I9
sS'YMR113W'
p3613
I4
sS'YPR097W'
p3614
I2
sS'YGL134W'
p3615
I3
sS'YDR326C'
p3616
I1
sS'YKR068C'
p3617
I8
sS'YOR099W'
p3618
I11
sS'YLR387C'
p3619
I9
sS'YGL021W'
p3620
I2
sS'YPR032W'
p3621
I0
sS'YDL173W'
p3622
I7
sS'YHR050W-A'
p3623
I7
sS'YBR143C'
p3624
I24
sS'YDR086C'
p3625
I26
sS'YHR072W-A'
p3626
I62
sS'YOR346W'
p3627
I2
sS'YJR130C'
p3628
I2
sS'YJL062W-A'
p3629
I5
sS'YML023C'
p3630
I2
sS'YAL016W'
p3631
I6
sS'YFL039C'
p3632
I22
sS'YPR112C'
p3633
I6
sS'YJL134W'
p3634
I7
sS'YKL146W'
p3635
I1
sS'YDR449C'
p3636
I6
sS'YIL097W'
p3637
I1
sS'YNR039C'
p3638
I1
sS'YLR367W'
p3639
I78
sS'YLR227C'
p3640
I2
sS'YKL080W'
p3641
I16
sS'YPL131W'
p3642
I67
sS'YLR183C'
p3643
I3
sS'YKL186C'
p3644
I10
sS'YOL093W'
p3645
I4
sS'YPL064C'
p3646
I6
sS'YOR127W'
p3647
I1
sS'YNL077W'
p3648
I0
sS'YMR311C'
p3649
I6
sS'YBR109C'
p3650
I13
sS'YBR172C'
p3651
I2
sS'YDR346C'
p3652
I13
sS'YJL172W'
p3653
I1
sS'YDR151C'
p3654
I3
sS'YBL078C'
p3655
I2
sS'YHR083W'
p3656
I2
sS'YNL222W'
p3657
I5
sS'YGR095C'
p3658
I5
sS'YMR163C'
p3659
I1
sS'YPL086C'
p3660
I6
sS'YOR301W'
p3661
I1
sS'YFR039C'
p3662
I4
sS'YKR042W'
p3663
I13
sS'YKL160W'
p3664
I12
sS'YOL077W-A'
p3665
I4
sS'YPL029W'
p3666
I2
sS'YHR146W'
p3667
I5
sS'YDL091C'
p3668
I1
sS'YDL142C'
p3669
I4
sS'YMR066W'
p3670
I2
sS'YHR198C'
p3671
I2
sS'YJR001W'
p3672
I4
sS'YGL196W'
p3673
I4
sS'YKL126W'
p3674
I4
sS'YJL129C'
p3675
I1
sS'YLR209C'
p3676
I2
sS'YHR158C'
p3677
I1
sS'YJL209W'
p3678
I1
sS'YDR264C'
p3679
I6
sS'YDR306C'
p3680
I3
sS'YKL064W'
p3681
I1
sS'YLR265C'
p3682
I3
sS'YKR022C'
p3683
I4
sS'YNL035C'
p3684
I3
sS'YLR287C'
p3685
I8
sS'YPL174C'
p3686
I1
sS'YJL074C'
p3687
I1
sS'YLR370C'
p3688
I4
sS'YNL177C'
p3689
I7
sS'YDR454C'
p3690
I28
sS'YIL009W'
p3691
I2
sS'YLR250W'
p3692
I10
sS'YKL122C'
p3693
I8
sS'YHR011W'
p3694
I1
sS'YAL043C'
p3695
I1
sS'YIL165C'
p3696
I4
sS'YIL078W'
p3697
I24
sS'YOL042W'
p3698
I3
sS'YPL237W'
p3699
I21
sS'YBL058W'
p3700
I7
sS'YBR236C'
p3701
I3
sS'YPL125W'
p3702
I2
sS'YBR189W'
p3703
I309
sS'YCL049C'
p3704
I2
sS'YHL020C'
p3705
I5
sS'YGR081C'
p3706
I13
sS'YDR289C'
p3707
I2
sS'YOR054C'
p3708
I1
sS'YFR042W'
p3709
I5
sS'YLR305C'
p3710
I1
sS'YOR063W'
p3711
I202
sS'YNL316C'
p3712
I2
sS'YGL223C'
p3713
I3
sS'YOR036W'
p3714
I4
sS'YBL016W'
p3715
I3
sS'YML131W'
p3716
I2
sS'YGR032W'
p3717
I0
sS'YGL150C'
p3718
I1
sS'YLR170C'
p3719
I7
sS'YGR125W'
p3720
I1
sS'YNL292W'
p3721
I2
sS'YCR019W'
p3722
I2
sS'YBR194W'
p3723
I4
sS'YDR423C'
p3724
I1
sS'YOR354C'
p3725
I3
sS'YOL108C'
p3726
I3
sS'YBR270C'
p3727
I1
sS'YIL039W'
p3728
I5
sS'YMR316W'
p3729
I5
sS'YOL140W'
p3730
I3
sS'YAL023C'
p3731
I3
sS'YNR009W'
p3732
I1
sS'YGR132C'
p3733
I13
sS'YIL138C'
p3734
I17
sS'YDR109C'
p3735
I1
sS'YJR127C'
p3736
I1
sS'YIL143C'
p3737
I2
sS'YGR092W'
p3738
I3
sS'YBR256C'
p3739
I11
sS'YKL002W'
p3740
I8
sS'YDR328C'
p3741
I20
sS'YLR247C'
p3742
I1
sS'YJR090C'
p3743
I1
sS'YDL235C'
p3744
I9
sS'YOR057W'
p3745
I3
sS'YIR009W'
p3746
I3
sS'YOR362C'
p3747
I13
sS'YLR345W'
p3748
I1
sS'YKL073W'
p3749
I2
sS'YGR103W'
p3750
I18
sS'YNL130C'
p3751
I6
sS'YPL118W'
p3752
I5
sS'YHR151C'
p3753
I1
sS'YDR311W'
p3754
I4
sS'YHR002W'
p3755
I2
sS'YDR472W'
p3756
I5
sS'YGR057C'
p3757
I3
sS'YLR197W'
p3758
I25
sS'YNL100W'
p3759
I7
sS'YLR078C'
p3760
I7
sS'YBR154C'
p3761
I26
sS'YBR216C'
p3762
I2
sS'YNL245C'
p3763
I1
sS'YGL143C'
p3764
I2
sS'YLR001C'
p3765
I1
sS'YLR126C'
p3766
I3
sS'YOR304C-A'
p3767
I3
sS'YMR318C'
p3768
I13
sS'YGR181W'
p3769
I4
sS'YBR062C'
p3770
I6
sS'YHR108W'
p3771
I2
sS'YOR349W'
p3772
I0
sS'YDL067C'
p3773
I10
sS'YGL176C'
p3774
I1
sS'YBL071W-A'
p3775
I6
sS'YDR135C'
p3776
I2
sS'YAR003W'
p3777
I3
sS'YBL030C'
p3778
I4
sS'YMR256C'
p3779
I7
sS'YPL229W'
p3780
I1
sS'YMR236W'
p3781
I10
sS'YNL304W'
p3782
I1
sS'YER148W'
p3783
I14
sS'YGL242C'
p3784
I6
sS'YHL015W'
p3785
I384
sS'YOL011W'
p3786
I1
sS'YOR195W'
p3787
I1
sS'YLL054C'
p3788
I1
sS'YLR443W'
p3789
I4
sS'YLL013C'
p3790
I0
sS'YPR127W'
p3791
I1
sS'YNR024W'
p3792
I6
sS'YMR192W'
p3793
I1
sS'YGR078C'
p3794
I2
sS'YOR104W'
p3795
I3
sS'YML074C'
p3796
I6
sS'YOR141C'
p3797
I1
sS'YER073W'
p3798
I8
sS'YMR229C'
p3799
I3
sS'YLL038C'
p3800
I1
sS'YBR046C'
p3801
I2
sS'YOL124C'
p3802
I6
sS'YDR013W'
p3803
I5
sS'YPR125W'
p3804
I2
sS'YNR040W'
p3805
I2
sS'YIL067C'
p3806
I2
sS'YNL051W'
p3807
I4
sS'YMR201C'
p3808
I1
sS'YJL092W'
p3809
I1
sS'YOR270C'
p3810
I14
sS'YHR020W'
p3811
I11
sS'YGL252C'
p3812
I3
sS'YOL033W'
p3813
I2
sS'YBR201W'
p3814
I5
sS'YBR238C'
p3815
I0
sS'YDR415C'
p3816
I4
sS'YGL161C'
p3817
I9
sS'YPR051W'
p3818
I8
sS'YIR026C'
p3819
I4
sS'YER155C'
p3820
I1
sS'YBR037C'
p3821
I2
sS'YKL047W'
p3822
I3
sS'YGL058W'
p3823
I8
sS'YHL002W'
p3824
I4
sS'YPR009W'
p3825
I2
sS'YNL263C'
p3826
I4
sS'YML027W'
p3827
I1
sS'YKR099W'
p3828
I1
sS'YML100W'
p3829
I1
sS'YMR149W'
p3830
I6
sS'YPL001W'
p3831
I6
sS'YDR128W'
p3832
I1
sS'YMR274C'
p3833
I1
sS'YER051W'
p3834
I3
sS'YER004W'
p3835
I5
sS'YGL119W'
p3836
I4
sS'YMR052W'
p3837
I1
sS'YCR072C'
p3838
I3
sS'YKR016W'
p3839
I2
sS'YMR158W'
p3840
I5
sS'YLR114C'
p3841
I2
sS'YMR203W'
p3842
I3
sS'YLL036C'
p3843
I3
sS'YCR023C'
p3844
I2
sS'YDR519W'
p3845
I11
sS'YGR278W'
p3846
I1
sS'YDL029W'
p3847
I13
sS'YKL141W'
p3848
I5
sS'YBL057C'
p3849
I8
sS'YBR073W'
p3850
I2
sS'YLR034C'
p3851
I2
sS'YPL004C'
p3852
I6
sS'YER019W'
p3853
I2
sS'YBR028C'
p3854
I2
sS'YEL064C'
p3855
I1
sS'YMR263W'
p3856
I7
sS'YDR270W'
p3857
I0
sS'YPR103W'
p3858
I14
sS'YOR215C'
p3859
I6
sS'YKR069W'
p3860
I2
sS'YDR172W'
p3861
I10
sS'YDL121C'
p3862
I12
sS'YMR299C'
p3863
I4
sS'YBR078W'
p3864
I16
sS'YDR464W'
p3865
I1
sS'YLR129W'
p3866
I6
sS'YPR199C'
p3867
I3
sS'YPR120C'
p3868
I2
sS'YPR062W'
p3869
I19
sS'YBL041W'
p3870
I7
sS'YMR097C'
p3871
I2
sS'YDR528W'
p3872
I1
sS'YDL058W'
p3873
I1
sS'YER173W'
p3874
I2
sS'YLR150W'
p3875
I56
sS'YBR026C'
p3876
I2
sS'YMR172W'
p3877
I1
sS'YNL214W'
p3878
I2
sS'YCR034W'
p3879
I7
sS'YER060W'
p3880
I1
sS'YBR091C'
p3881
I5
sS'YPR180W'
p3882
I5
sS'YEL013W'
p3883
I4
sS'YDL007W'
p3884
I11
sS'YPR083W'
p3885
I2
sS'YNL094W'
p3886
I1
sS'YGL056C'
p3887
I2
sS'YOR280C'
p3888
I3
sS'YDR480W'
p3889
I1
sS'YML004C'
p3890
I10
sS'YCR043C'
p3891
I8
sS'YPL227C'
p3892
I9
sS'YDL010W'
p3893
I2
sS'YMR024W'
p3894
I2
sS'YLL009C'
p3895
I4
sS'YBR059C'
p3896
I1
sS'YML019W'
p3897
I7
sS'YJL146W'
p3898
I2
sS'YDR493W'
p3899
I3
sS'YDL045C'
p3900
I2
sS'YGR241C'
p3901
I1
sS'YGL036W'
p3902
I1
sS'YPL247C'
p3903
I0
sS'YBR071W'
p3904
I2
sS'YJL207C'
p3905
I1
sS'YDL198C'
p3906
I2
sS'YDR103W'
p3907
I1
sS'YLR072W'
p3908
I1
sS'YER180C'
p3909
I4
sS'YKL167C'
p3910
I5
sS'YPL159C'
p3911
I2
sS'YOR181W'
p3912
I0
sS'YGR212W'
p3913
I1
sS'YOR125C'
p3914
I4
sS'YBL095W'
p3915
I4
sS'YDL092W'
p3916
I13
sS'YKR043C'
p3917
I7
sS'YPL084W'
p3918
I1
sS'YLR166C'
p3919
I4
sS'YMR067C'
p3920
I1
sS'YJL011C'
p3921
I8
sS'YDL143W'
p3922
I11
sS'YKL138C'
p3923
I5
sS'YBL079W'
p3924
I1
sS'YNL056W'
p3925
I7
sS'YPL093W'
p3926
I7
sS'YDR347W'
p3927
I2
sS'YFL001W'
p3928
I4
sS'YKL025C'
p3929
I1
sS'YER086W'
p3930
I4
sS'YGL197W'
p3931
I0
sS'YDR207C'
p3932
I1
sS'YKL125W'
p3933
I5
sS'YLR264W'
p3934
I187
sS'YKL170W'
p3935
I7
sS'YKR023W'
p3936
I2
sS'YNL036W'
p3937
I10
sS'YOR115C'
p3938
I8
sS'YKL038W'
p3939
I0
sS'YJR025C'
p3940
I5
sS'YLR208W'
p3941
I13
sS'YDR267C'
p3942
I5
sS'YLR286C'
p3943
I10
sS'YNL016W'
p3944
I4
sS'YDR496C'
p3945
I10
sS'YLR384C'
p3946
I3
sS'YDR307W'
p3947
I1
sS'YPR019W'
p3948
I1
sS'YML099C'
p3949
I2
sS'YOR162C'
p3950
I1
sS'YLR421C'
p3951
I19
sS'YMR145C'
p3952
I2
sS'YDR161W'
p3953
I7
sS'YLR090W'
p3954
I4
sS'YBR102C'
p3955
I1
sS'YJR064W'
p3956
I17
sS'YMR098C'
p3957
I2
sS'YOR285W'
p3958
I14
sS'YJL002C'
p3959
I10
sS'YML022W'
p3960
I31
sS'YCR065W'
p3961
I1
sS'YNL159C'
p3962
I3
sS'YER046W'
p3963
I3
sS'YJR031C'
p3964
I1
sS'YPR159W'
p3965
I4
sS'YGR223C'
p3966
I2
sS'YDR074W'
p3967
I2
sS'YPR143W'
p3968
I8
sS'YHR059W'
p3969
I3
sS'YPR075C'
p3970
I2
sS'YMR087W'
p3971
I1
sS'YML053C'
p3972
I3
sS'YJR055W'
p3973
I3
sS'YFL049W'
p3974
I2
sS'YPR184W'
p3975
I0
sS'YKR018C'
p3976
I3
sS'YNL309W'
p3977
I1
sS'YER099C'
p3978
I7
sS'YDL150W'
p3979
I5
sS'YJR048W'
p3980
I2
sS'YHR186C'
p3981
I1
sS'YHR084W'
p3982
I1
sS'YNL038W'
p3983
I9
sS'YKL003C'
p3984
I4
sS'YAL053W'
p3985
I2
sS'YNL149C'
p3986
I25
sS'YGL095C'
p3987
I3
sS'YBR257W'
p3988
I2
sS'YHR001W-A'
p3989
I2
sS'YJR132W'
p3990
I2
sS'YIL139C'
p3991
I4
sS'YLR246W'
p3992
I2
sS'YJR119C'
p3993
I1
sS'YOR205C'
p3994
I1
sS'YDL216C'
p3995
I1
sS'YIL079C'
p3996
I3
sS'YHR069C'
p3997
I10
sS'YDR329C'
p3998
I4
sS'YGR142W'
p3999
I2
sS'YFR025C'
p4000
I4
sS'YHR065C'
p4001
I5
sS'YOR017W'
p4002
I1
sS'YMR199W'
p4003
I2
sS'YBR137W'
p4004
I6
sS'YDR473C'
p4005
I2
sS'YPL169C'
p4006
I2
sS'YKL192C'
p4007
I4
sS'YGL082W'
p4008
I4
sS'YDR310C'
p4009
I1
sS'YPL146C'
p4010
I7
sS'YKL072W'
p4011
I1
sS'YPL139C'
p4012
I2
sS'YBR217W'
p4013
I4
sS'YGR178C'
p4014
I4
sS'YPR098C'
p4015
I4
sS'YNL001W'
p4016
I8
sS'YDL236W'
p4017
I10
sS'YIL046W'
p4018
I2
sS'YGR174C'
p4019
I1
sS'YGL142C'
p4020
I1
sS'YFR009W'
p4021
I6
sS'YKR096W'
p4022
I1
sS'YGR179C'
p4023
I3
sS'YGR102C'
p4024
I2
sS'YDR081C'
p4025
I1
sS'YJL137C'
p4026
I1
sS'YCL009C'
p4027
I3
sS'YKL065C'
p4028
I14
sS'YBR139W'
p4029
I1
sS'YBR115C'
p4030
I1
sS'YBR140C'
p4031
I0
sS'YDR448W'
p4032
I4
sS'YJR111C'
p4033
I3
sS'YJR046W'
p4034
I1
sS'YHR188C'
p4035
I2
sS'YDL005C'
p4036
I3
sS'YOR305W'
p4037
I7
sS'YFL023W'
p4038
I1
sS'YJL127C-B'
p4039
I12
sS'YLR360W'
p4040
I3
sS'YPL189C-A'
p4041
I9
sS'YER087C-B'
p4042
I6
sS'YKL081W'
p4043
I15
sS'YDR092W'
p4044
I5
sS'YNL139C'
p4045
I1
sS'YPL108W'
p4046
I4
sS'YDR361C'
p4047
I14
sS'YPL164C'
p4048
I1
sS'YBR171W'
p4049
I9
sS'YNL005C'
p4050
I5
sS'YNL088W'
p4051
I2
sS'YJL157C'
p4052
I3
sS'YHR206W'
p4053
I1
sS'YKL181W'
p4054
I25
sS'YOL032W'
p4055
I3
sS'YML063W'
p4056
I275
sS'YHR027C'
p4057
I5
sS'YPR139C'
p4058
I5
sS'YGL255W'
p4059
I5
sS'YFR007W'
p4060
I1
sS'YJL180C'
p4061
I5
sS'YKR090W'
p4062
I1
sS'YLR333C'
p4063
I81
sS'YOL075C'
p4064
I0
sS'YHL030W'
p4065
I1
sS'YBR200W'
p4066
I2
sS'YNL262W'
p4067
I0
sS'YAR028W'
p4068
I4
sS'YDR079C-A'
p4069
I5
sS'YML107C'
p4070
I4
sS'YGL077C'
p4071
I5
sS'YPL204W'
p4072
I3
sS'YNL133C'
p4073
I1
sS'YNL200C'
p4074
I2
sS'YOL069W'
p4075
I1
sS'YKL184W'
p4076
I3
sS'YDR412W'
p4077
I6
sS'YDR129C'
p4078
I10
sS'YOR091W'
p4079
I4
sS'YKR101W'
p4080
I1
sS'YGR026W'
p4081
I5
sS'YNL129W'
p4082
I5
sS'YML125C'
p4083
I8
sS'YAL040C'
p4084
I1
sS'YLR251W'
p4085
I3
sS'YDR288W'
p4086
I5
sS'YBR157C'
p4087
I5
sS'YCL036W'
p4088
I8
sS'YFR041C'
p4089
I4
sS'YIL050W'
p4090
I2
sS'YOR355W'
p4091
I3
sS'YGR086C'
p4092
I9
sS'YPL111W'
p4093
I3
sS'YOR077W'
p4094
I2
sS'YOL143C'
p4095
I18
sS'YAL034W-A'
p4096
I1
sS'YNL233W'
p4097
I1
sS'YBR237W'
p4098
I1
sS'YHL023C'
p4099
I1
sS'YGL151W'
p4100
I1
sS'YBR197C'
p4101
I1
sS'YGR075C'
p4102
I3
sS'YOR329C'
p4103
I1
sS'YJR091C'
p4104
I0
sS'YGR031W'
p4105
I5
sS'YJL204C'
p4106
I1
sS'YOL020W'
p4107
I3
sS'YBR271W'
p4108
I3
sS'YNL231C'
p4109
I9
sS'YDR003W'
p4110
I4
sS'YBL017C'
p4111
I2
sS'YNL244C'
p4112
I41
sS'YNR027W'
p4113
I2
sS'YAL024C'
p4114
I0
sS'YPL150W'
p4115
I2
sS'YJR142W'
p4116
I3
sS'YER115C'
p4117
I11
sS'YJL197W'
p4118
I1
sS'YMR213W'
p4119
I1
sS'YPL199C'
p4120
I7
sS'YBR233W-A'
p4121
I5
sS'YGL055W'
p4122
I13
sS'YPL071C'
p4123
I3
sS'YCL008C'
p4124
I1
sS'YOR245C'
p4125
I3
sS'YOL141W'
p4126
I1
sS'YML005W'
p4127
I2
sS'YNL215W'
p4128
I3
sS'YDR529C'
p4129
I13
sS'YCR075W-A'
p4130
I2
sS'YDL059C'
p4131
I2
sS'YEL012W'
p4132
I2
sS'YDL006W'
p4133
I5
sS'YER123W'
p4134
I2
sS'YJL012C'
p4135
I7
sS'YPR043W'
p4136
I166
sS'YDR382W'
p4137
I223
sS'YDR483W'
p4138
I9
sS'YLL008W'
p4139
I7
sS'YOR219C'
p4140
I1
sS'YDR505C'
p4141
I1
sS'YKL206C'
p4142
I3
sS'YER061C'
p4143
I3
sS'YLR135W'
p4144
I1
sS'YMR300C'
p4145
I7
sS'YLR022C'
p4146
I12
sS'YPL246C'
p4147
I4
sS'YOR246C'
p4148
I13
sS'YPL226W'
p4149
I4
sS'YLR073C'
p4150
I3
sS'YGL039W'
p4151
I4
sS'YER183C'
p4152
I7
sS'YML018C'
p4153
I7
sS'YEL001C'
p4154
I12
sS'YHR090C'
p4155
I4
sS'YDL066W'
p4156
I3
sS'YER112W'
p4157
I6
sS'YMR319C'
p4158
I13
sS'YBR295W'
p4159
I0
sS'YBR085W'
p4160
I3
sS'YHR109W'
p4161
I1
sS'YBL031W'
p4162
I1
sS'YEL034W'
p4163
I40
sS'YOR039W'
p4164
I8
sS'YNR050C'
p4165
I6
sS'YKR100C'
p4166
I4
sS'YKL208W'
p4167
I3
sS'YJL079C'
p4168
I2
sS'YCL017C'
p4169
I2
sS'YBR023C'
p4170
I3
sS'YOR237W'
p4171
I1
sS'YPL260W'
p4172
I3
sS'YGR004W'
p4173
I2
sS'YML110C'
p4174
I7
sS'YNR016C'
p4175
I2
sS'YOL010W'
p4176
I8
sS'YLR064W'
p4177
I4
sS'YLR419W'
p4178
I1
sS'YGL048C'
p4179
I14
sS'YHL016C'
p4180
I1
sS'YOR228C'
p4181
I1
sS'YGL243W'
p4182
I4
sS'YCR053W'
p4183
I8
sS'YLL055W'
p4184
I1
sS'YER072W'
p4185
I21
sS'YKL106W'
p4186
I6
sS'YOR272W'
p4187
I8
sS'YGL019W'
p4188
I6
sS'YLR091W'
p4189
I1
sS'YNL330C'
p4190
I6
sS'YER047C'
p4191
I1
sS'YOR138C'
p4192
I3
sS'YPR029C'
p4193
I2
sS'YMR144W'
p4194
I1
sS'YCR066W'
p4195
I1
sS'YML098W'
p4196
I5
sS'YJL034W'
p4197
I8
sS'YLR420W'
p4198
I14
sS'YJR067C'
p4199
I3
sS'YOR252W'
p4200
I4
sS'YDR208W'
p4201
I1
sS'YJL058C'
p4202
I1
sS'YDR075W'
p4203
I3
sS'YLR177W'
p4204
I1
sS'YFL048C'
p4205
I9
sS'YLR117C'
p4206
I1
sS'YNR020C'
p4207
I3
sS'YGR220C'
p4208
I4
sS'YBR014C'
p4209
I7
sS'YML052W'
p4210
I8
sS'YDL153C'
p4211
I7
sS'YLR299W'
p4212
I0
sS'YOR176W'
p4213
I5
sS'YHR187W'
p4214
I5
sS'YDL108W'
p4215
I4
sS'YNL172W'
p4216
I0
sS'YGR275W'
p4217
I4
sS'YMR071C'
p4218
I13
sS'YIR033W'
p4219
I2
sS'YNL254C'
p4220
I2
sS'YBL089W'
p4221
I3
sS'YDL084W'
p4222
I36
sS'YGL016W'
p4223
I2
sS'YOL086W-A'
p4224
I5
sS'YOR209C'
p4225
I9
sS'YCR073W-A'
p4226
I1
sS'YKL033W'
p4227
I1
sS'YLL022C'
p4228
I2
sS'YOR143C'
p4229
I6
sS'YER029C'
p4230
I4
sS'YCL055W'
p4231
I6
sS'YDR490C'
p4232
I1
sS'YER005W'
p4233
I2
sS'YER105C'
p4234
I1
sS'YPL034W'
p4235
I4
sS'YBL054W'
p4236
I2
sS'YDL028C'
p4237
I1
sS'YCR024C'
p4238
I0
sS'YER050C'
p4239
I8
sS'YCR008W'
p4240
I2
sS'YBL104C'
p4241
I1
sS'YKL165C'
p4242
I1
sS'YCR071C'
p4243
I3
sS'YLR009W'
p4244
I11
sS'YDR518W'
p4245
I2
sS'YLR119W'
p4246
I2
sS'YDR175C'
p4247
I4
sS'YLR082C'
p4248
I4
sS'YMR287C'
p4249
I1
sS'YOR341W'
p4250
I3
sS'YOR189W'
p4251
I7
sS'YLR035C'
p4252
I0
sS'YOR154W'
p4253
I4
sS'YOR213C'
p4254
I5
sS'YDL122W'
p4255
I3
sS'YMR264W'
p4256
I12
sS'YPR121W'
p4257
I1
sS'YGL136C'
p4258
I3
sS'YBR070C'
p4259
I3
sS'YLR065C'
p4260
I10
sS'YIR035C'
p4261
I4
sS'YMR086W'
p4262
I1
sS'YGR007W'
p4263
I5
sS'YNL315C'
p4264
I4
sS'YER018C'
p4265
I2
sS'YOR299W'
p4266
I2
sS'YDR224C'
p4267
I60
sS'YOL158C'
p4268
I7
sS'YMR288W'
p4269
I1
sS'YIL125W'
p4270
I1
sS'YBR141C'
p4271
I1
sS'YMR008C'
p4272
I1
sS'YJL136C'
p4273
I172
sS'YDR084C'
p4274
I4
sS'YDR140W'
p4275
I3
sS'YKL112W'
p4276
I1
sS'YDL171C'
p4277
I1
sS'YKL062W'
p4278
I0
sS'YLR238W'
p4279
I1
sS'YDR080W'
p4280
I1
sS'YJR010W'
p4281
I2
sS'YBR138C'
p4282
I1
sS'YBR114W'
p4283
I0
sS'YPL250C'
p4284
I3
sS'YNR043W'
p4285
I3
sS'YHR165C'
p4286
I1
sS'YNL075W'
p4287
I10
sS'YKL028W'
p4288
I4
sS'YLR222C'
p4289
I3
sS'YLR221C'
p4290
I14
sS'YDR093W'
p4291
I0
sS'YMR282C'
p4292
I3
sS'YIL109C'
p4293
I2
sS'YHR046C'
p4294
I4
sS'YPL070W'
p4295
I1
sS'YLR361C'
p4296
I1
sS'YOR085W'
p4297
I2
sS'YDR362C'
p4298
I2
sS'YFL022C'
p4299
I5
sS'YOL101C'
p4300
I4
sS'YJL156C'
p4301
I2
sS'YFL026W'
p4302
I26
sS'YKL082C'
p4303
I8
sS'YKL180W'
p4304
I51
sS'YOR094W'
p4305
I5
sS'YMR064W'
p4306
I2
sS'YKL166C'
p4307
I6
sS'YJR007W'
p4308
I7
sS'YGR211W'
p4309
I6
sS'YJL174W'
p4310
I7
sS'YDL093W'
p4311
I1
sS'YJL069C'
p4312
I6
sS'YNL185C'
p4313
I3
sS'YLR168C'
p4314
I3
sS'YLR298C'
p4315
I3
sS'YFL027C'
p4316
I6
sS'YHR047C'
p4317
I3
sS'YIR002C'
p4318
I1
sS'YML095C'
p4319
I2
sS'YPR137W'
p4320
I5
sS'YJL016W'
p4321
I1
sS'YGL001C'
p4322
I8
sS'YJR058C'
p4323
I5
sS'YDR444W'
p4324
I1
sS'YDL115C'
p4325
I4
sS'YER087W'
p4326
I2
sS'YDL140C'
p4327
I1
sS'YDR359C'
p4328
I0
sS'YKL124W'
p4329
I1
sS'YDR304C'
p4330
I20
sS'YKL171W'
p4331
I0
sS'YDL219W'
p4332
I9
sS'YPL038W'
p4333
I5
sS'YCR086W'
p4334
I1
sS'YDR266C'
p4335
I2
sS'YGL194C'
p4336
I1
sS'YDR206W'
p4337
I4
sS'YJL056C'
p4338
I1
sS'YKL091C'
p4339
I2
sS'YOR116C'
p4340
I1
sS'YMR025W'
p4341
I1
sS'YKR024C'
p4342
I2
sS'YIL095W'
p4343
I1
sS'YFL013C'
p4344
I1
sS'YPL063W'
p4345
I3
sS'YKL140W'
p4346
I4
sS'YBR156C'
p4347
I0
sS'YML124C'
p4348
I8
sS'YIL107C'
p4349
I1
sS'YOL142W'
p4350
I5
sS'YDR287W'
p4351
I2
sS'YGL209W'
p4352
I1
sS'YNL229C'
p4353
I5
sS'YOR326W'
p4354
I2
sS'YDR405W'
p4355
I1
sS'YIL007C'
p4356
I3
sS'YML081W'
p4357
I1
sS'YLR099W-A'
p4358
I4
sS'YGL041W-A'
p4359
I4
sS'YCL031C'
p4360
I13
sS'YAL041W'
p4361
I2
sS'YLR459W'
p4362
I2
sS'YNL243W'
p4363
I2
sS'YGR152C'
p4364
I8
sS'YNL025C'
p4365
I1
sS'YJL090C'
p4366
I1
sS'YJR143C'
p4367
I3
sS'YBR196C'
p4368
I36
sS'YLR190W'
p4369
I2
sS'YPL144W'
p4370
I5
sS'YGR147C'
p4371
I11
sS'YDR002W'
p4372
I65
sS'YJR092W'
p4373
I1
sS'YOR311C'
p4374
I4
sS'YGR030C'
p4375
I3
sS'YAL025C'
p4376
I10
sS'YOR034C'
p4377
I1
sS'YBL014C'
p4378
I1
sS'YDL141W'
p4379
I1
sS'YGL094C'
p4380
I1
sS'YNL039W'
p4381
I2
sS'YBR170C'
p4382
I2
sS'YGR149W'
p4383
I2
sS'YJR059W'
p4384
I1
sS'YGR130C'
p4385
I1
sS'YOR368W'
p4386
I2
sS'YDR458C'
p4387
I2
sS'YJR118C'
p4388
I5
sS'YOR016C'
p4389
I7
sS'YDL217C'
p4390
I3
sS'YGR165W'
p4391
I7
sS'YGR055W'
p4392
I2
sS'YGR128C'
p4393
I5
sS'YBR254C'
p4394
I6
sS'YDR313C'
p4395
I1
sS'YBR136W'
p4396
I0
sS'YKL193C'
p4397
I2
sS'YNL153C'
p4398
I17
sS'YGL083W'
p4399
I0
sS'YBR214W'
p4400
I0
sS'YLR310C'
p4401
I1
sS'YOR060C'
p4402
I2
sS'YDL237W'
p4403
I3
sS'YJR085C'
p4404
I14
sS'YJL141C'
p4405
I1
sS'YBR249C'
p4406
I19
sS'YNL287W'
p4407
I3
sS'YFR008W'
p4408
I2
sS'YNL102W'
p4409
I1
sS'YPL147W'
p4410
I1
sS'YMR234W'
p4411
I2
sS'YOL077C'
p4412
I15
sS'YDR137W'
p4413
I3
sS'YHR031C'
p4414
I1
sS'YKL209C'
p4415
I4
sS'YPR175W'
p4416
I1
sS'YBR084W'
p4417
I5
sS'YLR003C'
p4418
I10
sS'YGR049W'
p4419
I1
sS'YLR441C'
p4420
I287
sS'YER113C'
p4421
I1
sS'YDR397C'
p4422
I7
sS'YNR051C'
p4423
I3
sS'YGR187C'
p4424
I7
sS'YDR056C'
p4425
I7
sS'YHR122W'
p4426
I7
sS'YDR390C'
p4427
I3
sS'YPL267W'
p4428
I3
sS'YOR229W'
p4429
I2
sS'YPR198W'
p4430
I2
sS'YEL024W'
p4431
I2
sS'YHL017W'
p4432
I3
sS'YOR383C'
p4433
I2
sS'YJR010C-A'
p4434
I7
sS'YLR378C'
p4435
I2
sS'YMR190C'
p4436
I0
sS'YPL123C'
p4437
I2
sS'YGR005C'
p4438
I4
sS'YBL032W'
p4439
I3
sS'YGL049C'
p4440
I1
sS'YDR023W'
p4441
I28
sS'YLR010C'
p4442
I2
sS'YCR052W'
p4443
I2
sS'YNL294C'
p4444
I4
sS'YLR332W'
p4445
I2
sS'YBR272C'
p4446
I3
sS'YDR298C'
p4447
I8
sS'YDR011W'
p4448
I2
sS'YIL061C'
p4449
I1
sS'YBL009W'
p4450
I1
sS'YDR182W'
p4451
I2
sS'YCL043C'
p4452
I9
sS'YOL059W'
p4453
I3
sS'YFR006W'
p4454
I6
sS'YHL031C'
p4455
I1
sS'YKL074C'
p4456
I5
sS'YOR095C'
p4457
I19
sS'YOL151W'
p4458
I4
sS'YHR131C'
p4459
I1
sS'YKL213C'
p4460
I3
sS'YHR026W'
p4461
I12
sS'YGR104C'
p4462
I3
sS'YOL039W'
p4463
I96
sS'YOR026W'
p4464
I3
sS'YOR358W'
p4465
I2
sS'YLR437C'
p4466
I3
sS'YNL238W'
p4467
I2
sS'YOR090C'
p4468
I1
sS'YBR281C'
p4469
I1
sS'YJL198W'
p4470
I3
sS'YPL207W'
p4471
I5
sS'YDR197W'
p4472
I3
sS'YLR417W'
p4473
I2
sS'YGR027C'
p4474
I217
sS'YNL289W'
p4475
I4
sS'YIL029C'
p4476
I3
sS'YOL135C'
p4477
I1
sS'YOR323C'
p4478
I6
sS'YLL041C'
p4479
I2
sS'YML106W'
p4480
I22
sS'YCR009C'
p4481
I12
sS'YDR118W'
p4482
I2
sS'YOR193W'
p4483
I1
sS'YPR070W'
p4484
I2
sS'YLR118C'
p4485
I3
sS'YER006W'
p4486
I8
sS'YGL117W'
p4487
I2
sS'YER026C'
p4488
I13
sS'YLR182W'
p4489
I1
sS'YMR105C'
p4490
I1
sS'YER182W'
p4491
I3
sS'YLL034C'
p4492
I4
sS'YML042W'
p4493
I0
sS'YBL105C'
p4494
I1
sS'YMR251W-A'
p4495
I58
sS'YKR060W'
p4496
I3
sS'YDR069C'
p4497
I0
sS'YER104W'
p4498
I2
sS'YGR232W'
p4499
I3
sS'YEL066W'
p4500
I1
sS'YEL046C'
p4501
I5
sS'YBL055C'
p4502
I4
sS'YPR035W'
p4503
I62
sS'YDL189W'
p4504
I2
sS'YNL314W'
p4505
I1
sS'YLL018C'
p4506
I4
sS'YGR123C'
p4507
I3
sS'YDR227W'
p4508
I1
sS'YDL130W-A'
p4509
I3
sS'YML008C'
p4510
I5
sS'YDL054C'
p4511
I1
sS'YHL039W'
p4512
I2
sS'YDR174W'
p4513
I21
sS'YMR265C'
p4514
I2
sS'YML073C'
p4515
I63
sS'YGL137W'
p4516
I5
sS'YOR157C'
p4517
I4
sS'YLR455W'
p4518
I3
sS'YGL101W'
p4519
I11
sS'YHR143W-A'
p4520
I19
sS'YCL056C'
p4521
I4
sS'YBR044C'
p4522
I3
sS'YJR105W'
p4523
I26
sS'YDR383C'
p4524
I4
sS'YDL072C'
p4525
I8
sS'YER159C'
p4526
I4
sS'YEL048C'
p4527
I7
sS'YER122C'
p4528
I7
sS'YHR113W'
p4529
I3
sS'YMR189W'
p4530
I3
sS'YER048W-A'
p4531
I14
sS'YDR482C'
p4532
I3
sS'YPR182W'
p4533
I3
sS'YJL196C'
p4534
I14
sS'YPL003W'
p4535
I3
sS'YDR034C'
p4536
I2
sS'YGL054C'
p4537
I38
sS'YGL025C'
p4538
I1
sS'YLR021W'
p4539
I3
sS'YOL126C'
p4540
I1
sS'YLR058C'
p4541
I27
sS'YOR247W'
p4542
I8
sS'YEL006W'
p4543
I6
sS'YNL322C'
p4544
I3
sS'YDR058C'
p4545
I1
sS'YGL038C'
p4546
I2
sS'YLR074C'
p4547
I9
sS'YNL216W'
p4548
I3
sS'YKL207W'
p4549
I12
sS'YLR405W'
p4550
I3
sS'YNL227C'
p4551
I1
sS'YPL225W'
p4552
I35
sS'YDL043C'
p4553
I5
sS'YHR091C'
p4554
I1
sS'YDL012C'
p4555
I3
sS'YPL249C'
p4556
I0
sS'YJL024C'
p4557
I4
sS'YPR148C'
p4558
I9
sS'YER031C'
p4559
I8
sS'YMR065W'
p4560
I3
sS'YJR006W'
p4561
I2
sS'YIR021W'
p4562
I3
sS'YJL177W'
p4563
I52
sS'YGL002W'
p4564
I6
sS'YLR430W'
p4565
I0
sS'YOR108W'
p4566
I4
sS'YGL139W'
p4567
I1
sS'YJL068C'
p4568
I4
sS'YJL117W'
p4569
I14
sS'YNL054W'
p4570
I0
sS'YPL141C'
p4571
I0
sS'YGR210C'
p4572
I4
sS'YDR156W'
p4573
I2
sS'YMR130W'
p4574
I5
sS'YPR155C'
p4575
I2
sS'YHR179W'
p4576
I12
sS'YOR117W'
p4577
I8
sS'YLR176C'
p4578
I0
sS'YNL049C'
p4579
I1
sS'YGL195W'
p4580
I1
sS'YOR167C'
p4581
I217
sS'YKL172W'
p4582
I15
sS'YKR025W'
p4583
I7
sS'YMR290C'
p4584
I5
sS'YLR423C'
p4585
I1
sS'YDR305C'
p4586
I4
sS'YDR205W'
p4587
I1
sS'YJL057C'
p4588
I2
sS'YPR100W'
p4589
I8
sS'YLR266C'
p4590
I6
sS'YLR206W'
p4591
I1
sS'YER088C'
p4592
I2
sS'YLR284C'
p4593
I2
sS'YDR358W'
p4594
I1
sS'YDR508C'
p4595
I8
sS'YPR028W'
p4596
I15
sS'YMR117C'
p4597
I2
sS'YLR096W'
p4598
I1
sS'YCR067C'
p4599
I1
sS'YJL035C'
p4600
I3
sS'YKR052C'
p4601
I4
sS'YMR047C'
p4602
I2
sS'YOR120W'
p4603
I2
sS'YER040W'
p4604
I1
sS'YCR089W'
p4605
I0
sS'YOR287C'
p4606
I4
sS'YBL088C'
p4607
I0
sS'YPR117W'
p4608
I0
sS'YHR086W'
p4609
I1
sS'YGR274C'
p4610
I2
sS'YLR100W'
p4611
I13
sS'YBR015C'
p4612
I1
sS'YML055W'
p4613
I5
sS'YML088W'
p4614
I2
sS'YJR066W'
p4615
I1
sS'YLR116W'
p4616
I1
sS'YER008C'
p4617
I1
sS'YJL081C'
p4618
I4
sS'YMR127C'
p4619
I3
sS'YPL013C'
p4620
I9
sS'YLR440C'
p4621
I2
sS'YLR192C'
p4622
I8
s.