(dp1
S'YBR177C'
p2
I6
sS'YIL140W'
p3
I2
sS'YLR268W'
p4
I8
sS'YOR011W'
p5
I1
sS'YJL155C'
p6
I1
sS'YLL062C'
p7
I1
sS'YHR067W'
p8
I1
sS'YAL008W'
p9
I3
sS'YNR028W'
p10
I4
sS'YMR111C'
p11
I1
sS'YBR255W'
p12
I1
sS'YFR027W'
p13
I1
sS'YBR128C'
p14
I0
sS'YOL115W'
p15
I3
sS'YNL007C'
p16
I21
sS'YNL300W'
p17
I8
sS'YAL056W'
p18
I2
sS'YJR122W'
p19
I1
sS'YLR152C'
p20
I1
sS'YDR459C'
p21
I1
sS'YIL034C'
p22
I7
sS'YLR244C'
p23
I19
sS'YNL003C'
p24
I3
sS'YJR084W'
p25
I2
sS'YBR135W'
p26
I5
sS'YBR004C'
p27
I2
sS'YBR160W'
p28
I4
sS'YLR313C'
p29
I0
sS'YDL238C'
p30
I1
sS'YJL082W'
p31
I3
sS'YHR007C'
p32
I44
sS'YIR004W'
p33
I5
sS'YPL191C'
p34
I1
sS'YKL190W'
p35
I11
sS'YGL084C'
p36
I5
sS'YLR348C'
p37
I11
sS'YBR248C'
p38
I5
sS'YNR067C'
p39
I13
sS'YNL152W'
p40
I2
sS'YLR382C'
p41
I1
sS'YKL063C'
p42
I5
sS'YFL045C'
p43
I63
sS'YFL010C'
p44
I17
sS'YDR141C'
p45
I4
sS'YJL131C'
p46
I1
sS'YDL170W'
p47
I1
sS'YIL124W'
p48
I9
sS'YJR044C'
p49
I6
sS'YJR011C'
p50
I1
sS'YNL156C'
p51
I4
sS'YKL048C'
p52
I1
sS'YMR009W'
p53
I4
sS'YOR123C'
p54
I4
sS'YJL179W'
p55
I7
sS'YJL122W'
p56
I9
sS'YKL183W'
p57
I2
sS'YLR189C'
p58
I2
sS'YDR363W'
p59
I1
sS'YFL021W'
p60
I2
sS'YPL041C'
p61
I1
sS'YLR362W'
p62
I1
sS'YPR118W'
p63
I12
sS'YMR283C'
p64
I1
sS'YOR074C'
p65
I4
sS'YPL024W'
p66
I2
sS'YKL134C'
p67
I1
sS'YDR090C'
p68
I2
sS'YML061C'
p69
I2
sS'YIL108W'
p70
I3
sS'YPL166W'
p71
I1
sS'YKL052C'
p72
I3
sS'YLR278C'
p73
I2
sS'YBR273C'
p74
I3
sS'YFR005C'
p75
I3
sS'YHL036W'
p76
I0
sS'YAL026C'
p77
I5
sS'YOL034W'
p78
I1
sS'YMR038C'
p79
I14
sS'YFR050C'
p80
I16
sS'YBL008W'
p81
I2
sS'YLR079W'
p82
I6
sS'YLR447C'
p83
I35
sS'YNL202W'
p84
I0
sS'YGL237C'
p85
I1
sS'YGR126W'
p86
I1
sS'YIL062C'
p87
I15
sS'YNL295W'
p88
I1
sS'YAR035W'
p89
I0
sS'YAR019C'
p90
I1
sS'YDR299W'
p91
I4
sS'YOL116W'
p92
I2
sS'YJL140W'
p93
I11
sS'YBR182C'
p94
I0
sS'YGL257C'
p95
I3
sS'YDR196C'
p96
I3
sS'YBR202W'
p97
I4
sS'YHR101C'
p98
I1
sS'YNL239W'
p99
I9
sS'YDR410C'
p100
I4
sS'YBR280C'
p101
I1
sS'YGR020C'
p102
I30
sS'YNR045W'
p103
I1
sS'YPL143W'
p104
I240
sS'YML105C'
p105
I7
sS'YLL040C'
p106
I6
sS'YIL091C'
p107
I4
sS'YCL032W'
p108
I1
sS'YLR357W'
p109
I3
sS'YPL104W'
p110
I1
sS'YNL103W'
p111
I3
sS'YAL046C'
p112
I7
sS'YDR198C'
p113
I1
sS'YAL039C'
p114
I1
sS'YNR018W'
p115
I12
sS'YNL168C'
p116
I7
sS'YDL185W'
p117
I75
sS'YFR047C'
p118
I7
sS'YBR215W'
p119
I1
sS'YGL092W'
p120
I7
sS'YLR403W'
p121
I4
sS'YNL147W'
p122
I10
sS'YBR159W'
p123
I15
sS'YDR364C'
p124
I2
sS'YML127W'
p125
I4
sS'YDR404C'
p126
I8
sS'YHR078W'
p127
I2
sS'YGR084C'
p128
I3
sS'YDR286C'
p129
I3
sS'YFR018C'
p130
I4
sS'YCR002C'
p131
I8
sS'YNR060W'
p132
I0
sS'YER042W'
p133
I8
sS'YJR110W'
p134
I1
sS'YGL157W'
p135
I6
sS'YLR233C'
p136
I0
sS'YGR099W'
p137
I2
sS'YBL015W'
p138
I2
sS'YOL090W'
p139
I5
sS'YLR300W'
p140
I34
sS'YNL145W'
p141
I45
sS'YJL091C'
p142
I3
sS'YJR140C'
p143
I2
sS'YGR146C'
p144
I4
sS'YOR033C'
p145
I2
sS'YOR062C'
p146
I0
sS'YML120C'
p147
I2
sS'YNR021W'
p148
I17
sS'YBR043C'
p149
I1
sS'YPL067C'
p150
I1
sS'YDR380W'
p151
I2
sS'YGL100W'
p152
I7
sS'YBR094W'
p153
I3
sS'YNL094W'
p154
I3
sS'YHR112C'
p155
I2
sS'YNR007C'
p156
I0
sS'YDR035W'
p157
I12
sS'YGR042W'
p158
I2
sS'YPL156C'
p159
I1
sS'YDR485C'
p160
I1
sS'YGR077C'
p161
I1
sS'YOR216C'
p162
I4
sS'YIL044C'
p163
I5
sS'YPL239W'
p164
I8
sS'YNL197C'
p165
I3
sS'YPR183W'
p166
I15
sS'YLR069C'
p167
I3
sS'YDL073W'
p168
I2
sS'YPR133C'
p169
I6
sS'YBL042C'
p170
I5
sS'YNL091W'
p171
I4
sS'YCR046C'
p172
I7
sS'YLR059C'
p173
I5
sS'YOL001W'
p174
I1
sS'YIL056W'
p175
I2
sS'YBR054W'
p176
I3
sS'YDR059C'
p177
I2
sS'YOL063C'
p178
I2
sS'YPL224C'
p179
I2
sS'YLR137W'
p180
I1
sS'YNL144C'
p181
I0
sS'YLR020C'
p182
I3
sS'YNL217W'
p183
I8
sS'YKL204W'
p184
I3
sS'YER067W'
p185
I4
sS'YDL042C'
p186
I2
sS'YMR226C'
p187
I23
sS'YOR058C'
p188
I2
sS'YPL248C'
p189
I0
sS'YDR531W'
p190
I6
sS'YFR024CA'
p191
I13
sS'YIL013C'
p192
I0
sS'YMR233W'
p193
I2
sS'YPL206C'
p194
I4
sS'YLR352W'
p195
I1
sS'YDL060W'
p196
I6
sS'YMR235C'
p197
I18
sS'YLR002C'
p198
I4
sS'YOR303W'
p199
I6
sS'YOR071C'
p200
I2
sS'YDR393W'
p201
I2
sS'YBR293W'
p202
I1
sS'YIR022W'
p203
I7
sS'YGL215W'
p204
I11
sS'YNR052C'
p205
I4
sS'YGR019W'
p206
I4
sS'YGL194CA'
p207
I2
sS'YEL032W'
p208
I5
sS'YOL076W'
p209
I5
sS'YER145C'
p210
I21
sS'YER110C'
p211
I35
sS'YHR123W'
p212
I4
sS'YPL149W'
p213
I2
sS'YBL033C'
p214
I3
sS'YDR022C'
p215
I1
sS'YPL266W'
p216
I8
sS'YOR304W'
p217
I3
sS'YLR023C'
p218
I3
sS'YML112W'
p219
I1
sS'YHL010C'
p220
I1
sS'YGR183C'
p221
I7
sS'YER169W'
p222
I1
sS'YNL321W'
p223
I3
sS'YOR226C'
p224
I8
sS'YGL241W'
p225
I2
sS'YEL025C'
p226
I2
sS'YLR108C'
p227
I3
sS'YLR229C'
p228
I15
sS'YNL186W'
p229
I5
sS'YPR176C'
p230
I3
sS'YCL044C'
p231
I1
sS'YKR008W'
p232
I4
sS'YLR017W'
p233
I9
sS'YMR146C'
p234
I28
sS'YPR165W'
p235
I37
sS'YPR024W'
p236
I9
sS'YDR226W'
p237
I94
sS'YMR266W'
p238
I8
sS'YDR057W'
p239
I2
sS'YKR064W'
p240
I1
sS'YLR097C'
p241
I2
sS'YCR060W'
p242
I5
sS'YJL036W'
p243
I2
sS'YER041W'
p244
I1
sS'YEL059CA'
p245
I1
sS'YBR016W'
p246
I9
sS'YER009W'
p247
I51
sS'YBR036C'
p248
I9
sS'YMR015C'
p249
I11
sS'YDL139C'
p250
I1
sS'YDR246W'
p251
I2
sS'YOR288C'
p252
I2
sS'YLR163C'
p253
I5
sS'YCR028C'
p254
I2
sS'YLR115W'
p255
I2
sS'YNL288W'
p256
I3
sS'YOL077WA'
p257
I10
sS'YMR126C'
p258
I1
sS'YHR089C'
p259
I15
sS'YGL014W'
p260
I7
sS'YMR168C'
p261
I1
sS'YML043C'
p262
I1
sS'YLL035W'
p263
I2
sS'YMR258C'
p264
I3
sS'YNL323W'
p265
I6
sS'YER007W'
p266
I0
sS'YGL114W'
p267
I2
sS'YER027C'
p268
I5
sS'YER167W'
p269
I2
sS'YDL013W'
p270
I2
sS'YBL106C'
p271
I1
sS'YMR104C'
p272
I1
sS'YGL044C'
p273
I2
sS'YGL169W'
p274
I2
sS'YER107C'
p275
I4
sS'YNR044W'
p276
I2
sS'YDL195W'
p277
I15
sS'YBR038W'
p278
I5
sS'YLR219W'
p279
I2
sS'YDR117C'
p280
I3
sS'YLR120C'
p281
I4
sS'YCR026C'
p282
I2
sS'YPL170W'
p283
I3
sS'YBL052C'
p284
I2
sS'YOR243C'
p285
I7
sS'YBR060C'
p286
I2
sS'YPL202C'
p287
I2
sS'YEL047C'
p288
I11
sS'YPR036W'
p289
I31
sS'YIL026C'
p290
I2
sS'YNL317W'
p291
I2
sS'YLL019C'
p292
I2
sS'YGR235C'
p293
I5
sS'YDR068W'
p294
I4
sS'YDL055C'
p295
I127
sS'YDR177W'
p296
I10
sS'YEL043W'
p297
I3
sS'YJL003W'
p298
I3
sS'YML072C'
p299
I21
sS'YHR052W'
p300
I10
sS'YDR142C'
p301
I1
sS'YKR026C'
p302
I6
sS'YFL044C'
p303
I3
sS'YJR043C'
p304
I2
sS'YPL263C'
p305
I7
sS'YJR012C'
p306
I1
sS'YJL130C'
p307
I34
sS'YJL078C'
p308
I4
sS'YJR126C'
p309
I4
sS'YKL060C'
p310
I1049
sS'YBL085W'
p311
I3
sS'YKL173W'
p312
I2
sS'YIR023W'
p313
I2
sS'YGR200C'
p314
I7
sS'YBR056W'
p315
I5
sS'YLR383W'
p316
I2
sS'YDL177C'
p317
I1
sS'YIL127C'
p318
I4
sS'YDR082W'
p319
I1
sS'YDR348C'
p320
I4
sS'YLR369W'
p321
I2
sS'YKL182W'
p322
I73
sS'YOR291W'
p323
I3
sS'YDR469W'
p324
I4
sS'YMR079W'
p325
I23
sS'YDR333C'
p326
I3
sS'YKL051W'
p327
I0
sS'YMR013C'
p328
I1
sS'YPL167C'
p329
I0
sS'YLR223C'
p330
I2
sS'YIR012W'
p331
I9
sS'YLR363C'
p332
I3
sS'YNR026C'
p333
I3
sS'YNR046W'
p334
I9
sS'YNL328C'
p335
I1
sS'YJL014W'
p336
I16
sS'YDR219C'
p337
I2
sS'YCR011C'
p338
I7
sS'YPL218W'
p339
I39
sS'YLR431C'
p340
I0
sS'YKR046C'
p341
I2
sS'YJR036C'
p342
I0
sS'YJR005W'
p343
I3
sS'YGR217W'
p344
I2
sS'YNL072W'
p345
I2
sS'YBL098W'
p346
I2
sS'YDL095W'
p347
I22
sS'YMR030W'
p348
I0
sS'YOR174W'
p349
I2
sS'YER030W'
p350
I12
sS'YFL002C'
p351
I3
sS'YDR155C'
p352
I251
sS'YPR149W'
p353
I50
sS'YGL181W'
p354
I4
sS'YJL176C'
p355
I4
sS'YJR072C'
p356
I8
sS'YDR047W'
p357
I6
sS'YHR086W'
p358
I3
sS'YPL087W'
p359
I4
sS'YNL015W'
p360
I13
sS'YCR084C'
p361
I12
sS'YDR302W'
p362
I3
sS'YGL003C'
p363
I1
sS'YJL054W'
p364
I6
sS'YHR178W'
p365
I1
sS'YOR118W'
p366
I2
sS'YLR205C'
p367
I1
sS'YDR268W'
p368
I2
sS'YLR283W'
p369
I1
sS'YBL071WA'
p370
I7
sS'YOL003C'
p371
I2
sS'YML094W'
p372
I7
sS'YKR006C'
p373
I6
sS'YDL117W'
p374
I3
sS'YDR204W'
p375
I4
sS'YLR435W'
p376
I5
sS'YDR251W'
p377
I5
sS'YJR054W'
p378
I2
sS'YPL269W'
p379
I1
sS'YMR293C'
p380
I0
sS'YER089C'
p381
I11
sS'YOR230W'
p382
I28
sS'YAL038W'
p383
I773
sS'YIL105C'
p384
I2
sS'YNL162WA'
p385
I2
sS'YNL119W'
p386
I2
sS'YNR006W'
p387
I2
sS'YML126C'
p388
I34
sS'YAL047C'
p389
I1
sS'YIL150C'
p390
I1
sS'YJL208C'
p391
I3
sS'YDR285W'
p392
I0
sS'YNL064C'
p393
I50
sS'YGR158C'
p394
I4
sS'YKL077W'
p395
I15
sS'YFR046C'
p396
I1
sS'YBR212W'
p397
I3
sS'YJR109C'
p398
I7
sS'YPL147W'
p399
I0
sS'YLR254C'
p400
I1
sS'YFR014C'
p401
I3
sS'YBR158W'
p402
I16
sS'YPL105C'
p403
I4
sS'YLR392C'
p404
I1
sS'YOL097C'
p405
I17
sS'YOR110W'
p406
I2
sS'YMR285C'
p407
I2
sS'YJL096W'
p408
I5
sS'YJR141W'
p409
I1
sS'YDR407C'
p410
I3
sS'YHR143WA'
p411
I20
sS'YJR094C'
p412
I0
sS'YNR020C'
p413
I1
sS'YKL029C'
p414
I12
sS'YBR258C'
p415
I1
sS'YLR457C'
p416
I0
sS'YLR301W'
p417
I27
sS'YAL007C'
p418
I14
sS'YJL070C'
p419
I1
sS'YHR142W'
p420
I3
sS'YGR098C'
p421
I2
sS'YBR223C'
p422
I1
sS'YOR103C'
p423
I8
sS'YGL154C'
p424
I1
sS'YPL178W'
p425
I10
sS'YJL154C'
p426
I5
sS'YDR091C'
p427
I15
sS'YJL123C'
p428
I6
sS'YIR005W'
p429
I1
sS'YJL203W'
p430
I1
sS'YAL009W'
p431
I2
sS'YIL147C'
p432
I4
sS'YBR129C'
p433
I3
sS'YDL160C'
p434
I16
sS'YBR176W'
p435
I2
sS'YPR138C'
p436
I4
sS'YPL173W'
p437
I2
sS'YDL215C'
p438
I3
sS'YGR167W'
p439
I19
sS'YJL059W'
p440
I1
sS'YKL099C'
p441
I6
sS'YPL097W'
p442
I1
sS'YDR315C'
p443
I1
sS'YJL143W'
p444
I6
sS'YBR161W'
p445
I2
sS'YPR103W'
p446
I18
sS'YGL238W'
p447
I10
sS'YGL085W'
p448
I1
sS'YNL104C'
p449
I23
sS'YPL145C'
p450
I16
sS'YIL118W'
p451
I7
sS'YNL151C'
p452
I5
sS'YKL191W'
p453
I8
sS'YLR220W'
p454
I4
sS'YHR006W'
p455
I2
sS'YHR120W'
p456
I2
sS'YOR023C'
p457
I2
sS'YGR106C'
p458
I24
sS'YKL021C'
p459
I4
sS'YHR025W'
p460
I20
sS'YNL083W'
p461
I1
sS'YPR147C'
p462
I4
sS'YNL258C'
p463
I3
sS'YBL018C'
p464
I6
sS'YOR098C'
p465
I5
sS'YOR357C'
p466
I6
sS'YOL137W'
p467
I2
sS'YLR410W'
p468
I10
sS'YDR530C'
p469
I2
sS'YDR131C'
p470
I0
sS'YER111C'
p471
I3
sS'YEL031W'
p472
I23
sS'YOL071W'
p473
I2
sS'YNR053C'
p474
I10
sS'YDL063C'
p475
I5
sS'YER144C'
p476
I2
sS'YNL163C'
p477
I4
sS'YOR385W'
p478
I1
sS'YGR185C'
p479
I34
sS'YJL189W'
p480
I552
sS'YER087CB'
p481
I24
sS'YER168C'
p482
I4
sS'YPL265W'
p483
I13
sS'YIL083C'
p484
I4
sS'YMR202W'
p485
I35
sS'YOR081C'
p486
I2
sS'YEL026W'
p487
I50
sS'YLL050C'
p488
I93
sS'YDR392W'
p489
I2
sS'YBR290W'
p490
I2
sS'YLR180W'
p491
I48
sS'YNL274C'
p492
I2
sS'YIL096C'
p493
I2
sS'YML113W'
p494
I2
sS'YDR021W'
p495
I1
sS'YGL063W'
p496
I0
sS'YPL212C'
p497
I6
sS'YMR296C'
p498
I10
sS'YPL028W'
p499
I39
sS'YHR136C'
p500
I11
sS'YGL173C'
p501
I22
sS'YLR330W'
p502
I8
sS'YPR095C'
p503
I1
sS'YOR310C'
p504
I32
sS'YFR051C'
p505
I12
sS'YHR024C'
p506
I5
sS'YDR188W'
p507
I23
sS'YAL027W'
p508
I1
sS'YPL152W'
p509
I2
sS'YGL236C'
p510
I1
sS'YGR129W'
p511
I1
sS'YAR018C'
p512
I2
sS'YHR133C'
p513
I12
sS'YDR541C'
p514
I2
sS'YOL080C'
p515
I3
sS'YOR369C'
p516
I485
sS'YNL275W'
p517
I1
sS'YOL117W'
p518
I1
sS'YNR014W'
p519
I0
sS'YGR021W'
p520
I1
sS'YDR411C'
p521
I3
sS'YBR283C'
p522
I22
sS'YIL090W'
p523
I4
sS'YBR205W'
p524
I12
sS'YOR321W'
p525
I3
sS'YDL160CA'
p526
I3
sS'YML104C'
p527
I2
sS'YBR183W'
p528
I2
sS'YDL004W'
p529
I17
sS'YGL256W'
p530
I3
sS'YDR195W'
p531
I1
sS'YOR319W'
p532
I2
sS'YOL048C'
p533
I1
sS'YGR072W'
p534
I1
sS'YNL256W'
p535
I3
sS'YOL058W'
p536
I2
sS'YMR278W'
p537
I3
sS'YER184C'
p538
I0
sS'YLR136C'
p539
I4
sS'YPR071W'
p540
I2
sS'YMR207C'
p541
I1
sS'YML015C'
p542
I2
sS'YOR197W'
p543
I14
sS'YCR007C'
p544
I0
sS'YDR016C'
p545
I5
sS'YEL004W'
p546
I1
sS'YBR255CA'
p547
I1
sS'YDL014W'
p548
I40
sS'YHR015W'
p549
I0
sS'YLL032C'
p550
I1
sS'YCR027C'
p551
I2
sS'YDL194W'
p552
I0
sS'YLR186W'
p553
I10
sS'YBR039W'
p554
I14
sS'YER024W'
p555
I0
sS'YDR116C'
p556
I3
sS'YGR258C'
p557
I1
sS'YLR325C'
p558
I284
sS'YER053CA'
p559
I0
sS'YMR110C'
p560
I3
sS'YDL056W'
p561
I2
sS'YGR234W'
p562
I55
sS'YMR108W'
p563
I29
sS'YKL117W'
p564
I27
sS'YMR178W'
p565
I5
sS'YCL005WA'
p566
I25
sS'YPR017C'
p567
I3
sS'YGL115W'
p568
I10
sS'YNL299W'
p569
I1
sS'YOL129W'
p570
I12
sS'YEL044W'
p571
I5
sS'YMR247C'
p572
I4
sS'YDR427W'
p573
I10
sS'YML071C'
p574
I2
sS'YBR077C'
p575
I4
sS'YDR176W'
p576
I3
sS'YPL177C'
p577
I6
sS'YDR122W'
p578
I4
sS'YER120W'
p579
I29
sS'YNL090W'
p580
I5
sS'YBR042C'
p581
I4
sS'YOL062C'
p582
I4
sS'YDR381W'
p583
I42
sS'YGL103W'
p584
I515
sS'YDR484W'
p585
I1
sS'YJL194W'
p586
I2
sS'YMR098C'
p587
I2
sS'YOR370C'
p588
I8
sS'YBR095C'
p589
I2
sS'YHR111W'
p590
I3
sS'YBL045C'
p591
I8
sS'YGL071W'
p592
I3
sS'YDR524C'
p593
I2
sS'YGR043C'
p594
I0
sS'YPR184W'
p595
I1
sS'YOR224C'
p596
I26
sS'YDL070W'
p597
I9
sS'YNL193W'
p598
I2
sS'YCR047C'
p599
I3
sS'YMR187C'
p600
I1
sS'YNL261W'
p601
I2
sS'YKL135C'
p602
I4
sS'YER064C'
p603
I8
sS'YDR389W'
p604
I4
sS'YOL002C'
p605
I4
sS'YLR190W'
p606
I6
sS'YML111W'
p607
I3
sS'YOR359W'
p608
I2
sS'YLL021W'
p609
I5
sS'YKL205W'
p610
I4
sS'YLR407W'
p611
I2
sS'YBR088C'
p612
I12
sS'YLR425W'
p613
I1
sS'YBR055C'
p614
I2
sS'YOR175C'
p615
I8
sS'YER033C'
p616
I1
sS'YNL329C'
p617
I2
sS'YFL005W'
p618
I18
sS'YKL110C'
p619
I4
sS'YMR014W'
p620
I3
sS'YPR040W'
p621
I2
sS'YHR040W'
p622
I1
sS'YMR152W'
p623
I4
sS'YML057W'
p624
I3
sS'YDR178W'
p625
I3
sS'YKR038C'
p626
I6
sS'YGL028C'
p627
I10
sS'YLR288C'
p628
I1
sS'YGL180W'
p629
I1
sS'YJL115W'
p630
I2
sS'YJR073C'
p631
I5
sS'YGL004C'
p632
I1
sS'YLR204W'
p633
I5
sS'YML097C'
p634
I2
sS'YIR030C'
p635
I1
sS'YLR055C'
p636
I3
sS'YJL055W'
p637
I10
sS'YHR193C'
p638
I108
sS'YMR292W'
p639
I8
sS'YPR134W'
p640
I1
sS'YNL044W'
p641
I10
sS'YBL099W'
p642
I33
sS'YMR132C'
p643
I1
sS'YDR303C'
p644
I4
sS'YPL008W'
p645
I1
sS'YOR126C'
p646
I2
sS'YDL116W'
p647
I4
sS'YPL184C'
p648
I7
sS'YGL027C'
p649
I9
sS'YPR153W'
p650
I1
sS'YMR042W'
p651
I1
sS'YDR252W'
p652
I1
sS'YOR119C'
p653
I2
sS'YLL003W'
p654
I1
sS'YOR165W'
p655
I7
sS'YDR054C'
p656
I7
sS'YLR409C'
p657
I6
sS'YNL316C'
p658
I1
sS'YMR268C'
p659
I1
sS'YCL045C'
p660
I12
sS'YPL088W'
p661
I0
sS'YJL046W'
p662
I2
sS'YOR092W'
p663
I2
sS'YMR041C'
p664
I1
sS'YDR221W'
p665
I4
sS'YMR267W'
p666
I3
sS'YLR109W'
p667
I357
sS'YPR145W'
p668
I36
sS'YKR009C'
p669
I0
sS'YDR078C'
p670
I1
sS'YOR358W'
p671
I1
sS'YKL103C'
p672
I6
sS'YCR061W'
p673
I4
sS'YMR109W'
p674
I8
sS'YMR078C'
p675
I2
sS'YLR094C'
p676
I3
sS'YDL154W'
p677
I0
sS'YDR232W'
p678
I12
sS'YDR245W'
p679
I10
sS'YHR088W'
p680
I3
sS'YGR276C'
p681
I3
sS'YLR390W'
p682
I3
sS'YBR017C'
p683
I9
sS'YKR014C'
p684
I8
sS'YML037C'
p685
I0
sS'YDL138W'
p686
I1
sS'YOR056C'
p687
I5
sS'YJR060W'
p688
I6
sS'YMR251WA'
p689
I56
sS'YLR141W'
p690
I1
sS'YPR162C'
p691
I2
sS'YDL089W'
p692
I2
sS'YLR178C'
p693
I4
sS'YHR175W'
p694
I5
sS'YGR166W'
p695
I1
sS'YDL161W'
p696
I4
sS'YKL101W'
p697
I4
sS'YOR191W'
p698
I3
sS'YGR096W'
p699
I1
sS'YJL178C'
p700
I9
sS'YDL212W'
p701
I19
sS'YNL161W'
p702
I4
sS'YGR184C'
p703
I6
sS'YDR096W'
p704
I1
sS'YPR111W'
p705
I1
sS'YBR175W'
p706
I2
sS'YPL046C'
p707
I3
sS'YGL099W'
p708
I8
sS'YIL119C'
p709
I2
sS'YLR315W'
p710
I1
sS'YPL124W'
p711
I1
sS'YPL193W'
p712
I2
sS'YKL196C'
p713
I19
sS'YDR314C'
p714
I1
sS'YJL144W'
p715
I0
sS'YLR231C'
p716
I6
sS'YPR117W'
p717
I1
sS'YDR255C'
p718
I1
sS'YFR021W'
p719
I2
sS'YKL098W'
p720
I2
sS'YJR139C'
p721
I51
sS'YKL016C'
p722
I15
sS'YBR133C'
p723
I4
sS'YGL017W'
p724
I1
sS'YBR162C'
p725
I41
sS'YIL004C'
p726
I4
sS'YPR129W'
p727
I9
sS'YKL174C'
p728
I2
sS'YJR013W'
p729
I3
sS'YJL133W'
p730
I3
sS'YGR260W'
p731
I14
sS'YDR143C'
p732
I3
sS'YDL176W'
p733
I1
sS'YBR111C'
p734
I13
sS'YPR037C'
p735
I5
sS'YKL121W'
p736
I1
sS'YML036W'
p737
I3
sS'YPL215W'
p738
I4
sS'YKR027W'
p739
I1
sS'YFL047W'
p740
I3
sS'YGR201C'
p741
I2
sS'YPR122W'
p742
I2
sS'YLR380W'
p743
I6
sS'YKL034W'
p744
I1
sS'YKL061W'
p745
I1
sS'YJR042W'
p746
I5
sS'YMR281W'
p747
I2
sS'YMR012W'
p748
I29
sS'YER093C'
p749
I1
sS'YGR100W'
p750
I2
sS'YLR133W'
p751
I2
sS'YNL023C'
p752
I2
sS'YDR349C'
p753
I5
sS'YIR011C'
p754
I3
sS'YOR171C'
p755
I4
sS'YDR214W'
p756
I15
sS'YIL126W'
p757
I7
sS'YIL106W'
p758
I3
sS'YPL005W'
p759
I0
sS'YLR295C'
p760
I9
sS'YDL201W'
p761
I7
sS'YDR468C'
p762
I3
sS'YJL133CA'
p763
I4
sS'YDR332W'
p764
I1
sS'YHR168W'
p765
I1
sS'YOL102C'
p766
I3
sS'YOR064C'
p767
I1
sS'YPR008W'
p768
I2
sS'YOR048C'
p769
I6
sS'YJL147C'
p770
I1
sS'YFR003C'
p771
I5
sS'YNL297C'
p772
I4
sS'YLR068W'
p773
I2
sS'YOL081W'
p774
I4
sS'YIL033C'
p775
I6
sS'YOL036W'
p776
I3
sS'YGL148W'
p777
I31
sS'YOR002W'
p778
I6
sS'YNR041C'
p779
I2
sS'YPL162C'
p780
I2
sS'YIL048W'
p781
I3
sS'YDR189W'
p782
I5
sS'YAL028W'
p783
I0
sS'YOL056W'
p784
I2
sS'YGR116W'
p785
I13
sS'YFR052W'
p786
I13
sS'YMR302C'
p787
I3
sS'YBR282W'
p788
I5
sS'YOR079C'
p789
I1
sS'YCL030C'
p790
I22
sS'YIL024C'
p791
I1
sS'YHR132C'
p792
I8
sS'YGR088W'
p793
I0
sS'YLR103C'
p794
I1
sS'YLR188W'
p795
I5
sS'YGL073W'
p796
I2
sS'YDR194C'
p797
I11
sS'YNL243W'
p798
I10
sS'YPL213W'
p799
I1
sS'YDR014W'
p800
I1
sS'YKR074W'
p801
I9
sS'YNL257C'
p802
I2
sS'YIR006C'
p803
I10
sS'YHL029C'
p804
I2
sS'YIL093C'
p805
I2
sS'YBR204C'
p806
I2
sS'YBR111WA'
p807
I6
sS'YNR032CA'
p808
I7
sS'YDR466W'
p809
I2
sS'YLR397C'
p810
I3
sS'YJL210W'
p811
I3
sS'YFR045W'
p812
I1
sS'YKL138CA'
p813
I7
sS'YIL104C'
p814
I2
sS'YIL151C'
p815
I2
sS'YIL002C'
p816
I2
sS'YMR112C'
p817
I3
sS'YGL086W'
p818
I3
sS'YGR159C'
p819
I26
sS'YDL223C'
p820
I1
sS'YNL265C'
p821
I3
sS'YAL044C'
p822
I31
sS'YBR213W'
p823
I1
sS'YNL234W'
p824
I0
sS'YLR355C'
p825
I150
sS'YJL116C'
p826
I0
sS'YLR246W'
p827
I1
sS'YPR081C'
p828
I1
sS'YNL118C'
p829
I6
sS'YNR030W'
p830
I5
sS'YNR023W'
p831
I1
sS'YOL096C'
p832
I1
sS'YGL228W'
p833
I9
sS'YDR284C'
p834
I4
sS'YJR117W'
p835
I10
sS'YJL097W'
p836
I9
sS'YNL166C'
p837
I3
sS'YBR259W'
p838
I1
sS'YGR111W'
p839
I4
sS'YGL155W'
p840
I4
sS'YJR135WA'
p841
I9
sS'YOR007C'
p842
I49
sS'YLR451W'
p843
I1
sS'YDR406W'
p844
I2
sS'YBR193C'
p845
I2
sS'YJR101W'
p846
I4
sS'YJR120W'
p847
I5
sS'YPR163C'
p848
I39
sS'YHR143W'
p849
I21
sS'YBR222C'
p850
I6
sS'YPR088C'
p851
I13
sS'YLR131C'
p852
I2
sS'YPR101W'
p853
I2
sS'YER127W'
p854
I5
sS'YLR199C'
p855
I3
sS'YEL005C'
p856
I1
sS'YCL004W'
p857
I1
sS'YPL128C'
p858
I3
sS'YBR096W'
p859
I10
sS'YGR133W'
p860
I1
sS'YJL193W'
p861
I2
sS'YJR093C'
p862
I2
sS'YEL027W'
p863
I96
sS'YDL015C'
p864
I17
sS'YNL281W'
p865
I27
sS'YDR123C'
p866
I1
sS'YHR110W'
p867
I6
sS'YBR041W'
p868
I5
sS'YDR430C'
p869
I4
sS'YGR193C'
p870
I5
sS'YPR185W'
p871
I1
sS'YIL142W'
p872
I20
sS'YGR015C'
p873
I1
sS'YNR035C'
p874
I14
sS'YLR406C'
p875
I86
sS'YCR036W'
p876
I5
sS'YLR077W'
p877
I3
sS'YCR044C'
p878
I5
sS'YNL219C'
p879
I6
sS'YDR037W'
p880
I51
sS'YGR040W'
p881
I3
sS'YER178W'
p882
I69
sS'YLR057W'
p883
I2
sS'YCR004C'
p884
I18
sS'YPL222W'
p885
I1
sS'YLR320W'
p886
I1
sS'YHR005C'
p887
I8
sS'YPR135W'
p888
I2
sS'YAR008W'
p889
I2
sS'YHR121W'
p890
I6
sS'YNL322C'
p891
I14
sS'YDL179W'
p892
I2
sS'YHR034C'
p893
I2
sS'YBL019W'
p894
I0
sS'YMR231W'
p895
I2
sS'YOL070C'
p896
I4
sS'YOL138C'
p897
I1
sS'YOR188W'
p898
I3
sS'YMR216C'
p899
I6
sS'YJL085W'
p900
I2
sS'YDR533C'
p901
I2
sS'YOL148C'
p902
I2
sS'YLR452C'
p903
I7
sS'YNR054C'
p904
I3
sS'YER147C'
p905
I1
sS'YDR130C'
p906
I2
sS'YIL015W'
p907
I15
sS'YPR082C'
p908
I3
sS'YBR291C'
p909
I1
sS'YOL038W'
p910
I16
sS'YLR393W'
p911
I1
sS'YAR015W'
p912
I15
sS'YOR384W'
p913
I0
sS'YCR020CA'
p914
I5
sS'YDR020C'
p915
I2
sS'YHR201C'
p916
I5
sS'YJL093C'
p917
I2
sS'YOR320C'
p918
I6
sS'YNR001C'
p919
I11
sS'YOR347C'
p920
I3
sS'YNL082W'
p921
I1
sS'YLL051C'
p922
I3
sS'YDR395W'
p923
I11
sS'YOR279C'
p924
I0
sS'YPL264C'
p925
I0
sS'YGR008C'
p926
I8
sS'YLR036C'
p927
I2
sS'YKL211C'
p928
I7
sS'YGL060W'
p929
I2
sS'YNL311C'
p930
I1
sS'YLL002W'
p931
I1
sS'YJL030W'
p932
I2
sS'YLR424W'
p933
I1
sS'YLR408C'
p934
I1
sS'YGL123W'
p935
I331
sS'YKR066C'
p936
I11
sS'YDR079W'
p937
I2
sS'YGR248W'
p938
I1
sS'YNL154C'
p939
I10
sS'YER043C'
p940
I83
sS'YBR074W'
p941
I5
sS'YGR191W'
p942
I6
sS'YOR150W'
p943
I7
sS'YKL033WA'
p944
I17
sS'YPL096CA'
p945
I2
sS'YMR106C'
p946
I1
sS'YDR055W'
p947
I7
sS'YBL061C'
p948
I4
sS'YGL203C'
p949
I5
sS'YMR140W'
p950
I2
sS'YLR095C'
p951
I2
sS'YBR034C'
p952
I12
sS'YML014W'
p953
I4
sS'YLR040C'
p954
I1
sS'YCR091W'
p955
I0
sS'YLR401C'
p956
I4
sS'YDR244W'
p957
I2
sS'YLR304C'
p958
I35
sS'YKL018W'
p959
I2
sS'YDL088C'
p960
I3
sS'YJR063W'
p961
I8
sS'YGR271W'
p962
I3
sS'YMR161W'
p963
I5
sS'YDL157C'
p964
I15
sS'YDR233C'
p965
I32
sS'YJL184W'
p966
I6
sS'YER025W'
p967
I25
sS'YDR527W'
p968
I4
sS'YCR059C'
p969
I5
sS'YML041C'
p970
I1
sS'YDL197C'
p971
I1
sS'YER078C'
p972
I2
sS'YER130C'
p973
I2
sS'YDR115W'
p974
I6
sS'YDR428C'
p975
I3
sS'YIL077C'
p976
I1
sS'YGR071C'
p977
I1
sS'YCR106W'
p978
I1
sS'YER165W'
p979
I78
sS'YML038C'
p980
I4
sS'YCL059C'
p981
I11
sS'YJL181W'
p982
I1
sS'YKR071C'
p983
I8
sS'YKR031C'
p984
I2
sS'YDR489W'
p985
I1
sS'YGR196C'
p986
I2
sS'YNL101W'
p987
I3
sS'YOR233W'
p988
I2
sS'YMR091C'
p989
I6
sS'YLR011W'
p990
I1
sS'YPR049C'
p991
I1
sS'YDL057W'
p992
I1
sS'YGR257C'
p993
I4
sS'YNL070W'
p994
I15
sS'YHR150W'
p995
I1
sS'YPL235W'
p996
I9
sS'YNL182C'
p997
I4
sS'YDL008W'
p998
I4
sS'YBL050W'
p999
I9
sS'YJR086W'
p1000
I7
sS'YGR280C'
p1001
I3
sS'YGR237C'
p1002
I2
sS'YDL159W'
p1003
I1
sS'YJR014W'
p1004
I17
sS'YJL132W'
p1005
I0
sS'YGL190C'
p1006
I5
sS'YBR110W'
p1007
I4
sS'YDR144C'
p1008
I8
sS'YPL018W'
p1009
I2
sS'YGL018C'
p1010
I1
sS'YMR075W'
p1011
I1
sS'YGR202C'
p1012
I2
sS'YKL120W'
p1013
I14
sS'YJR041C'
p1014
I3
sS'YKL175W'
p1015
I6
sS'YKR028W'
p1016
I6
sS'YFL046W'
p1017
I3
sS'YDR379W'
p1018
I1
sS'YMR179W'
p1019
I2
sS'YLR381W'
p1020
I1
sS'YNL176C'
p1021
I2
sS'YHR169W'
p1022
I4
sS'YMR286W'
p1023
I6
sS'YDL175C'
p1024
I2
sS'YCR087CA'
p1025
I7
sS'YGL009C'
p1026
I59
sS'YKL168C'
p1027
I1
sS'YDL200C'
p1028
I2
sS'YDL102W'
p1029
I2
sS'YLR237W'
p1030
I2
sS'YER092W'
p1031
I6
sS'YIL121W'
p1032
I4
sS'YLR214W'
p1033
I19
sS'YMR149W'
p1034
I13
sS'YIR010W'
p1035
I2
sS'YDR331W'
p1036
I4
sS'YNL298W'
p1037
I2
sS'YIL002WA'
p1038
I16
sS'YML056C'
p1039
I30
sS'YKR044W'
p1040
I1
sS'YJL127C'
p1041
I1
sS'YGL029W'
p1042
I5
sS'YFL004W'
p1043
I20
sS'YKL149C'
p1044
I1
sS'YNL078W'
p1045
I4
sS'YER139C'
p1046
I1
sS'YDL128W'
p1047
I8
sS'YLR433C'
p1048
I3
sS'YDR322CA'
p1049
I5
sS'YPL098C'
p1050
I9
sS'YMR153W'
p1051
I3
sS'YGR239C'
p1052
I1
sS'YIR015W'
p1053
I1
sS'YDL040C'
p1054
I12
sS'YPL096W'
p1055
I1
sS'YER032W'
p1056
I1
sS'YJR070C'
p1057
I23
sS'YPR170WB'
p1058
I29
sS'YKL185W'
p1059
I4
sS'YDL097C'
p1060
I14
sS'YPR003C'
p1061
I1
sS'YGL005C'
p1062
I3
sS'YGR262C'
p1063
I3
sS'YPL160W'
p1064
I43
sS'YIR024C'
p1065
I1
sS'YDL111C'
p1066
I6
sS'YPL245W'
p1067
I2
sS'YOL016C'
p1068
I3
sS'YDR202C'
p1069
I2
sS'YPL007C'
p1070
I2
sS'YMR029C'
p1071
I3
sS'YBR066C'
p1072
I3
sS'YLR104W'
p1073
I4
sS'YJR010CA'
p1074
I5
sS'YGR215W'
p1075
I6
sS'YPL095C'
p1076
I1
sS'YDR253C'
p1077
I0
sS'YDR507C'
p1078
I5
sS'YOR335C'
p1079
I38
sS'YML096W'
p1080
I2
sS'YHR192W'
p1081
I3
sS'YCR082W'
p1082
I17
sS'YDR300C'
p1083
I8
sS'YJL158C'
p1084
I48
sS'YGL087C'
p1085
I6
sS'YPL052W'
p1086
I1
sS'YIL003W'
p1087
I2
sS'YMR224C'
p1088
I1
sS'YBR245C'
p1089
I5
sS'YPL155C'
p1090
I1
sS'YBR163W'
p1091
I2
sS'YDR465C'
p1092
I4
sS'YLR276C'
p1093
I8
sS'YER019CA'
p1094
I37
sS'YKL079W'
p1095
I2
sS'YFR044C'
p1096
I31
sS'YBR210W'
p1097
I4
sS'YPL103C'
p1098
I1
sS'YIL103W'
p1099
I3
sS'YBR269C'
p1100
I6
sS'YFR033C'
p1101
I8
sS'YDR283C'
p1102
I3
sS'YJR096W'
p1103
I3
sS'YNL037C'
p1104
I17
sS'YLR398C'
p1105
I4
sS'YBR192W'
p1106
I2
sS'YNL188W'
p1107
I2
sS'YJR116W'
p1108
I2
sS'YKL027W'
p1109
I3
sS'YGR143W'
p1110
I2
sS'YGR112W'
p1111
I1
sS'YNR022C'
p1112
I6
sS'YGL229C'
p1113
I1
sS'YLR056W'
p1114
I44
sS'YBR125C'
p1115
I3
sS'YLR356W'
p1116
I2
sS'YBR221C'
p1117
I43
sS'YJL094C'
p1118
I2
sS'YGR074W'
p1119
I5
sS'YKL057C'
p1120
I5
sS'YGL098W'
p1121
I2
sS'YJR056C'
p1122
I1
sS'YDR097C'
p1123
I3
sS'YLR404W'
p1124
I1
sS'YJL121C'
p1125
I19
sS'YGR161C'
p1126
I2
sS'YGR186W'
p1127
I7
sS'YIR001C'
p1128
I2
sS'YOR047C'
p1129
I2
sS'YDL213C'
p1130
I6
sS'YIL132C'
p1131
I0
sS'YIL145C'
p1132
I5
sS'YKL195W'
p1133
I9
sS'YGL216W'
p1134
I2
sS'YDR317W'
p1135
I0
sS'YFL031W'
p1136
I84
sS'YDR478W'
p1137
I1
sS'YHR064C'
p1138
I62
sS'YKL015W'
p1139
I3
sS'YOR215C'
p1140
I4
sS'YKL179C'
p1141
I4
sS'YMR020W'
p1142
I1
sS'YJR089W'
p1143
I1
sS'YJL145W'
p1144
I8
sS'YDR377W'
p1145
I14
sS'YIR007W'
p1146
I1
sS'YJL201W'
p1147
I3
sS'YLR314C'
p1148
I12
sS'YLR153C'
p1149
I25
sS'YNL126W'
p1150
I2
sS'YBR132C'
p1151
I2
sS'YKL040C'
p1152
I6
sS'YPR114W'
p1153
I8
sS'YLR249W'
p1154
I374
sS'YNL004W'
p1155
I4
sS'YOR327C'
p1156
I13
sS'YHR039CA'
p1157
I71
sS'YOR378W'
p1158
I0
sS'YPL163C'
p1159
I7
sS'YDR336W'
p1160
I1
sS'YPL069C'
p1161
I2
sS'YOR265W'
p1162
I8
sS'YOL139C'
p1163
I53
sS'YIL092W'
p1164
I0
sS'YDR379CA'
p1165
I1
sS'YOR207C'
p1166
I7
sS'YKL006CA'
p1167
I5
sS'YLR321C'
p1168
I3
sS'YNL191W'
p1169
I3
sS'YOR266W'
p1170
I1
sS'YPL203W'
p1171
I3
sS'YNR055C'
p1172
I4
sS'YDR532C'
p1173
I1
sS'YHL040C'
p1174
I4
sS'YGR052W'
p1175
I0
sS'YCL012C'
p1176
I2
sS'YDR184C'
p1177
I3
sS'YNR011C'
p1178
I2
sS'YNL167C'
p1179
I1
sS'YKL210W'
p1180
I31
sS'YNL221C'
p1181
I4
sS'YLR194C'
p1182
I4
sS'YNR032W'
p1183
I2
sS'YNL284C'
p1184
I5
sS'YER146W'
p1185
I18
sS'YLR426W'
p1186
I2
sS'YGL061C'
p1187
I3
sS'YDR394W'
p1188
I12
sS'YNL173C'
p1189
I3
sS'YDR399W'
p1190
I25
sS'YAR014C'
p1191
I4
sS'YOR353C'
p1192
I2
sS'YOR087W'
p1193
I3
sS'YKL127W'
p1194
I11
sS'YHR159W'
p1195
I1
sS'YPL132W'
p1196
I2
sS'YIL114C'
p1197
I3
sS'YPL030W'
p1198
I3
sS'YPL100W'
p1199
I1
sS'YGL234W'
p1200
I28
sS'YOL055C'
p1201
I1
sS'YPR093C'
p1202
I1
sS'YOL082W'
p1203
I3
sS'YAL029C'
p1204
I5
sS'YIL070C'
p1205
I6
sS'YKL013C'
p1206
I16
sS'YOR148C'
p1207
I3
sS'YNL108C'
p1208
I5
sS'YDR421W'
p1209
I2
sS'YLR226W'
p1210
I1
sS'YHL035C'
p1211
I3
sS'YMR301C'
p1212
I3
sS'YGL171W'
p1213
I4
sS'YDR294C'
p1214
I6
sS'YFR002W'
p1215
I6
sS'YBR267W'
p1216
I4
sS'YJL217W'
p1217
I26
sS'YNL250W'
p1218
I1
sS'YMR011W'
p1219
I15
sS'YGR089W'
p1220
I2
sS'YBL029W'
p1221
I0
sS'YDR325W'
p1222
I2
sS'YDR501W'
p1223
I0
sS'YGR023W'
p1224
I0
sS'YHL028W'
p1225
I1
sS'YNL131W'
p1226
I25
sS'YMR166C'
p1227
I2
sS'YNL124W'
p1228
I1
sS'YJL073W'
p1229
I2
sS'YBL005W'
p1230
I2
sS'YOR322C'
p1231
I3
sS'YNL048W'
p1232
I3
sS'YOL125W'
p1233
I2
sS'YLR371W'
p1234
I3
sS'YDR079CA'
p1235
I3
sS'YLR130C'
p1236
I4
sS'YER022W'
p1237
I2
sS'YBR057C'
p1238
I2
sS'YNR059W'
p1239
I1
sS'YDR041W'
p1240
I4
sS'YGL047W'
p1241
I2
sS'YMR165C'
p1242
I2
sS'YOL114C'
p1243
I0
sS'YKR070W'
p1244
I6
sS'YNL059C'
p1245
I5
sS'YMR205C'
p1246
I71
sS'YIL094C'
p1247
I20
sS'YCR005C'
p1248
I7
sS'YJL185C'
p1249
I0
sS'YNL192W'
p1250
I6
sS'YER164W'
p1251
I5
sS'YBL101C'
p1252
I2
sS'YPR055W'
p1253
I2
sS'YML017W'
p1254
I7
sS'YIL016W'
p1255
I8
sS'YLR032W'
p1256
I1
sS'YOR274W'
p1257
I1
sS'YPR141C'
p1258
I1
sS'YPL011C'
p1259
I2
sS'YBL051C'
p1260
I6
sS'YGR281W'
p1261
I7
sS'YMR213W'
p1262
I1
sS'YLR089C'
p1263
I7
sS'YPL161C'
p1264
I1
sS'YMR298W'
p1265
I9
sS'YMR022W'
p1266
I7
sS'YDR488C'
p1267
I1
sS'YNL115C'
p1268
I2
sS'YJL063C'
p1269
I4
sS'YOL021C'
p1270
I6
sS'YGR256W'
p1271
I0
sS'YEL042W'
p1272
I13
sS'YLR113W'
p1273
I12
sS'YEL020C'
p1274
I1
sS'YHL013C'
p1275
I3
sS'YOL060C'
p1276
I3
sS'YML129C'
p1277
I8
sS'YGR009C'
p1278
I3
sS'YNL208W'
p1279
I34
sS'YMR185W'
p1280
I1
sS'YCL005W'
p1281
I2
sS'YGL105W'
p1282
I51
sS'YBR097W'
p1283
I1
sS'YLR014C'
p1284
I1
sS'YDL076C'
p1285
I3
sS'YOR137C'
p1286
I1
sS'YDR120C'
p1287
I8
sS'YER126C'
p1288
I11
sS'YPL060W'
p1289
I1
sS'YMR227C'
p1290
I1
sS'YPR186C'
p1291
I1
sS'YOR113W'
p1292
I1
sS'YGR194C'
p1293
I1
sS'YDR486C'
p1294
I4
sS'YJL192C'
p1295
I15
sS'YHR117W'
p1296
I6
sS'YOL130W'
p1297
I4
sS'YDR030C'
p1298
I0
sS'YOR014W'
p1299
I7
sS'YBL029CA'
p1300
I2
sS'YNL325C'
p1301
I1
sS'YPL274W'
p1302
I6
sS'YBL047C'
p1303
I11
sS'YNL293W'
p1304
I1
sS'YEL051W'
p1305
I35
sS'YLR207W'
p1306
I3
sS'YLL023C'
p1307
I4
sS'YKL203C'
p1308
I3
sS'YOL004W'
p1309
I9
sS'YOL128C'
p1310
I1
sS'YPL209C'
p1311
I0
sS'YGR014W'
p1312
I8
sS'YGL050W'
p1313
I3
sS'YPR161C'
p1314
I3
sS'YLR234W'
p1315
I1
sS'YDL036C'
p1316
I2
sS'YMR032W'
p1317
I2
sS'YMR150C'
p1318
I4
sS'YFL007W'
p1319
I7
sS'YML059C'
p1320
I3
sS'YGL219C'
p1321
I3
sS'YDL129W'
p1322
I1
sS'YDR063W'
p1323
I7
sS'YKR045C'
p1324
I1
sS'YPL099C'
p1325
I2
sS'YGR238C'
p1326
I1
sS'YIR025W'
p1327
I1
sS'YCR012W'
p1328
I759
sS'YER035W'
p1329
I2
sS'YDR201W'
p1330
I3
sS'YDR254W'
p1331
I1
sS'YPR128C'
p1332
I5
sS'YGR263C'
p1333
I1
sS'YKL156W'
p1334
I76
sS'YMR310C'
p1335
I3
sS'YHR191C'
p1336
I2
sS'YDL110C'
p1337
I3
sS'YDL098C'
p1338
I2
sS'YDR301W'
p1339
I3
sS'YJL053W'
p1340
I3
sS'YPR104C'
p1341
I2
sS'YMR069W'
p1342
I0
sS'YPL129W'
p1343
I7
sS'YPL023C'
p1344
I4
sS'YGR214W'
p1345
I174
sS'YPR002W'
p1346
I0
sS'YGL006W'
p1347
I3
sS'YPL006W'
p1348
I4
sS'YOR293W'
p1349
I266
sS'YCR083W'
p1350
I7
sS'YKR067W'
p1351
I3
sS'YLR297W'
p1352
I2
sS'YML028W'
p1353
I217
sS'YCR063W'
p1354
I1
sS'YLL001W'
p1355
I3
sS'YOR168W'
p1356
I26
sS'YDR052C'
p1357
I2
sS'YHL006C'
p1358
I1
sS'YMR043W'
p1359
I5
sS'YPR173C'
p1360
I7
sS'YCL047C'
p1361
I2
sS'YJL031C'
p1362
I3
sS'YML077W'
p1363
I5
sS'YMR068W'
p1364
I0
sS'YER068W'
p1365
I3
sS'YER013W'
p1366
I1
sS'YMR269W'
p1367
I0
sS'YMR092C'
p1368
I11
sS'YDL021W'
p1369
I1
sS'YLR143W'
p1370
I2
sS'YLR043C'
p1371
I59
sS'YJL008C'
p1372
I19
sS'YDL018C'
p1373
I4
sS'YPL176C'
p1374
I3
sS'YMR102C'
p1375
I2
sS'YPL189CA'
p1376
I3
sS'YML060W'
p1377
I2
sS'YJR062C'
p1378
I2
sS'YGR054W'
p1379
I11
sS'YBR035C'
p1380
I14
sS'YPR160W'
p1381
I3
sS'YMR191W'
p1382
I3
sS'YPL019C'
p1383
I41
sS'YBL060W'
p1384
I1
sS'YML035C'
p1385
I6
sS'YNL181W'
p1386
I4
sS'YPL254W'
p1387
I3
sS'YCL010C'
p1388
I4
sS'YNL277W'
p1389
I1
sS'YGR189C'
p1390
I16
sS'YCR090C'
p1391
I8
sS'YPR171W'
p1392
I2
sS'YKL056C'
p1393
I319
sS'YAL060W'
p1394
I13
sS'YFL025C'
p1395
I2
sS'YKL009W'
p1396
I13
sS'YIL144W'
p1397
I2
sS'YPL270W'
p1398
I4
sS'YOR124C'
p1399
I5
sS'YOR332W'
p1400
I58
sS'YKR056W'
p1401
I3
sS'YJR057W'
p1402
I4
sS'YJL126W'
p1403
I1
sS'YKL150W'
p1404
I7
sS'YIL133C'
p1405
I153
sS'YHR063C'
p1406
I9
sS'YJL200C'
p1407
I8
sS'YBR148W'
p1408
I0
sS'YGL211W'
p1409
I3
sS'YDR316W'
p1410
I1
sS'YMR093W'
p1411
I5
sS'YPL113C'
p1412
I0
sS'YCR076C'
p1413
I2
sS'YPL195W'
p1414
I6
sS'YNL107W'
p1415
I2
sS'YIR036C'
p1416
I3
sS'YNR003C'
p1417
I4
sS'YBL063W'
p1418
I1
sS'YDR479C'
p1419
I1
sS'YAL059W'
p1420
I6
sS'YKR035WA'
p1421
I5
sS'YKL194C'
p1422
I1
sS'YOR030W'
p1423
I1
sS'YKL096W'
p1424
I15
sS'YDR089W'
p1425
I3
sS'YKL014C'
p1426
I6
sS'YGL160W'
p1427
I2
sS'YMR021C'
p1428
I2
sS'YNR036C'
p1429
I15
sS'YPL216W'
p1430
I0
sS'YJR040W'
p1431
I3
sS'YPR119W'
p1432
I4
sS'YJR015W'
p1433
I9
sS'YDR378C'
p1434
I16
sS'YOL122C'
p1435
I3
sS'YGR277C'
p1436
I3
sS'YBL086C'
p1437
I1
sS'YKL176C'
p1438
I4
sS'YKR029C'
p1439
I2
sS'YDR249C'
p1440
I1
sS'YGL191W'
p1441
I11
sS'YJL104W'
p1442
I9
sS'YOR296W'
p1443
I1
sS'YFL041W'
p1444
I5
sS'YJL168C'
p1445
I3
sS'YDR145W'
p1446
I5
sS'YDL174C'
p1447
I4
sS'YER091C'
p1448
I47
sS'YJL062W'
p1449
I3
sS'YPL085W'
p1450
I7
sS'YDL103C'
p1451
I6
sS'YJR008W'
p1452
I0
sS'YDL203C'
p1453
I2
sS'YHR132WA'
p1454
I8
sS'YML031W'
p1455
I5
sS'YLR215C'
p1456
I2
sS'YML082W'
p1457
I2
sS'YLR439W'
p1458
I2
sS'YKL100C'
p1459
I6
sS'YDR216W'
p1460
I1
sS'YKL130C'
p1461
I4
sS'YOR106W'
p1462
I2
sS'YPL138C'
p1463
I2
sS'YNL021W'
p1464
I3
sS'YNL236W'
p1465
I3
sS'YOL054W'
p1466
I1
sS'YFR001W'
p1467
I5
sS'YPR152C'
p1468
I1
sS'YBR220C'
p1469
I4
sS'YIL019W'
p1470
I2
sS'YIL115C'
p1471
I7
sS'YKR013W'
p1472
I10
sS'YPR020W'
p1473
I5
sS'YPL004C'
p1474
I23
sS'YGL233W'
p1475
I4
sS'YCL027W'
p1476
I1
sS'YGR113W'
p1477
I2
sS'YLR319C'
p1478
I2
sS'YMR036C'
p1479
I1
sS'YDL109C'
p1480
I0
sS'YOL053W'
p1481
I1
sS'YHR029C'
p1482
I4
sS'YPL091W'
p1483
I12
sS'YPR164W'
p1484
I3
sS'YIL031W'
p1485
I2
sS'YDR295C'
p1486
I2
sS'YAL033W'
p1487
I4
sS'YLR203C'
p1488
I7
sS'YGR155W'
p1489
I56
sS'YGL208W'
p1490
I1
sS'YFR049W'
p1491
I5
sS'YBR284W'
p1492
I0
sS'YMR195W'
p1493
I4
sS'YDR108W'
p1494
I1
sS'YNR049C'
p1495
I2
sS'YDR192C'
p1496
I1
sS'YOL112W'
p1497
I1
sS'YKR004C'
p1498
I1
sS'YML109W'
p1499
I1
sS'YLR342W'
p1500
I41
sS'YOL083W'
p1501
I0
sS'YLR335W'
p1502
I9
sS'YNL251C'
p1503
I5
sS'YJR102C'
p1504
I1
sS'YPL089C'
p1505
I1
sS'YHR134W'
p1506
I1
sS'YOR020C'
p1507
I71
sS'YBL028C'
p1508
I13
sS'YBL004W'
p1509
I10
sS'YBR164C'
p1510
I10
sS'YIL153W'
p1511
I2
sS'YIL045W'
p1512
I0
sS'YJR088C'
p1513
I8
sS'YHR074W'
p1514
I8
sS'YBR211C'
p1515
I1
sS'YLR368W'
p1516
I1
sS'YBR268W'
p1517
I6
sS'YFR030W'
p1518
I3
sS'YKL089W'
p1519
I1
sS'YOR006C'
p1520
I2
sS'YBR131W'
p1521
I1
sS'YLR277C'
p1522
I2
sS'YAL011W'
p1523
I1
sS'YDL155W'
p1524
I4
sS'YBR244W'
p1525
I10
sS'YIL055C'
p1526
I0
sS'YPL053C'
p1527
I7
sS'YLR436C'
p1528
I3
sS'YOR028C'
p1529
I1
sS'YBR179C'
p1530
I2
sS'YDR282C'
p1531
I1
sS'YDR009W'
p1532
I0
sS'YJR097W'
p1533
I2
sS'YPR091C'
p1534
I5
sS'YLR351C'
p1535
I11
sS'YOL094C'
p1536
I3
sS'YPR031W'
p1537
I1
sS'YAL002W'
p1538
I1
sS'YJL095W'
p1539
I2
sS'YHR018C'
p1540
I5
sS'YDR408C'
p1541
I9
sS'YOR260W'
p1542
I10
sS'YBR126C'
p1543
I14
sS'YOL149W'
p1544
I4
sS'YLR257W'
p1545
I13
sS'YGL202W'
p1546
I26
sS'YPL106C'
p1547
I109
sS'YLR173W'
p1548
I1
sS'YOR046C'
p1549
I16
sS'YOR152C'
p1550
I1
sS'YNL141W'
p1551
I6
sS'YBL026W'
p1552
I14
sS'YMR220W'
p1553
I7
sS'YPR187W'
p1554
I23
sS'YKL032C'
p1555
I4
sS'YEL018W'
p1556
I2
sS'YDR121W'
p1557
I4
sS'YER125W'
p1558
I14
sS'YOR258W'
p1559
I1
sS'YDR432W'
p1560
I29
sS'YGR195W'
p1561
I5
sS'YPL211W'
p1562
I15
sS'YMR115W'
p1563
I3
sS'YDL077C'
p1564
I2
sS'YOR222W'
p1565
I3
sS'YOL061W'
p1566
I11
sS'YOR206W'
p1567
I9
sS'YGL104C'
p1568
I1
sS'YER152C'
p1569
I7
sS'YLR015W'
p1570
I1
sS'YHR116W'
p1571
I1
sS'YPL259C'
p1572
I3
sS'YOL100W'
p1573
I1
sS'YLR008C'
p1574
I8
sS'YPR066W'
p1575
I0
sS'YMR219W'
p1576
I3
sS'YBL046W'
p1577
I1
sS'YGR017W'
p1578
I6
sS'YDR031W'
p1579
I2
sS'YJR061W'
p1580
I0
sS'YOL005C'
p1581
I9
sS'YCL054W'
p1582
I6
sS'YOL107W'
p1583
I2
sS'YEL050C'
p1584
I4
sS'YHR036W'
p1585
I1
sS'YHR016C'
p1586
I3
sS'YOL072W'
p1587
I1
sS'YLR450W'
p1588
I4
sS'YNR048W'
p1589
I1
sS'YGL159W'
p1590
I2
sS'YOR155C'
p1591
I3
sS'YGR109C'
p1592
I1
sS'YGL224C'
p1593
I3
sS'YIL017C'
p1594
I1
sS'YNL268W'
p1595
I9
sS'YOR307C'
p1596
I3
sS'YLR396C'
p1597
I2
sS'YHR147C'
p1598
I5
sS'YOL123W'
p1599
I15
sS'YDR132C'
p1600
I0
sS'YML116W'
p1601
I1
sS'YNL084C'
p1602
I8
sS'YGL066W'
p1603
I1
sS'YGR156W'
p1604
I2
sS'YDR185C'
p1605
I0
sS'YOR070C'
p1606
I1
sS'YLR179C'
p1607
I32
sS'YOR386W'
p1608
I1
sS'YAR042W'
p1609
I4
sS'YOR166C'
p1610
I2
sS'YHR207C'
p1611
I2
sS'YOL086C'
p1612
I788
sS'YBR162WA'
p1613
I26
sS'YOR051C'
p1614
I9
sS'YMR313C'
p1615
I2
sS'YDR425W'
p1616
I1
sS'YNL220W'
p1617
I22
sS'YBL007C'
p1618
I13
sS'YGR060W'
p1619
I42
sS'YCL064C'
p1620
I28
sS'YML076C'
p1621
I1
sS'YER174C'
p1622
I4
sS'YML029W'
p1623
I2
sS'YOR140W'
p1624
I1
sS'YOL133W'
p1625
I7
sS'YPR073C'
p1626
I10
sS'YDR179WA'
p1627
I1
sS'YNL313C'
p1628
I5
sS'YHR094C'
p1629
I11
sS'YCR073WA'
p1630
I5
sS'YLR127C'
p1631
I1
sS'YPL042C'
p1632
I2
sS'YEL017CA'
p1633
I130
sS'YCR033W'
p1634
I3
sS'YER069W'
p1635
I2
sS'YKR039W'
p1636
I1
sS'YER012W'
p1637
I21
sS'YDR104C'
p1638
I0
sS'YDR222W'
p1639
I2
sS'YBL067C'
p1640
I5
sS'YMR208W'
p1641
I4
sS'YHR098C'
p1642
I11
sS'YDL019C'
p1643
I4
sS'YML034W'
p1644
I4
sS'YDL045WA'
p1645
I6
sS'YPR023C'
p1646
I6
sS'YLR042C'
p1647
I1
sS'YCR093W'
p1648
I9
sS'YLR144C'
p1649
I2
sS'YIL152W'
p1650
I1
sS'YPR058W'
p1651
I5
sS'YDL020C'
p1652
I6
sS'YDR168W'
p1653
I10
sS'YJR112WA'
p1654
I2
sS'YGL080W'
p1655
I4
sS'YKL096WA'
p1656
I154
sS'YOR093C'
p1657
I2
sS'YJL186W'
p1658
I9
sS'YER023W'
p1659
I35
sS'YER163C'
p1660
I4
sS'YPL268W'
p1661
I1
sS'YER132C'
p1662
I2
sS'YOR095C'
p1663
I8
sS'YPL140C'
p1664
I1
sS'YBR069C'
p1665
I18
sS'YML016C'
p1666
I2
sS'YGL040C'
p1667
I11
sS'YKR084C'
p1668
I6
sS'YDL017W'
p1669
I1
sS'YDR512C'
p1670
I4
sS'YDR113C'
p1671
I1
sS'YLL031C'
p1672
I4
sS'YOR021C'
p1673
I13
sS'YDR058C'
p1674
I1
sS'YLR088W'
p1675
I5
sS'YBR021W'
p1676
I1
sS'YNL283C'
p1677
I4
sS'YGR255C'
p1678
I4
sS'YDR525WA'
p1679
I4
sS'YNL138W'
p1680
I18
sS'YGL110C'
p1681
I1
sS'YDL051W'
p1682
I22
sS'YKL074C'
p1683
I1
sS'YBL102W'
p1684
I8
sS'YOL086WA'
p1685
I4
sS'YIL038C'
p1686
I5
sS'YGR282C'
p1687
I70
sS'YHR005CA'
p1688
I30
sS'YNL183C'
p1689
I2
sS'YCR030C'
p1690
I3
sS'YMR077C'
p1691
I1
sS'YPL183C'
p1692
I4
sS'YDR166C'
p1693
I2
sS'YKR088C'
p1694
I4
sS'YNL068C'
p1695
I2
sS'YGR204W'
p1696
I26
sS'YMR198W'
p1697
I2
sS'YJR080C'
p1698
I3
sS'YJL005W'
p1699
I4
sS'YJL050W'
p1700
I9
sS'YDL192W'
p1701
I82
sS'YOL095C'
p1702
I1
sS'YDR146C'
p1703
I3
sS'YKR063C'
p1704
I1
sS'YPL158C'
p1705
I4
sS'YDR248C'
p1706
I4
sS'YJR016C'
p1707
I52
sS'YDL202W'
p1708
I4
sS'YDL100C'
p1709
I30
sS'YFL008W'
p1710
I3
sS'YDR337W'
p1711
I4
sS'YOL006C'
p1712
I4
sS'YJL061W'
p1713
I4
sS'YOR049C'
p1714
I1
sS'YLR216C'
p1715
I30
sS'YDR217C'
p1716
I2
sS'YGR063C'
p1717
I8
sS'YDR441C'
p1718
I5
sS'YGL140C'
p1719
I5
sS'YPL094C'
p1720
I15
sS'YNL020C'
p1721
I1
sS'YOR101W'
p1722
I5
sS'YLR290C'
p1723
I2
sS'YER090W'
p1724
I12
sS'YIL123W'
p1725
I31
sS'YMR246W'
p1726
I23
sS'YMR035W'
p1727
I2
sS'YDR231C'
p1728
I3
sS'YAL044WA'
p1729
I8
sS'YJL112W'
p1730
I2
sS'YCR015C'
p1731
I1
sS'YKR011C'
p1732
I2
sS'YPR018W'
p1733
I1
sS'YDR159W'
p1734
I2
sS'YNL095C'
p1735
I1
sS'YGL185C'
p1736
I1
sS'YMR059W'
p1737
I1
sS'YDR062W'
p1738
I13
sS'YLL033W'
p1739
I1
sS'YML058W'
p1740
I38
sS'YML123C'
p1741
I91
sS'YOR251C'
p1742
I5
sS'YER034W'
p1743
I2
sS'YJR076C'
p1744
I7
sS'YHR190W'
p1745
I14
sS'YLR106C'
p1746
I9
sS'YPR013C'
p1747
I1
sS'YPR005C'
p1748
I0
sS'YKR065C'
p1749
I9
sS'YKL157W'
p1750
I11
sS'YKR002W'
p1751
I3
sS'YPL183WA'
p1752
I5
sS'YBR003W'
p1753
I3
sS'YDR200C'
p1754
I1
sS'YPL050C'
p1755
I11
sS'YBR068C'
p1756
I19
sS'YDR279W'
p1757
I2
sS'YDL113C'
p1758
I2
sS'YNL011C'
p1759
I1
sS'YDR357C'
p1760
I5
sS'YDL099W'
p1761
I3
sS'YLR201C'
p1762
I3
sS'YBR130C'
p1763
I5
sS'YJR021C'
p1764
I1
sS'YLR274W'
p1765
I3
sS'YGL126W'
p1766
I4
sS'YPR016C'
p1767
I19
sS'YBR247C'
p1768
I5
sS'YDL006W'
p1769
I3
sS'YDR463W'
p1770
I4
sS'YIL001W'
p1771
I1
sS'YAL010C'
p1772
I1
sS'YIL154C'
p1773
I2
sS'YFR032CA'
p1774
I303
sS'YIL047C'
p1775
I7
sS'YIL101C'
p1776
I0
sS'YBR165W'
p1777
I2
sS'YHR097C'
p1778
I1
sS'YDL220C'
p1779
I1
sS'YGR170W'
p1780
I2
sS'YHR075C'
p1781
I1
sS'YKL004W'
p1782
I10
sS'YOR208W'
p1783
I1
sS'YNL142W'
p1784
I0
sS'YMR250W'
p1785
I3
sS'YFR031C'
p1786
I2
sS'YMR083W'
p1787
I40
sS'YHR019C'
p1788
I45
sS'YJR129C'
p1789
I1
sS'YOR367W'
p1790
I5
sS'YDR281C'
p1791
I4
sS'YAL003W'
p1792
I322
sS'YIL149C'
p1793
I3
sS'YNL271C'
p1794
I5
sS'YGR169CA'
p1795
I2
sS'YLR200W'
p1796
I9
sS'YPL075W'
p1797
I4
sS'YLR258W'
p1798
I6
sS'YNL200C'
p1799
I1
sS'YNR015W'
p1800
I3
sS'YJR098C'
p1801
I0
sS'YBR127C'
p1802
I71
sS'YOL098C'
p1803
I8
sS'YLR350W'
p1804
I4
sS'YMR253C'
p1805
I1
sS'YFL024C'
p1806
I2
sS'YPL243W'
p1807
I8
sS'YAL061W'
p1808
I1
sS'YHR176W'
p1809
I0
sS'YGR163W'
p1810
I3
sS'YDR497C'
p1811
I16
sS'YKL022C'
p1812
I2
sS'YLR018C'
p1813
I4
sS'YKL055C'
p1814
I1
sS'YOR012W'
p1815
I1
sS'YBL092W'
p1816
I430
sS'YDR368W'
p1817
I12
sS'YBR101C'
p1818
I7
sS'YLR147C'
p1819
I3
sS'YDL164C'
p1820
I2
sS'YJR050W'
p1821
I2
sS'YLR105C'
p1822
I1
sS'YNL073W'
p1823
I3
sS'YDL211C'
p1824
I0
sS'YDR375C'
p1825
I2
sS'YHR062C'
p1826
I4
sS'YIL014W'
p1827
I3
sS'YBR149W'
p1828
I14
sS'YGL210W'
p1829
I4
sS'YPR110C'
p1830
I22
sS'YDR088C'
p1831
I1
sS'YDR320C'
p1832
I2
sS'YKL042W'
p1833
I1
sS'YLR376C'
p1834
I0
sS'YLR281C'
p1835
I0
sS'YNL158W'
p1836
I2
sS'YNL066W'
p1837
I31
sS'YPL112C'
p1838
I6
sS'YGL226CA'
p1839
I8
sS'YAL058W'
p1840
I3
sS'YDR452W'
p1841
I7
sS'YLR316C'
p1842
I1
sS'YDR319C'
p1843
I1
sS'YFR022W'
p1844
I0
sS'YKL095W'
p1845
I1
sS'YJR136C'
p1846
I1
sS'YGL225W'
p1847
I20
sS'YHR037W'
p1848
I6
sS'YJL098W'
p1849
I4
sS'YKL137W'
p1850
I5
sS'YFR017C'
p1851
I0
sS'YML108W'
p1852
I5
sS'YHR017W'
p1853
I2
sS'YOL044W'
p1854
I1
sS'YDR534C'
p1855
I0
sS'YHR148W'
p1856
I4
sS'YLR323C'
p1857
I1
sS'YOL028C'
p1858
I3
sS'YNR057C'
p1859
I0
sS'YDR186C'
p1860
I4
sS'YBR103W'
p1861
I2
sS'YBL038W'
p1862
I4
sS'YML117W'
p1863
I4
sS'YGL067W'
p1864
I4
sS'YDR424C'
p1865
I9
sS'YDL085CA'
p1866
I11
sS'YNL278W'
p1867
I1
sS'YIR003W'
p1868
I3
sS'YOR069W'
p1869
I3
sS'YGR038W'
p1870
I4
sS'YKR001C'
p1871
I15
sS'YER140W'
p1872
I2
sS'YOR363C'
p1873
I1
sS'YNL087W'
p1874
I8
sS'YFL029C'
p1875
I1
sS'YNL223W'
p1876
I0
sS'YBR227C'
p1877
I2
sS'YLR318W'
p1878
I0
sS'YBR278W'
p1879
I2
sS'YFR055W'
p1880
I7
sS'YOR067C'
p1881
I5
sS'YOR273C'
p1882
I2
sS'YDR296W'
p1883
I5
sS'YGL232W'
p1884
I8
sS'YPL107W'
p1885
I1
sS'YLR063W'
p1886
I1
sS'YGR141W'
p1887
I1
sS'YOR109W'
p1888
I6
sS'YIL030C'
p1889
I7
sS'YIL116W'
p1890
I6
sS'YMR123W'
p1891
I12
sS'YPL032C'
p1892
I6
sS'YGR094W'
p1893
I49
sS'YJR138W'
p1894
I2
sS'YLR442C'
p1895
I1
sS'YDR191W'
p1896
I0
sS'YJR103W'
p1897
I4
sS'YPR046W'
p1898
I1
sS'YHR028C'
p1899
I7
sS'YBR265W'
p1900
I5
sS'YFR048W'
p1901
I2
sS'YBR287W'
p1902
I7
sS'YNR037C'
p1903
I9
sS'YEL001C'
p1904
I19
sS'YCL024W'
p1905
I1
sS'YMR063W'
p1906
I1
sS'YMR307W'
p1907
I90
sS'YPL271W'
p1908
I19
sS'YAL032C'
p1909
I1
sS'YGL145W'
p1910
I2
sS'YGL112C'
p1911
I5
sS'YHR137W'
p1912
I5
sS'YNL160W'
p1913
I6
sS'YBR230C'
p1914
I8
sS'YNL252C'
p1915
I3
sS'YBR187W'
p1916
I13
sS'YNL046W'
p1917
I3
sS'YER133W'
p1918
I22
sS'YGL248W'
p1919
I3
sS'YKL197C'
p1920
I2
sS'YHR077C'
p1921
I3
sS'YCR003W'
p1922
I3
sS'YOR342C'
p1923
I4
sS'YLR132C'
p1924
I1
sS'YER020W'
p1925
I3
sS'YER162C'
p1926
I0
sS'YNL255C'
p1927
I39
sS'YDR511W'
p1928
I3
sS'YML011C'
p1929
I2
sS'YKL035W'
p1930
I20
sS'YNL201C'
p1931
I3
sS'YDL190C'
p1932
I4
sS'YMR210W'
p1933
I1
sS'YHR102W'
p1934
I2
sS'YHR030C'
p1935
I5
sS'YDR043C'
p1936
I1
sS'YGR076C'
p1937
I2
sS'YER075C'
p1938
I1
sS'YJL187C'
p1939
I2
sS'YEL015W'
p1940
I4
sS'YBL103C'
p1941
I1
sS'YEL040W'
p1942
I27
sS'YKR085C'
p1943
I8
sS'YPR131C'
p1944
I4
sS'YPL045W'
p1945
I2
sS'YLR418C'
p1946
I3
sS'YLR224W'
p1947
I4
sS'YOL078W'
p1948
I1
sS'YJR094WA'
p1949
I223
sS'YER059W'
p1950
I2
sS'YMR243C'
p1951
I18
sS'YGL111W'
p1952
I5
sS'YLR271W'
p1953
I1
sS'YBR289W'
p1954
I2
sS'YGR161WC'
p1955
I2
sS'YOR132W'
p1956
I4
sS'YBL025W'
p1957
I2
sS'YLR102C'
p1958
I1
sS'YOL066C'
p1959
I2
sS'YDR126W'
p1960
I0
sS'YLR388W'
p1961
I191
sS'YKL212W'
p1962
I16
sS'YJL071W'
p1963
I1
sS'YGL167C'
p1964
I11
sS'YHR115C'
p1965
I4
sS'YBL091CA'
p1966
I2
sS'YER124C'
p1967
I16
sS'YEL022W'
p1968
I6
sS'YPL188W'
p1969
I2
sS'YPR188C'
p1970
I6
sS'YIL053W'
p1971
I152
sS'YDL074C'
p1972
I6
sS'YER153C'
p1973
I2
sS'YOR374W'
p1974
I9
sS'YJL190C'
p1975
I293
sS'YKL001C'
p1976
I5
sS'YLR052W'
p1977
I4
sS'YGL107C'
p1978
I3
sS'YOR269W'
p1979
I1
sS'YOR212W'
p1980
I8
sS'YPL256C'
p1981
I5
sS'YDR520C'
p1982
I1
sS'YKL201C'
p1983
I1
sS'YLL049W'
p1984
I4
sS'YMR221C'
p1985
I5
sS'YMR037C'
p1986
I2
sS'YNL106C'
p1987
I1
sS'YDL069C'
p1988
I1
sS'YGR016W'
p1989
I0
sS'YEL053C'
p1990
I2
sS'YMR280C'
p1991
I0
sS'YDR236C'
p1992
I2
sS'YJL042W'
p1993
I4
sS'YER037W'
p1994
I2
sS'YPL037C'
p1995
I104
sS'YER057C'
p1996
I19
sS'YCR092C'
p1997
I1
sS'YMR156C'
p1998
I1
sS'YKL145W'
p1999
I19
sS'YJL111W'
p2000
I15
sS'YOR223W'
p2001
I1
sS'YIL066C'
p2002
I0
sS'YMR211W'
p2003
I1
sS'YKR010C'
p2004
I1
sS'YKR051W'
p2005
I1
sS'YGL184C'
p2006
I0
sS'YLL010C'
p2007
I3
sS'YMR058W'
p2008
I48
sS'YDR061W'
p2009
I3
sS'YCL026CB'
p2010
I0
sS'YOR290C'
p2011
I5
sS'YKL114C'
p2012
I5
sS'YER093CA'
p2013
I1
sS'YML093W'
p2014
I5
sS'YJR077C'
p2015
I17
sS'YHR197W'
p2016
I3
sS'YCR081W'
p2017
I2
sS'YBR002C'
p2018
I3
sS'YDR391C'
p2019
I2
sS'YPR106W'
p2020
I2
sS'YFR015C'
p2021
I1
sS'YDR276C'
p2022
I46
sS'YGR261C'
p2023
I6
sS'YKL154W'
p2024
I6
sS'YGR180C'
p2025
I48
sS'YDR158W'
p2026
I34
sS'YOR111W'
p2027
I1
sS'YMR116C'
p2028
I322
sS'YOL019W'
p2029
I3
sS'YML081CA'
p2030
I15
sS'YLR107W'
p2031
I2
sS'YMR073C'
p2032
I3
sS'YPL082C'
p2033
I6
sS'YDR323C'
p2034
I1
sS'YGL030W'
p2035
I228
sS'YOL136C'
p2036
I3
sS'YGR283C'
p2037
I2
sS'YDL052C'
p2038
I11
sS'YER175C'
p2039
I1
sS'YMR308C'
p2040
I15
sS'YDR381CA'
p2041
I2
sS'YMR174C'
p2042
I0
sS'YIL084C'
p2043
I1
sS'YLR429W'
p2044
I10
sS'YDL183C'
p2045
I0
sS'YMR218C'
p2046
I2
sS'YDR050C'
p2047
I481
sS'YGR061C'
p2048
I29
sS'YLL007C'
p2049
I1
sS'YNL231C'
p2050
I12
sS'YCR032W'
p2051
I1
sS'YNL312W'
p2052
I6
sS'YDR105C'
p2053
I3
sS'YLR441C'
p2054
I208
sS'YOL152W'
p2055
I2
sS'YBL066C'
p2056
I1
sS'YPL241C'
p2057
I2
sS'YGL120C'
p2058
I10
sS'YLR145W'
p2059
I1
sS'YLR045C'
p2060
I3
sS'YDL241W'
p2061
I2
sS'YLR098C'
p2062
I1
sS'YOR238W'
p2063
I2
sS'YBR207W'
p2064
I4
sS'YPR022C'
p2065
I2
sS'YLR110C'
p2066
I598
sS'YIR038C'
p2067
I4
sS'YHR099W'
p2068
I7
sS'YEL071W'
p2069
I29
sS'YKR058W'
p2070
I0
sS'YBR098W'
p2071
I0
sS'YML062C'
p2072
I1
sS'YPL233W'
p2073
I3
sS'YOR302W'
p2074
I3
sS'YOR040W'
p2075
I1
sS'YNL041C'
p2076
I3
sS'YDR369C'
p2077
I1
sS'YBR106W'
p2078
I81
sS'YOL073C'
p2079
I2
sS'YPL039W'
p2080
I1
sS'YBL093C'
p2081
I5
sS'YKL054C'
p2082
I19
sS'YLR453C'
p2083
I0
sS'YHR171W'
p2084
I0
sS'YGR162W'
p2085
I28
sS'YDL165W'
p2086
I5
sS'YPL066W'
p2087
I3
sS'YGR227W'
p2088
I3
sS'YDR258C'
p2089
I6
sS'YDR032C'
p2090
I22
sS'YJL124C'
p2091
I13
sS'YOR076C'
p2092
I2
sS'YDR179C'
p2093
I2
sS'YLR253W'
p2094
I2
sS'YKL023W'
p2095
I2
sS'YNL165W'
p2096
I1
sS'YJR051W'
p2097
I4
sS'YKL094W'
p2098
I8
sS'YNL022C'
p2099
I3
sS'YDR261C'
p2100
I6
sS'YIL131C'
p2101
I4
sS'YKL143W'
p2102
I5
sS'YBR146W'
p2103
I6
sS'YDR318W'
p2104
I1
sS'YFL034W'
p2105
I2
sS'YPL031C'
p2106
I4
sS'YHR061C'
p2107
I2
sS'YDR453C'
p2108
I1
sS'YER080W'
p2109
I9
sS'YJL164C'
p2110
I4
sS'YNL125C'
p2111
I1
sS'YNL065W'
p2112
I1
sS'YJR019C'
p2113
I1
sS'YOL026C'
p2114
I8
sS'YJR135C'
p2115
I1
sS'YDR321W'
p2116
I22
sS'YGL213C'
p2117
I4
sS'YNL178W'
p2118
I425
sS'YDR147W'
p2119
I2
sS'YHR200W'
p2120
I16
sS'YMR031C'
p2121
I4
sS'YBL080C'
p2122
I1
sS'YMR076C'
p2123
I3
sS'YGR205W'
p2124
I3
sS'YDR356W'
p2125
I2
sS'YMR136W'
p2126
I1
sS'YDR167W'
p2127
I4
sS'YJL051W'
p2128
I2
sS'YPR074C'
p2129
I72
sS'YJR017C'
p2130
I15
sS'YPL180W'
p2131
I2
sS'YHR057C'
p2132
I4
sS'YOR380W'
p2133
I0
sS'YNL027W'
p2134
I2
sS'YPL022W'
p2135
I3
sS'YDR440W'
p2136
I2
sS'YJL060W'
p2137
I4
sS'YDL101C'
p2138
I2
sS'YDL205C'
p2139
I6
sS'YKL018CA'
p2140
I1
sS'YML080W'
p2141
I2
sS'YNL099C'
p2142
I5
sS'YMR027W'
p2143
I9
sS'YLR291C'
p2144
I9
sS'YDR210W'
p2145
I17
sS'YGR048W'
p2146
I3
sS'YOR097C'
p2147
I2
sS'YDL230W'
p2148
I1
sS'YOR259C'
p2149
I15
sS'YML115C'
p2150
I6
sS'YJR113C'
p2151
I5
sS'YBR279W'
p2152
I5
sS'YGR024C'
p2153
I6
sS'YLR149C'
p2154
I0
sS'YOR281C'
p2155
I7
sS'YIL117C'
p2156
I2
sS'YAL055W'
p2157
I1
sS'YHR041C'
p2158
I5
sS'YOL052C'
p2159
I5
sS'YGR140W'
p2160
I1
sS'YDR475C'
p2161
I1
sS'YPL137C'
p2162
I4
sS'YNL116W'
p2163
I2
sS'YOL023W'
p2164
I1
sS'YGR097W'
p2165
I2
sS'YHR156C'
p2166
I0
sS'YBR151W'
p2167
I8
sS'YCL025C'
p2168
I2
sS'YBR184W'
p2169
I0
sS'YGL231C'
p2170
I9
sS'YOR241W'
p2171
I5
sS'YGR157W'
p2172
I24
sS'YNL282W'
p2173
I2
sS'YBR286W'
p2174
I52
sS'YJL127CB'
p2175
I8
sS'YGL144C'
p2176
I1
sS'YBR168W'
p2177
I1
sS'YDR297W'
p2178
I9
sS'YAL031C'
p2179
I1
sS'YML070W'
p2180
I11
sS'YBL006C'
p2181
I7
sS'YLR340W'
p2182
I373
sS'YGR108W'
p2183
I4
sS'YMR070W'
p2184
I2
sS'YBR264C'
p2185
I3
sS'YBR231C'
p2186
I1
sS'YHR162W'
p2187
I37
sS'YBR246W'
p2188
I3
sS'YPL110C'
p2189
I2
sS'YGR207C'
p2190
I8
sS'YLR275W'
p2191
I2
sS'YOR004W'
p2192
I5
sS'YOR073W'
p2193
I2
sS'YDR212W'
p2194
I23
sS'YBR166C'
p2195
I3
sS'YDR462W'
p2196
I4
sS'YKL043W'
p2197
I4
sS'YIL155C'
p2198
I2
sS'YGR171C'
p2199
I1
sS'YMR177W'
p2200
I1
sS'YDL227C'
p2201
I6
sS'YPL065W'
p2202
I1
sS'YAL048C'
p2203
I1
sS'YPL055C'
p2204
I3
sS'YPL210C'
p2205
I8
sS'YAL013W'
p2206
I1
sS'YOR298CA'
p2207
I72
sS'YGL093W'
p2208
I2
sS'YDR098C'
p2209
I11
sS'YOR371C'
p2210
I2
sS'YOR330C'
p2211
I3
sS'YGL200C'
p2212
I30
sS'YJR099W'
p2213
I3
sS'YOR044W'
p2214
I1
sS'YLR259C'
p2215
I72
sS'YNL052W'
p2216
I7
sS'YMR034C'
p2217
I0
sS'YFR036W'
p2218
I2
sS'YPL157W'
p2219
I2
sS'YKL005C'
p2220
I2
sS'YBR120C'
p2221
I2
sS'YLR085C'
p2222
I2
sS'YLR312WA'
p2223
I4
sS'YDR280W'
p2224
I4
sS'YOR179C'
p2225
I2
sS'YKL215C'
p2226
I4
sS'YGL166W'
p2227
I2
sS'YHR114W'
p2228
I3
sS'YNR034WA'
p2229
I0
sS'YHR138C'
p2230
I2
sS'YBL024W'
p2231
I12
sS'YMR241W'
p2232
I20
sS'YGR123C'
p2233
I8
sS'YGL079W'
p2234
I3
sS'YDL075W'
p2235
I287
sS'YER150W'
p2236
I1
sS'YDR127W'
p2237
I14
sS'YNL279W'
p2238
I0
sS'YCL034W'
p2239
I6
sS'YOL018C'
p2240
I2
sS'YBR288C'
p2241
I4
sS'YOR220W'
p2242
I3
sS'YJR067C'
p2243
I2
sS'YMR222C'
p2244
I3
sS'YGR197C'
p2245
I1
sS'YMR284W'
p2246
I1
sS'YOR065W'
p2247
I4
sS'YNL264C'
p2248
I4
sS'YNL155W'
p2249
I7
sS'YPR158W'
p2250
I3
sS'YOR142W'
p2251
I13
sS'YDR434W'
p2252
I5
sS'YGL106W'
p2253
I25
sS'YOL027C'
p2254
I7
sS'YOR211C'
p2255
I4
sS'YPL257W'
p2256
I1
sS'YDR033W'
p2257
I79
sS'YPL120W'
p2258
I1
sS'YPL117C'
p2259
I12
sS'YIL075C'
p2260
I18
sS'YOL145C'
p2261
I6
sS'YGL226W'
p2262
I2
sS'YHR038W'
p2263
I1
sS'YJL099W'
p2264
I1
sS'YHR149C'
p2265
I3
sS'YIL020C'
p2266
I3
sS'YLR177W'
p2267
I2
sS'YBR208C'
p2268
I3
sS'YNR074C'
p2269
I3
sS'YDR005C'
p2270
I3
sS'YHL025W'
p2271
I3
sS'YGL091C'
p2272
I2
sS'YOL045W'
p2273
I2
sS'YFR010W'
p2274
I9
sS'YHL009C'
p2275
I2
sS'YDL112W'
p2276
I5
sS'YHL021C'
p2277
I4
sS'YJL109C'
p2278
I11
sS'YLR390WA'
p2279
I22
sS'YHR205W'
p2280
I6
sS'YGR037C'
p2281
I70
sS'YIL008W'
p2282
I7
sS'YOR236W'
p2283
I4
sS'YBL039C'
p2284
I21
sS'YGR188C'
p2285
I1
sS'YER143W'
p2286
I2
sS'YNL045W'
p2287
I6
sS'YNL086W'
p2288
I1
sS'YGL064C'
p2289
I1
sS'YFR053C'
p2290
I21
sS'YGR284C'
p2291
I16
sS'YDL053C'
p2292
I7
sS'YJR005CA'
p2293
I0
sS'YPR004C'
p2294
I10
sS'YOR122C'
p2295
I79
sS'YIL071C'
p2296
I1
sS'YMR240C'
p2297
I1
sS'YIL005W'
p2298
I4
sS'YKL109W'
p2299
I2
sS'YKR062W'
p2300
I4
sS'YNL286W'
p2301
I2
sS'YMR119W'
p2302
I3
sS'YPR069C'
p2303
I41
sS'YLL006W'
p2304
I3
sS'YMR215W'
p2305
I11
sS'YDR051C'
p2306
I4
sS'YGR062C'
p2307
I1
sS'YML128C'
p2308
I1
sS'YER010C'
p2309
I3
sS'YER176W'
p2310
I2
sS'YIL049W'
p2311
I1
sS'YKR003W'
p2312
I7
sS'YDL180W'
p2313
I1
sS'YGL127C'
p2314
I3
sS'YBR030W'
p2315
I2
sS'YLR336C'
p2316
I3
sS'YDL133W'
p2317
I2
sS'YDL232W'
p2318
I13
sS'YJL019W'
p2319
I2
sS'YDL022W'
p2320
I16
sS'YPR021C'
p2321
I2
sS'YLR044C'
p2322
I1381
sS'YGR244C'
p2323
I10
sS'YOR286W'
p2324
I9
sS'YKR037C'
p2325
I2
sS'YBR065C'
p2326
I2
sS'YLR099C'
p2327
I4
sS'YOR149C'
p2328
I2
sS'YGR117C'
p2329
I4
sS'YML032C'
p2330
I3
sS'YPR178W'
p2331
I1
sS'YLR146C'
p2332
I3
sS'YDR240C'
p2333
I1
sS'YMR033W'
p2334
I4
sS'YHR135C'
p2335
I7
sS'YDR429C'
p2336
I30
sS'YHR079C'
p2337
I2
sS'YDL035C'
p2338
I3
sS'YER118C'
p2339
I5
sS'YML010W'
p2340
I12
sS'YDL193W'
p2341
I5
sS'YOR164C'
p2342
I11
sS'YER021W'
p2343
I14
sS'YBR052C'
p2344
I13
sS'YER134C'
p2345
I4
sS'YEL052W'
p2346
I4
sS'YMR162C'
p2347
I3
sS'YMR055C'
p2348
I1
sS'YEL009C'
p2349
I62
sS'YER161C'
p2350
I3
sS'YBR083W'
p2351
I3
sS'YHR103W'
p2352
I5
sS'YNR019W'
p2353
I4
sS'YOR001W'
p2354
I5
sS'YNL047C'
p2355
I1
sS'YDR498C'
p2356
I2
sS'YFL013C'
p2357
I2
sS'YOR257W'
p2358
I2
sS'YGR002C'
p2359
I2
sS'YEL041W'
p2360
I0
sS'YER129W'
p2361
I3
sS'YOL113W'
p2362
I2
sS'YDR111C'
p2363
I2
sS'YOL159CA'
p2364
I2
sS'YGR253C'
p2365
I23
sS'YDR510W'
p2366
I49
sS'YKR082W'
p2367
I5
sS'YLR228C'
p2368
I2
sS'YHR129C'
p2369
I1
sS'YLR019W'
p2370
I4
sS'YCR079W'
p2371
I1
sS'YPR045C'
p2372
I3
sS'YER058W'
p2373
I1
sS'YPR010C'
p2374
I22
sS'YPL231W'
p2375
I62
sS'YLR148W'
p2376
I2
sS'YMR137C'
p2377
I1
sS'YDR164C'
p2378
I3
sS'YKL155C'
p2379
I2
sS'YKL178C'
p2380
I0
sS'YJR069C'
p2381
I10
sS'YKL033W'
p2382
I1
sS'YLR242C'
p2383
I1
sS'YDR119W'
p2384
I8
sS'YGR145W'
p2385
I5
sS'YKR055W'
p2386
I1
sS'YFL042C'
p2387
I2
sS'YDR351W'
p2388
I2
sS'YJL107C'
p2389
I0
sS'YOL119C'
p2390
I2
sS'YMR188C'
p2391
I3
sS'YDR148C'
p2392
I8
sS'YPL181W'
p2393
I3
sS'YJR034W'
p2394
I3
sS'YLR121C'
p2395
I0
sS'YOR003W'
p2396
I0
sS'YLR210W'
p2397
I1
sS'YNL055C'
p2398
I63
sS'YDL204W'
p2399
I1
sS'YDL106C'
p2400
I1
sS'YIL042C'
p2401
I1
sS'YDR335W'
p2402
I5
sS'YKR061W'
p2403
I1
sS'YHR081W'
p2404
I4
sS'YGL116W'
p2405
I2
sS'YGR206W'
p2406
I3
sS'YMR039C'
p2407
I4
sS'YOR239W'
p2408
I8
sS'YPL014W'
p2409
I1
sS'YML081W'
p2410
I4
sS'YHR181W'
p2411
I5
sS'YNL320W'
p2412
I2
sS'YDR443C'
p2413
I2
sS'YDR211W'
p2414
I10
sS'YCR095C'
p2415
I2
sS'YMR128W'
p2416
I4
sS'YLL011W'
p2417
I5
sS'YCR077C'
p2418
I8
sS'YML130C'
p2419
I7
sS'YJL029C'
p2420
I3
sS'YER056C'
p2421
I14
sS'YGL130W'
p2422
I3
sS'YMR157C'
p2423
I3
sS'YJL033W'
p2424
I5
sS'YER036C'
p2425
I33
sS'YLR417W'
p2426
I1
sS'YNL306W'
p2427
I10
sS'YML075C'
p2428
I5
sS'YCR017C'
p2429
I9
sS'YDR237W'
p2430
I4
sS'YOR297C'
p2431
I3
sS'YDR060W'
p2432
I11
sS'YDR540C'
p2433
I0
sS'YMR080C'
p2434
I7
sS'YPR144C'
p2435
I4
sS'YGL187C'
p2436
I5
sS'YMR193W'
p2437
I2
sS'YJL023C'
p2438
I1
sS'YBR001C'
p2439
I3
sS'YNL246W'
p2440
I4
sS'YOR315W'
p2441
I7
sS'YCL033C'
p2442
I5
sS'YHR196W'
p2443
I7
sS'YLR354C'
p2444
I69
sS'YMR048W'
p2445
I1
sS'YDR277C'
p2446
I0
sS'YPR067W'
p2447
I4
sS'YML092C'
p2448
I15
sS'YNL113W'
p2449
I13
sS'YML025C'
p2450
I3
sS'YDL124W'
p2451
I19
sS'YDR257C'
p2452
I3
sS'YJR074W'
p2453
I4
sS'YNL291C'
p2454
I3
sS'YGR266W'
p2455
I3
sS'YDL148C'
p2456
I5
sS'YJL167W'
p2457
I34
sS'YPL076W'
p2458
I1
sS'YAL012W'
p2459
I39
sS'YHR163W'
p2460
I15
sS'YMR200W'
p2461
I8
sS'YKL011C'
p2462
I1
sS'YKL080W'
p2463
I32
sS'YBR167C'
p2464
I2
sS'YIL156W'
p2465
I2
sS'YNR031C'
p2466
I3
sS'YBR241C'
p2467
I1
sS'YPL196W'
p2468
I2
sS'YLR272C'
p2469
I2
sS'YOR005C'
p2470
I0
sS'YDL226C'
p2471
I13
sS'YNR017W'
p2472
I12
sS'YKL059C'
p2473
I2
sS'YFR037C'
p2474
I9
sS'YCL039W'
p2475
I1
sS'YAL049C'
p2476
I6
sS'YJL212C'
p2477
I6
sS'YOR234C'
p2478
I108
sS'YGR136W'
p2479
I11
sS'YNL097C'
p2480
I2
sS'YOR008C'
p2481
I5
sS'YOR018W'
p2482
I1
sS'YDR513W'
p2483
I14
sS'YDR461W'
p2484
I33
sS'YGL201C'
p2485
I4
sS'YGR070W'
p2486
I1
sS'YKL084W'
p2487
I4
sS'YBR121C'
p2488
I49
sS'YFL027C'
p2489
I1
sS'YDL146W'
p2490
I1
sS'YKL133C'
p2491
I0
sS'YJR052W'
p2492
I1
sS'YNL079C'
p2493
I43
sS'YMR062C'
p2494
I4
sS'YLR292C'
p2495
I8
sS'YKL020C'
p2496
I2
sS'YHR170W'
p2497
I10
sS'YJL125C'
p2498
I3
sS'YBR107C'
p2499
I1
sS'YBL090W'
p2500
I4
sS'YDR259C'
p2501
I0
sS'YPR034W'
p2502
I5
sS'YMR159C'
p2503
I0
sS'YKL068W'
p2504
I5
sS'YLR099WA'
p2505
I9
sS'YOR027W'
p2506
I40
sS'YDL166C'
p2507
I5
sS'YDR260C'
p2508
I2
sS'YKL142W'
p2509
I14
sS'YPL049C'
p2510
I5
sS'YGL212W'
p2511
I1
sS'YNL122C'
p2512
I3
sS'YER081W'
p2513
I2
sS'YIL136W'
p2514
I1
sS'YNL241C'
p2515
I22
sS'YDR169C'
p2516
I2
sS'YPR041W'
p2517
I21
sS'YKL159C'
p2518
I1
sS'YDR373W'
p2519
I8
sS'YGR233C'
p2520
I6
sS'YDR322W'
p2521
I3
sS'YNL008C'
p2522
I2
sS'YOL111C'
p2523
I5
sS'YDR004W'
p2524
I1
sS'YGL227W'
p2525
I1
sS'YOR350C'
p2526
I1
sS'YFR011C'
p2527
I4
sS'YIL074C'
p2528
I9
sS'YMR312W'
p2529
I2
sS'YIL161W'
p2530
I1
sS'YLL043W'
p2531
I5
sS'YOL144W'
p2532
I1
sS'YMR297W'
p2533
I28
sS'YLR395C'
p2534
I11
sS'YHL008C'
p2535
I2
sS'YOR096W'
p2536
I249
sS'YIL021W'
p2537
I8
sS'YCL016C'
p2538
I1
sS'YHR039C'
p2539
I8
sS'YBR274W'
p2540
I2
sS'YER131W'
p2541
I141
sS'YGL178W'
p2542
I2
sS'YNL249C'
p2543
I0
sS'YMR090W'
p2544
I1
sS'YKL088W'
p2545
I2
sS'YER142C'
p2546
I2
sS'YML119W'
p2547
I1
sS'YGR056W'
p2548
I2
sS'YGR036C'
p2549
I1
sS'YNL225C'
p2550
I1
sS'YGR121C'
p2551
I0
sS'YOR185C'
p2552
I5
sS'YLR084C'
p2553
I4
sS'YGL065C'
p2554
I3
sS'YKR087C'
p2555
I2
sS'YDR180W'
p2556
I2
sS'YOR052C'
p2557
I8
sS'YLR243W'
p2558
I3
sS'YAL001C'
p2559
I2
sS'YLR196W'
p2560
I8
sS'YPL221W'
p2561
I5
sS'YIL036W'
p2562
I3
sS'YPL047W'
p2563
I3
sS'YMR135C'
p2564
I1
sS'YPL236C'
p2565
I1
sS'YHR155W'
p2566
I2
sS'YOR045W'
p2567
I16
sS'YDR476C'
p2568
I5
sS'YEL003W'
p2569
I13
sS'YJR112W'
p2570
I2
sS'YDL231C'
p2571
I2
sS'YBR252W'
p2572
I13
sS'YBR225W'
p2573
I1
sS'YPL012W'
p2574
I9
sS'YIL110W'
p2575
I4
sS'YMR086W'
p2576
I3
sS'YIL158W'
p2577
I5
sS'YJL206C'
p2578
I0
sS'YOR264W'
p2579
I6
sS'YJR083C'
p2580
I1
sS'YOL159C'
p2581
I2
sS'YLL018CA'
p2582
I2
sS'YBR169C'
p2583
I3
sS'YNL135C'
p2584
I84
sS'YAL030W'
p2585
I8
sS'YBR263W'
p2586
I24
sS'YMR305C'
p2587
I21
sS'YBL001C'
p2588
I19
sS'YBR185C'
p2589
I2
sS'YDR019C'
p2590
I11
sS'YNL207W'
p2591
I5
sS'YOR232W'
p2592
I22
sS'YGR150C'
p2593
I1
sS'YJR133W'
p2594
I5
sS'YDR224C'
p2595
I63
sS'YLR438W'
p2596
I18
sS'YEL055C'
p2597
I9
sS'YER119C'
p2598
I2
sS'YGR058W'
p2599
I1
sS'YMR196W'
p2600
I2
sS'YBR053C'
p2601
I4
sS'YML013W'
p2602
I3
sS'YPL077C'
p2603
I0
sS'YLL058W'
p2604
I2
sS'YDR499W'
p2605
I1
sS'YBR082C'
p2606
I35
sS'YOR210W'
p2607
I26
sS'YBL034C'
p2608
I2
sS'YMR252C'
p2609
I2
sS'YJR022W'
p2610
I1
sS'YOL008W'
p2611
I2
sS'YER077C'
p2612
I1
sS'YNL224C'
p2613
I2
sS'YGL246C'
p2614
I3
sS'YCR054C'
p2615
I1
sS'YDR045C'
p2616
I5
sS'YPL232W'
p2617
I9
sS'YKR083C'
p2618
I2
sS'YMR209C'
p2619
I3
sS'YEL017W'
p2620
I4
sS'YGR252W'
p2621
I3
sS'YDL003W'
p2622
I3
sS'YER128W'
p2623
I1
sS'YJR123W'
p2624
I455
sS'YOR020WA'
p2625
I4
sS'YDL078C'
p2626
I11
sS'YGR003W'
p2627
I2
sS'YDR517W'
p2628
I7
sS'YGL043W'
p2629
I8
sS'YOR256C'
p2630
I2
sS'YPR011C'
p2631
I2
sS'YLL061W'
p2632
I3
sS'YDR110W'
p2633
I2
sS'YLR061W'
p2634
I276
sS'YKL214C'
p2635
I5
sS'YOL088C'
p2636
I6
sS'YDR419W'
p2637
I1
sS'YOR361C'
p2638
I20
sS'YLL009C'
p2639
I10
sS'YGL113W'
p2640
I1
sS'YKR095W'
p2641
I6
sS'YMR223W'
p2642
I2
sS'YPL214C'
p2643
I1
sS'YGR029W'
p2644
I4
sS'YDL199C'
p2645
I0
sS'YOR334W'
p2646
I1
sS'YLR193C'
p2647
I3
sS'YLR154C'
p2648
I7
sS'YBL023C'
p2649
I3
sS'YNR010W'
p2650
I2
sS'YML067C'
p2651
I8
sS'YGL078C'
p2652
I9
sS'YML058WA'
p2653
I1
sS'YOR329C'
p2654
I2
sS'YDR435C'
p2655
I2
sS'YJR055W'
p2656
I1
sS'YER151C'
p2657
I6
sS'YIL098C'
p2658
I2
sS'YLR005W'
p2659
I2
sS'YPR052C'
p2660
I35
sS'YLL027W'
p2661
I4
sS'YJL076W'
p2662
I10
sS'YOR382W'
p2663
I20
sS'YOR144C'
p2664
I1
sS'YOR253W'
p2665
I11
sS'YNL069C'
p2666
I322
sS'YNL267W'
p2667
I3
sS'YCL001W'
p2668
I12
sS'YGR198W'
p2669
I4
sS'YKL189W'
p2670
I1
sS'YPR048W'
p2671
I2
sS'YAR007C'
p2672
I5
sS'YLR050C'
p2673
I5
sS'YGR010W'
p2674
I2
sS'YML064C'
p2675
I2
sS'YKR091W'
p2676
I0
sS'YER055C'
p2677
I36
sS'YNL307C'
p2678
I12
sS'YCR016W'
p2679
I4
sS'YLL012W'
p2680
I2
sS'YCL052C'
p2681
I3
sS'YDR067C'
p2682
I2
sS'YNL002C'
p2683
I13
sS'YHR167W'
p2684
I1
sS'YLR218C'
p2685
I1
sS'YLR087C'
p2686
I2
sS'YJL044C'
p2687
I3
sS'YMR154C'
p2688
I1
sS'YCR094W'
p2689
I4
sS'YGL186C'
p2690
I4
sS'YDR234W'
p2691
I6
sS'YGL131C'
p2692
I1
sS'YGR218W'
p2693
I13
sS'YEL060C'
p2694
I6
sS'YKR049C'
p2695
I4
sS'YPR179C'
p2696
I1
sS'YHR195W'
p2697
I2
sS'YGR267C'
p2698
I12
sS'YDL149W'
p2699
I0
sS'YDL125C'
p2700
I29
sS'YJL149W'
p2701
I1
sS'YPR006C'
p2702
I1
sS'YMR114C'
p2703
I0
sS'YPL002C'
p2704
I2
sS'YGL022W'
p2705
I19
sS'YML079W'
p2706
I9
sS'YKL017C'
p2707
I1
sS'YMR049C'
p2708
I8
sS'YDR229W'
p2709
I2
sS'YJR075W'
p2710
I11
sS'YPR124W'
p2711
I25
sS'YLL029W'
p2712
I7
sS'YDL181W'
p2713
I3
sS'YOR344C'
p2714
I4
sS'YGR285C'
p2715
I57
sS'YPR189W'
p2716
I4
sS'YNL232W'
p2717
I5
sS'YER017C'
p2718
I5
sS'YBR022W'
p2719
I3
sS'YMR214W'
p2720
I6
sS'YBR079C'
p2721
I22
sS'YNR066C'
p2722
I0
sS'YLR438CA'
p2723
I5
sS'YER177W'
p2724
I90
sS'YDR500C'
p2725
I193
sS'YGL032C'
p2726
I8
sS'YMR176W'
p2727
I2
sS'YCL063W'
p2728
I2
sS'YER048C'
p2729
I9
sS'YEL019C'
p2730
I0
sS'YML048W'
p2731
I17
sS'YNL112W'
p2732
I17
sS'YLR027C'
p2733
I34
sS'YDR107C'
p2734
I2
sS'YDL132W'
p2735
I6
sS'YBL064C'
p2736
I8
sS'YHR104W'
p2737
I8
sS'YIL014CA'
p2738
I1
sS'YGR245C'
p2739
I6
sS'YNL009W'
p2740
I0
sS'YPL119C'
p2741
I0
sS'YLR047C'
p2742
I1
sS'YDL130WA'
p2743
I4
sS'YDL025C'
p2744
I2
sS'YGR229C'
p2745
I9
sS'YMR270C'
p2746
I3
sS'YLR293C'
p2747
I103
sS'YDL147W'
p2748
I15
sS'YBR058CA'
p2749
I12
sS'YJR053W'
p2750
I1
sS'YPR065W'
p2751
I3
sS'YBR104W'
p2752
I3
sS'YJL171C'
p2753
I9
sS'YBL091C'
p2754
I12
sS'YPR072W'
p2755
I7
sS'YOR262W'
p2756
I2
sS'YIL041W'
p2757
I23
sS'YIR002C'
p2758
I2
sS'YKL012W'
p2759
I2
sS'YNL242W'
p2760
I1
sS'YDL167C'
p2761
I5
sS'YER082C'
p2762
I5
sS'YIL137C'
p2763
I5
sS'YKL069W'
p2764
I6
sS'YNL310C'
p2765
I4
sS'YNL123W'
p2766
I7
sS'YMR003W'
p2767
I1
sS'YDR372C'
p2768
I10
sS'YBR119W'
p2769
I2
sS'YPL179W'
p2770
I5
sS'YEL056W'
p2771
I4
sS'YLR373C'
p2772
I2
sS'YKL092C'
p2773
I2
sS'YFL016C'
p2774
I5
sS'YDR451C'
p2775
I4
sS'YJL162C'
p2776
I1
sS'YKL198C'
p2777
I2
sS'YLR260W'
p2778
I2
sS'YDR085C'
p2779
I0
sS'YNR075W'
p2780
I1
sS'YNL032W'
p2781
I3
sS'YPR109W'
p2782
I2
sS'YKL152C'
p2783
I793
sS'YJR035W'
p2784
I1
sS'YDR350C'
p2785
I1
sS'YJL100W'
p2786
I1
sS'YPL126W'
p2787
I8
sS'YMR129W'
p2788
I5
sS'YKR054C'
p2789
I3
sS'YMR001C'
p2790
I4
sS'YJL006C'
p2791
I2
sS'YPL118W'
p2792
I7
sS'YBL082C'
p2793
I3
sS'YDL081C'
p2794
I264
sS'YIR034C'
p2795
I4
sS'YMR138W'
p2796
I1
sS'YDR165W'
p2797
I8
sS'YGL013C'
p2798
I3
sS'YLR191W'
p2799
I2
sS'YFL018C'
p2800
I21
sS'YJR068W'
p2801
I5
sS'YJL139C'
p2802
I1
sS'YDL178W'
p2803
I4
sS'YER095W'
p2804
I3
sS'YLR456W'
p2805
I1
sS'YHR080C'
p2806
I2
sS'YML086C'
p2807
I8
sS'YKR030W'
p2808
I3
sS'YDL207W'
p2809
I2
sS'YCL058WA'
p2810
I1
sS'YDR334W'
p2811
I3
sS'YPL015C'
p2812
I5
sS'YLR211C'
p2813
I1
sS'YLR375W'
p2814
I4
sS'YDR514C'
p2815
I1
sS'YMR181C'
p2816
I1
sS'YJL066C'
p2817
I2
sS'YHR182W'
p2818
I1
sS'YDL107W'
p2819
I1
sS'YNR029C'
p2820
I2
sS'YGR091W'
p2821
I1
sS'YBR122C'
p2822
I6
sS'YHR001W'
p2823
I5
sS'YDR477W'
p2824
I6
sS'YLR146WA'
p2825
I4
sS'YOL105C'
p2826
I0
sS'YBR199W'
p2827
I9
sS'YCR020WB'
p2828
I3
sS'YMR088C'
p2829
I3
sS'YJR148W'
p2830
I37
sS'YBR253W'
p2831
I5
sS'YFR029W'
p2832
I1
sS'YIL035C'
p2833
I6
sS'YIL111W'
p2834
I7
sS'YIL159W'
p2835
I1
sS'YBR153W'
p2836
I1
sS'YJR082C'
p2837
I4
sS'YLR346C'
p2838
I2
sS'YOL087C'
p2839
I2
sS'YJL004C'
p2840
I5
sS'YJR106W'
p2841
I1
sS'YJL084C'
p2842
I1
sS'YHR154W'
p2843
I3
sS'YOL007C'
p2844
I4
sS'YNL024CA'
p2845
I7
sS'YHR199CA'
p2846
I2
sS'YDR291W'
p2847
I2
sS'YHL014C'
p2848
I1
sS'YBR262C'
p2849
I6
sS'YMR304W'
p2850
I4
sS'YGR041W'
p2851
I4
sS'YKL010C'
p2852
I4
sS'YPL255W'
p2853
I1
sS'YMR289W'
p2854
I3
sS'YOL012C'
p2855
I15
sS'YPL168W'
p2856
I1
sS'YOR128C'
p2857
I8
sS'YAL015C'
p2858
I1
sS'YFL036W'
p2859
I3
sS'YGR177C'
p2860
I3
sS'YDL209C'
p2861
I1
sS'YKL045W'
p2862
I2
sS'YMR239C'
p2863
I2
sS'YIL157C'
p2864
I5
sS'YLR273C'
p2865
I0
sS'YIL051C'
p2866
I91
sS'YPL057C'
p2867
I4
sS'YNL074C'
p2868
I3
sS'YDR365C'
p2869
I9
sS'YPL151C'
p2870
I2
sS'YKL007W'
p2871
I9
sS'YNL169C'
p2872
I4
sS'YFR034C'
p2873
I5
sS'YGL206C'
p2874
I28
sS'YDL225W'
p2875
I4
sS'YCL038C'
p2876
I1
sS'YHR070W'
p2877
I2
sS'YDR460W'
p2878
I2
sS'YMR028W'
p2879
I1
sS'YOR377W'
p2880
I2
sS'YLR364W'
p2881
I2
sS'YKL058W'
p2882
I9
sS'YKL085W'
p2883
I10
sS'YJR124C'
p2884
I4
sS'YHL047C'
p2885
I3
sS'YOR360C'
p2886
I3
sS'YOR227W'
p2887
I2
sS'YHL018W'
p2888
I1
sS'YOL089C'
p2889
I1
sS'YDR416W'
p2890
I1
sS'YPR116W'
p2891
I1
sS'YGL129C'
p2892
I3
sS'YLL026W'
p2893
I24
sS'YHR023W'
p2894
I4
sS'YOL065C'
p2895
I1
sS'YGL251C'
p2896
I0
sS'YBL022C'
p2897
I11
sS'YGL164C'
p2898
I1
sS'YER156C'
p2899
I10
sS'YDR125C'
p2900
I0
sS'YGR013W'
p2901
I1
sS'YML103C'
p2902
I6
sS'YEL038W'
p2903
I6
sS'YCL014W'
p2904
I3
sS'YOL025W'
p2905
I1
sS'YGL172W'
p2906
I5
sS'YCL002C'
p2907
I3
sS'YGL108C'
p2908
I3
sS'YPL040C'
p2909
I1
sS'YKL151C'
p2910
I3
sS'YLR051C'
p2911
I5
sS'YDR388W'
p2912
I16
sS'YGR199W'
p2913
I3
sS'YLR289W'
p2914
I1
sS'YPL208W'
p2915
I3
sS'YLR306W'
p2916
I1
sS'YOL147C'
p2917
I3
sS'YNL280C'
p2918
I10
sS'YDR007W'
p2919
I5
sS'YOR284W'
p2920
I1
sS'YGL220W'
p2921
I11
sS'YPR089W'
p2922
I3
sS'YBR233W'
p2923
I1
sS'YPL122C'
p2924
I3
sS'YMR295C'
p2925
I19
sS'YOR328W'
p2926
I0
sS'YGR082W'
p2927
I11
sS'YMR291W'
p2928
I4
sS'YKL113C'
p2929
I5
sS'YKL104C'
p2930
I15
sS'YHR012W'
p2931
I6
sS'YDR436W'
p2932
I1
sS'YHL027W'
p2933
I3
sS'YKL116C'
p2934
I2
sS'YHL011C'
p2935
I15
sS'YLR285W'
p2936
I7
sS'YGR119C'
p2937
I6
sS'YGR035C'
p2938
I4
sS'YDR181C'
p2939
I1
sS'YOL127W'
p2940
I490
sS'YOR163W'
p2941
I7
sS'YLR326W'
p2942
I1
sS'YGL179C'
p2943
I1
sS'YAL020C'
p2944
I1
sS'YPL048W'
p2945
I31
sS'YBR275C'
p2946
I2
sS'YDR539W'
p2947
I4
sS'YCR075WA'
p2948
I4
sS'YBL013W'
p2949
I0
sS'YLR267W'
p2950
I0
sS'YMR212C'
p2951
I5
sS'YBR025C'
p2952
I63
sS'YML001W'
p2953
I13
sS'YLL028W'
p2954
I4
sS'YOR187W'
p2955
I19
sS'YER016W'
p2956
I5
sS'YBL059CA'
p2957
I6
sS'YGR286C'
p2958
I3
sS'YCR037C'
p2959
I2
sS'YHR004C'
p2960
I1
sS'YMR217W'
p2961
I46
sS'YJL103C'
p2962
I0
sS'YGL035C'
p2963
I3
sS'YER170W'
p2964
I1
sS'YOR136W'
p2965
I25
sS'YKL222C'
p2966
I0
sS'YDR494W'
p2967
I3
sS'YLR026C'
p2968
I3
sS'YKR086W'
p2969
I1
sS'YGL026C'
p2970
I23
sS'YGR246C'
p2971
I2
sS'YHR008C'
p2972
I16
sS'YMR277W'
p2973
I4
sS'YPL242C'
p2974
I3
sS'YKR036C'
p2975
I2
sS'YBR067C'
p2976
I15
sS'YPL172C'
p2977
I1
sS'YCR068W'
p2978
I2
sS'YLL004W'
p2979
I1
sS'YER049W'
p2980
I10
sS'YGL125W'
p2981
I2
sS'YML009C'
p2982
I11
sS'YOR275C'
p2983
I3
sS'YPR172W'
p2984
I5
sS'YDL033C'
p2985
I1
sS'YMR255W'
p2986
I4
sS'YGL068W'
p2987
I12
sS'YNL006W'
p2988
I4
sS'YLR028C'
p2989
I14
sS'YER136W'
p2990
I16
sS'YGL247W'
p2991
I2
sS'YER116C'
p2992
I1
sS'YML012W'
p2993
I33
sS'YOL009C'
p2994
I0
sS'YDR028C'
p2995
I7
sS'YNL010W'
p2996
I39
sS'YML050W'
p2997
I0
sS'YOR217W'
p2998
I5
sS'YBL035C'
p2999
I2
sS'YPL010W'
p3000
I21
sS'YCR057C'
p3001
I7
sS'YNL206C'
p3002
I4
sS'YHR105W'
p3003
I0
sS'YLR060W'
p3004
I28
sS'YDR516C'
p3005
I7
sS'YHR035W'
p3006
I0
sS'YER076C'
p3007
I1
sS'YIL063C'
p3008
I6
sS'YPR140W'
p3009
I2
sS'YGR251W'
p3010
I2
sS'YHR204W'
p3011
I2
sS'YNL259C'
p3012
I11
sS'YPR047W'
p3013
I1
sS'YIL122W'
p3014
I0
sS'YEL020WA'
p3015
I8
sS'YML091C'
p3016
I1
sS'YBR049C'
p3017
I6
sS'YDR044W'
p3018
I6
sS'YLR446W'
p3019
I0
sS'YKR080W'
p3020
I11
sS'YEL016C'
p3021
I2
sS'YKL078W'
p3022
I2
sS'YDL002C'
p3023
I3
sS'YDR354W'
p3024
I5
sS'YJR032W'
p3025
I4
sS'YOR037W'
p3026
I1
sS'YIR037W'
p3027
I13
sS'YDR071C'
p3028
I20
sS'YDR162C'
p3029
I1
sS'YMR134W'
p3030
I2
sS'YGL012W'
p3031
I26
sS'YER074WA'
p3032
I10
sS'YOL057W'
p3033
I5
sS'YJL101C'
p3034
I5
sS'YOR035C'
p3035
I2
sS'YBL069W'
p3036
I3
sS'YFR004W'
p3037
I12
sS'YDR353W'
p3038
I36
sS'YMR139W'
p3039
I2
sS'YHR009C'
p3040
I9
sS'YDL080C'
p3041
I1
sS'YJL049W'
p3042
I1
sS'YHR183W'
p3043
I63
sS'YDR017C'
p3044
I3
sS'YOR129C'
p3045
I1
sS'YDR213W'
p3046
I2
sS'YKL068WA'
p3047
I5
sS'YML085C'
p3048
I27
sS'YPR167C'
p3049
I1
sS'YNL053W'
p3050
I2
sS'YDL206W'
p3051
I0
sS'YHR060W'
p3052
I4
sS'YER094C'
p3053
I18
sS'YIL022W'
p3054
I7
sS'YDL104C'
p3055
I0
sS'YGR208W'
p3056
I8
sS'YNL024C'
p3057
I0
sS'YKL119C'
p3058
I3
sS'YLR212C'
p3059
I3
sS'YHR042W'
p3060
I15
sS'YCR075C'
p3061
I2
sS'YER101C'
p3062
I1
sS'YMR155W'
p3063
I1
sS'YKR079C'
p3064
I3
sS'YNL248C'
p3065
I10
sS'YDR171W'
p3066
I3
sS'YLR086W'
p3067
I3
sS'YGR105W'
p3068
I10
sS'YDR066C'
p3069
I0
sS'YLR151C'
p3070
I0
sS'YOR025W'
p3071
I4
sS'YML030W'
p3072
I4
sS'YCL051W'
p3073
I1
sS'YML065W'
p3074
I2
sS'YCR097W'
p3075
I9
sS'YER001W'
p3076
I5
sS'YKR072C'
p3077
I4
sS'YDR235W'
p3078
I2
sS'YJL047C'
p3079
I1
sS'YER038C'
p3080
I1
sS'YBL074C'
p3081
I2
sS'YDR275W'
p3082
I2
sS'YGL023C'
p3083
I3
sS'YHR049W'
p3084
I8
sS'YEL061C'
p3085
I2
sS'YBR007C'
p3086
I1
sS'YLR175W'
p3087
I35
sS'YDL126C'
p3088
I53
sS'YDR228C'
p3089
I2
sS'YHR194W'
p3090
I1
sS'YGR288W'
p3091
I0
sS'YOR295W'
p3092
I1
sS'YOR340C'
p3093
I10
sS'YMR260C'
p3094
I64
sS'YGR264C'
p3095
I28
sS'YNL110C'
p3096
I11
sS'YOR161C'
p3097
I2
sS'YML078W'
p3098
I22
sS'YLR142W'
p3099
I0
sS'YOR158W'
p3100
I3
sS'YOR151C'
p3101
I17
sS'YDL208W'
p3102
I27
sS'YIR018W'
p3103
I3
sS'YPL074W'
p3104
I1
sS'YIL129C'
p3105
I4
sS'YKL046C'
p3106
I6
sS'YBR145W'
p3107
I1
sS'YDR339C'
p3108
I6
sS'YAL014C'
p3109
I4
sS'YMR019W'
p3110
I1
sS'YFL037W'
p3111
I33
sS'YIL027C'
p3112
I8
sS'YOR075W'
p3113
I2
sS'YPL169C'
p3114
I4
sS'YHR161C'
p3115
I2
sS'YBR243C'
p3116
I5
sS'YNL199C'
p3117
I3
sS'YDL224C'
p3118
I3
sS'YLR181C'
p3119
I3
sS'YLR225C'
p3120
I3
sS'YNL134C'
p3121
I7
sS'YGL207W'
p3122
I13
sS'YGL090W'
p3123
I1
sS'YNL111C'
p3124
I12
sS'YPL058C'
p3125
I3
sS'YLR454W'
p3126
I4
sS'YGR134W'
p3127
I2
sS'YCR073C'
p3128
I0
sS'YLR270W'
p3129
I5
sS'YGL070C'
p3130
I6
sS'YOL103W'
p3131
I6
sS'YHR071W'
p3132
I7
sS'YGR169C'
p3133
I1
sS'YLR309C'
p3134
I3
sS'YPR086W'
p3135
I6
sS'YKL086W'
p3136
I0
sS'YJR125C'
p3137
I5
sS'YIL068C'
p3138
I3
sS'YMR060C'
p3139
I2
sS'YNL189W'
p3140
I18
sS'YDR153C'
p3141
I3
sS'YJL065C'
p3142
I4
sS'YPL127C'
p3143
I10
sS'YDR320CA'
p3144
I8
sS'YGR120C'
p3145
I2
sS'YJR003C'
p3146
I2
sS'YNR034W'
p3147
I1
sS'YJL170C'
p3148
I1
sS'YDL144C'
p3149
I5
sS'YFL028C'
p3150
I3
sS'YJR078W'
p3151
I0
sS'YBR105C'
p3152
I2
sS'YLR080W'
p3153
I0
sS'YLR262CA'
p3154
I41
sS'YKR020W'
p3155
I2
sS'YMR053C'
p3156
I0
sS'YDR371W'
p3157
I2
sS'YDR456W'
p3158
I4
sS'YDR308C'
p3159
I5
sS'YLR372W'
p3160
I24
sS'YNL062C'
p3161
I5
sS'YMR004W'
p3162
I3
sS'YER083C'
p3163
I7
sS'YHR050W'
p3164
I3
sS'YOR066W'
p3165
I1
sS'YDR324C'
p3166
I5
sS'YLR389C'
p3167
I5
sS'YJL072C'
p3168
I2
sS'YDR374WA'
p3169
I5
sS'YHR172W'
p3170
I2
sS'YOR112W'
p3171
I2
sS'YFL017C'
p3172
I5
sS'YDL168W'
p3173
I7
sS'YDR262W'
p3174
I5
sS'YIL134W'
p3175
I1
sS'YJL163C'
p3176
I0
sS'YNL175C'
p3177
I10
sS'YGR173W'
p3178
I8
sS'YDL240W'
p3179
I2
sS'YBR234C'
p3180
I12
sS'YOR061W'
p3181
I7
sS'YOR356W'
p3182
I5
sS'YFR013W'
p3183
I3
sS'YBR261C'
p3184
I8
sS'YAR027W'
p3185
I4
sS'YNL326C'
p3186
I2
sS'YHR013C'
p3187
I11
sS'YGR083C'
p3188
I7
sS'YOL040C'
p3189
I353
sS'YKR077W'
p3190
I0
sS'YGL045W'
p3191
I0
sS'YCL035C'
p3192
I17
sS'YHL026C'
p3193
I1
sS'YOR308C'
p3194
I1
sS'YOL146W'
p3195
I2
sS'YML121W'
p3196
I3
sS'YGL221C'
p3197
I10
sS'YHR144C'
p3198
I3
sS'YDR006C'
p3199
I2
sS'YGR034W'
p3200
I234
sS'YBR229C'
p3201
I5
sS'YMR100W'
p3202
I2
sS'YPR084W'
p3203
I1
sS'YDR190C'
p3204
I12
sS'YNL290W'
p3205
I5
sS'YBL010C'
p3206
I1
sS'YJR100C'
p3207
I2
sS'YDR139C'
p3208
I10
sS'YBR276C'
p3209
I4
sS'YJR147W'
p3210
I5
sS'YMR314W'
p3211
I19
sS'YKR017C'
p3212
I1
sS'YAL021C'
p3213
I6
sS'YNL247W'
p3214
I16
sS'YHR140W'
p3215
I0
sS'YHR128W'
p3216
I25
sS'YDR538W'
p3217
I2
sS'YOR316C'
p3218
I4
sS'YCL011C'
p3219
I12
sS'YMR184W'
p3220
I4
sS'YBR123C'
p3221
I2
sS'YIL112W'
p3222
I2
sS'YBR198C'
p3223
I4
sS'YML049C'
p3224
I3
sS'YLR241W'
p3225
I4
sS'YGR090W'
p3226
I8
sS'YDL233W'
p3227
I1
sS'YFR028C'
p3228
I5
sS'YMR204C'
p3229
I1
sS'YNR047W'
p3230
I3
sS'YOR147W'
p3231
I2
sS'YNL071W'
p3232
I34
sS'YNL132W'
p3233
I10
sS'YDR470C'
p3234
I2
sS'YBR029C'
p3235
I6
sS'YIL043C'
p3236
I28
sS'YHR153C'
p3237
I0
sS'YDR386W'
p3238
I0
sS'YOR042W'
p3239
I7
sS'YGL141W'
p3240
I1
sS'YMR124W'
p3241
I2
sS'YKR089C'
p3242
I4
sS'YBR152W'
p3243
I1
sS'YJL087C'
p3244
I2
sS'YLR347C'
p3245
I11
sS'YDR292C'
p3246
I6
sS'YPR063C'
p3247
I11
sS'YER166W'
p3248
I6
sS'YOR131C'
p3249
I3
sS'YNL137C'
p3250
I4
sS'YAL036C'
p3251
I10
sS'YCL028W'
p3252
I10
sS'YAL034WA'
p3253
I1
sS'YGL174W'
p3254
I1
sS'YHR106W'
p3255
I2
sS'YLR172C'
p3256
I17
sS'YOL164W'
p3257
I0
sS'YNL164C'
p3258
I1
sS'YHR208W'
p3259
I46
sS'YNL211C'
p3260
I2
sS'YDL065C'
p3261
I3
sS'YPR174C'
p3262
I2
sS'YGL244W'
p3263
I4
sS'YDL156W'
p3264
I1
sS'YMR167W'
p3265
I1
sS'YBL036C'
p3266
I8
sS'YOR249C'
p3267
I1
sS'YBR296C'
p3268
I0
sS'YBR080C'
p3269
I7
sS'YPR191W'
p3270
I8
sS'YJL020C'
p3271
I6
sS'YER137C'
p3272
I1
sS'YDL030W'
p3273
I1
sS'YNR033W'
p3274
I3
sS'YDR027C'
p3275
I2
sS'YJL110C'
p3276
I2
sS'YHR068W'
p3277
I30
sS'YER071C'
p3278
I3
sS'YOR271C'
p3279
I13
sS'YNL272C'
p3280
I4
sS'YLR378C'
p3281
I24
sS'YMR238W'
p3282
I5
sS'YKL218C'
p3283
I1
sS'YKR081C'
p3284
I10
sS'YEL011W'
p3285
I1
sS'YGR001C'
p3286
I10
sS'YDL001W'
p3287
I1
sS'YBL107C'
p3288
I3
sS'YLR067C'
p3289
I1
sS'YHR051W'
p3290
I9
sS'YOL013C'
p3291
I2
sS'YJL183W'
p3292
I11
sS'YLL063C'
p3293
I0
sS'YKL128C'
p3294
I9
sS'YGR250C'
p3295
I2
sS'YDR515W'
p3296
I2
sS'YPR033C'
p3297
I26
sS'YMR194CB'
p3298
I2
sS'YOR201C'
p3299
I3
sS'YOR276W'
p3300
I38
sS'YMR309C'
p3301
I22
sS'YGL250W'
p3302
I0
sS'YMR287C'
p3303
I1
sS'YMR023C'
p3304
I0
sS'YIL065C'
p3305
I4
sS'YOR089C'
p3306
I5
sS'YOL031C'
p3307
I3
sS'YHR119W'
p3308
I3
sS'YHL019C'
p3309
I1
sS'YHR076W'
p3310
I4
sS'YMR180C'
p3311
I1
sS'YGL163C'
p3312
I1
sS'YPL234C'
p3313
I26
sS'YOR336W'
p3314
I3
sS'YKL216W'
p3315
I30
sS'YML021C'
p3316
I3
sS'YGR012W'
p3317
I4
sS'YBL021C'
p3318
I2
sS'YHL004W'
p3319
I5
sS'YGR124W'
p3320
I50
sS'YJL205C'
p3321
I5
sS'YLR007W'
p3322
I2
sS'YPL252C'
p3323
I6
sS'YLR139C'
p3324
I0
sS'YML102W'
p3325
I2
sS'YPL154C'
p3326
I33
sS'YER157W'
p3327
I3
sS'YOL022C'
p3328
I5
sS'YGR270W'
p3329
I5
sS'YEL037C'
p3330
I12
sS'YDR437W'
p3331
I1
sS'YKL019W'
p3332
I5
sS'YMR054W'
p3333
I5
sS'YDR065W'
p3334
I1
sS'YBL059W'
p3335
I1
sS'YDL027C'
p3336
I1
sS'YER053C'
p3337
I2
sS'YNL305C'
p3338
I3
sS'YPL051W'
p3339
I2
sS'YJR121W'
p3340
I44
sS'YLL014W'
p3341
I13
sS'YCL050C'
p3342
I15
sS'YGR047C'
p3343
I2
sS'YCR021C'
p3344
I0
sS'YDR049W'
p3345
I2
sS'YJL148W'
p3346
I9
sS'YPL153C'
p3347
I1
sS'YER100W'
p3348
I6
sS'YFR040W'
p3349
I4
sS'YKR078W'
p3350
I1
sS'YPR079W'
p3351
I2
sS'YGL008C'
p3352
I375
sS'YJL026W'
p3353
I29
sS'YLR412W'
p3354
I3
sS'YER002W'
p3355
I4
sS'YCR018C'
p3356
I3
sS'YPL101W'
p3357
I3
sS'YDL127W'
p3358
I2
sS'YDR272W'
p3359
I7
sS'YOR301W'
p3360
I7
sS'YHR048W'
p3361
I0
sS'YOR159C'
p3362
I4
sS'YML020W'
p3363
I1
sS'YGL020C'
p3364
I5
sS'YOR160W'
p3365
I2
sS'YGL133W'
p3366
I2
sS'YOR294W'
p3367
I11
sS'YEL062W'
p3368
I1
sS'YMR261C'
p3369
I7
sS'YHR202W'
p3370
I0
sS'YDR100W'
p3371
I7
sS'YJL039C'
p3372
I6
sS'YBR006W'
p3373
I1
sS'YLR038C'
p3374
I7
sS'YPR085C'
p3375
I1
sS'YOR038C'
p3376
I1
sS'YLR187W'
p3377
I2
sS'YNL212W'
p3378
I4
sS'YDR387C'
p3379
I1
sS'YPL072W'
p3380
I1
sS'YER015W'
p3381
I0
sS'YLR353W'
p3382
I1
sS'YML006C'
p3383
I1
sS'YCL061C'
p3384
I2
sS'YDR439W'
p3385
I1
sS'YNL148C'
p3386
I1
sS'YNL253W'
p3387
I2
sS'YBR024W'
p3388
I1
sS'YDR502C'
p3389
I24
sS'YGR065C'
p3390
I2
sS'YER062C'
p3391
I12
sS'YER171W'
p3392
I3
sS'YDL047W'
p3393
I5
sS'YGR247W'
p3394
I2
sS'YDR101C'
p3395
I8
sS'YPR026W'
p3396
I1
sS'YML046W'
p3397
I3
sS'YGL124C'
p3398
I1
sS'YOR080W'
p3399
I1
sS'YLR070C'
p3400
I0
sS'YDL130W'
p3401
I247
sS'YPR166C'
p3402
I7
sS'YMR276W'
p3403
I20
sS'YPL116W'
p3404
I3
sS'YEL002C'
p3405
I16
sS'YLR165C'
p3406
I0
sS'YLR025W'
p3407
I4
sS'YCR069W'
p3408
I6
sS'YOL030W'
p3409
I13
sS'YLR049C'
p3410
I4
sS'YDR495C'
p3411
I1
sS'YKL146W'
p3412
I3
sS'YLR016C'
p3413
I2
sS'YDR341C'
p3414
I28
sS'YJL013C'
p3415
I1
sS'YJL173C'
p3416
I11
sS'YPL068C'
p3417
I1
sS'YPR169W'
p3418
I5
sS'YHR199C'
p3419
I6
sS'YDR152W'
p3420
I8
sS'YDL090C'
p3421
I2
sS'YGR101W'
p3422
I2
sS'YFL054C'
p3423
I0
sS'YMR061W'
p3424
I4
sS'YJL128C'
p3425
I4
sS'YJR002W'
p3426
I6
sS'YDL145C'
p3427
I24
sS'YBL097W'
p3428
I1
sS'YIL076W'
p3429
I13
sS'YDR309C'
p3430
I4
sS'YNL061W'
p3431
I11
sS'YKR021W'
p3432
I1
sS'YDR398W'
p3433
I5
sS'YHR209W'
p3434
I0
sS'YFL014W'
p3435
I3
sS'YDR457W'
p3436
I8
sS'YLR386W'
p3437
I3
sS'YIL135C'
p3438
I2
sS'YKL008C'
p3439
I9
sS'YKL067W'
p3440
I22
sS'YLR185W'
p3441
I246
sS'YMR005W'
p3442
I3
sS'YDR370C'
p3443
I2
sS'YPR107C'
p3444
I2
sS'YFL034CA'
p3445
I22
sS'YLR262C'
p3446
I6
sS'YFL034CB'
p3447
I2
sS'YNL121C'
p3448
I17
sS'YDR087C'
p3449
I6
sS'YMR294W'
p3450
I1
sS'YDR265W'
p3451
I1
sS'YBR081C'
p3452
I3
sS'YPL175W'
p3453
I1
sS'YNR008W'
p3454
I3
sS'YLR092W'
p3455
I0
sS'YJL166W'
p3456
I11
sS'YDR072C'
p3457
I4
sS'YER044C'
p3458
I6
sS'YMR072W'
p3459
I21
sS'YLR248W'
p3460
I7
sS'YOR283W'
p3461
I7
sS'YJL102W'
p3462
I0
sS'YKL105C'
p3463
I1
sS'YMR160W'
p3464
I1
sS'YKL075C'
p3465
I1
sS'YJR033C'
p3466
I2
sS'YDL087C'
p3467
I1
sS'YBL068W'
p3468
I7
sS'YGL011C'
p3469
I20
sS'YMR225C'
p3470
I5
sS'YDR352W'
p3471
I3
sS'YKL129C'
p3472
I3
sS'YDR163W'
p3473
I1
sS'YML051W'
p3474
I5
sS'YDR238C'
p3475
I17
sS'YOR173W'
p3476
I1
sS'YHR184W'
p3477
I0
sS'YDL105W'
p3478
I1
sS'YBR011C'
p3479
I120
sS'YPL026C'
p3480
I2
sS'YPL134C'
p3481
I1
sS'YDR243C'
p3482
I1
sS'YHR082C'
p3483
I6
sS'YGR209C'
p3484
I57
sS'YML068W'
p3485
I1
sS'YPL017C'
p3486
I0
sS'YPR168W'
p3487
I2
sS'YJL048C'
p3488
I1
sS'YPR113W'
p3489
I24
sS'YLR213C'
p3490
I0
sS'YNL050C'
p3491
I2
sS'YJR150C'
p3492
I0
sS'YNL085W'
p3493
I17
sS'YBR251W'
p3494
I3
sS'YKL041W'
p3495
I1
sS'YIL113W'
p3496
I0
sS'YMR099C'
p3497
I19
sS'YIR008C'
p3498
I3
sS'YLR240W'
p3499
I2
sS'YGR093W'
p3500
I2
sS'YPL078C'
p3501
I14
sS'YOL077C'
p3502
I15
sS'YIL040W'
p3503
I4
sS'YDR471W'
p3504
I121
sS'YGR135W'
p3505
I24
sS'YPL217C'
p3506
I6
sS'YKL144C'
p3507
I4
sS'YDL234C'
p3508
I1
sS'YHR003C'
p3509
I4
sS'YAL051W'
p3510
I2
sS'YDR036C'
p3511
I4
sS'YOR221C'
p3512
I3
sS'YAL019W'
p3513
I5
sS'YNL218W'
p3514
I1
sS'YLR449W'
p3515
I15
sS'YNL136W'
p3516
I1
sS'YKL049C'
p3517
I2
sS'YDR293C'
p3518
I9
sS'YBR155W'
p3519
I4
sS'YBL002W'
p3520
I70
sS'YNR038W'
p3521
I4
sS'YMR094W'
p3522
I1
sS'YNL080C'
p3523
I4
sS'YDR376W'
p3524
I3
sS'YCL029C'
p3525
I2
sS'YLR195C'
p3526
I7
sS'YHR152W'
p3527
I5
sS'YBR188C'
p3528
I2
sS'YMR197C'
p3529
I5
sS'YNR063W'
p3530
I0
sS'YOL067C'
p3531
I3
sS'YLR239C'
p3532
I1
sS'YGR028W'
p3533
I2
sS'YAL017W'
p3534
I3
sS'YJR024C'
p3535
I9
sS'YFL038C'
p3536
I35
sS'YBR242W'
p3537
I3
sS'YLR083C'
p3538
I11
sS'YNL029C'
p3539
I1
sS'YBR142W'
p3540
I5
sS'YOR231W'
p3541
I2
sS'YNR013C'
p3542
I5
sS'YHR166C'
p3543
I1
sS'YGR175C'
p3544
I31
sS'YJR131W'
p3545
I3
sS'YIR017C'
p3546
I1
sS'YDR338C'
p3547
I1
sS'YIL128W'
p3548
I3
sS'YNL127W'
p3549
I2
sS'YBR108W'
p3550
I1
sS'YJR137C'
p3551
I5
sS'YNR012W'
p3552
I2
sS'YGL097W'
p3553
I9
sS'YHR073W'
p3554
I4
sS'YJL151C'
p3555
I20
sS'YIL010W'
p3556
I6
sS'YKL087C'
p3557
I2
sS'YNL076W'
p3558
I2
sS'YDR367W'
p3559
I6
sS'YHR072W'
p3560
I4
sS'YGR168C'
p3561
I1
sS'YBR173C'
p3562
I8
sS'YIL064W'
p3563
I5
sS'YOR261C'
p3564
I18
sS'YHR045W'
p3565
I3
sS'YHR021C'
p3566
I205
sS'YGL253W'
p3567
I118
sS'YLR363WA'
p3568
I4
sS'YHL032C'
p3569
I2
sS'YJL010C'
p3570
I5
sS'YIL088C'
p3571
I5
sS'YGL162W'
p3572
I1
sS'YCR028CA'
p3573
I22
sS'YMR183C'
p3574
I15
sS'YOL059W'
p3575
I13
sS'YDR414C'
p3576
I2
sS'YLR138W'
p3577
I5
sS'YOR337W'
p3578
I1
sS'YMR010W'
p3579
I5
sS'YKL219W'
p3580
I2
sS'YML101C'
p3581
I5
sS'YHR118C'
p3582
I1
sS'YPR094W'
p3583
I3
sS'YNL081C'
p3584
I7
sS'YGL059W'
p3585
I1
sS'YMR074C'
p3586
I19
sS'YGL075C'
p3587
I1
sS'YKR092C'
p3588
I15
sS'YPL253C'
p3589
I1
sS'YBL020W'
p3590
I3
sS'YGR203W'
p3591
I3
sS'YHL003C'
p3592
I9
sS'YER154W'
p3593
I5
sS'YDR422C'
p3594
I3
sS'YEL036C'
p3595
I5
sS'YBR260C'
p3596
I3
sS'YHR010W'
p3597
I270
sS'YDR400W'
p3598
I4
sS'YJR104C'
p3599
I126
sS'YLL048C'
p3600
I11
sS'YFR043C'
p3601
I1
sS'YAL042W'
p3602
I18
sS'YGL041WA'
p3603
I4
sS'YAL035W'
p3604
I28
sS'YOL041C'
p3605
I8
sS'YGR153W'
p3606
I0
sS'YFR038W'
p3607
I3
sS'YBR235W'
p3608
I2
sS'YDR001C'
p3609
I6
sS'YIL162W'
p3610
I5
sS'YNR061C'
p3611
I7
sS'YGR080W'
p3612
I3
sS'YOL109W'
p3613
I211
sS'YBL011W'
p3614
I6
sS'YOR043W'
p3615
I5
sS'YBR195C'
p3616
I1
sS'YDR183W'
p3617
I2
sS'YGL222C'
p3618
I2
sS'YDR138W'
p3619
I2
sS'YGR122W'
p3620
I2
sS'YOR317W'
p3621
I9
sS'YOR091W'
p3622
I10
sS'YGR033C'
p3623
I6
sS'YAL022C'
p3624
I4
sS'YJR144W'
p3625
I7
sS'YMR315W'
p3626
I15
sS'YLR328W'
p3627
I5
sS'YBR228W'
p3628
I1
sS'YGL153W'
p3629
I2
sS'YJR039W'
p3630
I0
sS'YGR046W'
p3631
I2
sS'YDR384C'
p3632
I8
sS'YLR039C'
p3633
I2
sS'YML007W'
p3634
I5
sS'YOR305W'
p3635
I3
sS'YER063W'
p3636
I8
sS'YDR481C'
p3637
I18
sS'YER014W'
p3638
I2
sS'YMR171C'
p3639
I3
sS'YGL057C'
p3640
I1
sS'YER172C'
p3641
I3
sS'YNL180C'
p3642
I5
sS'YCR042C'
p3643
I2
sS'YNL213C'
p3644
I2
sS'YCR035C'
p3645
I4
sS'YOR244W'
p3646
I2
sS'YDL046W'
p3647
I13
sS'YDR503C'
p3648
I2
sS'YGL037C'
p3649
I22
sS'YBR058C'
p3650
I4
sS'YPL244C'
p3651
I4
sS'YDR492W'
p3652
I2
sS'YLR024C'
p3653
I2
sS'YLR071C'
p3654
I4
sS'YGR240C'
p3655
I75
sS'YPL228W'
p3656
I3
sS'YEL058W'
p3657
I9
sS'YMR259C'
p3658
I3
sS'YKL024C'
p3659
I18
sS'YMR148W'
p3660
I2
sS'YBR061C'
p3661
I4
sS'YHL007C'
p3662
I4
sS'YOR145C'
p3663
I11
sS'YNL327W'
p3664
I17
sS'YLR399C'
p3665
I11
sS'YPR025C'
p3666
I2
sS'YBR087W'
p3667
I4
sS'YLR006C'
p3668
I2
sS'YDR330W'
p3669
I2
sS'YER149C'
p3670
I3
sS'YBL037W'
p3671
I2
sS'YER114C'
p3672
I4
sS'YOR375C'
p3673
I37
sS'YPR190C'
p3674
I4
sS'YLR075W'
p3675
I496
sS'YOR306C'
p3676
I2
sS'YHR107C'
p3677
I8
sS'YAR002W'
p3678
I4
sS'YHR127W'
p3679
I4
sS'YOR153W'
p3680
I105
sS'YGL175C'
p3681
I1
sS'YMR237W'
p3682
I8
sS'YDL048C'
p3683
I0
sS'YDL064W'
p3684
I12
sS'YDL031W'
p3685
I7
sS'YMR257C'
p3686
I1
sS'YDR026C'
p3687
I2
sS'YMR272C'
p3688
I6
sS'YLR066W'
p3689
I10
sS'YBR047W'
p3690
I1
sS'YDR046C'
p3691
I8
sS'YEL029C'
p3692
I2
sS'YMR228W'
p3693
I2
sS'YMR125W'
p3694
I9
sS'YOR202W'
p3695
I7
sS'YGL245W'
p3696
I57
sS'YNL273W'
p3697
I2
sS'YCR051W'
p3698
I10
sS'YER070W'
p3699
I24
sS'YPL219W'
p3700
I1
sS'YPL262W'
p3701
I14
sS'YGR006W'
p3702
I1
sS'YMR002W'
p3703
I27
sS'YGR079W'
p3704
I3
sS'YDL119C'
p3705
I1
sS'YDR160W'
p3706
I1
sS'YPL020C'
p3707
I2
sS'YKR057W'
p3708
I154
sS'YER045C'
p3709
I0
sS'YKL039W'
p3710
I10
sS'YGL198W'
p3711
I6
sS'YNL040W'
p3712
I3
sS'YGR222W'
p3713
I3
sS'YDL086W'
p3714
I10
sS'YOL092W'
p3715
I7
sS'YLR422W'
p3716
I2
sS'YPR115W'
p3717
I3
sS'YLR093C'
p3718
I6
sS'YMR044W'
p3719
I2
sS'YDR073W'
p3720
I4
sS'YJR065C'
p3721
I17
sS'YNL042W'
p3722
I1
sS'YJR030C'
p3723
I2
sS'YNL063W'
p3724
I1
sS'YKR093W'
p3725
I15
sS'YNL308C'
p3726
I6
sS'YGR216C'
p3727
I2
sS'YOL064C'
p3728
I6
sS'YOR022C'
p3729
I1
sS'YOR198C'
p3730
I31
sS'YJL001W'
p3731
I18
sS'YHR058C'
p3732
I2
sS'YDR239C'
p3733
I2
sS'YJR049C'
p3734
I4
sS'YOR292C'
p3735
I1
sS'YGL010W'
p3736
I2
sS'YML069W'
p3737
I8
sS'YKR019C'
p3738
I1
sS'YOR324C'
p3739
I2
sS'YMR026C'
p3740
I2
sS'YHR085W'
p3741
I2
sS'YGR279C'
p3742
I48
sS'YOR172W'
p3743
I1
sS'YML114C'
p3744
I2
sS'YDR064W'
p3745
I344
sS'YMR275C'
p3746
I3
sS'YBL056W'
p3747
I15
sS'YLR324W'
p3748
I3
sS'YER052C'
p3749
I9
sS'YLR427W'
p3750
I2
sS'YNL260C'
p3751
I2
sS'YLL015W'
p3752
I3
sS'YER048WA'
p3753
I12
sS'YPL061W'
p3754
I134
sS'YKR007W'
p3755
I4
sS'YMR089C'
p3756
I7
sS'YER003C'
p3757
I21
sS'YER103W'
p3758
I1
sS'YPL115C'
p3759
I3
sS'YGR172C'
p3760
I5
sS'YDR173C'
p3761
I2
sS'YGL254W'
p3762
I1
sS'YCL057W'
p3763
I10
sS'YJL025W'
p3764
I1
sS'YLR413W'
p3765
I21
sS'YBR072W'
p3766
I4
sS'YBR005W'
p3767
I1
sS'YDL120W'
p3768
I8
sS'YMR262W'
p3769
I2
sS'YDR273W'
p3770
I0
sS'YJL165C'
p3771
I3
sS'YGR231C'
p3772
I14
sS'YEL063C'
p3773
I6
sS'YBL076C'
p3774
I54
sS'YMR113W'
p3775
I2
sS'YPR097W'
p3776
I4
sS'YGL134W'
p3777
I1
sS'YDR326C'
p3778
I5
sS'YLR128W'
p3779
I1
sS'YKR068C'
p3780
I6
sS'YOR099W'
p3781
I18
sS'YLR387C'
p3782
I5
sS'YGL021W'
p3783
I3
sS'YPR032W'
p3784
I2
sS'YDL173W'
p3785
I7
sS'YBR143C'
p3786
I34
sS'YDR086C'
p3787
I62
sS'YMR006C'
p3788
I6
sS'YOR346W'
p3789
I3
sS'YJR130C'
p3790
I1
sS'YML023C'
p3791
I1
sS'YAL016W'
p3792
I10
sS'YFL039C'
p3793
I184
sS'YPR112C'
p3794
I6
sS'YJL134W'
p3795
I3
sS'YJL161W'
p3796
I0
sS'YOR278W'
p3797
I2
sS'YDR449C'
p3798
I5
sS'YIL097W'
p3799
I0
sS'YCL049C'
p3800
I1
sS'YNR039C'
p3801
I2
sS'YLR367W'
p3802
I57
sS'YHR001WA'
p3803
I5
sS'YPL131W'
p3804
I341
sS'YLR183C'
p3805
I3
sS'YKL186C'
p3806
I6
sS'YPL064C'
p3807
I3
sS'YOR127W'
p3808
I2
sS'YNL077W'
p3809
I1
sS'YMR311C'
p3810
I5
sS'YBR109C'
p3811
I28
sS'YBR172C'
p3812
I4
sS'YDR346C'
p3813
I15
sS'YJL172W'
p3814
I15
sS'YDR151C'
p3815
I3
sS'YBL078C'
p3816
I2
sS'YHR083W'
p3817
I6
sS'YNL222W'
p3818
I3
sS'YGR095C'
p3819
I4
sS'YMR163C'
p3820
I1
sS'YPL086C'
p3821
I6
sS'YPR010CA'
p3822
I5
sS'YFR039C'
p3823
I3
sS'YKR042W'
p3824
I62
sS'YKL160W'
p3825
I21
sS'YPL092W'
p3826
I4
sS'YER007CA'
p3827
I16
sS'YPL029W'
p3828
I1
sS'YHR146W'
p3829
I11
sS'YDL091C'
p3830
I1
sS'YDL142C'
p3831
I1
sS'YJL088W'
p3832
I0
sS'YMR066W'
p3833
I1
sS'YHR198C'
p3834
I1
sS'YJR001W'
p3835
I7
sS'YGL196W'
p3836
I3
sS'YKL126W'
p3837
I7
sS'YJL129C'
p3838
I3
sS'YLR209C'
p3839
I4
sS'YHR158C'
p3840
I3
sS'YJL209W'
p3841
I2
sS'YDR264C'
p3842
I11
sS'YDR306C'
p3843
I2
sS'YKL064W'
p3844
I3
sS'YLR265C'
p3845
I1
sS'YKR022C'
p3846
I2
sS'YNL035C'
p3847
I4
sS'YLR287C'
p3848
I5
sS'YPL174C'
p3849
I1
sS'YOL052CA'
p3850
I1
sS'YJL074C'
p3851
I3
sS'YLR370C'
p3852
I8
sS'YNL177C'
p3853
I5
sS'YKL162C'
p3854
I0
sS'YOR114W'
p3855
I0
sS'YDR454C'
p3856
I37
sS'YIL009W'
p3857
I5
sS'YLR250W'
p3858
I9
sS'YAL034C'
p3859
I1
sS'YKL122C'
p3860
I7
sS'YHR011W'
p3861
I1
sS'YAL043C'
p3862
I3
sS'YOL093W'
p3863
I2
sS'YIL078W'
p3864
I61
sS'YOL042W'
p3865
I2
sS'YPL237W'
p3866
I39
sS'YBL058W'
p3867
I12
sS'YBR236C'
p3868
I4
sS'YPL125W'
p3869
I3
sS'YBR189W'
p3870
I310
sS'YCL037C'
p3871
I20
sS'YHL020C'
p3872
I3
sS'YGR081C'
p3873
I5
sS'YDR289C'
p3874
I2
sS'YOR054C'
p3875
I1
sS'YFR042W'
p3876
I3
sS'YLR305C'
p3877
I6
sS'YOR063W'
p3878
I491
sS'YOL140W'
p3879
I2
sS'YGL223C'
p3880
I2
sS'YOR036W'
p3881
I1
sS'YBL016W'
p3882
I3
sS'YML131W'
p3883
I2
sS'YGR032W'
p3884
I2
sS'YML003W'
p3885
I0
sS'YGL150C'
p3886
I5
sS'YLR170C'
p3887
I4
sS'YGR125W'
p3888
I3
sS'YNL292W'
p3889
I3
sS'YCR019W'
p3890
I1
sS'YBR194W'
p3891
I2
sS'YDR423C'
p3892
I3
sS'YOR354C'
p3893
I4
sS'YOL108C'
p3894
I1
sS'YJL092W'
p3895
I2
sS'YIL039W'
p3896
I8
sS'YMR316W'
p3897
I1
sS'YAL023C'
p3898
I23
sS'YNR009W'
p3899
I2
sS'YGR132C'
p3900
I13
sS'YIL138C'
p3901
I14
sS'YDR109C'
p3902
I1
sS'YJR127C'
p3903
I2
sS'YIL143C'
p3904
I3
sS'YGR092W'
p3905
I3
sS'YBR256C'
p3906
I8
sS'YKL002W'
p3907
I5
sS'YDR328C'
p3908
I14
sS'YLR247C'
p3909
I3
sS'YJR090C'
p3910
I3
sS'YDL235C'
p3911
I11
sS'YOR057W'
p3912
I4
sS'YIR009W'
p3913
I2
sS'YGL081W'
p3914
I0
sS'YLR345W'
p3915
I2
sS'YKL073W'
p3916
I6
sS'YGR103W'
p3917
I19
sS'YNL130C'
p3918
I10
sS'YPL141C'
p3919
I2
sS'YHR151C'
p3920
I2
sS'YDR311W'
p3921
I2
sS'YHR002W'
p3922
I1
sS'YDR472W'
p3923
I2
sS'YGR057C'
p3924
I1
sS'YLR197W'
p3925
I46
sS'YNL100W'
p3926
I3
sS'YLR078C'
p3927
I5
sS'YBR154C'
p3928
I16
sS'YBR216C'
p3929
I2
sS'YNL245C'
p3930
I1
sS'YGL143C'
p3931
I1
sS'YLR001C'
p3932
I2
sS'YLR126C'
p3933
I4
sS'YMR318C'
p3934
I22
sS'YGR181W'
p3935
I11
sS'YBR062C'
p3936
I3
sS'YHR108W'
p3937
I12
sS'YOR349W'
p3938
I0
sS'YDL067C'
p3939
I14
sS'YGL176C'
p3940
I1
sS'YBR086C'
p3941
I12
sS'YDR135C'
p3942
I10
sS'YAR003W'
p3943
I2
sS'YBL030C'
p3944
I32
sS'YMR256C'
p3945
I7
sS'YPL229W'
p3946
I0
sS'YMR236W'
p3947
I10
sS'YNL304W'
p3948
I1
sS'YER148W'
p3949
I14
sS'YGL242C'
p3950
I7
sS'YHL015W'
p3951
I301
sS'YOL011W'
p3952
I2
sS'YIL087C'
p3953
I1
sS'YOR195W'
p3954
I2
sS'YLL054C'
p3955
I1
sS'YLR443W'
p3956
I2
sS'YLL013C'
p3957
I5
sS'YNR024W'
p3958
I2
sS'YMR192W'
p3959
I2
sS'YGR078C'
p3960
I8
sS'YOR104W'
p3961
I1
sS'YML074C'
p3962
I22
sS'YOR141C'
p3963
I3
sS'YER073W'
p3964
I14
sS'YMR229C'
p3965
I23
sS'YLL038C'
p3966
I2
sS'YBR046C'
p3967
I3
sS'YOL124C'
p3968
I4
sS'YDR013W'
p3969
I3
sS'YPR125W'
p3970
I3
sS'YNR040W'
p3971
I2
sS'YOR086C'
p3972
I10
sS'YIL067C'
p3973
I1
sS'YNL051W'
p3974
I2
sS'YMR201C'
p3975
I1
sS'YOR270C'
p3976
I29
sS'YHR020W'
p3977
I36
sS'YIL009CA'
p3978
I2
sS'YGL252C'
p3979
I5
sS'YOL033W'
p3980
I1
sS'YBR201W'
p3981
I2
sS'YBR238C'
p3982
I2
sS'YDR415C'
p3983
I2
sS'YGL161C'
p3984
I6
sS'YPR051W'
p3985
I5
sS'YIR026C'
p3986
I4
sS'YER155C'
p3987
I10
sS'YBR037C'
p3988
I2
sS'YKL047W'
p3989
I2
sS'YGL058W'
p3990
I9
sS'YHL002W'
p3991
I3
sS'YPR009W'
p3992
I2
sS'YNL263C'
p3993
I7
sS'YML027W'
p3994
I2
sS'YKR099W'
p3995
I2
sS'YLR033W'
p3996
I3
sS'YPL001W'
p3997
I2
sS'YDR128W'
p3998
I2
sS'YMR274C'
p3999
I1
sS'YER051W'
p4000
I1
sS'YER004W'
p4001
I10
sS'YGL119W'
p4002
I2
sS'YER028C'
p4003
I1
sS'YMR052W'
p4004
I1
sS'YPL133C'
p4005
I1
sS'YCR072C'
p4006
I4
sS'YKR016W'
p4007
I3
sS'YMR158W'
p4008
I4
sS'YLR114C'
p4009
I4
sS'YMR203W'
p4010
I18
sS'YLL036C'
p4011
I3
sS'YCR023C'
p4012
I2
sS'YDR519W'
p4013
I11
sS'YGR278W'
p4014
I1
sS'YDL029W'
p4015
I19
sS'YKR076W'
p4016
I1
sS'YKL141W'
p4017
I8
sS'YBL057C'
p4018
I7
sS'YBR073W'
p4019
I5
sS'YLR034C'
p4020
I7
sS'YMR122WA'
p4021
I61
sS'YER019W'
p4022
I3
sS'YBR028C'
p4023
I3
sS'YEL064C'
p4024
I1
sS'YMR263W'
p4025
I3
sS'YDR270W'
p4026
I2
sS'YKR069W'
p4027
I1
sS'YDR172W'
p4028
I25
sS'YDL121C'
p4029
I11
sS'YMR299C'
p4030
I1
sS'YBR078W'
p4031
I84
sS'YDR464W'
p4032
I2
sS'YLR129W'
p4033
I6
sS'YPR057W'
p4034
I2
sS'YGR230W'
p4035
I1
sS'YPR199C'
p4036
I2
sS'YPR120C'
p4037
I2
sS'YPR062W'
p4038
I14
sS'YBL041W'
p4039
I20
sS'YMR097C'
p4040
I2
sS'YDR528W'
p4041
I2
sS'YDL058W'
p4042
I6
sS'YER173W'
p4043
I1
sS'YPR056W'
p4044
I2
sS'YLR150W'
p4045
I191
sS'YBR026C'
p4046
I5
sS'YMR172W'
p4047
I1
sS'YNL214W'
p4048
I1
sS'YCR034W'
p4049
I16
sS'YER060W'
p4050
I2
sS'YBR091C'
p4051
I4
sS'YPR180W'
p4052
I3
sS'YEL013W'
p4053
I11
sS'YDL007W'
p4054
I13
sS'YPR083W'
p4055
I1
sS'YMR244CA'
p4056
I4
sS'YGL056C'
p4057
I3
sS'YOR280C'
p4058
I3
sS'YDR480W'
p4059
I1
sS'YML004C'
p4060
I14
sS'YCR043C'
p4061
I10
sS'YOR289W'
p4062
I1
sS'YPL227C'
p4063
I7
sS'YDL010W'
p4064
I2
sS'YMR024W'
p4065
I3
sS'YDR461CA'
p4066
I4
sS'YBR059C'
p4067
I5
sS'YML019W'
p4068
I5
sS'YJL146W'
p4069
I1
sS'YDR493W'
p4070
I2
sS'YDL045C'
p4071
I2
sS'YGR241C'
p4072
I3
sS'YGL036W'
p4073
I2
sS'YPL247C'
p4074
I1
sS'YBR071W'
p4075
I3
sS'YJL207C'
p4076
I4
sS'YDL198C'
p4077
I4
sS'YDR103W'
p4078
I2
sS'YLR072W'
p4079
I2
sS'YKL167C'
p4080
I4
sS'YPL159C'
p4081
I2
sS'YOR181W'
p4082
I2
sS'YGR212W'
p4083
I0
sS'YOR125C'
p4084
I3
sS'YBL095W'
p4085
I3
sS'YDL092W'
p4086
I9
sS'YKR043C'
p4087
I15
sS'YPL084W'
p4088
I4
sS'YLR166C'
p4089
I3
sS'YMR067C'
p4090
I2
sS'YJL011C'
p4091
I4
sS'YDL143W'
p4092
I20
sS'YKL138C'
p4093
I6
sS'YBL079W'
p4094
I7
sS'YNL056W'
p4095
I5
sS'YPL093W'
p4096
I19
sS'YDR347W'
p4097
I7
sS'YFL001W'
p4098
I3
sS'YKL025C'
p4099
I3
sS'YER086W'
p4100
I14
sS'YGL197W'
p4101
I4
sS'YDR207C'
p4102
I1
sS'YKL125W'
p4103
I3
sS'YLR264W'
p4104
I125
sS'YKL170W'
p4105
I4
sS'YKR023W'
p4106
I1
sS'YNL036W'
p4107
I11
sS'YOR115C'
p4108
I3
sS'YKL038W'
p4109
I2
sS'YPR157W'
p4110
I0
sS'YJR025C'
p4111
I8
sS'YLR208W'
p4112
I16
sS'YDR267C'
p4113
I2
sS'YLR286C'
p4114
I64
sS'YNL016W'
p4115
I30
sS'YDR496C'
p4116
I8
sS'YLR384C'
p4117
I12
sS'YDR307W'
p4118
I2
sS'YPL071C'
p4119
I2
sS'YOR304CA'
p4120
I3
sS'YPR019W'
p4121
I4
sS'YML099C'
p4122
I1
sS'YOR162C'
p4123
I1
sS'YLR421C'
p4124
I13
sS'YMR145C'
p4125
I11
sS'YDR161W'
p4126
I7
sS'YLR090W'
p4127
I3
sS'YBR102C'
p4128
I2
sS'YAR002CA'
p4129
I22
sS'YJR064W'
p4130
I26
sS'YGL128C'
p4131
I0
sS'YPR036WA'
p4132
I25
sS'YOR285W'
p4133
I24
sS'YJL002C'
p4134
I18
sS'YML022W'
p4135
I27
sS'YCR065W'
p4136
I4
sS'YNL159C'
p4137
I2
sS'YER046W'
p4138
I1
sS'YJR031C'
p4139
I3
sS'YPR159W'
p4140
I10
sS'YGR223C'
p4141
I2
sS'YDR074W'
p4142
I8
sS'YPR143W'
p4143
I5
sS'YKR050W'
p4144
I2
sS'YHR059W'
p4145
I3
sS'YPR075C'
p4146
I5
sS'YBR013C'
p4147
I2
sS'YMR087W'
p4148
I1
sS'YML053C'
p4149
I2
sS'YIL146C'
p4150
I1
sS'YFL049W'
p4151
I1
sS'YKR018C'
p4152
I11
sS'YNL309W'
p4153
I1
sS'YER099C'
p4154
I4
sS'YDL150W'
p4155
I4
sS'YJR048W'
p4156
I8
sS'YHR186C'
p4157
I3
sS'YHR084W'
p4158
I3
sS'YNL038W'
p4159
I3
sS'YKL003C'
p4160
I6
sS'YAL053W'
p4161
I4
sS'YNL149C'
p4162
I21
sS'YGL095C'
p4163
I3
sS'YBR257W'
p4164
I2
sS'YJR132W'
p4165
I5
sS'YCR024CA'
p4166
I156
sS'YIL139C'
p4167
I1
sS'YCR024CB'
p4168
I71
sS'YJR119C'
p4169
I0
sS'YPR108W'
p4170
I12
sS'YOR205C'
p4171
I1
sS'YDL216C'
p4172
I0
sS'YIL079C'
p4173
I3
sS'YHR069C'
p4174
I4
sS'YDR329C'
p4175
I3
sS'YGR142W'
p4176
I3
sS'YFR025C'
p4177
I5
sS'YHR065C'
p4178
I6
sS'YOR017W'
p4179
I2
sS'YMR199W'
p4180
I3
sS'YBR137W'
p4181
I5
sS'YDR473C'
p4182
I1
sS'YKL192C'
p4183
I19
sS'YGL082W'
p4184
I4
sS'YDR310C'
p4185
I4
sS'YPL146C'
p4186
I4
sS'YKL072W'
p4187
I1
sS'YPL139C'
p4188
I1
sS'YBR217W'
p4189
I1
sS'YGR178C'
p4190
I12
sS'YPR098C'
p4191
I5
sS'YNL001W'
p4192
I4
sS'YDL236W'
p4193
I8
sS'YJL080C'
p4194
I28
sS'YIL046W'
p4195
I2
sS'YGR174C'
p4196
I2
sS'YGL142C'
p4197
I2
sS'YFR009W'
p4198
I15
sS'YKR096W'
p4199
I2
sS'YGR179C'
p4200
I1
sS'YGR102C'
p4201
I3
sS'YDR081C'
p4202
I2
sS'YJL137C'
p4203
I1
sS'YCL009C'
p4204
I35
sS'YKL065C'
p4205
I12
sS'YBR139W'
p4206
I6
sS'YBR233WA'
p4207
I3
sS'YBR115C'
p4208
I8
sS'YBR140C'
p4209
I4
sS'YDR448W'
p4210
I3
sS'YJR111C'
p4211
I1
sS'YJR046W'
p4212
I5
sS'YHR188C'
p4213
I7
sS'YDL005C'
p4214
I3
sS'YFL023W'
p4215
I2
sS'YLR360W'
p4216
I2
sS'YHR164C'
p4217
I1
sS'YKL081W'
p4218
I148
sS'YDR092W'
p4219
I9
sS'YNL139C'
p4220
I4
sS'YPL108W'
p4221
I1
sS'YDR361C'
p4222
I8
sS'YPL164C'
p4223
I1
sS'YBR171W'
p4224
I10
sS'YNL005C'
p4225
I5
sS'YNL088W'
p4226
I7
sS'YJL157C'
p4227
I5
sS'YHR206W'
p4228
I3
sS'YKL181W'
p4229
I20
sS'YOL032W'
p4230
I1
sS'YML063W'
p4231
I302
sS'YGR271CA'
p4232
I3
sS'YHR027C'
p4233
I20
sS'YPR139C'
p4234
I4
sS'YGL255W'
p4235
I1
sS'YFR007W'
p4236
I1
sS'YJL180C'
p4237
I2
sS'YKR090W'
p4238
I2
sS'YLR333C'
p4239
I156
sS'YNL026W'
p4240
I3
sS'YOL075C'
p4241
I1
sS'YHL030W'
p4242
I7
sS'YBR200W'
p4243
I3
sS'YNL262W'
p4244
I3
sS'YAR028W'
p4245
I2
sS'YBR239C'
p4246
I1
sS'YML107C'
p4247
I1
sS'YNL092W'
p4248
I0
sS'YGL077C'
p4249
I9
sS'YPL204W'
p4250
I6
sS'YNL133C'
p4251
I1
sS'YKR098C'
p4252
I1
sS'YOL069W'
p4253
I2
sS'YKL184W'
p4254
I11
sS'YDR412W'
p4255
I4
sS'YDR129C'
p4256
I19
sS'YOR352W'
p4257
I1
sS'YLR359W'
p4258
I25
sS'YNL138WA'
p4259
I3
sS'YKR101W'
p4260
I1
sS'YGR026W'
p4261
I11
sS'YNL129W'
p4262
I3
sS'YML125C'
p4263
I17
sS'YAL040C'
p4264
I2
sS'YLR251W'
p4265
I1
sS'YDR288W'
p4266
I2
sS'YBR157C'
p4267
I2
sS'YCL036W'
p4268
I2
sS'YFR041C'
p4269
I3
sS'YIL050W'
p4270
I3
sS'YOR355W'
p4271
I10
sS'YPR127W'
p4272
I3
sS'YGR086C'
p4273
I49
sS'YPL111W'
p4274
I14
sS'YOR077W'
p4275
I1
sS'YOL143C'
p4276
I25
sS'YIL006W'
p4277
I0
sS'YOL043C'
p4278
I1
sS'YNL233W'
p4279
I2
sS'YBR237W'
p4280
I1
sS'YHL023C'
p4281
I2
sS'YGL151W'
p4282
I3
sS'YBR197C'
p4283
I2
sS'YCL057CA'
p4284
I12
sS'YGR075C'
p4285
I0
sS'YJR091C'
p4286
I4
sS'YGR031W'
p4287
I2
sS'YPR105C'
p4288
I4
sS'YJL204C'
p4289
I1
sS'YOL020W'
p4290
I6
sS'YBR271W'
p4291
I2
sS'YDR003W'
p4292
I3
sS'YBL017C'
p4293
I8
sS'YNL244C'
p4294
I60
sS'YNR027W'
p4295
I2
sS'YAL024C'
p4296
I1
sS'YPL150W'
p4297
I2
sS'YJR142W'
p4298
I3
sS'YER115C'
p4299
I2
sS'YJL197W'
p4300
I3
sS'YER158C'
p4301
I0
sS'YPL199C'
p4302
I9
sS'YGL055W'
p4303
I26
sS'YPR181C'
p4304
I21
sS'YCL008C'
p4305
I2
sS'YOR245C'
p4306
I2
sS'YOL141W'
p4307
I1
sS'YML005W'
p4308
I1
sS'YNL215W'
p4309
I1
sS'YDR529C'
p4310
I13
sS'YGR044C'
p4311
I6
sS'YDL059C'
p4312
I1
sS'YOR204W'
p4313
I46
sS'YEL012W'
p4314
I2
sS'YBL040C'
p4315
I8
sS'YER123W'
p4316
I3
sS'YJL012C'
p4317
I41
sS'YPR043W'
p4318
I329
sS'YDR382W'
p4319
I329
sS'YDR524CB'
p4320
I292
sS'YDR483W'
p4321
I20
sS'YLL008W'
p4322
I7
sS'YOR219C'
p4323
I2
sS'YDR505C'
p4324
I4
sS'YKL206C'
p4325
I4
sS'YER061C'
p4326
I2
sS'YLR135W'
p4327
I1
sS'YMR300C'
p4328
I11
sS'YLR022C'
p4329
I6
sS'YGR068C'
p4330
I1
sS'YPL246C'
p4331
I8
sS'YOR246C'
p4332
I7
sS'YPL226W'
p4333
I18
sS'YLR073C'
p4334
I5
sS'YGL039W'
p4335
I7
sS'YNR004W'
p4336
I1
sS'YER183C'
p4337
I5
sS'YML018C'
p4338
I5
sS'YDL044C'
p4339
I1
sS'YHR090C'
p4340
I2
sS'YDL066W'
p4341
I26
sS'YER112W'
p4342
I7
sS'YMR319C'
p4343
I4
sS'YBR295W'
p4344
I1
sS'YBR085W'
p4345
I1
sS'YHR109W'
p4346
I0
sS'YBL031W'
p4347
I1
sS'YIL011W'
p4348
I0
sS'YEL034W'
p4349
I284
sS'YOR039W'
p4350
I8
sS'YNR050C'
p4351
I10
sS'YKR100C'
p4352
I4
sS'YKL208W'
p4353
I1
sS'YJL079C'
p4354
I3
sS'YCL017C'
p4355
I10
sS'YBR023C'
p4356
I5
sS'YOR237W'
p4357
I0
sS'YPL260W'
p4358
I6
sS'YGR004W'
p4359
I2
sS'YML110C'
p4360
I14
sS'YNR016C'
p4361
I46
sS'YOR362C'
p4362
I17
sS'YKR095WA'
p4363
I7
sS'YOL010W'
p4364
I4
sS'YLR064W'
p4365
I5
sS'YLR419W'
p4366
I3
sS'YGL048C'
p4367
I15
sS'YOR083W'
p4368
I1
sS'YOR228C'
p4369
I1
sS'YGL243W'
p4370
I1
sS'YCR053W'
p4371
I35
sS'YLL055W'
p4372
I0
sS'YER072W'
p4373
I95
sS'YKL106W'
p4374
I5
sS'YOR272W'
p4375
I7
sS'YGL019W'
p4376
I8
sS'YLR091W'
p4377
I1
sS'YNL330C'
p4378
I5
sS'YER047C'
p4379
I1
sS'YOR138C'
p4380
I2
sS'YPR029C'
p4381
I5
sS'YMR144W'
p4382
I2
sS'YCR066W'
p4383
I0
sS'YML098W'
p4384
I2
sS'YJL034W'
p4385
I58
sS'YLR420W'
p4386
I13
sS'YCR088W'
p4387
I17
sS'YOR252W'
p4388
I4
sS'YDR208W'
p4389
I4
sS'YJL058C'
p4390
I0
sS'YDR075W'
p4391
I2
sS'YHR087W'
p4392
I3
sS'YFL048C'
p4393
I10
sS'YLR117C'
p4394
I2
sS'YGR220C'
p4395
I5
sS'YBR014C'
p4396
I6
sS'YML052W'
p4397
I14
sS'YDL153C'
p4398
I4
sS'YLR299W'
p4399
I1
sS'YOR176W'
p4400
I7
sS'YHR187W'
p4401
I2
sS'YDL108W'
p4402
I2
sS'YNL172W'
p4403
I1
sS'YGR275W'
p4404
I5
sS'YMR071C'
p4405
I7
sS'YIR033W'
p4406
I5
sS'YNL254C'
p4407
I1
sS'YBL089W'
p4408
I1
sS'YDL084W'
p4409
I67
sS'YGL016W'
p4410
I5
sS'YOR209C'
p4411
I13
sS'YPL059W'
p4412
I11
sS'YMR120C'
p4413
I18
sS'YLL022C'
p4414
I3
sS'YOR143C'
p4415
I2
sS'YER029C'
p4416
I3
sS'YCL055W'
p4417
I2
sS'YLR411W'
p4418
I0
sS'YDR490C'
p4419
I2
sS'YER005W'
p4420
I3
sS'YER105C'
p4421
I7
sS'YKR075C'
p4422
I1
sS'YHR032W'
p4423
I4
sS'YPL034W'
p4424
I2
sS'YBL054W'
p4425
I2
sS'YDL028C'
p4426
I2
sS'YCR024C'
p4427
I0
sS'YER050C'
p4428
I6
sS'YCR008W'
p4429
I7
sS'YBL104C'
p4430
I2
sS'YKL165C'
p4431
I4
sS'YCR071C'
p4432
I4
sS'YLR009W'
p4433
I13
sS'YDR518W'
p4434
I5
sS'YLR119W'
p4435
I1
sS'YDR175C'
p4436
I3
sS'YLR082C'
p4437
I1
sS'YOR341W'
p4438
I24
sS'YJL062WA'
p4439
I9
sS'YOR189W'
p4440
I5
sS'YLR035C'
p4441
I1
sS'YOR154W'
p4442
I1
sS'YOR213C'
p4443
I2
sS'YDL122W'
p4444
I6
sS'YMR264W'
p4445
I9
sS'YGL136C'
p4446
I1
sS'YBR070C'
p4447
I3
sS'YLR065C'
p4448
I6
sS'YPR061C'
p4449
I0
sS'YIR035C'
p4450
I3
sS'YGR268C'
p4451
I2
sS'YGR007W'
p4452
I6
sS'YNL315C'
p4453
I4
sS'YER018C'
p4454
I2
sS'YOR299W'
p4455
I3
sS'YEL065W'
p4456
I11
sS'YJR045C'
p4457
I87
sS'YHR189W'
p4458
I1
sS'YLR385C'
p4459
I1
sS'YMR288W'
p4460
I2
sS'YIL125W'
p4461
I9
sS'YBR141C'
p4462
I1
sS'YMR008C'
p4463
I3
sS'YJL136C'
p4464
I210
sS'YKL148C'
p4465
I2
sS'YDR140W'
p4466
I4
sS'YKL112W'
p4467
I6
sS'YDL171C'
p4468
I17
sS'YKL062W'
p4469
I1
sS'YLR238W'
p4470
I1
sS'YDR080W'
p4471
I1
sS'YJR010W'
p4472
I1
sS'YBR138C'
p4473
I1
sS'YBR114W'
p4474
I1
sS'YPL250C'
p4475
I3
sS'YNR043W'
p4476
I16
sS'YHR165C'
p4477
I5
sS'YJL218W'
p4478
I1
sS'YNL075W'
p4479
I5
sS'YKL028W'
p4480
I5
sS'YLR222C'
p4481
I6
sS'YLR221C'
p4482
I7
sS'YDR093W'
p4483
I6
sS'YMR282C'
p4484
I2
sS'YIL109C'
p4485
I13
sS'YHR046C'
p4486
I2
sS'YMR016C'
p4487
I2
sS'YIR014W'
p4488
I0
sS'YPL070W'
p4489
I1
sS'YLR361C'
p4490
I2
sS'YOR085W'
p4491
I9
sS'YDR362C'
p4492
I2
sS'YFL022C'
p4493
I22
sS'YKL053CA'
p4494
I6
sS'YPL109C'
p4495
I1
sS'YOL101C'
p4496
I1
sS'YJL156C'
p4497
I2
sS'YNL240C'
p4498
I2
sS'YFL026W'
p4499
I33
sS'YKL082C'
p4500
I4
sS'YKL180W'
p4501
I248
sS'YOR094W'
p4502
I2
sS'YMR064W'
p4503
I2
sS'YKL166C'
p4504
I3
sS'YJR007W'
p4505
I23
sS'YGR211W'
p4506
I11
sS'YJL174W'
p4507
I12
sS'YDL093W'
p4508
I3
sS'YJL069C'
p4509
I4
sS'YNL185C'
p4510
I6
sS'YLR168C'
p4511
I3
sS'YLR298C'
p4512
I2
sS'YER098W'
p4513
I0
sS'YHR047C'
p4514
I12
sS'YJL118W'
p4515
I1
sS'YML095C'
p4516
I0
sS'YPR137W'
p4517
I5
sS'YJL016W'
p4518
I2
sS'YGL001C'
p4519
I11
sS'YJR058C'
p4520
I4
sS'YDR444W'
p4521
I2
sS'YDL115C'
p4522
I1
sS'YER087W'
p4523
I1
sS'YDL140C'
p4524
I19
sS'YDR359C'
p4525
I3
sS'YKL124W'
p4526
I1
sS'YDR304C'
p4527
I25
sS'YKL171W'
p4528
I1
sS'YDL219W'
p4529
I8
sS'YPL038W'
p4530
I3
sS'YDR363WA'
p4531
I21
sS'YCR086W'
p4532
I1
sS'YDR266C'
p4533
I4
sS'YGL194C'
p4534
I2
sS'YDR206W'
p4535
I4
sS'YJL056C'
p4536
I1
sS'YKL091C'
p4537
I1
sS'YOR116C'
p4538
I9
sS'YMR025W'
p4539
I1
sS'YKR024C'
p4540
I2
sS'YIL095W'
p4541
I1
sS'YDR084C'
p4542
I5
sS'YPL063W'
p4543
I11
sS'YKL140W'
p4544
I3
sS'YBR156C'
p4545
I1
sS'YML124C'
p4546
I15
sS'YIL107C'
p4547
I1
sS'YOL142W'
p4548
I6
sS'YDR287W'
p4549
I2
sS'YGL209W'
p4550
I2
sS'YNL229C'
p4551
I4
sS'YOR326W'
p4552
I14
sS'YDR405W'
p4553
I2
sS'YIL007C'
p4554
I2
sS'YCL031C'
p4555
I8
sS'YAL041W'
p4556
I3
sS'YLR459W'
p4557
I3
sS'YGL156W'
p4558
I0
sS'YGR152C'
p4559
I3
sS'YNL025C'
p4560
I1
sS'YJL090C'
p4561
I1
sS'YJR143C'
p4562
I20
sS'YBR196C'
p4563
I163
sS'YHL044W'
p4564
I0
sS'YPL144W'
p4565
I4
sS'YGR147C'
p4566
I6
sS'YDR002W'
p4567
I61
sS'YJR092W'
p4568
I5
sS'YOR311C'
p4569
I5
sS'YGR030C'
p4570
I3
sS'YAL025C'
p4571
I4
sS'YOR034C'
p4572
I2
sS'YBL014C'
p4573
I2
sS'YDL141W'
p4574
I4
sS'YGL094C'
p4575
I3
sS'YNL039W'
p4576
I2
sS'YOL158C'
p4577
I12
sS'YBR170C'
p4578
I4
sS'YGR149W'
p4579
I1
sS'YJR059W'
p4580
I5
sS'YGR130C'
p4581
I6
sS'YOR368W'
p4582
I1
sS'YDR458C'
p4583
I2
sS'YJR118C'
p4584
I5
sS'YOR016C'
p4585
I5
sS'YDL217C'
p4586
I3
sS'YGR165W'
p4587
I3
sS'YGR055W'
p4588
I15
sS'YGR128C'
p4589
I6
sS'YBR254C'
p4590
I4
sS'YDR313C'
p4591
I2
sS'YBR136W'
p4592
I1
sS'YLR245C'
p4593
I3
sS'YKL193C'
p4594
I3
sS'YNL153C'
p4595
I10
sS'YGL083W'
p4596
I1
sS'YJL083W'
p4597
I1
sS'YOR130C'
p4598
I2
sS'YBR214W'
p4599
I2
sS'YLR310C'
p4600
I4
sS'YOR060C'
p4601
I2
sS'YDL237W'
p4602
I7
sS'YJR085C'
p4603
I17
sS'YJL141C'
p4604
I2
sS'YBR249C'
p4605
I32
sS'YNL287W'
p4606
I18
sS'YFR008W'
p4607
I1
sS'YNL102W'
p4608
I4
sS'YIL023C'
p4609
I2
sS'YMR234W'
p4610
I2
sS'YBR085CA'
p4611
I14
sS'YDR137W'
p4612
I2
sS'YHR031C'
p4613
I1
sS'YKL209C'
p4614
I11
sS'YPR175W'
p4615
I1
sS'YBR084W'
p4616
I18
sS'YLR003C'
p4617
I5
sS'YGR049W'
p4618
I2
sS'YLR337C'
p4619
I2
sS'YER113C'
p4620
I3
sS'YDR397C'
p4621
I9
sS'YNR051C'
p4622
I8
sS'YGR187C'
p4623
I4
sS'YDR056C'
p4624
I8
sS'YHR122W'
p4625
I4
sS'YDR390C'
p4626
I3
sS'YER180CA'
p4627
I3
sS'YPL267W'
p4628
I2
sS'YOR229W'
p4629
I2
sS'YPR198W'
p4630
I2
sS'YEL024W'
p4631
I4
sS'YHL017W'
p4632
I4
sS'YOR383C'
p4633
I24
sS'YOR194C'
p4634
I4
sS'YOL017W'
p4635
I1
sS'YHL038C'
p4636
I1
sS'YMR190C'
p4637
I2
sS'YPL123C'
p4638
I1
sS'YGR005C'
p4639
I4
sS'YBL032W'
p4640
I13
sS'YGL049C'
p4641
I5
sS'YDR023W'
p4642
I53
sS'YHL034C'
p4643
I32
sS'YGL240W'
p4644
I1
sS'YPL135W'
p4645
I10
sS'YCR052W'
p4646
I6
sS'YNL294C'
p4647
I2
sS'YLR332W'
p4648
I4
sS'YBR272C'
p4649
I2
sS'YLR327C'
p4650
I3
sS'YDR298C'
p4651
I12
sS'YDR011W'
p4652
I17
sS'YIL061C'
p4653
I1
sS'YBL009W'
p4654
I2
sS'YDR182W'
p4655
I5
sS'YCL043C'
p4656
I65
sS'YGR127W'
p4657
I1
sS'YFR006W'
p4658
I7
sS'YHL031C'
p4659
I3
sS'YPL194W'
p4660
I1
sS'YML100W'
p4661
I8
sS'YOL151W'
p4662
I7
sS'YHR131C'
p4663
I2
sS'YKL213C'
p4664
I4
sS'YHR026W'
p4665
I24
sS'YGR104C'
p4666
I2
sS'YOL039W'
p4667
I284
sS'YOR026W'
p4668
I2
sS'YBR203W'
p4669
I0
sS'YLR437C'
p4670
I4
sS'YNL238W'
p4671
I4
sS'YOR090C'
p4672
I4
sS'YBR281C'
p4673
I3
sS'YJL198W'
p4674
I4
sS'YPL207W'
p4675
I6
sS'YDR197W'
p4676
I1
sS'YGR027C'
p4677
I374
sS'YNL289W'
p4678
I4
sS'YOL135C'
p4679
I1
sS'YOR323C'
p4680
I21
sS'YLL041C'
p4681
I3
sS'YML106W'
p4682
I39
sS'YCR009C'
p4683
I13
sS'YDR118W'
p4684
I1
sS'YOR193W'
p4685
I1
sS'YPR070W'
p4686
I2
sS'YLR118C'
p4687
I7
sS'YER006W'
p4688
I13
sS'YGL117W'
p4689
I1
sS'YER026C'
p4690
I14
sS'YLR182W'
p4691
I2
sS'YPR068C'
p4692
I0
sS'YMR105C'
p4693
I4
sS'YER182W'
p4694
I2
sS'YLL034C'
p4695
I5
sS'YOR254C'
p4696
I15
sS'YML042W'
p4697
I0
sS'YBL105C'
p4698
I4
sS'YOR196C'
p4699
I3
sS'YKR060W'
p4700
I3
sS'YDR069C'
p4701
I1
sS'YOL049W'
p4702
I10
sS'YOL110W'
p4703
I1
sS'YKR048C'
p4704
I19
sS'YER104W'
p4705
I1
sS'YGR232W'
p4706
I7
sS'YEL066W'
p4707
I5
sS'YEL046C'
p4708
I31
sS'YBL055C'
p4709
I3
sS'YPR035W'
p4710
I46
sS'YDL189W'
p4711
I4
sS'YNL314W'
p4712
I1
sS'YLL018C'
p4713
I37
sS'YDL123W'
p4714
I1
sS'YDR227W'
p4715
I1
sS'YPR060C'
p4716
I6
sS'YML008C'
p4717
I35
sS'YDL054C'
p4718
I1
sS'YHL039W'
p4719
I4
sS'YDR174W'
p4720
I19
sS'YMR265C'
p4721
I1
sS'YML073C'
p4722
I216
sS'YGL137W'
p4723
I22
sS'YOR157C'
p4724
I18
sS'YLR455W'
p4725
I4
sS'YGL101W'
p4726
I5
sS'YOR250C'
p4727
I2
sS'YCL056C'
p4728
I1
sS'YBR230WA'
p4729
I1
sS'YBR044C'
p4730
I1
sS'YOR287C'
p4731
I2
sS'YJR105W'
p4732
I45
sS'YDR383C'
p4733
I1
sS'YDL072C'
p4734
I15
sS'YER159C'
p4735
I5
sS'YEL048C'
p4736
I3
sS'YER122C'
p4737
I12
sS'YHR113W'
p4738
I5
sS'YMR189W'
p4739
I12
sS'YNL237W'
p4740
I0
sS'YDR482C'
p4741
I2
sS'YPR182W'
p4742
I7
sS'YJL196C'
p4743
I14
sS'YPL003W'
p4744
I1
sS'YDR034C'
p4745
I2
sS'YGL054C'
p4746
I22
sS'YGL025C'
p4747
I1
sS'YNL230C'
p4748
I1
sS'YLR021W'
p4749
I4
sS'YOL126C'
p4750
I5
sS'YLR058C'
p4751
I58
sS'YOR247W'
p4752
I22
sS'YEL006W'
p4753
I3
sS'YGR243W'
p4754
I0
sS'YDR506C'
p4755
I1
sS'YGL038C'
p4756
I3
sS'YLR074C'
p4757
I7
sS'YNL216W'
p4758
I5
sS'YKL207W'
p4759
I15
sS'YLR405W'
p4760
I2
sS'YNL227C'
p4761
I2
sS'YPL225W'
p4762
I33
sS'YDL043C'
p4763
I2
sS'YHR091C'
p4764
I1
sS'YDL012C'
p4765
I5
sS'YPL249C'
p4766
I2
sS'YJL024C'
p4767
I3
sS'YPR148C'
p4768
I9
sS'YER031C'
p4769
I11
sS'YCR048W'
p4770
I5
sS'YJR006W'
p4771
I2
sS'YIR021W'
p4772
I2
sS'YJL177W'
p4773
I121
sS'YGL002W'
p4774
I5
sS'YLR430W'
p4775
I4
sS'YOR108W'
p4776
I11
sS'YGL139W'
p4777
I4
sS'YJL068C'
p4778
I6
sS'YJL117W'
p4779
I19
sS'YKR041W'
p4780
I0
sS'YNL054W'
p4781
I2
sS'YKL108W'
p4782
I1
sS'YPL043W'
p4783
I7
sS'YGR210C'
p4784
I7
sS'YDR156W'
p4785
I7
sS'YMR130W'
p4786
I3
sS'YPR155C'
p4787
I1
sS'YHR179W'
p4788
I55
sS'YOR117W'
p4789
I15
sS'YLR176C'
p4790
I1
sS'YNL049C'
p4791
I4
sS'YGL195W'
p4792
I24
sS'YOR167C'
p4793
I191
sS'YKL172W'
p4794
I11
sS'YKR025W'
p4795
I4
sS'YMR290C'
p4796
I12
sS'YLR423C'
p4797
I0
sS'YDR305C'
p4798
I3
sS'YDR205W'
p4799
I2
sS'YJL057C'
p4800
I1
sS'YPR100W'
p4801
I7
sS'YLR266C'
p4802
I1
sS'YLR206W'
p4803
I6
sS'YER088C'
p4804
I4
sS'YLR284C'
p4805
I0
sS'YDR358W'
p4806
I1
sS'YDR076W'
p4807
I1
sS'YDR508C'
p4808
I18
sS'YPR028W'
p4809
I36
sS'YMR117C'
p4810
I1
sS'YLR096W'
p4811
I3
sS'YCR067C'
p4812
I4
sS'YJL035C'
p4813
I1
sS'YPR133WA'
p4814
I25
sS'YKR052C'
p4815
I3
sS'YMR047C'
p4816
I5
sS'YMR147W'
p4817
I1
sS'YOR120W'
p4818
I1
sS'YER040W'
p4819
I1
sS'YCR089W'
p4820
I0
sS'YGR221C'
p4821
I1
sS'YBL088C'
p4822
I1
sS'YDR247W'
p4823
I1
sS'YFL017WA'
p4824
I6
sS'YGR274C'
p4825
I2
sS'YLR100W'
p4826
I16
sS'YBR015C'
p4827
I11
sS'YML055W'
p4828
I6
sS'YML088W'
p4829
I2
sS'YJR066W'
p4830
I3
sS'YLR116W'
p4831
I2
sS'YER008C'
p4832
I3
sS'YJL081C'
p4833
I5
sS'YMR127C'
p4834
I1
sS'YPL013C'
p4835
I5
sS'YLR440C'
p4836
I2
sS'YOR177C'
p4837
I0
sS'YDL135C'
p4838
I11
sS'YHR072WA'
p4839
I36
sS'YLR192C'
p4840
I22
s.