(dp1
S'YLR268W'
p2
I7
sS'YOR011W'
p3
I4
sS'YPR023C'
p4
I11
sS'YAL008W'
p5
I3
sS'YOR043W'
p6
I23
sS'YBR255W'
p7
I3
sS'YBR128C'
p8
I3
sS'YCR093W'
p9
I7
sS'YAL056W'
p10
I3
sS'YJR122W'
p11
I1
sS'YGR131W'
p12
I1
sS'YNL103W'
p13
I7
sS'YNL003C'
p14
I3
sS'YBR135W'
p15
I4
sS'YBR160W'
p16
I2
sS'YJL082W'
p17
I3
sS'YHR007C'
p18
I27
sS'YIR004W'
p19
I7
sS'YJL142C'
p20
I1
sS'YPL191C'
p21
I1
sS'YGL215W'
p22
I8
sS'YDR312W'
p23
I4
sS'YLR348C'
p24
I16
sS'YBR248C'
p25
I19
sS'YNR067C'
p26
I15
sS'YNL152W'
p27
I3
sS'YKL096W-A'
p28
I59
sS'YFL045C'
p29
I42
sS'YFL010C'
p30
I14
sS'YDR141C'
p31
I12
sS'YJL131C'
p32
I1
sS'YML023C'
p33
I7
sS'YIL124W'
p34
I9
sS'YPL039W'
p35
I2
sS'YKL048C'
p36
I5
sS'YDR083W'
p37
I14
sS'YOR123C'
p38
I14
sS'YJL179W'
p39
I3
sS'YPL071C'
p40
I3
sS'YKL183W'
p41
I7
sS'YLR362W'
p42
I4
sS'YPL024W'
p43
I4
sS'YKL134C'
p44
I4
sS'YOR009W'
p45
I1
sS'YKL029C'
p46
I25
sS'YPL166W'
p47
I1
sS'YLR220W'
p48
I10
sS'YBR273C'
p49
I2
sS'YHR025W'
p50
I22
sS'YOR313C'
p51
I1
sS'YAL026C'
p52
I8
sS'YOL034W'
p53
I2
sS'YFL017W-A'
p54
I6
sS'YBL008W'
p55
I5
sS'YGL237C'
p56
I4
sS'YIL062C'
p57
I17
sS'YNL295W'
p58
I3
sS'YDR016C'
p59
I6
sS'YOL129W'
p60
I8
sS'YDR299W'
p61
I21
sS'YOL116W'
p62
I2
sS'YBR182C'
p63
I2
sS'YDR196C'
p64
I4
sS'YHR101C'
p65
I1
sS'YNL255C'
p66
I30
sS'YNR032W'
p67
I1
sS'YNR045W'
p68
I2
sS'YML105C'
p69
I6
sS'YNL288W'
p70
I7
sS'YIL091C'
p71
I12
sS'YPL104W'
p72
I4
sS'YIL059C'
p73
I2
sS'YLR253W'
p74
I4
sS'YIL004C'
p75
I4
sS'YNR018W'
p76
I5
sS'YPL144W'
p77
I2
sS'YFR047C'
p78
I11
sS'YBR215W'
p79
I7
sS'YIL106W'
p80
I7
sS'YML127W'
p81
I10
sS'YLR188W'
p82
I17
sS'YGR084C'
p83
I5
sS'YJR115W'
p84
I2
sS'YBR069C'
p85
I17
sS'YLR355C'
p86
I82
sS'YGL157W'
p87
I6
sS'YGR099W'
p88
I8
sS'YBL015W'
p89
I4
sS'YPR145C-A'
p90
I1
sS'YGR128C'
p91
I15
sS'YLR300W'
p92
I26
sS'YBL003C'
p93
I26
sS'YJR140C'
p94
I2
sS'YGR146C'
p95
I3
sS'YOR033C'
p96
I7
sS'YOR062C'
p97
I1
sS'YBR043C'
p98
I5
sS'YNL237W'
p99
I2
sS'YHR112C'
p100
I1
sS'YDL238C'
p101
I1
sS'YLR011W'
p102
I4
sS'YIL044C'
p103
I11
sS'YDL073W'
p104
I8
sS'YDL004W'
p105
I15
sS'YER121W'
p106
I1
sS'YCR046C'
p107
I4
sS'YLR059C'
p108
I4
sS'YDR507C'
p109
I10
sS'YDR379C-A'
p110
I2
sS'YEL007W'
p111
I5
sS'YKL204W'
p112
I7
sS'YOR266W'
p113
I2
sS'YDR320C-A'
p114
I2
sS'YDR393W'
p115
I7
sS'YGR186W'
p116
I17
sS'YLR395C'
p117
I3
sS'YGR019W'
p118
I8
sS'YMR194W'
p119
I25
sS'YNL080C'
p120
I4
sS'YBL033C'
p121
I7
sS'YKL074C'
p122
I6
sS'YPL266W'
p123
I14
sS'YOR080W'
p124
I7
sS'YGL062W'
p125
I14
sS'YNL229C'
p126
I6
sS'YER169W'
p127
I2
sS'YOL016C'
p128
I11
sS'YOR226C'
p129
I12
sS'YEL025C'
p130
I6
sS'YNL186W'
p131
I9
sS'YMR040W'
p132
I1
sS'YDR077W'
p133
I12
sS'YBL063W'
p134
I2
sS'YMR146C'
p135
I37
sS'YPR165W'
p136
I23
sS'YMR266W'
p137
I19
sS'YKR064W'
p138
I7
sS'YCR060W'
p139
I6
sS'YPL089C'
p140
I3
sS'YBR016W'
p141
I5
sS'YDL139C'
p142
I2
sS'YDR246W'
p143
I3
sS'YOR288C'
p144
I3
sS'YOR198C'
p145
I38
sS'YML054C'
p146
I1
sS'YLR179C'
p147
I8
sS'YMR168C'
p148
I3
sS'YLL035W'
p149
I2
sS'YER007W'
p150
I5
sS'YOR141C'
p151
I4
sS'YBL106C'
p152
I3
sS'YGL044C'
p153
I5
sS'YER107C'
p154
I2
sS'YBR038W'
p155
I6
sS'YJR011C'
p156
I1
sS'YDR117C'
p157
I6
sS'YEL047C'
p158
I13
sS'YPR016C'
p159
I21
sS'YOR208W'
p160
I1
sS'YDL055C'
p161
I99
sS'YML009C'
p162
I3
sS'YML072C'
p163
I25
sS'YDR142C'
p164
I2
sS'YFL044C'
p165
I3
sS'YKL019W'
p166
I7
sS'YJL130C'
p167
I33
sS'YJL078C'
p168
I2
sS'YNL173C'
p169
I4
sS'YBL085W'
p170
I10
sS'YGR200C'
p171
I21
sS'YIL127C'
p172
I12
sS'YDR082W'
p173
I3
sS'YDR348C'
p174
I7
sS'YKL182W'
p175
I58
sS'YKL165C-A'
p176
I1
sS'YDR333C'
p177
I18
sS'YKL018C-A'
p178
I3
sS'YKL051W'
p179
I1
sS'YLR294C'
p180
I4
sS'YPL167C'
p181
I8
sS'YLR223C'
p182
I19
sS'YIR012W'
p183
I16
sS'YLR363C'
p184
I10
sS'YIR013C'
p185
I1
sS'YDR179C'
p186
I3
sS'YLR431C'
p187
I2
sS'YKR046C'
p188
I2
sS'YJR036C'
p189
I4
sS'YJR005W'
p190
I4
sS'YBL098W'
p191
I10
sS'YDL095W'
p192
I21
sS'YER030W'
p193
I13
sS'YBR201C-A'
p194
I1
sS'YIR026C'
p195
I10
sS'YJR072C'
p196
I15
sS'YDR047W'
p197
I16
sS'YKR039W'
p198
I1
sS'YGL003C'
p199
I6
sS'YPL009C'
p200
I21
sS'YOR118W'
p201
I5
sS'YLR205C'
p202
I1
sS'YDR268W'
p203
I4
sS'YMR022W'
p204
I3
sS'YML094W'
p205
I4
sS'YKR006C'
p206
I5
sS'YDL117W'
p207
I11
sS'YMR131C'
p208
I21
sS'YMR293C'
p209
I3
sS'YPR138C'
p210
I4
sS'YIL005W'
p211
I13
sS'YIL105C'
p212
I8
sS'YFR052C-A'
p213
I1
sS'YNL119W'
p214
I11
sS'YML126C'
p215
I18
sS'YLR189C'
p216
I5
sS'YIL150C'
p217
I2
sS'YNR019W'
p218
I14
sS'YGR158C'
p219
I4
sS'YKL077W'
p220
I16
sS'YFR046C'
p221
I2
sS'YBR212W'
p222
I4
sS'YJR109C'
p223
I19
sS'YLR254C'
p224
I4
sS'YPL105C'
p225
I12
sS'YJR141W'
p226
I4
sS'YGR145W'
p227
I17
sS'YLR354C'
p228
I37
sS'YJR094C'
p229
I3
sS'YLR301W'
p230
I17
sS'YGR098C'
p231
I7
sS'YGL154C'
p232
I1
sS'YAL009W'
p233
I2
sS'YJR054W'
p234
I7
sS'YBR129C'
p235
I6
sS'YDL160C'
p236
I3
sS'YHR119W'
p237
I12
sS'YJR123W'
p238
I257
sS'YGR167W'
p239
I20
sS'YKL099C'
p240
I6
sS'YDR315C'
p241
I2
sS'YJL143W'
p242
I10
sS'YBR161W'
p243
I1
sS'YNL002C'
p244
I27
sS'YLR394W'
p245
I5
sS'YNL104C'
p246
I28
sS'YPL145C'
p247
I13
sS'YIL118W'
p248
I7
sS'YNL151C'
p249
I7
sS'YPL190C'
p250
I8
sS'YNR066C'
p251
I1
sS'YKL052C'
p252
I4
sS'YHR006W'
p253
I6
sS'YAL026C-A'
p254
I5
sS'YNL083W'
p255
I5
sS'YDR217C'
p256
I5
sS'YOR267C'
p257
I3
sS'YHR009C'
p258
I11
sS'YPL059W'
p259
I6
sS'YOR367W'
p260
I6
sS'YOR385W'
p261
I5
sS'YGR185C'
p262
I34
sS'YJL189W'
p263
I100
sS'YMR238W'
p264
I11
sS'YER168C'
p265
I9
sS'YPL265W'
p266
I12
sS'YOR227W'
p267
I6
sS'YOR081C'
p268
I1
sS'YEL026W'
p269
I30
sS'YGR050C'
p270
I3
sS'YLL050C'
p271
I33
sS'YDR392W'
p272
I6
sS'YGL172W'
p273
I13
sS'YCR097W'
p274
I7
sS'YNL274C'
p275
I1
sS'YDR021W'
p276
I3
sS'YGL063W'
p277
I1
sS'YPL212C'
p278
I14
sS'YPL023C'
p279
I8
sS'YGR081C'
p280
I8
sS'YPR095C'
p281
I8
sS'YOR310C'
p282
I44
sS'YOR063W'
p283
I565
sS'YDR188W'
p284
I26
sS'YAL027W'
p285
I3
sS'YGL236C'
p286
I6
sS'YHR133C'
p287
I8
sS'YDR017C'
p288
I9
sS'YOL080C'
p289
I6
sS'YOL117W'
p290
I8
sS'YBR283C'
p291
I36
sS'YIL090W'
p292
I6
sS'YML104C'
p293
I12
sS'YNR033W'
p294
I11
sS'YNR044W'
p295
I2
sS'YDR195W'
p296
I3
sS'YOL048C'
p297
I5
sS'YNL256W'
p298
I8
sS'YGR126W'
p299
I1
sS'YGL045W'
p300
I2
sS'YPR094W'
p301
I3
sS'YCR007C'
p302
I2
sS'YDR540C'
p303
I2
sS'YEL004W'
p304
I1
sS'YPR057W'
p305
I6
sS'YLL032C'
p306
I3
sS'YJL020C'
p307
I9
sS'YBL107C'
p308
I4
sS'YDR116C'
p309
I3
sS'YGR258C'
p310
I10
sS'YPL234C'
p311
I21
sS'YDL056W'
p312
I5
sS'YOR209C'
p313
I18
sS'YKL117W'
p314
I31
sS'YPR017C'
p315
I6
sS'YPL119C-A'
p316
I2
sS'YEL044W'
p317
I4
sS'YML071C'
p318
I8
sS'YDR122W'
p319
I8
sS'YER120W'
p320
I27
sS'YBR042C'
p321
I7
sS'YOL062C'
p322
I7
sS'YNL234W'
p323
I2
sS'YJL194W'
p324
I2
sS'YOL015W'
p325
I2
sS'YHR111W'
p326
I4
sS'YGL071W'
p327
I6
sS'YPR170W-B'
p328
I8
sS'YDL070W'
p329
I27
sS'YPR170W-A'
p330
I5
sS'YCR047C'
p331
I3
sS'YMR187C'
p332
I1
sS'YEL037C'
p333
I11
sS'YOR241W'
p334
I18
sS'YOR359W'
p335
I3
sS'YLR056W'
p336
I35
sS'YKL205W'
p337
I15
sS'YKL110C'
p338
I4
sS'YHR040W'
p339
I5
sS'YML057W'
p340
I3
sS'YDR178W'
p341
I1
sS'YKR038C'
p342
I8
sS'YLR432W'
p343
I19
sS'YJR004C'
p344
I2
sS'YBR280C'
p345
I2
sS'YJL115W'
p346
I2
sS'YJR073C'
p347
I1
sS'YGL004C'
p348
I3
sS'YLR204W'
p349
I2
sS'YML097C'
p350
I6
sS'YKR007W'
p351
I2
sS'YHR193C'
p352
I62
sS'YBL068W-A'
p353
I4
sS'YBL099W'
p354
I35
sS'YMR132C'
p355
I4
sS'YPL008W'
p356
I7
sS'YOR126C'
p357
I5
sS'YDL116W'
p358
I8
sS'YER034W'
p359
I4
sS'YOR119C'
p360
I9
sS'YLR409C'
p361
I17
sS'YNL187W'
p362
I2
sS'YCL045C'
p363
I9
sS'YPL088W'
p364
I1
sS'YCL050C'
p365
I28
sS'YMR041C'
p366
I3
sS'YLR078C'
p367
I6
sS'YMR267W'
p368
I6
sS'YDR078C'
p369
I2
sS'YMR109W'
p370
I10
sS'YDR232W'
p371
I4
sS'YDR245W'
p372
I23
sS'YHR088W'
p373
I12
sS'YGR276C'
p374
I6
sS'YBR017C'
p375
I19
sS'YKR014C'
p376
I8
sS'YLR417W'
p377
I5
sS'YDL138W'
p378
I2
sS'YOR322C'
p379
I1
sS'YPR162C'
p380
I7
sS'YPR071W'
p381
I2
sS'YHR175W'
p382
I8
sS'YGR166W'
p383
I5
sS'YDL161W'
p384
I9
sS'YKL050C'
p385
I1
sS'YOR013W'
p386
I2
sS'YDL212W'
p387
I14
sS'YJR055W'
p388
I5
sS'YDR390C'
p389
I12
sS'YGL099W'
p390
I17
sS'YFL030W'
p391
I3
sS'YIL119C'
p392
I2
sS'YPL193W'
p393
I8
sS'YNL005C'
p394
I7
sS'YDR314C'
p395
I1
sS'YJL144W'
p396
I1
sS'YPR105C'
p397
I8
sS'YKL098W'
p398
I4
sS'YJR139C'
p399
I47
sS'YBR133C'
p400
I5
sS'YBR162C'
p401
I17
sS'YDR279W'
p402
I6
sS'YJL133W'
p403
I4
sS'YGR260W'
p404
I18
sS'YBL084C'
p405
I4
sS'YDR143C'
p406
I3
sS'YJL079C'
p407
I2
sS'YBR111C'
p408
I14
sS'YFL047W'
p409
I8
sS'YGR201C'
p410
I3
sS'YPR122W'
p411
I7
sS'YNL172W'
p412
I5
sS'YNL058C'
p413
I6
sS'YMR135C'
p414
I3
sS'YPL160W'
p415
I42
sS'YMR098C'
p416
I3
sS'YGR289C'
p417
I2
sS'YNL023C'
p418
I13
sS'YPL026C'
p419
I2
sS'YIR011C'
p420
I11
sS'YDR214W'
p421
I10
sS'YIL126W'
p422
I21
sS'YPL005W'
p423
I3
sS'YLR295C'
p424
I6
sS'YDR444W'
p425
I10
sS'YHR168W'
p426
I2
sS'YOR064C'
p427
I2
sS'YOL154W'
p428
I1
sS'YBR130C'
p429
I10
sS'YOR311C'
p430
I10
sS'YOL081W'
p431
I9
sS'YOL036W'
p432
I9
sS'YGL148W'
p433
I42
sS'YBR159W'
p434
I17
sS'YDR189W'
p435
I9
sS'YAL028W'
p436
I1
sS'YGL160W'
p437
I10
sS'YBR282W'
p438
I3
sS'YOR079C'
p439
I6
sS'YDR404C'
p440
I13
sS'YHR132C'
p441
I4
sS'YMR083W'
p442
I52
sS'YHR078W'
p443
I7
sS'YDR194C'
p444
I16
sS'YOL049W'
p445
I12
sS'YDR014W'
p446
I2
sS'YNL257C'
p447
I11
sS'YNR030W'
p448
I5
sS'YIL093C'
p449
I5
sS'YML007C-A'
p450
I1
sS'YKL076C'
p451
I1
sS'YDR466W'
p452
I4
sS'YLR397C'
p453
I7
sS'YDR463W'
p454
I4
sS'YFR045W'
p455
I1
sS'YIL104C'
p456
I8
sS'YIL151C'
p457
I8
sS'YIL002C'
p458
I7
sS'YGR159C'
p459
I45
sS'YBR213W'
p460
I1
sS'YLR398C'
p461
I8
sS'YNL118C'
p462
I18
sS'YJL039C'
p463
I12
sS'YGL228W'
p464
I9
sS'YJR117W'
p465
I11
sS'YGR144W'
p466
I1
sS'YGR111W'
p467
I4
sS'YGL155W'
p468
I8
sS'YIL030W-A'
p469
I1
sS'YLR357W'
p470
I6
sS'YER127W'
p471
I14
sS'YOL063C'
p472
I6
sS'YDR118W-A'
p473
I1
sS'YJL193W'
p474
I2
sS'YJR093C'
p475
I4
sS'YEL027W'
p476
I60
sS'YOL014W'
p477
I3
sS'YDR123C'
p478
I2
sS'YHR110W'
p479
I4
sS'YBR041W'
p480
I8
sS'YCR044C'
p481
I5
sS'YDL039C'
p482
I2
sS'YLR057W'
p483
I5
sS'YLR320W'
p484
I6
sS'YFR014C'
p485
I3
sS'YMR231W'
p486
I5
sS'YOR188W'
p487
I8
sS'YLR452C'
p488
I9
sS'YBL029C-A'
p489
I2
sS'YGR184C'
p490
I10
sS'YNL275W'
p491
I2
sS'YAR015W'
p492
I20
sS'YOR384W'
p493
I1
sS'YOR086C'
p494
I13
sS'YBR191W'
p495
I33
sS'YGR053C'
p496
I1
sS'YPL213W'
p497
I3
sS'YNL082W'
p498
I5
sS'YLL051C'
p499
I6
sS'YDR427W'
p500
I15
sS'YOR279C'
p501
I2
sS'YPL264C'
p502
I1
sS'YOR224C'
p503
I17
sS'YGL060W'
p504
I10
sS'YLR079W'
p505
I10
sS'YLR408C'
p506
I3
sS'YGL123W'
p507
I300
sS'YKR066C'
p508
I7
sS'YDR079W'
p509
I1
sS'YMR268C'
p510
I5
sS'YML070W'
p511
I11
sS'YGR191W'
p512
I17
sS'YBL061C'
p513
I8
sS'YAL003W'
p514
I103
sS'YMR140W'
p515
I3
sS'YHR175W-A'
p516
I2
sS'YPR072W'
p517
I13
sS'YMR108W'
p518
I43
sS'YER062C'
p519
I6
sS'YPR114W'
p520
I13
sS'YDL137W'
p521
I13
sS'YNL302C'
p522
I45
sS'YDR233C'
p523
I24
sS'YEL005C'
p524
I8
sS'YDR527W'
p525
I9
sS'YKL146W'
p526
I3
sS'YOR242C'
p527
I3
sS'YCR059C'
p528
I3
sS'YGL053W'
p529
I1
sS'YCR004C'
p530
I6
sS'YDR115W'
p531
I2
sS'YMR166C'
p532
I4
sS'YGR071C'
p533
I7
sS'YCR106W'
p534
I2
sS'YML038C'
p535
I12
sS'YDR489W'
p536
I2
sS'YPR049C'
p537
I9
sS'YDL057W'
p538
I1
sS'YGR257C'
p539
I5
sS'YIL078W'
p540
I84
sS'YPL235W'
p541
I17
sS'YLR031W'
p542
I1
sS'YDL159W'
p543
I6
sS'YBL087C'
p544
I20
sS'YJL132W'
p545
I1
sS'YGL190C'
p546
I9
sS'YBR110W'
p547
I5
sS'YDR144C'
p548
I15
sS'YGL018C'
p549
I4
sS'YMR075W'
p550
I5
sS'YGR202C'
p551
I7
sS'YFL046W'
p552
I3
sS'YDR379W'
p553
I4
sS'YHR169W'
p554
I12
sS'YOR103C'
p555
I6
sS'YKL137W'
p556
I1
sS'YDR447C'
p557
I30
sS'YGL009C'
p558
I79
sS'YNL059C'
p559
I10
sS'YNL022C'
p560
I12
sS'YPR145W'
p561
I48
sS'YJL063C'
p562
I7
sS'YMR149W'
p563
I11
sS'YIR010W'
p564
I5
sS'YDR331W'
p565
I6
sS'YOR293W'
p566
I41
sS'YML056C'
p567
I49
sS'YKR044W'
p568
I1
sS'YCR069W'
p569
I4
sS'YLR433C'
p570
I5
sS'YMR068W'
p571
I2
sS'YGR239C'
p572
I3
sS'YIL130W'
p573
I3
sS'YJL041W'
p574
I8
sS'YER032W'
p575
I3
sS'YJR070C'
p576
I21
sS'YDL097C'
p577
I23
sS'YGL005C'
p578
I5
sS'YIR024C'
p579
I7
sS'YDL111C'
p580
I10
sS'YLR049C'
p581
I10
sS'YPL007C'
p582
I8
sS'YDR495C'
p583
I1
sS'YLR104W'
p584
I5
sS'YKL159C'
p585
I1
sS'YKR004C'
p586
I4
sS'YDR059C'
p587
I1
sS'YML096W'
p588
I9
sS'YHR192W'
p589
I6
sS'YJL158C'
p590
I49
sS'YLR396C'
p591
I7
sS'YPL052W'
p592
I3
sS'YIL003W'
p593
I8
sS'YBR245C'
p594
I10
sS'YBR163W'
p595
I5
sS'YDR465C'
p596
I16
sS'YKL079W'
p597
I6
sS'YFR044C'
p598
I37
sS'YBR210W'
p599
I4
sS'YPL103C'
p600
I3
sS'YIL103W'
p601
I6
sS'YIL152W'
p602
I3
sS'YFR033C'
p603
I7
sS'YJR096W'
p604
I3
sS'YJR116W'
p605
I1
sS'YJL013C'
p606
I4
sS'YGR143W'
p607
I8
sS'YGR112W'
p608
I1
sS'YLR256W'
p609
I15
sS'YGL229C'
p610
I2
sS'YLR356W'
p611
I2
sS'YKL057C'
p612
I9
sS'YGL098W'
p613
I5
sS'YJR056C'
p614
I5
sS'YHR174W'
p615
I335
sS'YER067W'
p616
I1
sS'YOR012W'
p617
I2
sS'YGR161C'
p618
I2
sS'YLR192C'
p619
I24
sS'YPL069C'
p620
I2
sS'YDL213C'
p621
I12
sS'YBR149W'
p622
I14
sS'YLR378C'
p623
I7
sS'YDR317W'
p624
I1
sS'YFL031W'
p625
I16
sS'YDR478W'
p626
I5
sS'YJR138W'
p627
I7
sS'YKL179C'
p628
I19
sS'YJL145W'
p629
I17
sS'YBR132C'
p630
I1
sS'YNL106C'
p631
I2
sS'YNL004W'
p632
I15
sS'YOR378W'
p633
I1
sS'YFR015C'
p634
I2
sS'YDR320C'
p635
I7
sS'YMR230W'
p636
I38
sS'YIL092W'
p637
I2
sS'YPR133C'
p638
I15
sS'YLR321C'
p639
I5
sS'YMR233W'
p640
I2
sS'YPR199C'
p641
I5
sS'YLR376C'
p642
I2
sS'YGL216W'
p643
I3
sS'YGR052W'
p644
I2
sS'YCL012C'
p645
I2
sS'YOR278W'
p646
I4
sS'YNL085W'
p647
I18
sS'YGL061C'
p648
I7
sS'YDR394W'
p649
I10
sS'YPL210C'
p650
I14
sS'YOR330C'
p651
I9
sS'YAR014C'
p652
I12
sS'YLL052C'
p653
I1
sS'YOR087W'
p654
I5
sS'YGL234W'
p655
I38
sS'YOR347C'
p656
I1
sS'YPR093C'
p657
I1
sS'YNL061W'
p658
I22
sS'YOL082W'
p659
I5
sS'YAL029C'
p660
I11
sS'YDR452W'
p661
I15
sS'YOR030W'
p662
I5
sS'YOR065W'
p663
I3
sS'YGL171W'
p664
I12
sS'YDR294C'
p665
I10
sS'YBR267W'
p666
I9
sS'YNL250W'
p667
I5
sS'YFL014W'
p668
I2
sS'YOL115W'
p669
I9
sS'YDR457W'
p670
I20
sS'YNR031C'
p671
I10
sS'YNL131W'
p672
I10
sS'YEL020W-A'
p673
I2
sS'YJL073W'
p674
I5
sS'YBL005W'
p675
I4
sS'YOR078W'
p676
I9
sS'YOR243C'
p677
I15
sS'YKL067W'
p678
I11
sS'YDR041W'
p679
I5
sS'YGR070W'
p680
I1
sS'YMR165C'
p681
I4
sS'YCR005C'
p682
I33
sS'YBL101C'
p683
I2
sS'YPR055W'
p684
I3
sS'YHR037W'
p685
I10
sS'YLR032W'
p686
I8
sS'YLR089C'
p687
I13
sS'YDR488C'
p688
I1
sS'YLR154C'
p689
I6
sS'YEL042W'
p690
I24
sS'YPR048W'
p691
I7
sS'YBL027W'
p692
I68
sS'YOL060C'
p693
I2
sS'YOR382W'
p694
I7
sS'YNL232W'
p695
I9
sS'YLR014C'
p696
I5
sS'YDL076C'
p697
I1
sS'YDR120C'
p698
I15
sS'YER126C'
p699
I11
sS'YNL121C'
p700
I12
sS'YJL192C'
p701
I10
sS'YHR117W'
p702
I9
sS'YPL258C'
p703
I3
sS'YPR135W'
p704
I6
sS'YKL203C'
p705
I7
sS'YHR017W'
p706
I3
sS'YLR009W'
p707
I16
sS'YML059C'
p708
I10
sS'YKL116C'
p709
I5
sS'YKR045C'
p710
I3
sS'YIL014C-A'
p711
I1
sS'YGR238C'
p712
I5
sS'YER044C'
p713
I4
sS'YER035W'
p714
I6
sS'YPR128C'
p715
I2
sS'YLR105C'
p716
I1
sS'YKL156W'
p717
I35
sS'YHR148W'
p718
I5
sS'YHR191C'
p719
I5
sS'YDL110C'
p720
I2
sS'YMR134W'
p721
I4
sS'YLR202C'
p722
I1
sS'YIR025W'
p723
I1
sS'YGL006W'
p724
I5
sS'YPL006W'
p725
I12
sS'YKR005C'
p726
I1
sS'YKR067W'
p727
I5
sS'YMR143W'
p728
I41
sS'YCR063W'
p729
I2
sS'YOR168W'
p730
I26
sS'YNL189W'
p731
I18
sS'YER040W'
p732
I4
sS'YMR043W'
p733
I7
sS'YCL047C'
p734
I5
sS'YML077W'
p735
I4
sS'YER068W'
p736
I6
sS'YER013W'
p737
I10
sS'YMR269W'
p738
I6
sS'YKL053C-A'
p739
I4
sS'YMR092C'
p740
I15
sS'YJL008C'
p741
I33
sS'YDL018C'
p742
I3
sS'YGL067W'
p743
I5
sS'YGL241W'
p744
I3
sS'YBL060W'
p745
I4
sS'YER188W'
p746
I1
sS'YCL010C'
p747
I5
sS'YNL277W'
p748
I2
sS'YCR090C'
p749
I5
sS'YKL056C'
p750
I167
sS'YOR332W'
p751
I63
sS'YPL068C'
p752
I5
sS'YJR057W'
p753
I7
sS'YGL011C'
p754
I14
sS'YGL211W'
p755
I2
sS'YDR316W'
p756
I2
sS'YPL195W'
p757
I13
sS'YNL107W'
p758
I5
sS'YCL044C'
p759
I2
sS'YDR479C'
p760
I3
sS'YAL059W'
p761
I8
sS'YNL007C'
p762
I26
sS'YPL148C'
p763
I2
sS'YDR163W'
p764
I5
sS'YJR137C'
p765
I2
sS'YDR397C'
p766
I8
sS'YMR021C'
p767
I5
sS'YMR074C'
p768
I9
sS'YGR203W'
p769
I1
sS'YOL122C'
p770
I7
sS'YBL086C'
p771
I5
sS'YNL069C'
p772
I127
sS'YJR039W'
p773
I2
sS'YDL158C'
p774
I2
sS'YFL041W'
p775
I6
sS'YJL168C'
p776
I6
sS'YDR145W'
p777
I12
sS'YFL009W'
p778
I4
sS'YDR330W'
p779
I5
sS'YPR146C'
p780
I3
sS'YJL062W'
p781
I5
sS'YNL325C'
p782
I8
sS'YLR297W'
p783
I1
sS'YFR024C-A'
p784
I12
sS'YLR363W-A'
p785
I2
sS'YDR057W'
p786
I3
sS'YDR216W'
p787
I1
sS'YIL120W'
p788
I2
sS'YKL130C'
p789
I5
sS'YPL162C'
p790
I3
sS'YOR346W'
p791
I10
sS'YAR031W'
p792
I1
sS'YGL233W'
p793
I5
sS'YLR172C'
p794
I20
sS'YGR113W'
p795
I6
sS'YLR319C'
p796
I5
sS'YMR235C'
p797
I41
sS'YBR278W'
p798
I4
sS'YHR029C'
p799
I7
sS'YPL091W'
p800
I19
sS'YDR295C'
p801
I5
sS'YAL033W'
p802
I6
sS'YNL130C'
p803
I7
sS'YNR036C'
p804
I2
sS'YNR049C'
p805
I4
sS'YDR192C'
p806
I4
sS'YOL112W'
p807
I7
sS'YML109W'
p808
I10
sS'YOL083W'
p809
I2
sS'YNL251C'
p810
I6
sS'YHR134W'
p811
I2
sS'YBL004W'
p812
I27
sS'YBR164C'
p813
I11
sS'YIL153W'
p814
I1
sS'YHR074W'
p815
I12
sS'YBR211C'
p816
I2
sS'YLR399C'
p817
I22
sS'YGR277C'
p818
I5
sS'YFR030W'
p819
I8
sS'YBR131W'
p820
I3
sS'YAL011W'
p821
I8
sS'YBR036C'
p822
I11
sS'YBR244W'
p823
I12
sS'YIL055C'
p824
I5
sS'YPL053C'
p825
I13
sS'YBR179C'
p826
I6
sS'YPL155C'
p827
I3
sS'YJR019C'
p828
I2
sS'YLR351C'
p829
I8
sS'YPR116W'
p830
I1
sS'YGR142W'
p831
I9
sS'YPL100W'
p832
I3
sS'YLR257W'
p833
I23
sS'YNR014W'
p834
I1
sS'YBL026W'
p835
I7
sS'YBR251W'
p836
I7
sS'YDR121W'
p837
I6
sS'YER125W'
p838
I14
sS'YNL233W'
p839
I8
sS'YPL211W'
p840
I9
sS'YDL077C'
p841
I4
sS'YOR222W'
p842
I5
sS'YOL061W'
p843
I14
sS'YER152C'
p844
I10
sS'YLR015W'
p845
I5
sS'YHR116W'
p846
I1
sS'YPL259C'
p847
I6
sS'YLR008C'
p848
I9
sS'YHR210C'
p849
I1
sS'YPR133W-A'
p850
I6
sS'YMR219W'
p851
I15
sS'YLR055C'
p852
I10
sS'YCR028C'
p853
I7
sS'YOR039W'
p854
I9
sS'YFR016C'
p855
I10
sS'YIL077C'
p856
I8
sS'YLR450W'
p857
I4
sS'YNL133C'
p858
I2
sS'YIL095W'
p859
I3
sS'YOR084W'
p860
I4
sS'YNL084C'
p861
I10
sS'YGL066W'
p862
I3
sS'YGR135W'
p863
I25
sS'YPR070W'
p864
I5
sS'YOR386W'
p865
I1
sS'YCL011C'
p866
I20
sS'YPR198W'
p867
I5
sS'YHL038C'
p868
I4
sS'YOR051C'
p869
I14
sS'YDR425W'
p870
I3
sS'YBR287W'
p871
I7
sS'YML076C'
p872
I6
sS'YKR060W'
p873
I8
sS'YMR142C'
p874
I84
sS'YDL182W'
p875
I7
sS'YER069W'
p876
I4
sS'YGL121C'
p877
I1
sS'YER012W'
p878
I23
sS'YHR003C'
p879
I14
sS'YBL067C'
p880
I7
sS'YHR098C'
p881
I8
sS'YDL019C'
p882
I5
sS'YDL135C'
p883
I13
sS'YNL300W'
p884
I3
sS'YMR273C'
p885
I5
sS'YDR168W'
p886
I8
sS'YPR056W'
p887
I2
sS'YLR344W'
p888
I21
sS'YCR002C'
p889
I10
sS'YMR164C'
p890
I2
sS'YGR077C'
p891
I6
sS'YDR512C'
p892
I2
sS'YDR113C'
p893
I5
sS'YLL031C'
p894
I5
sS'YPR012W'
p895
I1
sS'YLR033W'
p896
I13
sS'YLR088W'
p897
I6
sS'YBR021W'
p898
I2
sS'YNL283C'
p899
I6
sS'YGR255C'
p900
I5
sS'YDL051W'
p901
I19
sS'YBL102W'
p902
I7
sS'YPL237W'
p903
I61
sS'YLR120C'
p904
I3
sS'YEL043W'
p905
I8
sS'YMR077C'
p906
I2
sS'YNL068C'
p907
I2
sS'YGR204W'
p908
I33
sS'YGL248W'
p909
I4
sS'YBL002W'
p910
I24
sS'YDR146C'
p911
I15
sS'YBR112C'
p912
I7
sS'YBL081W'
p913
I1
sS'YNL326C'
p914
I4
sS'YFL008W'
p915
I16
sS'YDR337W'
p916
I4
sS'YJL061W'
p917
I6
sS'YPR147C'
p918
I7
sS'YDR441C'
p919
I2
sS'YPL094C'
p920
I15
sS'YNL020C'
p921
I2
sS'YOR101W'
p922
I3
sS'YLR290C'
p923
I3
sS'YPL163C'
p924
I5
sS'YIL123W'
p925
I7
sS'YOL052C-A'
p926
I1
sS'YBL052C'
p927
I8
sS'YPR161C'
p928
I8
sS'YOR291W'
p929
I5
sS'YJL112W'
p930
I2
sS'YER165W'
p931
I58
sS'YNL193W'
p932
I4
sS'YMR059W'
p933
I2
sS'YDR062W'
p934
I13
sS'YGL047W'
p935
I2
sS'YML058W'
p936
I15
sS'YBR188C'
p937
I4
sS'YLR435W'
p938
I6
sS'YJR076C'
p939
I10
sS'YHR190W'
p940
I12
sS'YLR106C'
p941
I28
sS'YKL157W'
p942
I11
sS'YKR002W'
p943
I2
sS'YBR003W'
p944
I5
sS'YDR398W'
p945
I11
sS'YCR095W-A'
p946
I1
sS'YPR129W'
p947
I8
sS'YDL113C'
p948
I5
sS'YDL099W'
p949
I7
sS'YGL226C-A'
p950
I5
sS'YJL147C'
p951
I4
sS'YBR247C'
p952
I9
sS'YLR185W'
p953
I51
sS'YJL210W'
p954
I4
sS'YIL001W'
p955
I2
sS'YAL010C'
p956
I2
sS'YIL154C'
p957
I2
sS'YPL149W'
p958
I6
sS'YBR165W'
p959
I2
sS'YLL019C'
p960
I4
sS'YHR075C'
p961
I2
sS'YKL004W'
p962
I5
sS'YGR076C'
p963
I5
sS'YFR031C'
p964
I10
sS'YPL154C'
p965
I19
sS'YJR110W'
p966
I2
sS'YIL149C'
p967
I22
sS'YPL101W'
p968
I4
sS'YLR258W'
p969
I3
sS'YNR015W'
p970
I5
sS'YJR098C'
p971
I1
sS'YLR350W'
p972
I4
sS'YGR254W'
p973
I12
sS'YHR176W'
p974
I2
sS'YGR163W'
p975
I8
sS'YKL022C'
p976
I4
sS'YDL164C'
p977
I8
sS'YJR050W'
p978
I3
sS'YOR156C'
p979
I1
sS'YJL101C'
p980
I6
sS'YDL211C'
p981
I1
sS'YNL006W'
p982
I7
sS'YGL210W'
p983
I7
sS'YPR110C'
p984
I22
sS'YPL194W'
p985
I2
sS'YAL058W'
p986
I5
sS'YDR319C'
p987
I4
sS'YFL033C'
p988
I7
sS'YKL095W'
p989
I1
sS'YJR136C'
p990
I5
sS'YIL094C'
p991
I22
sS'YJL098W'
p992
I6
sS'YLR451W'
p993
I4
sS'YFR017C'
p994
I1
sS'YLR342W-A'
p995
I3
sS'YML108W'
p996
I5
sS'YIL076W'
p997
I4
sS'YOL044W'
p998
I5
sS'YMR310C'
p999
I5
sS'YLR323C'
p1000
I1
sS'YBL038W'
p1001
I7
sS'YOR085W'
p1002
I2
sS'YGR054W'
p1003
I17
sS'YHL039W'
p1004
I6
sS'YGR189C'
p1005
I17
sS'YNL278W'
p1006
I2
sS'YIR003W'
p1007
I8
sS'YOR363C'
p1008
I5
sS'YNL087W'
p1009
I10
sS'YLR318W'
p1010
I1
sS'YOR341W'
p1011
I33
sS'YOR067C'
p1012
I9
sS'YNL024C-A'
p1013
I5
sS'YDR296W'
p1014
I9
sS'YGL232W'
p1015
I8
sS'YPR091C'
p1016
I7
sS'YGR141W'
p1017
I5
sS'YGR094W'
p1018
I70
sS'YDL122W'
p1019
I21
sS'YNR048W'
p1020
I2
sS'YDR191W'
p1021
I2
sS'YMR243C'
p1022
I13
sS'YHR028C'
p1023
I11
sS'YBR265W'
p1024
I8
sS'YBL007C'
p1025
I14
sS'YNR037C'
p1026
I4
sS'YOL113W'
p1027
I5
sS'YCL024W'
p1028
I1
sS'YAL032C'
p1029
I3
sS'YGL145W'
p1030
I7
sS'YHR137W'
p1031
I7
sS'YBR230C'
p1032
I4
sS'YNL252C'
p1033
I6
sS'YBR187W'
p1034
I17
sS'YMR198W'
p1035
I4
sS'YCR003W'
p1036
I2
sS'YMR316C-B'
p1037
I1
sS'YMR316C-A'
p1038
I1
sS'YOR020W-A'
p1039
I2
sS'YDR511W'
p1040
I2
sS'YMR163C'
p1041
I2
sS'YDL177C'
p1042
I1
sS'YBR068C'
p1043
I26
sS'YDR043C'
p1044
I6
sS'YMR250W'
p1045
I1
sS'YEL015W'
p1046
I11
sS'YBL103C'
p1047
I3
sS'YEL040W'
p1048
I25
sS'YBR020W'
p1049
I3
sS'YLR418C'
p1050
I6
sS'YPR013C'
p1051
I2
sS'YER059W'
p1052
I5
sS'YKL087C'
p1053
I5
sS'YPL153C'
p1054
I2
sS'YBL025W'
p1055
I2
sS'YOL066C'
p1056
I5
sS'YDR126W'
p1057
I3
sS'YPL216W'
p1058
I3
sS'YHR115C'
p1059
I6
sS'YOR223W'
p1060
I3
sS'YER124C'
p1061
I35
sS'YEL022W'
p1062
I13
sS'YIL053W'
p1063
I91
sS'YOL019W'
p1064
I3
sS'YER153C'
p1065
I2
sS'YJL190C'
p1066
I86
sS'YMR218C'
p1067
I10
sS'YLR052W'
p1068
I5
sS'YNL230C'
p1069
I2
sS'YPL256C'
p1070
I6
sS'YKL201C'
p1071
I3
sS'YLL049W'
p1072
I5
sS'YOL026C'
p1073
I6
sS'YDL069C'
p1074
I1
sS'YGL167C'
p1075
I16
sS'YDR236C'
p1076
I6
sS'YJL042W'
p1077
I6
sS'YER037W'
p1078
I1
sS'YCR092C'
p1079
I4
sS'YDR160W'
p1080
I7
sS'YJL111W'
p1081
I31
sS'YHR021C'
p1082
I69
sS'YNL192W'
p1083
I15
sS'YLL010C'
p1084
I8
sS'YMR058W'
p1085
I28
sS'YLR436C'
p1086
I5
sS'YJR112W-A'
p1087
I1
sS'YOR290C'
p1088
I12
sS'YKL114C'
p1089
I14
sS'YML024W'
p1090
I34
sS'YML093W'
p1091
I23
sS'YJR077C'
p1092
I7
sS'YHR197W'
p1093
I14
sS'YDL112W'
p1094
I11
sS'YBR002C'
p1095
I3
sS'YDR276C'
p1096
I13
sS'YLR200W'
p1097
I8
sS'YKL154W'
p1098
I4
sS'YKR003W'
p1099
I5
sS'YDL074C'
p1100
I19
sS'YLR107W'
p1101
I7
sS'YLR121C'
p1102
I5
sS'YDL052C'
p1103
I11
sS'YKR061W'
p1104
I5
sS'YKL135C'
p1105
I5
sS'YML075C'
p1106
I5
sS'YDL183C'
p1107
I4
sS'YML002W'
p1108
I1
sS'YNL265C'
p1109
I2
sS'YER011W'
p1110
I2
sS'YCL049C'
p1111
I2
sS'YGL107C'
p1112
I4
sS'YGR271C-A'
p1113
I6
sS'YDR169C'
p1114
I2
sS'YOR238W'
p1115
I2
sS'YNR041C'
p1116
I5
sS'YMR090W'
p1117
I1
sS'YDL134C'
p1118
I10
sS'YMR272C'
p1119
I7
sS'YBR098W'
p1120
I4
sS'YPR108W'
p1121
I10
sS'YKL132C'
p1122
I4
sS'YKL054C'
p1123
I14
sS'YHR171W'
p1124
I3
sS'YGR162W'
p1125
I35
sS'YDL165W'
p1126
I2
sS'YBR291C'
p1127
I3
sS'YDR258C'
p1128
I10
sS'YDR520C'
p1129
I5
sS'YKL023W'
p1130
I5
sS'YJR051W'
p1131
I10
sS'YKL094W'
p1132
I10
sS'YOL030W'
p1133
I9
sS'YDR318W'
p1134
I1
sS'YFL034W'
p1135
I7
sS'YER080W'
p1136
I13
sS'YPL179W'
p1137
I8
sS'YKL164C'
p1138
I10
sS'YJR135C'
p1139
I3
sS'YFR032C-A'
p1140
I73
sS'YGL213C'
p1141
I7
sS'YFR032C-B'
p1142
I1
sS'YDR147W'
p1143
I8
sS'YGR217W'
p1144
I4
sS'YBL080C'
p1145
I2
sS'YMR076C'
p1146
I6
sS'YGR205W'
p1147
I1
sS'YMR136W'
p1148
I1
sS'YDL083C'
p1149
I21
sS'YKL113C'
p1150
I8
sS'YNL027W'
p1151
I3
sS'YPL022W'
p1152
I9
sS'YDR440W'
p1153
I7
sS'YJL060W'
p1154
I7
sS'YPL095C'
p1155
I2
sS'YNL327W'
p1156
I15
sS'YLR291C'
p1157
I14
sS'YPR140W'
p1158
I7
sS'YIL122W'
p1159
I3
sS'YIR001C'
p1160
I1
sS'YDL230W'
p1161
I3
sS'YPR166C'
p1162
I2
sS'YJR113C'
p1163
I5
sS'YBR279W'
p1164
I14
sS'YGR024C'
p1165
I11
sS'YHR041C'
p1166
I4
sS'YOR340C'
p1167
I24
sS'YIL156W-B'
p1168
I5
sS'YOL158C'
p1169
I14
sS'YGR097W'
p1170
I4
sS'YOR122C'
p1171
I29
sS'YBR151W'
p1172
I5
sS'YCL025C'
p1173
I6
sS'YBR184W'
p1174
I2
sS'YGL231C'
p1175
I8
sS'YBR199W'
p1176
I16
sS'YHR136C'
p1177
I6
sS'YNL282W'
p1178
I1
sS'YBR286W'
p1179
I64
sS'YGL144C'
p1180
I4
sS'YDR190C'
p1181
I34
sS'YAL031C'
p1182
I4
sS'YBL006C'
p1183
I3
sS'YGR108W'
p1184
I8
sS'YBR264C'
p1185
I4
sS'YBR231C'
p1186
I4
sS'YBR246W'
p1187
I9
sS'YLR186W'
p1188
I12
sS'YDR462W'
p1189
I1
sS'YIL155C'
p1190
I1
sS'YJL148W'
p1191
I22
sS'YDR302W'
p1192
I4
sS'YPL055C'
p1193
I6
sS'YAL013W'
p1194
I4
sS'YDR098C'
p1195
I12
sS'YIL148W'
p1196
I50
sS'YNR016C'
p1197
I52
sS'YJR099W'
p1198
I3
sS'YLR259C'
p1199
I60
sS'YMR034C'
p1200
I1
sS'YFR036W'
p1201
I1
sS'YPL157W'
p1202
I6
sS'YKL005C'
p1203
I3
sS'YDR418W'
p1204
I94
sS'YPL217C'
p1205
I21
sS'YDR061W'
p1206
I12
sS'YBL024W'
p1207
I15
sS'YOL067C'
p1208
I1
sS'YGL079W'
p1209
I3
sS'YDL075W'
p1210
I70
sS'YER150W'
p1211
I1
sS'YDR127W'
p1212
I19
sS'YDR400W'
p1213
I3
sS'YOL018C'
p1214
I3
sS'YOR220W'
p1215
I8
sS'YNL231C'
p1216
I18
sS'YNL264C'
p1217
I2
sS'YOL027C'
p1218
I13
sS'YPL257W'
p1219
I2
sS'YPL120W'
p1220
I4
sS'YIL075C'
p1221
I25
sS'YOL145C'
p1222
I15
sS'YJL099W'
p1223
I4
sS'YHR149C'
p1224
I7
sS'YIL020C'
p1225
I11
sS'YDR395W'
p1226
I20
sS'YNR074C'
p1227
I3
sS'YDR005C'
p1228
I2
sS'YPR154W'
p1229
I2
sS'YIL097W'
p1230
I1
sS'YOL045W'
p1231
I11
sS'YFR010W'
p1232
I22
sS'YHL009C'
p1233
I5
sS'YMR311C'
p1234
I5
sS'YIL024C'
p1235
I1
sS'YPR101W'
p1236
I3
sS'YIL008W'
p1237
I9
sS'YOR236W'
p1238
I7
sS'YBL039C'
p1239
I21
sS'YGR188C'
p1240
I7
sS'YNL048W'
p1241
I12
sS'YNL086W'
p1242
I1
sS'YGL064C'
p1243
I4
sS'YLR126C'
p1244
I6
sS'YDL053C'
p1245
I4
sS'YBL055C'
p1246
I4
sS'YKL109W'
p1247
I1
sS'YKR062W'
p1248
I11
sS'YBR235W'
p1249
I4
sS'YMR119W'
p1250
I2
sS'YER010C'
p1251
I4
sS'YER176W'
p1252
I13
sS'YDL180W'
p1253
I1
sS'YMR097C'
p1254
I3
sS'YDL133W'
p1255
I10
sS'YOR131C'
p1256
I4
sS'YLR166C'
p1257
I6
sS'YMR271C'
p1258
I2
sS'YBR008C'
p1259
I3
sS'YPL004C'
p1260
I28
sS'YHR079C'
p1261
I4
sS'YMR199W'
p1262
I11
sS'YER118C'
p1263
I11
sS'YMR253C'
p1264
I3
sS'YJL127C-B'
p1265
I2
sS'YMR162C'
p1266
I7
sS'YEL009C'
p1267
I64
sS'YDR498C'
p1268
I6
sS'YOR257W'
p1269
I3
sS'YGR002C'
p1270
I6
sS'YDR042C'
p1271
I2
sS'YGR075C'
p1272
I2
sS'YDR111C'
p1273
I2
sS'YGR253C'
p1274
I27
sS'YDR510W'
p1275
I32
sS'YPL050C'
p1276
I8
sS'YBR023C'
p1277
I10
sS'YPR045C'
p1278
I7
sS'YER058W'
p1279
I4
sS'YPR010C'
p1280
I33
sS'YPL231W'
p1281
I46
sS'YLR148W'
p1282
I8
sS'YMR137C'
p1283
I4
sS'YDL082W'
p1284
I37
sS'YKL155C'
p1285
I4
sS'YMR071C'
p1286
I10
sS'YBR162W-A'
p1287
I8
sS'YKR055W'
p1288
I1
sS'YFL042C'
p1289
I6
sS'YIR035C'
p1290
I6
sS'YBL083C'
p1291
I2
sS'YDR148C'
p1292
I9
sS'YJR034W'
p1293
I1
sS'YBR158W'
p1294
I18
sS'YPL096W'
p1295
I5
sS'YNL026W'
p1296
I4
sS'YDR335W'
p1297
I12
sS'YER175C'
p1298
I7
sS'YGR206W'
p1299
I3
sS'YGL189C'
p1300
I68
sS'YPR036W-A'
p1301
I15
sS'YNL320W'
p1302
I3
sS'YDR443C'
p1303
I5
sS'YDR211W'
p1304
I15
sS'YCR095C'
p1305
I5
sS'YLL011W'
p1306
I7
sS'YCR077C'
p1307
I7
sS'YLR437C'
p1308
I3
sS'YNL306W'
p1309
I9
sS'YNL191W'
p1310
I2
sS'YDR237W'
p1311
I4
sS'YOR297C'
p1312
I1
sS'YKL115C'
p1313
I2
sS'YKR048C'
p1314
I22
sS'YOR182C'
p1315
I27
sS'YBR001C'
p1316
I8
sS'YPL003W'
p1317
I4
sS'YCL033C'
p1318
I4
sS'YHR196W'
p1319
I24
sS'YKL108W'
p1320
I4
sS'YPR067W'
p1321
I4
sS'YML092C'
p1322
I14
sS'YML025C'
p1323
I6
sS'YJR074W'
p1324
I3
sS'YPR127W'
p1325
I6
sS'YLR100W'
p1326
I21
sS'YDL148C'
p1327
I12
sS'YAL012W'
p1328
I24
sS'YJR134C'
p1329
I11
sS'YMR288W'
p1330
I8
sS'YBR167C'
p1331
I3
sS'YIL156W'
p1332
I2
sS'YBR241C'
p1333
I1
sS'YPL196W'
p1334
I2
sS'YJL149W'
p1335
I4
sS'YNR017W'
p1336
I16
sS'YNL168C'
p1337
I6
sS'YFR037C'
p1338
I16
sS'YDR364C'
p1339
I7
sS'YLR352W'
p1340
I2
sS'YJL212C'
p1341
I7
sS'YML007W'
p1342
I8
sS'YPL156C'
p1343
I3
sS'YNL312W'
p1344
I12
sS'YLR187W'
p1345
I2
sS'YDR461W'
p1346
I6
sS'YNL113W'
p1347
I8
sS'YDR099W'
p1348
I9
sS'YLR229C'
p1349
I8
sS'YKL133C'
p1350
I1
sS'YJR052W'
p1351
I8
sS'YKL188C'
p1352
I2
sS'YLR292C'
p1353
I12
sS'YDR481C'
p1354
I20
sS'YKL020C'
p1355
I8
sS'YAL007C'
p1356
I11
sS'YHR170W'
p1357
I31
sS'YLR312W-A'
p1358
I6
sS'YDR259C'
p1359
I1
sS'YGL120C'
p1360
I26
sS'YBR009C'
p1361
I3
sS'YKL068W'
p1362
I5
sS'YDL166C'
p1363
I9
sS'YPL152W-A'
p1364
I1
sS'YLR261C'
p1365
I5
sS'YGL212W'
p1366
I2
sS'YER081W'
p1367
I5
sS'YPL178W'
p1368
I11
sS'YGL057C'
p1369
I5
sS'YNL008C'
p1370
I7
sS'YOL111C'
p1371
I7
sS'YDR004W'
p1372
I4
sS'YFR034W-A'
p1373
I2
sS'YNR075W'
p1374
I2
sS'YFR011C'
p1375
I6
sS'YIL074C'
p1376
I7
sS'YMR312W'
p1377
I3
sS'YIL161W'
p1378
I1
sS'YOL144W'
p1379
I23
sS'YMR297W'
p1380
I25
sS'YHR015W'
p1381
I2
sS'YLR457C'
p1382
I4
sS'YGL178W'
p1383
I1
sS'YNL249C'
p1384
I2
sS'YMR211W'
p1385
I3
sS'YGR056W'
p1386
I3
sS'YGR121C'
p1387
I1
sS'YDL184C'
p1388
I11
sS'YGL065C'
p1389
I5
sS'YOR052C'
p1390
I2
sS'YHR099W'
p1391
I9
sS'YLR243W'
p1392
I4
sS'YGR096W'
p1393
I1
sS'YHR066W'
p1394
I5
sS'YJL203W'
p1395
I3
sS'YJR112W'
p1396
I4
sS'YDL231C'
p1397
I5
sS'YGR116W'
p1398
I28
sS'YIL069C'
p1399
I16
sS'YJR083C'
p1400
I2
sS'YOL159C'
p1401
I1
sS'YKR084C'
p1402
I15
sS'YAL030W'
p1403
I5
sS'YGL147C'
p1404
I67
sS'YBR263W'
p1405
I34
sS'YOL086C'
p1406
I627
sS'YBL001C'
p1407
I9
sS'YBR185C'
p1408
I3
sS'YOR010C'
p1409
I1
sS'YDR019C'
p1410
I19
sS'YBR150C'
p1411
I2
sS'YER119C'
p1412
I1
sS'YLR048W'
p1413
I66
sS'YDR381C-A'
p1414
I2
sS'YMR196W'
p1415
I5
sS'YMR161W'
p1416
I6
sS'YDR499W'
p1417
I2
sS'YKL068W-A'
p1418
I4
sS'YKL141W'
p1419
I6
sS'YJL133C-A'
p1420
I1
sS'YMR013C-A'
p1421
I2
sS'YMR252C'
p1422
I2
sS'YCR101C'
p1423
I1
sS'YGL246C'
p1424
I5
sS'YCR054C'
p1425
I2
sS'YDR045C'
p1426
I3
sS'YPL232W'
p1427
I8
sS'YEL017W'
p1428
I10
sS'YGR252W'
p1429
I5
sS'YDL215C'
p1430
I5
sS'YGR003W'
p1431
I5
sS'YDR517W'
p1432
I7
sS'YGL043W'
p1433
I11
sS'YOR256C'
p1434
I8
sS'YPR011C'
p1435
I2
sS'YLL061W'
p1436
I4
sS'YDR110W'
p1437
I10
sS'YLR390W-A'
p1438
I5
sS'YDR419W'
p1439
I3
sS'YOR361C'
p1440
I56
sS'YOR221C'
p1441
I6
sS'YPL214C'
p1442
I5
sS'YGR029W'
p1443
I5
sS'YFL034C-A'
p1444
I16
sS'YOR334W'
p1445
I3
sS'YOL064C'
p1446
I7
sS'YBL023C'
p1447
I7
sS'YOR274W'
p1448
I4
sS'YOR329C'
p1449
I2
sS'YER151C'
p1450
I8
sS'YPL209C'
p1451
I3
sS'YDR124W'
p1452
I1
sS'YEL039C'
p1453
I1
sS'YKL189W'
p1454
I2
sS'YLR050C'
p1455
I5
sS'YOR124C'
p1456
I11
sS'YLL012W'
p1457
I2
sS'YCL052C'
p1458
I8
sS'YDR067C'
p1459
I3
sS'YOR296W'
p1460
I1
sS'YHR032W-A'
p1461
I2
sS'YJL044C'
p1462
I5
sS'YCR094W'
p1463
I8
sS'YNL190W'
p1464
I4
sS'YPR164W'
p1465
I6
sS'YDL239C'
p1466
I3
sS'YER039C'
p1467
I1
sS'YIR029W'
p1468
I1
sS'YEL060C'
p1469
I3
sS'YKR049C'
p1470
I2
sS'YPR179C'
p1471
I4
sS'YHR195W'
p1472
I2
sS'YDL149W'
p1473
I2
sS'YML026C'
p1474
I43
sS'YPR066W'
p1475
I1
sS'YDR229W'
p1476
I7
sS'YJR075W'
p1477
I12
sS'YPR124W'
p1478
I17
sS'YLL029W'
p1479
I15
sS'YDL181W'
p1480
I1
sS'YLR127C'
p1481
I3
sS'YER017C'
p1482
I6
sS'YBR022W'
p1483
I2
sS'YKR063C'
p1484
I6
sS'YML048W'
p1485
I10
sS'YLR027C'
p1486
I27
sS'YDL132W'
p1487
I11
sS'YBL064C'
p1488
I5
sS'YIL045W'
p1489
I2
sS'YMR096W'
p1490
I2
sS'YGR229C'
p1491
I15
sS'YLR167W'
p1492
I288
sS'YMR270C'
p1493
I7
sS'YLR293C'
p1494
I89
sS'YLR228C'
p1495
I4
sS'YJR053W'
p1496
I3
sS'YGR182C'
p1497
I3
sS'YJL171C'
p1498
I8
sS'YMR237W'
p1499
I18
sS'YKL021C'
p1500
I13
sS'YDR453C'
p1501
I3
sS'YDL167C'
p1502
I11
sS'YLR388W'
p1503
I16
sS'YKL069W'
p1504
I5
sS'YMR003W'
p1505
I5
sS'YPL177C'
p1506
I7
sS'YLR373C'
p1507
I1
sS'YKL092C'
p1508
I7
sS'YDR322C-A'
p1509
I7
sS'YLR260W'
p1510
I5
sS'YDL241W'
p1511
I2
sS'YKL152C'
p1512
I614
sS'YJR035W'
p1513
I3
sS'YKR054C'
p1514
I5
sS'YMR001C'
p1515
I7
sS'YBL082C'
p1516
I5
sS'YDL081C'
p1517
I124
sS'YIR034C'
p1518
I3
sS'YMR138W'
p1519
I4
sS'YGL013C'
p1520
I5
sS'YFL018C'
p1521
I16
sS'YJR068W'
p1522
I4
sS'YJL139C'
p1523
I2
sS'YGR207C'
p1524
I12
sS'YDR212W'
p1525
I23
sS'YLR456W'
p1526
I2
sS'YNL052W'
p1527
I3
sS'YPL097W'
p1528
I4
sS'YDR459C'
p1529
I1
sS'YPL079W'
p1530
I42
sS'YLR375W'
p1531
I3
sS'YDR231C'
p1532
I2
sS'YMR038C'
p1533
I18
sS'YJL066C'
p1534
I1
sS'YNL025C'
p1535
I5
sS'YOR106W'
p1536
I4
sS'YGR121W-A'
p1537
I1
sS'YGR091W'
p1538
I4
sS'YDL232W'
p1539
I1
sS'YGR117C'
p1540
I7
sS'YBR196C'
p1541
I96
sS'YLR242C'
p1542
I3
sS'YOR342C'
p1543
I6
sS'YJR148W'
p1544
I49
sS'YFR029W'
p1545
I2
sS'YBR153W'
p1546
I2
sS'YJR082C'
p1547
I2
sS'YOR073W'
p1548
I2
sS'YOL087C'
p1549
I2
sS'YNL134C'
p1550
I2
sS'YAL037W'
p1551
I1
sS'YOR008C'
p1552
I7
sS'YGL146C'
p1553
I1
sS'YDR291W'
p1554
I6
sS'YCR051W'
p1555
I12
sS'YBR262C'
p1556
I2
sS'YMR289W'
p1557
I7
sS'YER070W'
p1558
I18
sS'YPL199C'
p1559
I12
sS'YAL015C'
p1560
I2
sS'YFL036W'
p1561
I6
sS'YJR133W'
p1562
I8
sS'YIL157C'
p1563
I3
sS'YIL051C'
p1564
I56
sS'YPL057C'
p1565
I2
sS'YMR030W-A'
p1566
I1
sS'YNR010W'
p1567
I2
sS'YDR365C'
p1568
I30
sS'YPL151C'
p1569
I5
sS'YKL007W'
p1570
I7
sS'YNL169C'
p1571
I7
sS'YFR034C'
p1572
I5
sS'YHR070W'
p1573
I7
sS'YDR460W'
p1574
I6
sS'YNL112W'
p1575
I22
sS'YHL047C'
p1576
I13
sS'YOR360C'
p1577
I7
sS'YOR335C'
p1578
I46
sS'YDR416W'
p1579
I9
sS'YGL129C'
p1580
I6
sS'YOL065C'
p1581
I5
sS'YMR181C'
p1582
I1
sS'YDR097C'
p1583
I6
sS'YBL022C'
p1584
I17
sS'YPL215W'
p1585
I3
sS'YOL130W'
p1586
I8
sS'YDR125C'
p1587
I1
sS'YOR095C'
p1588
I23
sS'YEL038W'
p1589
I5
sS'YCL014W'
p1590
I4
sS'YOL025W'
p1591
I2
sS'YLR051C'
p1592
I8
sS'YMR028W'
p1593
I4
sS'YPL208W'
p1594
I3
sS'YOL147C'
p1595
I2
sS'YNL280C'
p1596
I6
sS'YDR007W'
p1597
I8
sS'YGR222W'
p1598
I3
sS'YPR089W'
p1599
I8
sS'YBR233W'
p1600
I3
sS'YPL122C'
p1601
I7
sS'YDL086W'
p1602
I5
sS'YHR012W'
p1603
I8
sS'YIL022W'
p1604
I12
sS'YNL248C'
p1605
I12
sS'YHR202W'
p1606
I1
sS'YMR313C'
p1607
I5
sS'YDR336W'
p1608
I4
sS'YLR326W'
p1609
I3
sS'YGL179C'
p1610
I3
sS'YGR120C'
p1611
I3
sS'YBR025C'
p1612
I57
sS'YML001W'
p1613
I20
sS'YLL028W'
p1614
I3
sS'YER016W'
p1615
I4
sS'YDR438W'
p1616
I1
sS'YDR073W'
p1617
I1
sS'YER170W'
p1618
I1
sS'YPL096C-A'
p1619
I1
sS'YJR008W'
p1620
I1
sS'YKL222C'
p1621
I1
sS'YML058W-A'
p1622
I1
sS'YLR026C'
p1623
I7
sS'YLR139C'
p1624
I1
sS'YJR065C'
p1625
I14
sS'YHR094C'
p1626
I8
sS'YHR008C'
p1627
I5
sS'YMR277W'
p1628
I9
sS'YML049C'
p1629
I4
sS'YCR068W'
p1630
I1
sS'YLR446W'
p1631
I1
sS'YGL125W'
p1632
I1
sS'YLR164W'
p1633
I3
sS'YKR104W'
p1634
I2
sS'YDL033C'
p1635
I1
sS'YOR248W'
p1636
I8
sS'YHR209W'
p1637
I2
sS'YGL247W'
p1638
I2
sS'YER116C'
p1639
I1
sS'YMR160W'
p1640
I1
sS'YCR100C'
p1641
I2
sS'YPR074C'
p1642
I49
sS'YCR057C'
p1643
I14
sS'YMR197C'
p1644
I7
sS'YDR516C'
p1645
I3
sS'YPL233W'
p1646
I2
sS'YHR024C'
p1647
I9
sS'YDR210W'
p1648
I9
sS'YGR251W'
p1649
I4
sS'YLL060C'
p1650
I3
sS'YPR047W'
p1651
I1
sS'YKL219W'
p1652
I3
sS'YDR044W'
p1653
I3
sS'YJR005C-A'
p1654
I1
sS'YEL016C'
p1655
I2
sS'YKL078W'
p1656
I9
sS'YOL128C'
p1657
I3
sS'YJR032W'
p1658
I11
sS'YIR037W'
p1659
I17
sS'YIR015W'
p1660
I8
sS'YGL012W'
p1661
I18
sS'YOL057W'
p1662
I12
sS'YMR073C'
p1663
I4
sS'YAR018C'
p1664
I7
sS'YMR139W'
p1665
I3
sS'YDL080C'
p1666
I4
sS'YOR172W'
p1667
I3
sS'YOR105W'
p1668
I2
sS'YDR541C'
p1669
I1
sS'YDR213W'
p1670
I5
sS'YNL053W'
p1671
I4
sS'YNL322C'
p1672
I7
sS'YGR208W'
p1673
I15
sS'YNL024C'
p1674
I3
sS'YBL058W'
p1675
I22
sS'YKR079C'
p1676
I8
sS'YNL197C'
p1677
I3
sS'YMR055C'
p1678
I3
sS'YLR439W'
p1679
I3
sS'YCR020C'
p1680
I2
sS'YCL051W'
p1681
I4
sS'YNL304W'
p1682
I2
sS'YBL039C-A'
p1683
I1
sS'YLL013C'
p1684
I4
sS'YGL194C-A'
p1685
I2
sS'YER038C'
p1686
I3
sS'YPR125W'
p1687
I8
sS'YHR049W'
p1688
I7
sS'YEL061C'
p1689
I3
sS'YBR007C'
p1690
I3
sS'YML027W'
p1691
I3
sS'YPL001W'
p1692
I4
sS'YDR228C'
p1693
I6
sS'YHR194W'
p1694
I2
sS'YGR288W'
p1695
I1
sS'YOR295W'
p1696
I1
sS'YPR065W'
p1697
I4
sS'YDR071C'
p1698
I14
sS'YOR158W'
p1699
I3
sS'YGR140W'
p1700
I3
sS'YDL208W'
p1701
I28
sS'YHR038W'
p1702
I2
sS'YNL159C'
p1703
I3
sS'YAL014C'
p1704
I5
sS'YFL037W'
p1705
I18
sS'YJR132W'
p1706
I7
sS'YCR020W-B'
p1707
I2
sS'YBR243C'
p1708
I6
sS'YLR181C'
p1709
I12
sS'YNL111C'
p1710
I6
sS'YPL058C'
p1711
I4
sS'YBL056W'
p1712
I19
sS'YNR011C'
p1713
I4
sS'YIL050W'
p1714
I4
sS'YLR309C'
p1715
I20
sS'YGL256W'
p1716
I4
sS'YIL068C'
p1717
I12
sS'YJL012C'
p1718
I53
sS'YJL065C'
p1719
I3
sS'YNR034W'
p1720
I2
sS'YJL170C'
p1721
I1
sS'YKL026C'
p1722
I2
sS'YLL015W'
p1723
I9
sS'YKR020W'
p1724
I3
sS'YMR202W'
p1725
I31
sS'YDR308C'
p1726
I3
sS'YLR372W'
p1727
I23
sS'YKL066W'
p1728
I11
sS'YMR004W'
p1729
I8
sS'YER083C'
p1730
I4
sS'YHR050W'
p1731
I9
sS'YPL176C'
p1732
I6
sS'YLR389C'
p1733
I7
sS'YHR172W'
p1734
I4
sS'YDL168W'
p1735
I12
sS'YKL091C'
p1736
I6
sS'YDL240W'
p1737
I3
sS'YBR234C'
p1738
I15
sS'YFR013W'
p1739
I5
sS'YBR261C'
p1740
I5
sS'YPR088C'
p1741
I26
sS'YHR013C'
p1742
I12
sS'YNL253W'
p1743
I4
sS'YOL040C'
p1744
I147
sS'YGR072W'
p1745
I5
sS'YNL287W'
p1746
I21
sS'YIL023C'
p1747
I4
sS'YOL146W'
p1748
I4
sS'YHR144C'
p1749
I10
sS'YPR200C'
p1750
I1
sS'YLR327C'
p1751
I1
sS'YBR229C'
p1752
I9
sS'YMR100W'
p1753
I9
sS'YDR297W'
p1754
I6
sS'YGR123C'
p1755
I10
sS'YMR314W'
p1756
I23
sS'YLR455W'
p1757
I3
sS'YNL247W'
p1758
I25
sS'YLR413W'
p1759
I15
sS'YMR184W'
p1760
I3
sS'YPL118W'
p1761
I8
sS'YLR241W'
p1762
I8
sS'YGR090W'
p1763
I16
sS'YDL233W'
p1764
I5
sS'YFR028C'
p1765
I10
sS'YNL132W'
p1766
I14
sS'YDL120W'
p1767
I6
sS'YJR149W'
p1768
I2
sS'YGL141W'
p1769
I5
sS'YBR152W'
p1770
I2
sS'YDR292C'
p1771
I10
sS'YKR072C'
p1772
I13
sS'YNL137C'
p1773
I12
sS'YAL036C'
p1774
I11
sS'YCL028W'
p1775
I11
sS'YHR005C-A'
p1776
I10
sS'YHR208W'
p1777
I43
sS'YDL065C'
p1778
I6
sS'YGL244W'
p1779
I11
sS'YMR167W'
p1780
I4
sS'YOR249C'
p1781
I4
sS'YBR296C'
p1782
I6
sS'YDL030W'
p1783
I12
sS'YER117W'
p1784
I40
sS'YOR301W'
p1785
I3
sS'YKL218C'
p1786
I4
sS'YEL011W'
p1787
I3
sS'YGR001C'
p1788
I9
sS'YOR140W'
p1789
I2
sS'YLL063C'
p1790
I1
sS'YGR250C'
p1791
I4
sS'YDR515W'
p1792
I5
sS'YOR254C'
p1793
I33
sS'YOR201C'
p1794
I7
sS'YOR276W'
p1795
I20
sS'YMR309C'
p1796
I8
sS'YGL250W'
p1797
I1
sS'YOR089C'
p1798
I9
sS'YNL146C-A'
p1799
I1
sS'YOR230W'
p1800
I22
sS'YBR166C'
p1801
I8
sS'YMR180C'
p1802
I4
sS'YGL163C'
p1803
I4
sS'YOR336W'
p1804
I4
sS'YBL021C'
p1805
I7
sS'YLL045C'
p1806
I42
sS'YLR007W'
p1807
I7
sS'YPL252C'
p1808
I2
sS'YOR094W'
p1809
I5
sS'YER157W'
p1810
I6
sS'YOL022C'
p1811
I7
sS'YNL261W'
p1812
I9
sS'YMR054W'
p1813
I6
sS'YDR065W'
p1814
I4
sS'YBL059W'
p1815
I4
sS'YNL305C'
p1816
I5
sS'YIL047C-A'
p1817
I6
sS'YLL014W'
p1818
I8
sS'YJL046W'
p1819
I4
sS'YGR047C'
p1820
I9
sS'YCR021C'
p1821
I1
sS'YKR078W'
p1822
I1
sS'YPR079W'
p1823
I2
sS'YOR191W'
p1824
I10
sS'YDR170C'
p1825
I24
sS'YDR272W'
p1826
I4
sS'YHR048W'
p1827
I2
sS'YOR159C'
p1828
I2
sS'YML020W'
p1829
I3
sS'YLR103C'
p1830
I1
sS'YOR294W'
p1831
I8
sS'YEL062W'
p1832
I2
sS'YPR031W'
p1833
I5
sS'YBR006W'
p1834
I2
sS'YLR038C'
p1835
I2
sS'YGL093W'
p1836
I6
sS'YOR038C'
p1837
I11
sS'YJL062W-A'
p1838
I2
sS'YNL096C'
p1839
I27
sS'YNL212W'
p1840
I9
sS'YDR387C'
p1841
I3
sS'YER015W'
p1842
I2
sS'YLR353W'
p1843
I4
sS'YML006C'
p1844
I5
sS'YPR046W'
p1845
I3
sS'YDR439W'
p1846
I2
sS'YBR024W'
p1847
I3
sS'YFL039C'
p1848
I89
sS'YLR401C'
p1849
I12
sS'YLR125W'
p1850
I1
sS'YER171W'
p1851
I4
sS'YDL047W'
p1852
I9
sS'YML046W'
p1853
I5
sS'YGL124C'
p1854
I4
sS'YDL130W'
p1855
I113
sS'YMR276W'
p1856
I15
sS'YDL160C-A'
p1857
I2
sS'YLR165C'
p1858
I2
sS'YLR025W'
p1859
I14
sS'YER139C'
p1860
I2
sS'YMR094W'
p1861
I5
sS'YGR146C-A'
p1862
I1
sS'YLR016C'
p1863
I5
sS'YDR341C'
p1864
I31
sS'YKL027W'
p1865
I8
sS'YJL173C'
p1866
I3
sS'YDR152W'
p1867
I14
sS'YER019C-A'
p1868
I9
sS'YKL127W'
p1869
I7
sS'YDR309C'
p1870
I4
sS'YKR021W'
p1871
I3
sS'YOR307C'
p1872
I9
sS'YLR386W'
p1873
I8
sS'YLR371W'
p1874
I6
sS'YDR261C'
p1875
I6
sS'YKL090W'
p1876
I1
sS'YMR005W'
p1877
I9
sS'YLR262C'
p1878
I6
sS'YPL175W'
p1879
I4
sS'YLR092W'
p1880
I1
sS'YLR423C'
p1881
I2
sS'YMR072W'
p1882
I5
sS'YKL105C'
p1883
I3
sS'YJR033C'
p1884
I2
sS'YDL087C'
p1885
I1
sS'YKR056W'
p1886
I15
sS'YKL150W'
p1887
I4
sS'YMR225C'
p1888
I4
sS'YIR036C'
p1889
I4
sS'YMR123W'
p1890
I7
sS'YOR173W'
p1891
I1
sS'YNL323W'
p1892
I3
sS'YFR031C-A'
p1893
I27
sS'YGR073C'
p1894
I1
sS'YCL043C'
p1895
I64
sS'YGR209C'
p1896
I18
sS'YML068W'
p1897
I4
sS'YIL052C'
p1898
I69
sS'YNL050C'
p1899
I4
sS'YMR304C-A'
p1900
I7
sS'YIR008C'
p1901
I9
sS'YLR240W'
p1902
I3
sS'YGR093W'
p1903
I5
sS'YGL166W'
p1904
I4
sS'YDL234C'
p1905
I4
sS'YDR036C'
p1906
I7
sS'YHR114W'
p1907
I7
sS'YGL080W'
p1908
I2
sS'YNL136W'
p1909
I6
sS'YKL049C'
p1910
I4
sS'YDR293C'
p1911
I8
sS'YBR155W'
p1912
I4
sS'YJR080C'
p1913
I4
sS'YNR038W'
p1914
I5
sS'YGL140C'
p1915
I12
sS'YCL029C'
p1916
I6
sS'YLR195C'
p1917
I19
sS'YEL023C'
p1918
I2
sS'YOR071C'
p1919
I1
sS'YGR028W'
p1920
I6
sS'YAL017W'
p1921
I4
sS'YFL038C'
p1922
I15
sS'YBR242W'
p1923
I7
sS'YIL056W'
p1924
I2
sS'YNR013C'
p1925
I8
sS'YJR131W'
p1926
I5
sS'YNL158W'
p1927
I3
sS'YBR108W'
p1928
I2
sS'YNR012W'
p1929
I3
sS'YHR073W'
p1930
I7
sS'YJL151C'
p1931
I10
sS'YNL110C'
p1932
I10
sS'YNL076W'
p1933
I6
sS'YDR367W'
p1934
I7
sS'YHR072W'
p1935
I7
sS'YKL001C'
p1936
I6
sS'YBR173C'
p1937
I10
sS'YHR045W'
p1938
I15
sS'YDR386W'
p1939
I5
sS'YGL253W'
p1940
I59
sS'YPR178W'
p1941
I5
sS'YHL032C'
p1942
I5
sS'YJL010C'
p1943
I13
sS'YGL162W'
p1944
I2
sS'YOR271C'
p1945
I13
sS'YMR183C'
p1946
I8
sS'YDR414C'
p1947
I4
sS'YOR337W'
p1948
I5
sS'YFL055W'
p1949
I1
sS'YOR097C'
p1950
I3
sS'YHR118C'
p1951
I4
sS'YNL260C'
p1952
I3
sS'YGL075C'
p1953
I1
sS'YOL023W'
p1954
I4
sS'YPL253C'
p1955
I4
sS'YBL020W'
p1956
I8
sS'YER154W'
p1957
I2
sS'YEL036C'
p1958
I6
sS'YBR260C'
p1959
I4
sS'YHR010W'
p1960
I86
sS'YCL034W'
p1961
I6
sS'YLL048C'
p1962
I25
sS'YPL124W'
p1963
I2
sS'YAL042W'
p1964
I20
sS'YLL021W'
p1965
I14
sS'YAL035W'
p1966
I63
sS'YOL041C'
p1967
I20
sS'YIL071C'
p1968
I1
sS'YNL286W'
p1969
I7
sS'YDR001C'
p1970
I3
sS'YIL162W'
p1971
I5
sS'YOL141W'
p1972
I2
sS'YOL109W'
p1973
I77
sS'YBR195C'
p1974
I4
sS'YIL039W'
p1975
I15
sS'YGR122W'
p1976
I3
sS'YOL077W-A'
p1977
I2
sS'YJL110C'
p1978
I4
sS'YML130C'
p1979
I10
sS'YMR315W'
p1980
I9
sS'YLR328W'
p1981
I11
sS'YBR228W'
p1982
I3
sS'YNL246W'
p1983
I7
sS'YGR046W'
p1984
I4
sS'YDR384C'
p1985
I11
sS'YLR039C'
p1986
I7
sS'YNL097C'
p1987
I4
sS'YER063W'
p1988
I5
sS'YBR090C'
p1989
I4
sS'YER014W'
p1990
I5
sS'YBR027C'
p1991
I1
sS'YPR041W'
p1992
I34
sS'YER172C'
p1993
I13
sS'YNL213C'
p1994
I3
sS'YKL006C-A'
p1995
I3
sS'YDL046W'
p1996
I5
sS'YBR058C'
p1997
I10
sS'YLR024C'
p1998
I5
sS'YLR071C'
p1999
I2
sS'YHR092C'
p2000
I2
sS'YEL058W'
p2001
I14
sS'YMR019W'
p2002
I5
sS'YMR148W'
p2003
I2
sS'YDL199C'
p2004
I1
sS'YDR434W'
p2005
I8
sS'YFL034C-B'
p2006
I5
sS'YBR297W'
p2007
I2
sS'YLR006C'
p2008
I5
sS'YER149C'
p2009
I8
sS'YER114C'
p2010
I12
sS'YHR127W'
p2011
I3
sS'YDL064W'
p2012
I7
sS'YDL031W'
p2013
I14
sS'YMR257C'
p2014
I3
sS'YOR300W'
p2015
I1
sS'YDR514C'
p2016
I4
sS'YMR228W'
p2017
I5
sS'YOR202W'
p2018
I14
sS'YLL062C'
p2019
I1
sS'YHL014C'
p2020
I2
sS'YGR006W'
p2021
I2
sS'YGR079W'
p2022
I6
sS'YDL119C'
p2023
I2
sS'YER045C'
p2024
I2
sS'YKL151C'
p2025
I4
sS'YGL198W'
p2026
I7
sS'YKL104C'
p2027
I17
sS'YBL091C-A'
p2028
I2
sS'YLR422W'
p2029
I5
sS'YLR093C'
p2030
I2
sS'YIR031C'
p2031
I7
sS'YLR361C-A'
p2032
I2
sS'YKR051W'
p2033
I6
sS'YJR030C'
p2034
I2
sS'YBR141W-A'
p2035
I1
sS'YMR030W'
p2036
I1
sS'YGL226W'
p2037
I5
sS'YMR056C'
p2038
I1
sS'YGL010W'
p2039
I1
sS'YML069W'
p2040
I14
sS'YKR019C'
p2041
I2
sS'YGR279C'
p2042
I13
sS'YDR064W'
p2043
I208
sS'YMR275C'
p2044
I6
sS'YCR073C'
p2045
I5
sS'YLR324W'
p2046
I3
sS'YOL098C'
p2047
I12
sS'YMR053C'
p2048
I1
sS'YKR077W'
p2049
I3
sS'YDR173C'
p2050
I3
sS'YBR208C'
p2051
I6
sS'YCL057W'
p2052
I16
sS'YBR072W'
p2053
I2
sS'YBR005W'
p2054
I2
sS'YDR273W'
p2055
I2
sS'YPR063C'
p2056
I4
sS'YDR026C'
p2057
I4
sS'YGR231C'
p2058
I14
sS'YEL063C'
p2059
I5
sS'YDR454C'
p2060
I29
sS'YML021C'
p2061
I2
sS'YPR032W'
p2062
I3
sS'YDL173W'
p2063
I6
sS'YHR050W-A'
p2064
I2
sS'YJR047C'
p2065
I2
sS'YMR006C'
p2066
I4
sS'YJR130C'
p2067
I4
sS'YKL145W-A'
p2068
I2
sS'YAL016W'
p2069
I16
sS'YMR292W'
p2070
I6
sS'YDR171W'
p2071
I3
sS'YHR011W'
p2072
I2
sS'YPL152W'
p2073
I3
sS'YLR183C'
p2074
I5
sS'YOL093W'
p2075
I4
sS'YPL064C'
p2076
I3
sS'YBR175W'
p2077
I4
sS'YNL077W'
p2078
I4
sS'YBR109C'
p2079
I28
sS'YBR172C'
p2080
I10
sS'YDR346C'
p2081
I16
sS'YJL172W'
p2082
I7
sS'YDR151C'
p2083
I7
sS'YBL078C'
p2084
I2
sS'YFR039C'
p2085
I3
sS'YNL051W'
p2086
I4
sS'YPL092W'
p2087
I8
sS'YPL029W'
p2088
I3
sS'YMR246W'
p2089
I35
sS'YKL024C'
p2090
I15
sS'YKL126W'
p2091
I13
sS'YBR189W'
p2092
I151
sS'YDR306C'
p2093
I4
sS'YKL064W'
p2094
I8
sS'YLR265C'
p2095
I4
sS'YKR022C'
p2096
I2
sS'YLR287C'
p2097
I12
sS'YPL174C'
p2098
I4
sS'YBR236C'
p2099
I8
sS'YPL061W'
p2100
I67
sS'YLR370C'
p2101
I8
sS'YLR387C'
p2102
I9
sS'YAL034C'
p2103
I2
sS'YKL122C'
p2104
I12
sS'YOR070C'
p2105
I5
sS'YAL043C'
p2106
I4
sS'YIL165C'
p2107
I2
sS'YOL042W'
p2108
I3
sS'YER042W'
p2109
I9
sS'YHR146W'
p2110
I22
sS'YPL125W'
p2111
I7
sS'YIL070C'
p2112
I3
sS'YCL037C'
p2113
I3
sS'YDR289C'
p2114
I3
sS'YOR054C'
p2115
I4
sS'YOL140W'
p2116
I12
sS'YML131W'
p2117
I2
sS'YNL245C'
p2118
I3
sS'YGL040C'
p2119
I10
sS'YLR305C'
p2120
I17
sS'YNR024W'
p2121
I4
sS'YOL108C'
p2122
I2
sS'YJL092W'
p2123
I6
sS'YMR316W'
p2124
I6
sS'YIL038C'
p2125
I6
sS'YPL043W'
p2126
I18
sS'YIL138C'
p2127
I11
sS'YJR118C'
p2128
I7
sS'YIL143C'
p2129
I9
sS'YGR092W'
p2130
I4
sS'YNR058W'
p2131
I1
sS'YKL002W'
p2132
I11
sS'YDR328C'
p2133
I15
sS'YLR247C'
p2134
I10
sS'YBL016W'
p2135
I6
sS'YDL235C'
p2136
I4
sS'YOR057W'
p2137
I4
sS'YIR009W'
p2138
I1
sS'YOR362C'
p2139
I20
sS'YGR103W'
p2140
I41
sS'YGR178C'
p2141
I12
sS'YGR057C'
p2142
I2
sS'YDR221W'
p2143
I4
sS'YMR013W-A'
p2144
I2
sS'YJR087W'
p2145
I2
sS'YGL143C'
p2146
I1
sS'YLR001C'
p2147
I1
sS'YOL075C'
p2148
I2
sS'YGR125W'
p2149
I6
sS'YDL067C'
p2150
I5
sS'YOL020W'
p2151
I7
sS'YDR135C'
p2152
I21
sS'YER115C'
p2153
I6
sS'YMR256C'
p2154
I3
sS'YER148W'
p2155
I14
sS'YGL242C'
p2156
I9
sS'YHL015W'
p2157
I186
sS'YOR303W'
p2158
I12
sS'YIL087C'
p2159
I2
sS'YOR252W'
p2160
I4
sS'YBR194W'
p2161
I1
sS'YMR192W'
p2162
I6
sS'YGR078C'
p2163
I4
sS'YOR104W'
p2164
I2
sS'YML074C'
p2165
I35
sS'YMR229C'
p2166
I28
sS'YLL038C'
p2167
I2
sS'YGR007W'
p2168
I9
sS'YOR056C'
p2169
I12
sS'YHL033C'
p2170
I22
sS'YOR270C'
p2171
I38
sS'YDR106W'
p2172
I1
sS'YOL068C'
p2173
I12
sS'YGL252C'
p2174
I9
sS'YBR201W'
p2175
I4
sS'YLL043W'
p2176
I15
sS'YDR415C'
p2177
I3
sS'YGL161C'
p2178
I9
sS'YOL133W'
p2179
I3
sS'YBR037C'
p2180
I4
sS'YKL047W'
p2181
I5
sS'YGR062C'
p2182
I2
sS'YNL263C'
p2183
I5
sS'YOR096W'
p2184
I95
sS'YPR115W'
p2185
I8
sS'YDR128W'
p2186
I6
sS'YOR193W'
p2187
I4
sS'YER093C-A'
p2188
I1
sS'YGL119W'
p2189
I1
sS'YER028C'
p2190
I1
sS'YMR052W'
p2191
I1
sS'YMR103C'
p2192
I1
sS'YCR072C'
p2193
I11
sS'YOR015W'
p2194
I4
sS'YMR203W'
p2195
I11
sS'YCR023C'
p2196
I6
sS'YGR278W'
p2197
I5
sS'YKR076W'
p2198
I2
sS'YBL057C'
p2199
I11
sS'YBR073W'
p2200
I10
sS'YDR225W'
p2201
I26
sS'YDR270W'
p2202
I2
sS'YBR004C'
p2203
I2
sS'YOR181W'
p2204
I2
sS'YGR230W'
p2205
I1
sS'YPR120C'
p2206
I3
sS'YPR062W'
p2207
I31
sS'YBL041W'
p2208
I11
sS'YGL127C'
p2209
I2
sS'YDR528W'
p2210
I4
sS'YDL058W'
p2211
I20
sS'YER173W'
p2212
I2
sS'YBR026C'
p2213
I14
sS'YNL214W'
p2214
I1
sS'YDL185W'
p2215
I44
sS'YER060W'
p2216
I2
sS'YBR091C'
p2217
I2
sS'YPR180W'
p2218
I11
sS'YOR203W'
p2219
I4
sS'YEL013W'
p2220
I8
sS'YNL094W'
p2221
I4
sS'YPR040W'
p2222
I4
sS'YKL220C'
p2223
I1
sS'YDR480W'
p2224
I2
sS'YML004C'
p2225
I12
sS'YOR289W'
p2226
I1
sS'YPL227C'
p2227
I12
sS'YLR222C-A'
p2228
I3
sS'YDL010W'
p2229
I6
sS'YMR024W'
p2230
I9
sS'YBR059C'
p2231
I2
sS'YML019W'
p2232
I9
sS'YDL045C'
p2233
I3
sS'YLR163C'
p2234
I6
sS'YJL207C'
p2235
I9
sS'YDL198C'
p2236
I9
sS'YLR072W'
p2237
I2
sS'YER180C'
p2238
I2
sS'YGR212W'
p2239
I1
sS'YJL011C'
p2240
I2
sS'YKL138C'
p2241
I4
sS'YBL079W'
p2242
I10
sS'YNL056W'
p2243
I5
sS'YPL093W'
p2244
I21
sS'YDR347W'
p2245
I5
sS'YFL001W'
p2246
I4
sS'YDR150W'
p2247
I13
sS'YBR157C'
p2248
I3
sS'YPL188W'
p2249
I4
sS'YPL173W'
p2250
I3
sS'YKL125W'
p2251
I5
sS'YLR264W'
p2252
I32
sS'YKL170W'
p2253
I3
sS'YKR023W'
p2254
I8
sS'YKL038W'
p2255
I1
sS'YDR424C'
p2256
I4
sS'YLR286C'
p2257
I33
sS'YNL016W'
p2258
I17
sS'YBR065C'
p2259
I4
sS'YLR384C'
p2260
I16
sS'YPL060W'
p2261
I1
sS'YML099C'
p2262
I7
sS'YLR421C'
p2263
I14
sS'YLR090W'
p2264
I3
sS'YCR035C'
p2265
I9
sS'YJR064W'
p2266
I22
sS'YML022W'
p2267
I15
sS'YGL081W'
p2268
I2
sS'YER046W'
p2269
I2
sS'YMR029C'
p2270
I6
sS'YIR030C'
p2271
I1
sS'YLR345W'
p2272
I1
sS'YMR121C'
p2273
I3
sS'YFL049W'
p2274
I7
sS'YKR018C'
p2275
I13
sS'YDL150W'
p2276
I13
sS'YOR171C'
p2277
I8
sS'YMR185W'
p2278
I7
sS'YNL038W'
p2279
I10
sS'YKL003C'
p2280
I7
sS'YOL007C'
p2281
I3
sS'YHR001W-A'
p2282
I1
sS'YIL139C'
p2283
I2
sS'YLR246W'
p2284
I2
sS'YJR119C'
p2285
I4
sS'YLR359W'
p2286
I54
sS'YHR069C'
p2287
I5
sS'YJL206C'
p2288
I2
sS'YGL180W'
p2289
I1
sS'YIL142W'
p2290
I35
sS'YFR025C'
p2291
I4
sS'YIR006C'
p2292
I13
sS'YDL035C'
p2293
I4
sS'YJL081C'
p2294
I8
sS'YKL192C'
p2295
I9
sS'YGL082W'
p2296
I8
sS'YIL041W'
p2297
I20
sS'YNL138W'
p2298
I19
sS'YPR098C'
p2299
I5
sS'YJL071W'
p2300
I3
sS'YNR009W'
p2301
I2
sS'YGL142C'
p2302
I4
sS'YGR179C'
p2303
I4
sS'YJR086W'
p2304
I6
sS'YKL065C'
p2305
I11
sS'YBR139W'
p2306
I7
sS'YJR046W'
p2307
I9
sS'YHR188C'
p2308
I6
sS'YBR052C'
p2309
I8
sS'YLR315W'
p2310
I1
sS'YFL023W'
p2311
I8
sS'YBR154C'
p2312
I15
sS'YNL116W'
p2313
I8
sS'YDR092W'
p2314
I6
sS'YNL139C'
p2315
I5
sS'YPL108W'
p2316
I4
sS'YDR361C'
p2317
I12
sS'YBR171W'
p2318
I6
sS'YJL157C'
p2319
I14
sS'YDL042C'
p2320
I7
sS'YNL070W'
p2321
I3
sS'YGL255W'
p2322
I1
sS'YBR082C'
p2323
I15
sS'YFR007W'
p2324
I4
sS'YJL180C'
p2325
I2
sS'YLR333C'
p2326
I33
sS'YOR273C'
p2327
I3
sS'YBR200W'
p2328
I5
sS'YGR181W'
p2329
I6
sS'YAR028W'
p2330
I3
sS'YGL077C'
p2331
I13
sS'YPL204W'
p2332
I10
sS'YOL069W'
p2333
I7
sS'YLL042C'
p2334
I1
sS'YDR412W'
p2335
I10
sS'YIL009C-A'
p2336
I3
sS'YOR091W'
p2337
I18
sS'YKR101W'
p2338
I2
sS'YJL199C'
p2339
I1
sS'YAL040C'
p2340
I2
sS'YDR288W'
p2341
I2
sS'YGL208W'
p2342
I3
sS'YCL036W'
p2343
I6
sS'YIL164C'
p2344
I1
sS'YOR077W'
p2345
I2
sS'YOL143C'
p2346
I21
sS'YOL043C'
p2347
I2
sS'YJL216C'
p2348
I1
sS'YBR237W'
p2349
I8
sS'YIL026C'
p2350
I5
sS'YBR197C'
p2351
I5
sS'YCR076C'
p2352
I3
sS'YHR147C'
p2353
I2
sS'YJL204C'
p2354
I5
sS'YJL093C'
p2355
I7
sS'YPL126W'
p2356
I14
sS'YBR086C'
p2357
I13
sS'YNL244C'
p2358
I26
sS'YNR027W'
p2359
I3
sS'YLR438C-A'
p2360
I8
sS'YOR251C'
p2361
I5
sS'YPR181C'
p2362
I10
sS'YCL008C'
p2363
I2
sS'YBR092C'
p2364
I11
sS'YEL064C'
p2365
I5
sS'YML005W'
p2366
I5
sS'YNL215W'
p2367
I4
sS'YDR529C'
p2368
I8
sS'YCR075W-A'
p2369
I1
sS'YDL059C'
p2370
I1
sS'YOR204W'
p2371
I10
sS'YEL012W'
p2372
I1
sS'YBL040C'
p2373
I11
sS'YPR043W'
p2374
I98
sS'YDR382W'
p2375
I153
sS'YDR483W'
p2376
I23
sS'YOR219C'
p2377
I4
sS'YER061C'
p2378
I3
sS'YLR135W'
p2379
I2
sS'YLR022C'
p2380
I9
sS'YDL237W'
p2381
I4
sS'YPL226W'
p2382
I35
sS'YLR073C'
p2383
I3
sS'YER183C'
p2384
I4
sS'YML018C'
p2385
I9
sS'YDL044C'
p2386
I3
sS'YHR090C'
p2387
I4
sS'YOL021C'
p2388
I11
sS'YER112W'
p2389
I8
sS'YBR295W'
p2390
I4
sS'YKL018W'
p2391
I1
sS'YIL011W'
p2392
I1
sS'YEL034W'
p2393
I44
sS'YNR050C'
p2394
I18
sS'YKR100C'
p2395
I4
sS'YKL208W'
p2396
I3
sS'YIL084C'
p2397
I3
sS'YML110C'
p2398
I12
sS'YOR302W'
p2399
I2
sS'YLR419W'
p2400
I7
sS'YGL048C'
p2401
I20
sS'YHL016C'
p2402
I3
sS'YMR193W'
p2403
I4
sS'YLL039C'
p2404
I4
sS'YCR053W'
p2405
I45
sS'YKL106W'
p2406
I6
sS'YGL019W'
p2407
I11
sS'YLR091W'
p2408
I1
sS'YER047C'
p2409
I6
sS'YPL249C-A'
p2410
I60
sS'YPR029C'
p2411
I5
sS'YKR053C'
p2412
I3
sS'YML098W'
p2413
I5
sS'YJL034W'
p2414
I80
sS'YLR420W'
p2415
I16
sS'YJR067C'
p2416
I6
sS'YFL048C'
p2417
I15
sS'YLR117C'
p2418
I3
sS'YDL153C'
p2419
I17
sS'YOR176W'
p2420
I4
sS'YOR109W'
p2421
I5
sS'YKL061W'
p2422
I3
sS'YJR069C'
p2423
I3
sS'YIR033W'
p2424
I8
sS'YBL089W'
p2425
I3
sS'YDL084W'
p2426
I73
sS'YGL016W'
p2427
I8
sS'YMR120C'
p2428
I25
sS'YER029C'
p2429
I6
sS'YCL055W'
p2430
I2
sS'YGL116W'
p2431
I8
sS'YKR075C'
p2432
I3
sS'YBL054W'
p2433
I6
sS'YOR194C'
p2434
I11
sS'YIL102C-A'
p2435
I1
sS'YMR102C'
p2436
I8
sS'YCR071C'
p2437
I2
sS'YPR144C'
p2438
I10
sS'YDR175C'
p2439
I3
sS'YPR034W'
p2440
I10
sS'YOR189W'
p2441
I4
sS'YOR154W'
p2442
I6
sS'YGR233C'
p2443
I7
sS'YPR121W'
p2444
I3
sS'YBR070C'
p2445
I4
sS'YPR061C'
p2446
I1
sS'YDR351W'
p2447
I10
sS'YNL315C'
p2448
I7
sS'YOR299W'
p2449
I11
sS'YDR224C'
p2450
I32
sS'YDR420W'
p2451
I3
sS'YHR189W'
p2452
I1
sS'YLR385C'
p2453
I1
sS'YMR008C'
p2454
I4
sS'YDR349C'
p2455
I6
sS'YDL133C-A'
p2456
I10
sS'YMR119W-A'
p2457
I2
sS'YDL171C'
p2458
I9
sS'YKL062W'
p2459
I2
sS'YMR023C'
p2460
I5
sS'YJR010W'
p2461
I1
sS'YBR138C'
p2462
I6
sS'YJL218W'
p2463
I5
sS'YLR222C'
p2464
I12
sS'YNL162W'
p2465
I10
sS'YDR093W'
p2466
I16
sS'YMR282C'
p2467
I7
sS'YIL109C'
p2468
I18
sS'YDR362C'
p2469
I8
sS'YFL022C'
p2470
I18
sS'YPL109C'
p2471
I2
sS'YJL156C'
p2472
I6
sS'YNL115C'
p2473
I3
sS'YNL071W'
p2474
I29
sS'YMR088C'
p2475
I7
sS'YGR211W'
p2476
I15
sS'YKL139W'
p2477
I9
sS'YJL069C'
p2478
I13
sS'YLR298C'
p2479
I2
sS'YDL201W'
p2480
I10
sS'YNL057W'
p2481
I1
sS'YJL016W'
p2482
I2
sS'YJR058C'
p2483
I8
sS'YDR464W'
p2484
I9
sS'YDR332W'
p2485
I2
sS'YER087W'
p2486
I2
sS'YLR285W'
p2487
I7
sS'YDR359C'
p2488
I5
sS'YKL124W'
p2489
I4
sS'YLR267W'
p2490
I2
sS'YKL171W'
p2491
I4
sS'YDL219W'
p2492
I4
sS'YCR024C-A'
p2493
I9
sS'YDR206W'
p2494
I5
sS'YJL056C'
p2495
I2
sS'YKR024C'
p2496
I7
sS'YPL063W'
p2497
I16
sS'YKL140W'
p2498
I4
sS'YBR156C'
p2499
I3
sS'YPR141C'
p2500
I13
sS'YEL059C-A'
p2501
I1
sS'YOL142W'
p2502
I4
sS'YDR287W'
p2503
I6
sS'YGL209W'
p2504
I2
sS'YDR405W'
p2505
I4
sS'YLR099W-A'
p2506
I2
sS'YGL041W-A'
p2507
I2
sS'YCL031C'
p2508
I9
sS'YIL027C'
p2509
I3
sS'YPL127C'
p2510
I8
sS'YNL243W'
p2511
I14
sS'YJL090C'
p2512
I5
sS'YJR061W'
p2513
I5
sS'YNR026C'
p2514
I2
sS'YHL044W'
p2515
I3
sS'YHR140W'
p2516
I2
sS'YDR002W'
p2517
I45
sS'YNL297C'
p2518
I8
sS'YMR039C'
p2519
I2
sS'YOL164W'
p2520
I6
sS'YNL039W'
p2521
I5
sS'YHR068W'
p2522
I23
sS'YGR149W'
p2523
I3
sS'YIR002C'
p2524
I6
sS'YPL041C'
p2525
I1
sS'YPL172C'
p2526
I3
sS'YOR344C'
p2527
I4
sS'YLR245C'
p2528
I2
sS'YKL193C'
p2529
I5
sS'YGL083W'
p2530
I2
sS'YGR101W'
p2531
I2
sS'YLR310C'
p2532
I9
sS'YPL078C'
p2533
I19
sS'YJR085C'
p2534
I13
sS'YER155C'
p2535
I24
sS'YJR150C'
p2536
I3
sS'YOR125C'
p2537
I3
sS'YOL077C'
p2538
I19
sS'YDR137W'
p2539
I9
sS'YHR031C'
p2540
I4
sS'YKL209C'
p2541
I21
sS'YLR278C'
p2542
I3
sS'YLR003C'
p2543
I12
sS'YGR049W'
p2544
I2
sS'YDL061C'
p2545
I8
sS'YLR337C'
p2546
I2
sS'YPR167C'
p2547
I1
sS'YEL033W'
p2548
I17
sS'YNR051C'
p2549
I11
sS'YHR122W'
p2550
I3
sS'YHL017W'
p2551
I4
sS'YOR305W'
p2552
I3
sS'YIL085C'
p2553
I13
sS'YMR190C'
p2554
I8
sS'YGR005C'
p2555
I7
sS'YML111W'
p2556
I5
sS'YHL034C'
p2557
I22
sS'YGL240W'
p2558
I2
sS'YCR052W'
p2559
I5
sS'YLR332W'
p2560
I2
sS'YOR272W'
p2561
I18
sS'YOR058C'
p2562
I6
sS'YGR127W'
p2563
I1
sS'YFR006W'
p2564
I20
sS'YHL031C'
p2565
I2
sS'YOR275C'
p2566
I5
sS'YGR088W'
p2567
I1
sS'YOR358W'
p2568
I3
sS'YER036C'
p2569
I51
sS'YAR029W'
p2570
I2
sS'YNL238W'
p2571
I16
sS'YOR090C'
p2572
I9
sS'YJL198W'
p2573
I11
sS'YPL207W'
p2574
I19
sS'YNL138W-A'
p2575
I1
sS'YGL076C'
p2576
I36
sS'YOL135C'
p2577
I4
sS'YOR323C'
p2578
I31
sS'YLL041C'
p2579
I3
sS'YKR074W'
p2580
I7
sS'YCL054W'
p2581
I23
sS'YOR195W'
p2582
I8
sS'YGL117W'
p2583
I3
sS'YER026C'
p2584
I12
sS'YMR201C'
p2585
I4
sS'YMR105C'
p2586
I1
sS'YER182W'
p2587
I2
sS'YLR069C'
p2588
I5
sS'YCR086W'
p2589
I2
sS'YDR060W'
p2590
I33
sS'YDR069C'
p2591
I3
sS'YOL110W'
p2592
I1
sS'YGR232W'
p2593
I9
sS'YEL066W'
p2594
I6
sS'YLR201C'
p2595
I2
sS'YPR035W'
p2596
I52
sS'YBR071W'
p2597
I5
sS'YNL314W'
p2598
I1
sS'YLL018C'
p2599
I55
sS'YOL114C'
p2600
I1
sS'YDR227W'
p2601
I6
sS'YDL130W-A'
p2602
I3
sS'YKR013W'
p2603
I6
sS'YDR174W'
p2604
I10
sS'YLR224W'
p2605
I6
sS'YOR157C'
p2606
I11
sS'YOR155C'
p2607
I6
sS'YGL101W'
p2608
I6
sS'YOR250C'
p2609
I8
sS'YBR121C-A'
p2610
I3
sS'YPR042C'
p2611
I1
sS'YDR383C'
p2612
I5
sS'YEL048C'
p2613
I3
sS'YHL029C'
p2614
I6
sS'YDR482C'
p2615
I1
sS'YPR182W'
p2616
I1
sS'YNL092W'
p2617
I1
sS'YGL054C'
p2618
I19
sS'YLR021W'
p2619
I5
sS'YLR134W'
p2620
I2
sS'YLR074C'
p2621
I11
sS'YNL216W'
p2622
I3
sS'YER066W'
p2623
I1
sS'YPL225W'
p2624
I15
sS'YDL043C'
p2625
I2
sS'YKL039W'
p2626
I17
sS'YDL012C'
p2627
I1
sS'YOL013W-A'
p2628
I1
sS'YOL013W-B'
p2629
I1
sS'YLR299W'
p2630
I2
sS'YDR345C'
p2631
I18
sS'YJL177W'
p2632
I29
sS'YOR108W'
p2633
I18
sS'YGL139W'
p2634
I6
sS'YJL068C'
p2635
I7
sS'YNL054W'
p2636
I5
sS'YDR277C'
p2637
I2
sS'YGR210C'
p2638
I21
sS'YDR156W'
p2639
I6
sS'YPR155C'
p2640
I3
sS'YHR179W'
p2641
I62
sS'YOR137C'
p2642
I2
sS'YNL049C'
p2643
I7
sS'YKL123W'
p2644
I3
sS'YMR001C-A'
p2645
I1
sS'YKL172W'
p2646
I32
sS'YKR025W'
p2647
I5
sS'YDR305C'
p2648
I4
sS'YDR205W'
p2649
I4
sS'YJL057C'
p2650
I4
sS'YJL108C'
p2651
I2
sS'YLR266C'
p2652
I5
sS'YPL186C'
p2653
I1
sS'YLR284C'
p2654
I2
sS'YNL014W'
p2655
I2
sS'YDR358W'
p2656
I1
sS'YDR056C'
p2657
I2
sS'YFR009W-A'
p2658
I4
sS'YPR028W'
p2659
I39
sS'YLR096W'
p2660
I7
sS'YJL035C'
p2661
I3
sS'YKR017C'
p2662
I4
sS'YKR052C'
p2663
I4
sS'YPR107C'
p2664
I4
sS'YLR427W'
p2665
I9
sS'YIR032C'
p2666
I1
sS'YBL088C'
p2667
I5
sS'YLR083C'
p2668
I13
sS'YHR039C-A'
p2669
I31
sS'YPR175W'
p2670
I3
sS'YLR116W'
p2671
I4
sS'YER008C'
p2672
I9
sS'YMR127C'
p2673
I5
sS'YBR177C'
p2674
I9
sS'YIL140W'
p2675
I6
sS'YJL155C'
p2676
I2
sS'YLR197W'
p2677
I73
sS'YFR027W'
p2678
I2
sS'YJL122W'
p2679
I9
sS'YGR148C'
p2680
I58
sS'YLR152C'
p2681
I4
sS'YPL040C'
p2682
I4
sS'YLR244C'
p2683
I27
sS'YBR111W-A'
p2684
I1
sS'YJR084W'
p2685
I6
sS'YLR233C'
p2686
I4
sS'YLR313C'
p2687
I3
sS'YNR007C'
p2688
I4
sS'YKL190W'
p2689
I11
sS'YLR182W'
p2690
I9
sS'YGL084C'
p2691
I5
sS'YPR033C'
p2692
I39
sS'YLR382C'
p2693
I3
sS'YKL063C'
p2694
I5
sS'YDL170W'
p2695
I6
sS'YJR044C'
p2696
I3
sS'YLR219W'
p2697
I3
sS'YMR009W'
p2698
I1
sS'YNL072W'
p2699
I4
sS'YDR363W'
p2700
I2
sS'YFL021W'
p2701
I1
sS'YMR283C'
p2702
I2
sS'YLR199C'
p2703
I4
sS'YDR090C'
p2704
I3
sS'YIL108W'
p2705
I2
sS'YNL163C'
p2706
I9
sS'YFR005C'
p2707
I5
sS'YHL036W'
p2708
I2
sS'YJR135W-A'
p2709
I3
sS'YFR050C'
p2710
I12
sS'YLR447C'
p2711
I29
sS'YNR069C'
p2712
I1
sS'YOL058W'
p2713
I13
sS'YOR005C'
p2714
I6
sS'YAR019C'
p2715
I2
sS'YJL140W'
p2716
I11
sS'YML129C'
p2717
I2
sS'YGL257C'
p2718
I3
sS'YBR202W'
p2719
I10
sS'YNL239W'
p2720
I13
sS'YDR410C'
p2721
I9
sS'YGR020C'
p2722
I11
sS'YOR093C'
p2723
I5
sS'YLL040C'
p2724
I5
sS'YCL032W'
p2725
I8
sS'YOR048C'
p2726
I17
sS'YAL046C'
p2727
I6
sS'YDR198C'
p2728
I6
sS'YAL039C'
p2729
I3
sS'YOR184W'
p2730
I37
sS'YGR100W'
p2731
I9
sS'YLR403W'
p2732
I6
sS'YNL240C'
p2733
I4
sS'YOR002W'
p2734
I5
sS'YHR164C'
p2735
I9
sS'YOR075W'
p2736
I4
sS'YCL030C'
p2737
I41
sS'YDR286C'
p2738
I4
sS'YFR018C'
p2739
I6
sS'YHR141C'
p2740
I11
sS'YKL006W'
p2741
I31
sS'YNL242W'
p2742
I7
sS'YNL162W-A'
p2743
I1
sS'YPL128C'
p2744
I3
sS'YOL090W'
p2745
I12
sS'YNL145W'
p2746
I6
sS'YJL091C'
p2747
I7
sS'YNR021W'
p2748
I19
sS'YDR380W'
p2749
I9
sS'YGL100W'
p2750
I10
sS'YBR094W'
p2751
I7
sS'YDR035W'
p2752
I14
sS'YGR042W'
p2753
I9
sS'YDR485C'
p2754
I7
sS'YPL239W'
p2755
I11
sS'YPR183W'
p2756
I13
sS'YOR206W'
p2757
I24
sS'YBL042C'
p2758
I3
sS'YEL017C-A'
p2759
I9
sS'YOL001W'
p2760
I3
sS'YDR525W-A'
p2761
I3
sS'YLR075W'
p2762
I330
sS'YBR054W'
p2763
I1
sS'YPL224C'
p2764
I3
sS'YLR137W'
p2765
I3
sS'YLR020C'
p2766
I7
sS'YNL217W'
p2767
I12
sS'YLR404W'
p2768
I4
sS'YPL271W'
p2769
I8
sS'YMR226C'
p2770
I13
sS'YDR531W'
p2771
I8
sS'YPL206C'
p2772
I5
sS'YOL136C'
p2773
I2
sS'YDL060W'
p2774
I12
sS'YLR002C'
p2775
I17
sS'YBR293W'
p2776
I6
sS'YNR052C'
p2777
I9
sS'YHR032W'
p2778
I10
sS'YEL032W'
p2779
I10
sS'YOL076W'
p2780
I15
sS'YER145C'
p2781
I24
sS'YER110C'
p2782
I25
sS'YHR123W'
p2783
I5
sS'YHR203C'
p2784
I13
sS'YOR304W'
p2785
I15
sS'YLR023C'
p2786
I7
sS'YML112W'
p2787
I5
sS'YHL010C'
p2788
I1
sS'YMR191W'
p2789
I2
sS'YLR108C'
p2790
I2
sS'YPR176C'
p2791
I5
sS'YKR008W'
p2792
I3
sS'YLR017W'
p2793
I12
sS'YPR024W'
p2794
I12
sS'YDR226W'
p2795
I43
sS'YPR109W'
p2796
I2
sS'YLR097C'
p2797
I5
sS'YDR108W'
p2798
I2
sS'YJL036W'
p2799
I6
sS'YER041W'
p2800
I4
sS'YER009W'
p2801
I23
sS'YDL155W'
p2802
I6
sS'YNL291C'
p2803
I2
sS'YBR191W-A'
p2804
I13
sS'YMR079W'
p2805
I16
sS'YLR115W'
p2806
I5
sS'YMR126C'
p2807
I3
sS'YGL014W'
p2808
I11
sS'YML043C'
p2809
I2
sS'YLR068W'
p2810
I11
sS'YOR245C'
p2811
I4
sS'YGL114W'
p2812
I6
sS'YER027C'
p2813
I5
sS'YER167W'
p2814
I3
sS'YDL013W'
p2815
I8
sS'YMR104C'
p2816
I3
sS'YER185W'
p2817
I1
sS'YKR088C'
p2818
I5
sS'YDL195W'
p2819
I13
sS'YNL199C'
p2820
I4
sS'YCR026C'
p2821
I7
sS'YOR231W'
p2822
I5
sS'YPL202C'
p2823
I2
sS'YPR036W'
p2824
I29
sS'YNL317W'
p2825
I6
sS'YCR087C-A'
p2826
I5
sS'YGR235C'
p2827
I4
sS'YDR068W'
p2828
I9
sS'YLR406C'
p2829
I28
sS'YDR177W'
p2830
I8
sS'YHR052W'
p2831
I26
sS'YKR026C'
p2832
I10
sS'YJR043C'
p2833
I5
sS'YJR012C'
p2834
I5
sS'YKL060C'
p2835
I950
sS'YKL173W'
p2836
I9
sS'YDR119W-A'
p2837
I1
sS'YLR383W'
p2838
I5
sS'YKL035W'
p2839
I10
sS'YLL020C'
p2840
I2
sS'YNL073W'
p2841
I3
sS'YDR469W'
p2842
I3
sS'YNL160W'
p2843
I4
sS'YMR013C'
p2844
I4
sS'YNR046W'
p2845
I4
sS'YNL328C'
p2846
I1
sS'YJL014W'
p2847
I27
sS'YDR219C'
p2848
I7
sS'YCR011C'
p2849
I13
sS'YNL055C'
p2850
I27
sS'YMR031C'
p2851
I7
sS'YOR174W'
p2852
I6
sS'YFL002C'
p2853
I12
sS'YDR155C'
p2854
I105
sS'YPR149W'
p2855
I10
sS'YGL181W'
p2856
I5
sS'YJL176C'
p2857
I3
sS'YPL087W'
p2858
I9
sS'YNL015W'
p2859
I3
sS'YCR084C'
p2860
I11
sS'YPL065W'
p2861
I2
sS'YMR002W'
p2862
I5
sS'YJL054W'
p2863
I8
sS'YHR178W'
p2864
I3
sS'YDR260C'
p2865
I1
sS'YLR283W'
p2866
I2
sS'YPL170W'
p2867
I4
sS'YDR204W'
p2868
I2
sS'YBR085C-A'
p2869
I3
sS'YJL109C'
p2870
I25
sS'YER089C'
p2871
I5
sS'YAL038W'
p2872
I589
sS'YOR074C'
p2873
I4
sS'YAL047C'
p2874
I3
sS'YDR285W'
p2875
I3
sS'YJR152W'
p2876
I1
sS'YDR458C'
p2877
I3
sS'YKL025C'
p2878
I6
sS'YOL119C'
p2879
I9
sS'YOR003W'
p2880
I3
sS'YOR320C'
p2881
I9
sS'YOL097C'
p2882
I10
sS'YOR110W'
p2883
I4
sS'YJL096W'
p2884
I3
sS'YDR407C'
p2885
I12
sS'YNR020C'
p2886
I2
sS'YBR258C'
p2887
I1
sS'YFR019W'
p2888
I11
sS'YLR262C-A'
p2889
I16
sS'YHR142W'
p2890
I14
sS'YPL129W'
p2891
I12
sS'YBR223C'
p2892
I1
sS'YOR264W'
p2893
I10
sS'YNL241C'
p2894
I10
sS'YJL154C'
p2895
I14
sS'YDR091C'
p2896
I15
sS'YJL123C'
p2897
I18
sS'YIR005W'
p2898
I1
sS'YPL047W'
p2899
I5
sS'YER086W'
p2900
I18
sS'YBR011C'
p2901
I84
sS'YIL147C'
p2902
I12
sS'YMR027W'
p2903
I12
sS'YLR287C-A'
p2904
I14
sS'YBR176W'
p2905
I3
sS'YDR207C'
p2906
I2
sS'YFR026C'
p2907
I2
sS'YGL238W'
p2908
I10
sS'YGL085W'
p2909
I4
sS'YML081C-A'
p2910
I6
sS'YNL128W'
p2911
I1
sS'YKL017C'
p2912
I2
sS'YDR450W'
p2913
I44
sS'YKL191W'
p2914
I10
sS'YNR006W'
p2915
I2
sS'YHR120W'
p2916
I6
sS'YHR073W-A'
p2917
I1
sS'YBL018C'
p2918
I9
sS'YOL137W'
p2919
I2
sS'YDR530C'
p2920
I5
sS'YDR131C'
p2921
I2
sS'YER111C'
p2922
I9
sS'YEL031W'
p2923
I30
sS'YOL071W'
p2924
I4
sS'YNR053C'
p2925
I26
sS'YDL063C'
p2926
I10
sS'YER144C'
p2927
I6
sS'YOL039W'
p2928
I103
sS'YIL083C'
p2929
I2
sS'YNL298W'
p2930
I5
sS'YBR290W'
p2931
I8
sS'YDR172W'
p2932
I33
sS'YIL096C'
p2933
I1
sS'YML113W'
p2934
I2
sS'YHL011C'
p2935
I18
sS'YLR208W'
p2936
I16
sS'YGL173C'
p2937
I33
sS'YLR330W'
p2938
I15
sS'YFR051C'
p2939
I11
sS'YNR068C'
p2940
I1
sS'YGR129W'
p2941
I5
sS'YFR004W'
p2942
I12
sS'YOR369C'
p2943
I345
sS'YOR025W'
p2944
I6
sS'YOR092W'
p2945
I2
sS'YML128C'
p2946
I2
sS'YDR411C'
p2947
I6
sS'YBR205W'
p2948
I13
sS'YOR321W'
p2949
I6
sS'YGL070C'
p2950
I4
sS'YMR186W'
p2951
I110
sS'YDR020C'
p2952
I1
sS'YOL038C-A'
p2953
I1
sS'YMR278W'
p2954
I3
sS'YER184C'
p2955
I3
sS'YLR136C'
p2956
I1
sS'YMR207C'
p2957
I7
sS'YML015C'
p2958
I4
sS'YOR197W'
p2959
I16
sS'YKR089C'
p2960
I7
sS'YER166W'
p2961
I16
sS'YDL014W'
p2962
I60
sS'YHL008C'
p2963
I9
sS'YCR027C'
p2964
I2
sS'YDL194W'
p2965
I2
sS'YER079W'
p2966
I2
sS'YBR056W-A'
p2967
I1
sS'YER024W'
p2968
I2
sS'YLR325C'
p2969
I100
sS'YNL198C'
p2970
I3
sS'YGR234W'
p2971
I47
sS'YMR178W'
p2972
I7
sS'YGL115W'
p2973
I12
sS'YMR247C'
p2974
I4
sS'YPR037C'
p2975
I3
sS'YBR077C'
p2976
I8
sS'YEL068C'
p2977
I2
sS'YDR176W'
p2978
I10
sS'YNL090W'
p2979
I5
sS'YDR381W'
p2980
I22
sS'YGL103W'
p2981
I256
sS'YDR484W'
p2982
I8
sS'YOR207C'
p2983
I12
sS'YNL183C'
p2984
I4
sS'YGR192C'
p2985
I254
sS'YBR095C'
p2986
I4
sS'YBL045C'
p2987
I8
sS'YDR524C'
p2988
I7
sS'YGR043C'
p2989
I1
sS'YPL272C'
p2990
I1
sS'YER064C'
p2991
I10
sS'YOL002C'
p2992
I8
sS'YLR190W'
p2993
I8
sS'YNL218W'
p2994
I3
sS'YLR407W'
p2995
I2
sS'YBR088C'
p2996
I11
sS'YBR055C'
p2997
I8
sS'YOR175C'
p2998
I14
sS'YNL329C'
p2999
I6
sS'YFL005W'
p3000
I14
sS'YMR152W'
p3001
I4
sS'YDR154C'
p3002
I65
sS'YMR125W'
p3003
I10
sS'YGL028C'
p3004
I6
sS'YJR031C'
p3005
I9
sS'YGR216C'
p3006
I3
sS'YGR118W'
p3007
I25
sS'YJL055W'
p3008
I15
sS'YMR093W'
p3009
I11
sS'YDR303C'
p3010
I4
sS'YPL086C'
p3011
I11
sS'YPL184C'
p3012
I16
sS'YKR050W'
p3013
I4
sS'YPR153W'
p3014
I2
sS'YMR042W'
p3015
I2
sS'YDR252W'
p3016
I2
sS'YLL003W'
p3017
I4
sS'YDR054C'
p3018
I3
sS'YNL316C'
p3019
I3
sS'YDR109C'
p3020
I3
sS'YPR171W'
p3021
I2
sS'YLR109W'
p3022
I194
sS'YKL103C'
p3023
I2
sS'YMR078C'
p3024
I6
sS'YLR094C'
p3025
I4
sS'YDL154W'
p3026
I5
sS'YLR114C'
p3027
I12
sS'YML037C'
p3028
I2
sS'YJR060W'
p3029
I8
sS'YLR141W'
p3030
I2
sS'YDL089W'
p3031
I3
sS'YPL159C'
p3032
I1
sS'YJL178C'
p3033
I15
sS'YBR102C'
p3034
I3
sS'YNL161W'
p3035
I8
sS'YIL146C'
p3036
I3
sS'YDR096W'
p3037
I1
sS'YHR065C'
p3038
I21
sS'YPL046C'
p3039
I3
sS'YIL002W-A'
p3040
I6
sS'YKL196C'
p3041
I10
sS'YLR231C'
p3042
I3
sS'YFR021W'
p3043
I6
sS'YNL129W'
p3044
I9
sS'YKL016C'
p3045
I16
sS'YPL111W'
p3046
I9
sS'YGL017W'
p3047
I5
sS'YKL174C'
p3048
I7
sS'YJR013W'
p3049
I6
sS'YDL176W'
p3050
I4
sS'YKL121W'
p3051
I2
sS'YKR027W'
p3052
I10
sS'YLR380W'
p3053
I3
sS'YKL034W'
p3054
I2
sS'YER099C'
p3055
I4
sS'YJR042W'
p3056
I12
sS'YMR281W'
p3057
I5
sS'YMR012W'
p3058
I39
sS'YER093C'
p3059
I5
sS'YHR186C'
p3060
I6
sS'YFL027C'
p3061
I8
sS'YDR468C'
p3062
I6
sS'YLR174W'
p3063
I4
sS'YFR003C'
p3064
I7
sS'YIL033C'
p3065
I2
sS'YOR368W'
p3066
I2
sS'YDR244W'
p3067
I8
sS'YPL133C'
p3068
I6
sS'YIL048W'
p3069
I4
sS'YLR441C'
p3070
I85
sS'YOL056W'
p3071
I3
sS'YFR052W'
p3072
I18
sS'YMR302C'
p3073
I4
sS'YOR026W'
p3074
I5
sS'YBR230W-A'
p3075
I2
sS'YGL073W'
p3076
I7
sS'YMR189W'
p3077
I12
sS'YBR204C'
p3078
I2
sS'YGR106C'
p3079
I25
sS'YIL168W'
p3080
I2
sS'YGL086W'
p3081
I11
sS'YJR155W'
p3082
I2
sS'YAL044C'
p3083
I38
sS'YPR081C'
p3084
I1
sS'YNR023W'
p3085
I9
sS'YOL096C'
p3086
I2
sS'YDR284C'
p3087
I12
sS'YJL097W'
p3088
I7
sS'YBR259W'
p3089
I3
sS'YNL135C'
p3090
I28
sS'YDR406W'
p3091
I4
sS'YBR193C'
p3092
I1
sS'YNL147W'
p3093
I6
sS'YPR163C'
p3094
I40
sS'YHR143W'
p3095
I9
sS'YBR222C'
p3096
I4
sS'YOR306C'
p3097
I6
sS'YCL017C'
p3098
I17
sS'YNL091W'
p3099
I22
sS'YDL040C'
p3100
I14
sS'YCL004W'
p3101
I3
sS'YBR096W'
p3102
I9
sS'YPL042C'
p3103
I6
sS'YNL281W'
p3104
I20
sS'YDR430C'
p3105
I9
sS'YGR193C'
p3106
I6
sS'YDR487C'
p3107
I11
sS'YPR185W'
p3108
I3
sS'YPL273W'
p3109
I12
sS'YGR015C'
p3110
I5
sS'YNR035C'
p3111
I11
sS'YER065C'
p3112
I2
sS'YLR077W'
p3113
I10
sS'YBR056W'
p3114
I7
sS'YNL219C'
p3115
I12
sS'YDR037W'
p3116
I74
sS'YGR040W'
p3117
I3
sS'YER178W'
p3118
I42
sS'YOL003C'
p3119
I4
sS'YPL222W'
p3120
I2
sS'YHR005C'
p3121
I20
sS'YHR121W'
p3122
I10
sS'YHR034C'
p3123
I4
sS'YBL019W'
p3124
I3
sS'YOL070C'
p3125
I7
sS'YOL138C'
p3126
I4
sS'YGR150C'
p3127
I7
sS'YDR533C'
p3128
I2
sS'YHR061C'
p3129
I1
sS'YNR054C'
p3130
I12
sS'YER147C'
p3131
I4
sS'YDR130C'
p3132
I2
sS'YIL015W'
p3133
I12
sS'YEL030W'
p3134
I1
sS'YDR375C'
p3135
I1
sS'YOL038W'
p3136
I25
sS'YDR183C-A'
p3137
I3
sS'YML114C'
p3138
I7
sS'YHR201C'
p3139
I7
sS'YNL299W'
p3140
I5
sS'YGR008C'
p3141
I1
sS'YKL211C'
p3142
I14
sS'YNL311C'
p3143
I3
sS'YLL002W'
p3144
I3
sS'YJL030W'
p3145
I2
sS'YLR424W'
p3146
I5
sS'YDR165W'
p3147
I15
sS'YGR248W'
p3148
I1
sS'YER043C'
p3149
I41
sS'YBR074W'
p3150
I8
sS'YOR150W'
p3151
I5
sS'YDR055W'
p3152
I10
sS'YLR095C'
p3153
I5
sS'YBR034C'
p3154
I6
sS'YML036W'
p3155
I3
sS'YLR040C'
p3156
I1
sS'YDL236W'
p3157
I9
sS'YDL088C'
p3158
I11
sS'YJR063W'
p3159
I8
sS'YLR113W'
p3160
I16
sS'YDL157C'
p3161
I10
sS'YJL184W'
p3162
I5
sS'YER025W'
p3163
I33
sS'YDL015C'
p3164
I10
sS'YKR086W'
p3165
I7
sS'YML041C'
p3166
I5
sS'YDL197C'
p3167
I4
sS'YER078C'
p3168
I8
sS'YER130C'
p3169
I8
sS'YDL192W'
p3170
I47
sS'YGR132C'
p3171
I7
sS'YMR204C'
p3172
I2
sS'YMR106C'
p3173
I2
sS'YCL059C'
p3174
I17
sS'YML014W'
p3175
I4
sS'YKR071C'
p3176
I9
sS'YER156C'
p3177
I14
sS'YGL112C'
p3178
I9
sS'YOR233W'
p3179
I8
sS'YMR179W'
p3180
I4
sS'YDL008W'
p3181
I5
sS'YBL050W'
p3182
I9
sS'YGR102C'
p3183
I5
sS'YGR280C'
p3184
I13
sS'YGR237C'
p3185
I5
sS'YJR014W'
p3186
I19
sS'YLR281C'
p3187
I1
sS'YPL018W'
p3188
I2
sS'YKL120W'
p3189
I23
sS'YJR041C'
p3190
I5
sS'YKL175W'
p3191
I8
sS'YKR028W'
p3192
I14
sS'YLR381W'
p3193
I6
sS'YMR286W'
p3194
I4
sS'YDL175C'
p3195
I5
sS'YKL168C'
p3196
I3
sS'YDL200C'
p3197
I3
sS'YDL102W'
p3198
I7
sS'YJR009C'
p3199
I26
sS'YER092W'
p3200
I3
sS'YLR214W'
p3201
I39
sS'YGL029W'
p3202
I5
sS'YFL004W'
p3203
I36
sS'YBR115C'
p3204
I16
sS'YGL183C'
p3205
I1
sS'YDL128W'
p3206
I6
sS'YPL098C'
p3207
I6
sS'YMR153W'
p3208
I4
sS'YMR124W'
p3209
I4
sS'YMR033W'
p3210
I5
sS'YPR103W'
p3211
I20
sS'YPR003C'
p3212
I2
sS'YGR262C'
p3213
I3
sS'YPL085W'
p3214
I7
sS'YDR202C'
p3215
I3
sS'YJL052W'
p3216
I2
sS'YGR215W'
p3217
I2
sS'YDR253C'
p3218
I1
sS'YDR363W-A'
p3219
I6
sS'YCR082W'
p3220
I7
sS'YPL067C'
p3221
I1
sS'YOR001W'
p3222
I14
sS'YNL301C'
p3223
I5
sS'YGR172C'
p3224
I5
sS'YLR276C'
p3225
I22
sS'YKL023C-A'
p3226
I7
sS'YGR105W'
p3227
I4
sS'YBR269C'
p3228
I4
sS'YDR283C'
p3229
I8
sS'YBR192W'
p3230
I2
sS'YNL188W'
p3231
I5
sS'YNL140C'
p3232
I6
sS'YER007C-A'
p3233
I22
sS'YOL095C'
p3234
I2
sS'YNR022C'
p3235
I4
sS'YBR125C'
p3236
I4
sS'YDR409W'
p3237
I2
sS'YBR221C'
p3238
I33
sS'YJL094C'
p3239
I5
sS'YGR074W'
p3240
I1
sS'YNL166C'
p3241
I7
sS'YPL158C'
p3242
I13
sS'YJL121C'
p3243
I17
sS'YKL008C'
p3244
I18
sS'YBR103W'
p3245
I4
sS'YIL132C'
p3246
I1
sS'YIL145C'
p3247
I12
sS'YNR004W'
p3248
I2
sS'YPL032C'
p3249
I3
sS'YLR194C'
p3250
I5
sS'YKL015W'
p3251
I6
sS'YKL197C'
p3252
I3
sS'YMR020W'
p3253
I5
sS'YJR089W'
p3254
I7
sS'YPL110C'
p3255
I6
sS'YDR377W'
p3256
I4
sS'YIR007W'
p3257
I2
sS'YJL201W'
p3258
I10
sS'YLR314C'
p3259
I15
sS'YLR146W-A'
p3260
I2
sS'YFR020W'
p3261
I3
sS'YNL126W'
p3262
I7
sS'YKL040C'
p3263
I8
sS'YLR249W'
p3264
I317
sS'YOR327C'
p3265
I3
sS'YOL139C'
p3266
I39
sS'YBR207W'
p3267
I7
sS'YOL073C'
p3268
I2
sS'YMR065W'
p3269
I5
sS'YPL203W'
p3270
I1
sS'YNR055C'
p3271
I10
sS'YDR532C'
p3272
I5
sS'YIL014W'
p3273
I11
sS'YHR200W'
p3274
I18
sS'YDR184C'
p3275
I2
sS'YDR133C'
p3276
I11
sS'YML115C'
p3277
I12
sS'YNL221C'
p3278
I13
sS'YER146W'
p3279
I8
sS'YLR426W'
p3280
I3
sS'YHR159W'
p3281
I4
sS'YPL132W'
p3282
I2
sS'YIL114C'
p3283
I1
sS'YOL055C'
p3284
I4
sS'YOR258W'
p3285
I2
sS'YNL108C'
p3286
I8
sS'YFR053C'
p3287
I2
sS'YHL035C'
p3288
I5
sS'YMR301C'
p3289
I4
sS'YLR336C'
p3290
I14
sS'YFR002W'
p3291
I10
sS'YMR011W'
p3292
I10
sS'YGR089W'
p3293
I13
sS'YBL029W'
p3294
I1
sS'YMR188C'
p3295
I4
sS'YGR154C'
p3296
I4
sS'YLR130C'
p3297
I13
sS'YHR100C'
p3298
I2
sS'YBR057C'
p3299
I8
sS'YPL269W'
p3300
I7
sS'YER186C'
p3301
I9
sS'YKR070W'
p3302
I7
sS'YMR205C'
p3303
I37
sS'YPL123C'
p3304
I3
sS'YJL185C'
p3305
I1
sS'YER164W'
p3306
I10
sS'YFL026W'
p3307
I33
sS'YML017W'
p3308
I3
sS'YKR087C'
p3309
I2
sS'YGL078C'
p3310
I31
sS'YOR232W'
p3311
I22
sS'YGR281W'
p3312
I13
sS'YPL161C'
p3313
I4
sS'YGL113W'
p3314
I2
sS'YIL121W'
p3315
I8
sS'YKR091W'
p3316
I2
sS'YHL013C'
p3317
I10
sS'YGR009C'
p3318
I10
sS'YOR059C'
p3319
I7
sS'YCL005W'
p3320
I4
sS'YGL105W'
p3321
I60
sS'YBR097W'
p3322
I5
sS'YEL019C'
p3323
I1
sS'YMR227C'
p3324
I9
sS'YPR186C'
p3325
I2
sS'YGR194C'
p3326
I3
sS'YDR486C'
p3327
I6
sS'YDR030C'
p3328
I3
sS'YPL221W'
p3329
I6
sS'YPL274W'
p3330
I4
sS'YBL047C'
p3331
I14
sS'YNL293W'
p3332
I3
sS'YEL051W'
p3333
I42
sS'YLL023C'
p3334
I3
sS'YOL004W'
p3335
I16
sS'YLR005W'
p3336
I7
sS'YGR014W'
p3337
I12
sS'YGL050W'
p3338
I4
sS'YMR032W'
p3339
I8
sS'YMR150C'
p3340
I3
sS'YFL007W'
p3341
I14
sS'YDL129W'
p3342
I5
sS'YPL099C'
p3343
I4
sS'YCR012W'
p3344
I682
sS'YGL026C'
p3345
I44
sS'YDR201W'
p3346
I5
sS'YDR254W'
p3347
I1
sS'YGR263C'
p3348
I5
sS'YNL045W'
p3349
I11
sS'YPL084W'
p3350
I5
sS'YNL010W'
p3351
I24
sS'YDR354W'
p3352
I6
sS'YDR301W'
p3353
I10
sS'YJL053W'
p3354
I4
sS'YPR104C'
p3355
I12
sS'YGR214W'
p3356
I80
sS'YCR083W'
p3357
I3
sS'YOR151C'
p3358
I27
sS'YML028W'
p3359
I79
sS'YNL267W'
p3360
I9
sS'YLL001W'
p3361
I5
sS'YDR052C'
p3362
I4
sS'YHL006C'
p3363
I1
sS'YPR173C'
p3364
I21
sS'YJL031C'
p3365
I7
sS'YNL262W'
p3366
I9
sS'YDL021W'
p3367
I1
sS'YLR143W'
p3368
I11
sS'YLR043C'
p3369
I28
sS'YML060W'
p3370
I2
sS'YJR062C'
p3371
I7
sS'YDR079C-A'
p3372
I2
sS'YDL156W'
p3373
I2
sS'YBR109W-A'
p3374
I1
sS'YML035C'
p3375
I8
sS'YPL254W'
p3376
I4
sS'YLR112W'
p3377
I2
sS'YNL167C'
p3378
I7
sS'YAL060W'
p3379
I10
sS'YFL025C'
p3380
I4
sS'YKL009W'
p3381
I21
sS'YLR178C'
p3382
I1
sS'YIL144W'
p3383
I4
sS'YHR063C'
p3384
I17
sS'YNL307C'
p3385
I7
sS'YLR196W'
p3386
I18
sS'YDR094W'
p3387
I4
sS'YJL126W'
p3388
I2
sS'YJL159W'
p3389
I22
sS'YIL133C'
p3390
I69
sS'YJL166W'
p3391
I7
sS'YJL200C'
p3392
I18
sS'YLR317W'
p3393
I1
sS'YKL041W'
p3394
I9
sS'YKL138C-A'
p3395
I2
sS'YLR438W'
p3396
I6
sS'YDR376W'
p3397
I2
sS'YDR003W-A'
p3398
I1
sS'YKL194C'
p3399
I2
sS'YNL127W'
p3400
I7
sS'YDR089W'
p3401
I5
sS'YKL014C'
p3402
I15
sS'YLR237W'
p3403
I4
sS'YLR280C'
p3404
I1
sS'YJR040W'
p3405
I5
sS'YPR119W'
p3406
I4
sS'YJR015W'
p3407
I6
sS'YHR051W'
p3408
I5
sS'YKL176C'
p3409
I14
sS'YKR029C'
p3410
I6
sS'YDR249C'
p3411
I4
sS'YJL104W'
p3412
I9
sS'YPR010C-A'
p3413
I2
sS'YPL019C'
p3414
I58
sS'YDL174C'
p3415
I8
sS'YER091C'
p3416
I16
sS'YHR043C'
p3417
I1
sS'YMR194C-A'
p3418
I1
sS'YDL103C'
p3419
I8
sS'YMR010W'
p3420
I10
sS'YDL203C'
p3421
I4
sS'YLR087C'
p3422
I6
sS'YLR215C'
p3423
I1
sS'YML082W'
p3424
I5
sS'YMR287C'
p3425
I5
sS'YGR026W'
p3426
I10
sS'YOL054W'
p3427
I3
sS'YFR001W'
p3428
I10
sS'YPR152C'
p3429
I4
sS'YBR220C'
p3430
I6
sS'YPL131W'
p3431
I288
sS'YIL115C'
p3432
I20
sS'YOL101C'
p3433
I3
sS'YJL088W'
p3434
I1
sS'YHR158C'
p3435
I1
sS'YKL033W-A'
p3436
I21
sS'YMR036C'
p3437
I4
sS'YDR234W'
p3438
I9
sS'YIL031W'
p3439
I5
sS'YLR203C'
p3440
I8
sS'YGR155W'
p3441
I52
sS'YMR300C'
p3442
I28
sS'YFR049W'
p3443
I5
sS'YGR048W'
p3444
I3
sS'YLR342W'
p3445
I31
sS'YLR335W'
p3446
I13
sS'YJR102C'
p3447
I2
sS'YNL284C'
p3448
I7
sS'YOR020C'
p3449
I25
sS'YBL028C'
p3450
I12
sS'YOL092W'
p3451
I13
sS'YJR088C'
p3452
I8
sS'YGR104C'
p3453
I4
sS'YLR368W'
p3454
I11
sS'YBR268W'
p3455
I5
sS'YPR083W'
p3456
I2
sS'YKL089W'
p3457
I6
sS'YOR006C'
p3458
I8
sS'YLR277C'
p3459
I8
sS'YGL088W'
p3460
I8
sS'YGR173W'
p3461
I11
sS'YGR086C'
p3462
I32
sS'YDR282C'
p3463
I2
sS'YOR132W'
p3464
I4
sS'YAL002W'
p3465
I4
sS'YJL095W'
p3466
I7
sS'YHR018C'
p3467
I30
sS'YDR408C'
p3468
I11
sS'YBR126C'
p3469
I7
sS'YOL149W'
p3470
I6
sS'YDR300C'
p3471
I17
sS'YGL202W'
p3472
I34
sS'YLR173W'
p3473
I2
sS'YOR046C'
p3474
I15
sS'YKR035W-A'
p3475
I4
sS'YNL141W'
p3476
I17
sS'YKR090W'
p3477
I9
sS'YMR220W'
p3478
I11
sS'YPR187W'
p3479
I22
sS'YEL018W'
p3480
I7
sS'YDR432W'
p3481
I16
sS'YOR308C'
p3482
I3
sS'YGL104C'
p3483
I1
sS'YPL002C'
p3484
I3
sS'YLL022C'
p3485
I5
sS'YGR017W'
p3486
I6
sS'YDR031W'
p3487
I4
sS'YOL005C'
p3488
I5
sS'YOR213C'
p3489
I5
sS'YEL050C'
p3490
I10
sS'YHR036W'
p3491
I5
sS'YOL072W'
p3492
I5
sS'YKL088W'
p3493
I4
sS'YGL224C'
p3494
I3
sS'YBR206W'
p3495
I9
sS'YIL017C'
p3496
I6
sS'YNL268W'
p3497
I11
sS'YOL123W'
p3498
I11
sS'YDR132C'
p3499
I4
sS'YML116W'
p3500
I4
sS'YDR185C'
p3501
I3
sS'YBR084C-A'
p3502
I49
sS'YHR207C'
p3503
I5
sS'YGR039W'
p3504
I1
sS'YER141W'
p3505
I5
sS'YKL213C'
p3506
I10
sS'YNL220W'
p3507
I42
sS'YGR060W'
p3508
I12
sS'YCL064C'
p3509
I38
sS'YML029W'
p3510
I3
sS'YJR154W'
p3511
I4
sS'YOR152C'
p3512
I2
sS'YGL031C'
p3513
I62
sS'YCR048W'
p3514
I7
sS'YCR033W'
p3515
I11
sS'YGR124W'
p3516
I45
sS'YDR104C'
p3517
I3
sS'YPR172W'
p3518
I6
sS'YML034W'
p3519
I6
sS'YBL039W-B'
p3520
I1
sS'YLR042C'
p3521
I1
sS'YLR144C'
p3522
I11
sS'YEL072W'
p3523
I4
sS'YPR058W'
p3524
I8
sS'YDL020C'
p3525
I5
sS'YML061C'
p3526
I9
sS'YJL186W'
p3527
I11
sS'YER023W'
p3528
I27
sS'YER163C'
p3529
I3
sS'YPL268W'
p3530
I2
sS'YER132C'
p3531
I4
sS'YDR399W'
p3532
I15
sS'YML016C'
p3533
I4
sS'YLR133W'
p3534
I2
sS'YDL017W'
p3535
I4
sS'YJR142W'
p3536
I6
sS'YGL110C'
p3537
I7
sS'YDR179W-A'
p3538
I2
sS'YMR242C'
p3539
I28
sS'YGR282C'
p3540
I45
sS'YMR241W'
p3541
I15
sS'YPL183C'
p3542
I6
sS'YDR166C'
p3543
I6
sS'YPR118W'
p3544
I17
sS'YJL005W'
p3545
I12
sS'YJL050W'
p3546
I27
sS'YER177W'
p3547
I52
sS'YHR056C'
p3548
I1
sS'YDR248C'
p3549
I4
sS'YJR016C'
p3550
I86
sS'YDL202W'
p3551
I5
sS'YDL100C'
p3552
I38
sS'YGL055W'
p3553
I21
sS'YOR049C'
p3554
I1
sS'YLR216C'
p3555
I34
sS'YGR063C'
p3556
I4
sS'YER090W'
p3557
I24
sS'YMR035W'
p3558
I4
sS'YCR015C'
p3559
I2
sS'YKR011C'
p3560
I3
sS'YDR159W'
p3561
I4
sS'YNL095C'
p3562
I3
sS'YGL185C'
p3563
I4
sS'YDR437W'
p3564
I3
sS'YGL027C'
p3565
I14
sS'YOR165W'
p3566
I10
sS'YDL086C-A'
p3567
I1
sS'YPR005C'
p3568
I1
sS'YKR065C'
p3569
I12
sS'YNL044W'
p3570
I6
sS'YGR044C'
p3571
I4
sS'YDR200C'
p3572
I4
sS'YDR255C'
p3573
I2
sS'YOR130C'
p3574
I4
sS'YPL083C'
p3575
I2
sS'YNL011C'
p3576
I4
sS'YDR357C'
p3577
I5
sS'YCR030C'
p3578
I6
sS'YJR021C'
p3579
I1
sS'YLR274W'
p3580
I6
sS'YGL126W'
p3581
I4
sS'YLR369W'
p3582
I5
sS'YOR007C'
p3583
I54
sS'YHR097C'
p3584
I3
sS'YDL220C'
p3585
I2
sS'YGR170W'
p3586
I13
sS'YNL142W'
p3587
I2
sS'YOL148C'
p3588
I9
sS'YPR082C'
p3589
I5
sS'YHR019C'
p3590
I67
sS'YJR129C'
p3591
I2
sS'YDR281C'
p3592
I2
sS'YGL203C'
p3593
I11
sS'YBR127C'
p3594
I37
sS'YOR047C'
p3595
I5
sS'YFL024C'
p3596
I6
sS'YPL243W'
p3597
I15
sS'YAL061W'
p3598
I1
sS'YJL127C'
p3599
I4
sS'YNL164C'
p3600
I3
sS'YBL092W'
p3601
I154
sS'YEL065W'
p3602
I20
sS'YDR368W'
p3603
I6
sS'YBR101C'
p3604
I12
sS'YMR299C'
p3605
I4
sS'YLR234W'
p3606
I1
sS'YJL167W'
p3607
I19
sS'YKL195W'
p3608
I15
sS'YNL179C'
p3609
I3
sS'YDR088C'
p3610
I7
sS'YCR020C-A'
p3611
I1
sS'YKL042W'
p3612
I5
sS'YNL066W'
p3613
I11
sS'YPL112C'
p3614
I10
sS'YPL030W'
p3615
I5
sS'YKL013C'
p3616
I10
sS'YLR316C'
p3617
I5
sS'YFR022W'
p3618
I2
sS'YNL124W'
p3619
I2
sS'YGL225W'
p3620
I16
sS'YIL016W'
p3621
I4
sS'YAR023C'
p3622
I1
sS'YOR352W'
p3623
I3
sS'YDR534C'
p3624
I2
sS'YOL028C'
p3625
I3
sS'YNR057C'
p3626
I3
sS'YDR186C'
p3627
I12
sS'YML117W'
p3628
I7
sS'YHR206W'
p3629
I7
sS'YDR129C'
p3630
I18
sS'YOR069W'
p3631
I4
sS'YGR038W'
p3632
I7
sS'YKR001C'
p3633
I16
sS'YER140W'
p3634
I2
sS'YBR104W'
p3635
I9
sS'YNL223W'
p3636
I4
sS'YBR227C'
p3637
I7
sS'YOL053W'
p3638
I2
sS'YFR055W'
p3639
I12
sS'YHR157W'
p3640
I2
sS'YML124C'
p3641
I24
sS'YIL030C'
p3642
I10
sS'YIL116W'
p3643
I20
sS'YOL100W'
p3644
I7
sS'YHR064C'
p3645
I84
sS'YLR442C'
p3646
I4
sS'YJR103W'
p3647
I8
sS'YGR156W'
p3648
I3
sS'YFR048W'
p3649
I5
sS'YGL169W'
p3650
I3
sS'YMR307W'
p3651
I69
sS'YOR021C'
p3652
I13
sS'YER133W'
p3653
I26
sS'YOL006C'
p3654
I14
sS'YDL066W'
p3655
I13
sS'YLR132C'
p3656
I1
sS'YER020W'
p3657
I8
sS'YER162C'
p3658
I2
sS'YML011C'
p3659
I3
sS'YNL201C'
p3660
I7
sS'YDL190C'
p3661
I7
sS'YCR028C-A'
p3662
I18
sS'YHR102W'
p3663
I2
sS'YHR030C'
p3664
I8
sS'YDR329C'
p3665
I7
sS'YER075C'
p3666
I6
sS'YJL187C'
p3667
I5
sS'YLR018C'
p3668
I3
sS'YKR085C'
p3669
I7
sS'YHR187W'
p3670
I7
sS'YPL045W'
p3671
I5
sS'YLR063W'
p3672
I3
sS'YOR234C'
p3673
I36
sS'YGL111W'
p3674
I17
sS'YBR289W'
p3675
I5
sS'YKR093W'
p3676
I6
sS'YER082C'
p3677
I12
sS'YKL212W'
p3678
I22
sS'YMR221C'
p3679
I9
sS'YDR046C'
p3680
I13
sS'YBL031W'
p3681
I4
sS'YPR188C'
p3682
I5
sS'YOR374W'
p3683
I5
sS'YGR196C'
p3684
I6
sS'YOR269W'
p3685
I7
sS'YOR212W'
p3686
I20
sS'YDR032C'
p3687
I10
sS'YDR433W'
p3688
I8
sS'YGR016W'
p3689
I4
sS'YEL053C'
p3690
I5
sS'YDR372C'
p3691
I9
sS'YER057C'
p3692
I12
sS'YMR156C'
p3693
I1
sS'YKL145W'
p3694
I28
sS'YCR014C'
p3695
I6
sS'YKR010C'
p3696
I6
sS'YGL184C'
p3697
I2
sS'YLR085C'
p3698
I2
sS'YOR179C'
p3699
I3
sS'YMR129W'
p3700
I10
sS'YIL136W'
p3701
I4
sS'YCR081W'
p3702
I3
sS'YDR423C'
p3703
I6
sS'YPR106W'
p3704
I2
sS'YPR004C'
p3705
I11
sS'YGR261C'
p3706
I8
sS'YPL228W'
p3707
I8
sS'YDR158W'
p3708
I73
sS'YMR116C'
p3709
I259
sS'YOR164C'
p3710
I16
sS'YNL047C'
p3711
I5
sS'YPL082C'
p3712
I9
sS'YDR451C'
p3713
I7
sS'YGL030W'
p3714
I170
sS'YGR283C'
p3715
I5
sS'YMR308C'
p3716
I29
sS'YMR174C'
p3717
I1
sS'YJL033W'
p3718
I14
sS'YLR429W'
p3719
I14
sS'YOR265W'
p3720
I4
sS'YDR050C'
p3721
I390
sS'YGR061C'
p3722
I38
sS'YLL007C'
p3723
I1
sS'YCR032W'
p3724
I5
sS'YOR153W'
p3725
I144
sS'YDR105C'
p3726
I7
sS'YPL241C'
p3727
I2
sS'YLR145W'
p3728
I4
sS'YLR045C'
p3729
I10
sS'YDR085C'
p3730
I1
sS'YLR098C'
p3731
I4
sS'YPR022C'
p3732
I6
sS'YLR110C'
p3733
I232
sS'YIR038C'
p3734
I4
sS'YPL117C'
p3735
I16
sS'YEL071W'
p3736
I42
sS'YKR058W'
p3737
I2
sS'YML062C'
p3738
I10
sS'YFL050C'
p3739
I3
sS'YDR369C'
p3740
I1
sS'YBR106W'
p3741
I46
sS'YBL093C'
p3742
I7
sS'YAL062W'
p3743
I1
sS'YLR453C'
p3744
I2
sS'YMR298W'
p3745
I13
sS'YDR350C'
p3746
I5
sS'YNL078W'
p3747
I3
sS'YJL124C'
p3748
I15
sS'YNL165W'
p3749
I3
sS'YPR131C'
p3750
I3
sS'YIL131C'
p3751
I2
sS'YKL143W'
p3752
I22
sS'YBR146W'
p3753
I6
sS'YPL031C'
p3754
I7
sS'YAL044W-A'
p3755
I6
sS'YKL012W'
p3756
I5
sS'YPL115C'
p3757
I4
sS'YJL164C'
p3758
I1
sS'YNL125C'
p3759
I5
sS'YNL065W'
p3760
I4
sS'YNL030W'
p3761
I8
sS'YLR191W'
p3762
I7
sS'YDR321W'
p3763
I35
sS'YNR001C'
p3764
I18
sS'YNL178W'
p3765
I341
sS'YJL004C'
p3766
I4
sS'YGL243W'
p3767
I4
sS'YDR356W'
p3768
I10
sS'YDR167W'
p3769
I7
sS'YJL051W'
p3770
I3
sS'YOR120W'
p3771
I2
sS'YJR017C'
p3772
I6
sS'YPL180W'
p3773
I7
sS'YHR057C'
p3774
I5
sS'YJL106W'
p3775
I1
sS'YOR380W'
p3776
I4
sS'YDL101C'
p3777
I4
sS'YDL205C'
p3778
I6
sS'YML080W'
p3779
I4
sS'YHR180W'
p3780
I1
sS'YMR285C'
p3781
I4
sS'YMR016C'
p3782
I5
sS'YKL210W'
p3783
I26
sS'YGL245W'
p3784
I111
sS'YLL018C-A'
p3785
I2
sS'YIL117C'
p3786
I5
sS'YAL055W'
p3787
I1
sS'YOL052C'
p3788
I5
sS'YDR475C'
p3789
I3
sS'YPL137C'
p3790
I4
sS'YOL103W'
p3791
I8
sS'YHR156C'
p3792
I2
sS'YGR157W'
p3793
I33
sS'YJR045C'
p3794
I39
sS'YBR168W'
p3795
I4
sS'YJR100C'
p3796
I3
sS'YLR340W'
p3797
I327
sS'YMR070W'
p3798
I1
sS'YHR162W'
p3799
I24
sS'YLR275W'
p3800
I5
sS'YOR004W'
p3801
I5
sS'YKL043W'
p3802
I2
sS'YGR171C'
p3803
I3
sS'YDL227C'
p3804
I6
sS'YAL048C'
p3805
I3
sS'YPR085C'
p3806
I5
sS'YNR003C'
p3807
I6
sS'YGL200C'
p3808
I12
sS'YHR080C'
p3809
I4
sS'YOR044W'
p3810
I1
sS'YBR120C'
p3811
I3
sS'YDR280W'
p3812
I10
sS'YKL215C'
p3813
I5
sS'YCR066W'
p3814
I5
sS'YHR138C'
p3815
I2
sS'YPR189W'
p3816
I5
sS'YDR334W'
p3817
I12
sS'YBR288C'
p3818
I11
sS'YKR092C'
p3819
I16
sS'YOR259C'
p3820
I28
sS'YGR197C'
p3821
I4
sS'YPR158W'
p3822
I5
sS'YHL007C'
p3823
I11
sS'YGL106W'
p3824
I19
sS'YOR375C'
p3825
I31
sS'YOR211C'
p3826
I8
sS'YGR011W'
p3827
I1
sS'YDR033W'
p3828
I43
sS'YOR022C'
p3829
I3
sS'YIL019W'
p3830
I12
sS'YOR324C'
p3831
I10
sS'YMR086C-A'
p3832
I1
sS'YHR087W'
p3833
I1
sS'YOR353C'
p3834
I7
sS'YER074W-A'
p3835
I3
sS'YOR099W'
p3836
I12
sS'YHL025W'
p3837
I8
sS'YOL029C'
p3838
I5
sS'YNL222W'
p3839
I3
sS'YHR205W'
p3840
I10
sS'YGR037C'
p3841
I15
sS'YNL330C'
p3842
I6
sS'YOL121C'
p3843
I36
sS'YBR076C-A'
p3844
I3
sS'YER143W'
p3845
I8
sS'YNL321W'
p3846
I4
sS'YGR284C'
p3847
I20
sS'YMR240C'
p3848
I4
sS'YCR031C'
p3849
I81
sS'YPR069C'
p3850
I38
sS'YLL006W'
p3851
I2
sS'YMR215W'
p3852
I18
sS'YDR051C'
p3853
I3
sS'YOR237W'
p3854
I1
sS'YIL049W'
p3855
I2
sS'YBR078W'
p3856
I66
sS'YBR030W'
p3857
I6
sS'YLR440C'
p3858
I6
sS'YPL240C'
p3859
I26
sS'YDL022W'
p3860
I16
sS'YPR021C'
p3861
I2
sS'YLR044C'
p3862
I679
sS'YGR244C'
p3863
I8
sS'YDR496C'
p3864
I20
sS'YLR099C'
p3865
I5
sS'YOR149C'
p3866
I3
sS'YOR298C-A'
p3867
I46
sS'YML032C'
p3868
I7
sS'YLR146C'
p3869
I6
sS'YGR271W'
p3870
I9
sS'YHR135C'
p3871
I17
sS'YDR429C'
p3872
I44
sS'YML010W'
p3873
I19
sS'YDL193W'
p3874
I9
sS'YER074W'
p3875
I23
sS'YER021W'
p3876
I22
sS'YMR208W'
p3877
I3
sS'YER134C'
p3878
I4
sS'YEL052W'
p3879
I5
sS'YNL088W'
p3880
I16
sS'YER161C'
p3881
I9
sS'YBR083W'
p3882
I3
sS'YHR103W'
p3883
I12
sS'YNL200C'
p3884
I1
sS'YDR461C-A'
p3885
I1
sS'YER129W'
p3886
I12
sS'YGL193C'
p3887
I1
sS'YBR058C-A'
p3888
I14
sS'YGR004W'
p3889
I6
sS'YKR082W'
p3890
I12
sS'YOR027W'
p3891
I39
sS'YLR019W'
p3892
I9
sS'YCR079W'
p3893
I1
sS'YDR164C'
p3894
I6
sS'YDR251W'
p3895
I8
sS'YDR022C'
p3896
I2
sS'YKL033W'
p3897
I4
sS'YNL046W'
p3898
I3
sS'YPL081W'
p3899
I11
sS'YOR280C'
p3900
I6
sS'YJL107C'
p3901
I2
sS'YHL028W'
p3902
I1
sS'YPL181W'
p3903
I8
sS'YDL045W-A'
p3904
I3
sS'YLR210W'
p3905
I7
sS'YDR490C'
p3906
I5
sS'YDL204W'
p3907
I1
sS'YDL106C'
p3908
I3
sS'YHR081W'
p3909
I4
sS'YGL056C'
p3910
I5
sS'YKR031C'
p3911
I7
sS'YPL014W'
p3912
I1
sS'YML081W'
p3913
I13
sS'YHR181W'
p3914
I9
sS'YDL179W'
p3915
I4
sS'YMR128W'
p3916
I20
sS'YJL029C'
p3917
I3
sS'YER056C'
p3918
I34
sS'YGL130W'
p3919
I8
sS'YMR157C'
p3920
I4
sS'YJL084C'
p3921
I8
sS'YML063W'
p3922
I163
sS'YCL005W-A'
p3923
I9
sS'YCR017C'
p3924
I10
sS'YLR084C'
p3925
I4
sS'YMR080C'
p3926
I16
sS'YMR037C'
p3927
I2
sS'YCR024C'
p3928
I4
sS'YGL025C'
p3929
I4
sS'YMR048W'
p3930
I5
sS'YML121W'
p3931
I7
sS'YOR167C'
p3932
I62
sS'YHR067W'
p3933
I2
sS'YMR117C'
p3934
I1
sS'YDL124W'
p3935
I10
sS'YDR257C'
p3936
I7
sS'YGR266W'
p3937
I3
sS'YPL076W'
p3938
I1
sS'YHR163W'
p3939
I15
sS'YMR200W'
p3940
I6
sS'YKL011C'
p3941
I2
sS'YJR106W'
p3942
I1
sS'YMR244C-A'
p3943
I1
sS'YLR272C'
p3944
I3
sS'YER022W'
p3945
I5
sS'YDL226C'
p3946
I8
sS'YKL059C'
p3947
I6
sS'YGL092W'
p3948
I23
sS'YCL039W'
p3949
I2
sS'YAL049C'
p3950
I2
sS'YGR136W'
p3951
I14
sS'YOR018W'
p3952
I3
sS'YDR513W'
p3953
I6
sS'YGL201C'
p3954
I8
sS'YPR084W'
p3955
I1
sS'YKL084W'
p3956
I2
sS'YBR121C'
p3957
I69
sS'YDL146W'
p3958
I1
sS'YNL079C'
p3959
I30
sS'YMR062C'
p3960
I24
sS'YMR015C'
p3961
I8
sS'YCL026C-B'
p3962
I1
sS'YJL125C'
p3963
I13
sS'YBR107C'
p3964
I3
sS'YBL090W'
p3965
I4
sS'YPL114W'
p3966
I1
sS'YNR039C'
p3967
I2
sS'YKL142W'
p3968
I9
sS'YPL049C'
p3969
I7
sS'YNL064C'
p3970
I62
sS'YNL031C'
p3971
I23
sS'YNL122C'
p3972
I2
sS'YJL070C'
p3973
I1
sS'YDR373W'
p3974
I7
sS'YJL165C'
p3975
I11
sS'YDR322W'
p3976
I4
sS'YOR023C'
p3977
I5
sS'YOR098C'
p3978
I12
sS'YGL227W'
p3979
I5
sS'YOR350C'
p3980
I3
sS'YIL018W'
p3981
I58
sS'YHR039C'
p3982
I10
sS'YBR274W'
p3983
I2
sS'YER131W'
p3984
I27
sS'YER142C'
p3985
I4
sS'YML119W'
p3986
I5
sS'YHR204W'
p3987
I7
sS'YGR036C'
p3988
I3
sS'YNL225C'
p3989
I5
sS'YOR318C'
p3990
I1
sS'YNR059W'
p3991
I2
sS'YDR180W'
p3992
I2
sS'YOL120C'
p3993
I39
sS'YHR199C-A'
p3994
I1
sS'YAL001C'
p3995
I7
sS'YIL036W'
p3996
I8
sS'YOL051W'
p3997
I4
sS'YPL236C'
p3998
I1
sS'YHR155W'
p3999
I9
sS'YOR045W'
p4000
I6
sS'YDR476C'
p4001
I3
sS'YOL102C'
p4002
I3
sS'YBR252W'
p4003
I5
sS'YBR225W'
p4004
I5
sS'YIL110W'
p4005
I5
sS'YMR086W'
p4006
I10
sS'YPL183W-A'
p4007
I3
sS'YIL158W'
p4008
I6
sS'YLR425W'
p4009
I7
sS'YBR169C'
p4010
I5
sS'YJR101W'
p4011
I9
sS'YKR095W-A'
p4012
I4
sS'YMR305C'
p4013
I17
sS'YLR131C'
p4014
I4
sS'YLL058W'
p4015
I2
sS'YBL051C'
p4016
I4
sS'YJL085W'
p4017
I1
sS'YDL209C'
p4018
I5
sS'YPR174C'
p4019
I1
sS'YEL055C'
p4020
I21
sS'YGR058W'
p4021
I2
sS'YPR193C'
p4022
I2
sS'YBR053C'
p4023
I9
sS'YML013W'
p4024
I3
sS'YPL077C'
p4025
I2
sS'YNL207W'
p4026
I11
sS'YDR428C'
p4027
I5
sS'YLR029C'
p4028
I106
sS'YJL181W'
p4029
I3
sS'YOR210W'
p4030
I9
sS'YBL034C'
p4031
I4
sS'YOL008W'
p4032
I1
sS'YER077C'
p4033
I3
sS'YHR104W'
p4034
I4
sS'YBR089C-A'
p4035
I5
sS'YKR083C'
p4036
I3
sS'YMR209C'
p4037
I4
sS'YDL003W'
p4038
I9
sS'YER128W'
p4039
I1
sS'YDL078C'
p4040
I8
sS'YLR061W'
p4041
I144
sS'YKL214C'
p4042
I7
sS'YOL088C'
p4043
I8
sS'YBR099C'
p4044
I1
sS'YKR095W'
p4045
I15
sS'YMR223W'
p4046
I4
sS'YNL074C'
p4047
I5
sS'YDR435C'
p4048
I3
sS'YIL098C'
p4049
I1
sS'YLL027W'
p4050
I5
sS'YNL208W'
p4051
I13
sS'YOR253W'
p4052
I7
sS'YCL001W'
p4053
I16
sS'YGR198W'
p4054
I6
sS'YAR007C'
p4055
I7
sS'YGR010W'
p4056
I2
sS'YML064C'
p4057
I5
sS'YEL020C'
p4058
I3
sS'YLR414C'
p4059
I6
sS'YCR016W'
p4060
I10
sS'YLR218C'
p4061
I3
sS'YML031W'
p4062
I5
sS'YKR012C'
p4063
I1
sS'YMR154C'
p4064
I2
sS'YGL186C'
p4065
I8
sS'YGL131C'
p4066
I3
sS'YGR218W'
p4067
I19
sS'YGR267C'
p4068
I16
sS'YDL225W'
p4069
I6
sS'YDL125C'
p4070
I17
sS'YMR114C'
p4071
I5
sS'YGL022W'
p4072
I25
sS'YML079W'
p4073
I7
sS'YLR180W'
p4074
I26
sS'YMR049C'
p4075
I19
sS'YOR166C'
p4076
I4
sS'YJL213W'
p4077
I5
sS'YGR285C'
p4078
I75
sS'YOR309C'
p4079
I28
sS'YDR374W-A'
p4080
I1
sS'YMR214W'
p4081
I10
sS'YOR180C'
p4082
I1
sS'YDR500C'
p4083
I40
sS'YGL032C'
p4084
I2
sS'YMR176W'
p4085
I8
sS'YCL063W'
p4086
I4
sS'YER048C'
p4087
I20
sS'YPR020W'
p4088
I4
sS'YDR107C'
p4089
I2
sS'YGR245C'
p4090
I28
sS'YOR148C'
p4091
I5
sS'YLR047C'
p4092
I1
sS'YDR497C'
p4093
I19
sS'YDL025C'
p4094
I8
sS'YLR147C'
p4095
I3
sS'YMR222C'
p4096
I6
sS'YDL147W'
p4097
I22
sS'YFL056C'
p4098
I2
sS'YFL029C'
p4099
I1
sS'YBL091C'
p4100
I23
sS'YMR063W'
p4101
I3
sS'YMR014W'
p4102
I13
sS'YHR089C'
p4103
I24
sS'YPL048W'
p4104
I33
sS'YDR263C'
p4105
I1
sS'YIL137C'
p4106
I12
sS'YNL123W'
p4107
I17
sS'YPL037C'
p4108
I51
sS'YBR119W'
p4109
I2
sS'YOR111W'
p4110
I3
sS'YFL016C'
p4111
I11
sS'YDR323C'
p4112
I3
sS'YJL162C'
p4113
I3
sS'YKL198C'
p4114
I4
sS'YNL063W'
p4115
I2
sS'YNL032W'
p4116
I7
sS'YNL041C'
p4117
I6
sS'YGR227W'
p4118
I2
sS'YJL100W'
p4119
I4
sS'YJL006C'
p4120
I4
sS'YOR281C'
p4121
I14
sS'YKL032C'
p4122
I1
sS'YHL030W'
p4123
I11
sS'YDL178W'
p4124
I13
sS'YER095W'
p4125
I5
sS'YLR170C'
p4126
I4
sS'YML086C'
p4127
I15
sS'YKR030W'
p4128
I6
sS'YDL207W'
p4129
I13
sS'YGL122C'
p4130
I8
sS'YPL015C'
p4131
I1
sS'YLR211C'
p4132
I6
sS'YGL251C'
p4133
I4
sS'YHR182W'
p4134
I4
sS'YDL107W'
p4135
I2
sS'YNR029C'
p4136
I10
sS'YBR122C'
p4137
I2
sS'YHR001W'
p4138
I11
sS'YDR477W'
p4139
I4
sS'YAR002C-A'
p4140
I26
sS'YOL105C'
p4141
I2
sS'YOR042W'
p4142
I10
sS'YBR253W'
p4143
I4
sS'YIL042C'
p4144
I1
sS'YIL035C'
p4145
I8
sS'YIL111W'
p4146
I3
sS'YIL159W'
p4147
I6
sS'YLR346C'
p4148
I1
sS'YJL174W'
p4149
I6
sS'YNR061C'
p4150
I8
sS'YGL164C'
p4151
I3
sS'YHR154W'
p4152
I4
sS'YPL135W'
p4153
I10
sS'YGR151C'
p4154
I2
sS'YMR304W'
p4155
I2
sS'YGR041W'
p4156
I3
sS'YKL010C'
p4157
I9
sS'YPL255W'
p4158
I4
sS'YPL168W'
p4159
I2
sS'YOR128C'
p4160
I23
sS'YGR177C'
p4161
I5
sS'YKL045W'
p4162
I3
sS'YJR022W'
p4163
I1
sS'YLR273C'
p4164
I3
sS'YDL036C'
p4165
I9
sS'YGR137W'
p4166
I7
sS'YGL206C'
p4167
I13
sS'YGL091C'
p4168
I5
sS'YCL038C'
p4169
I2
sS'YLR364W'
p4170
I2
sS'YKL058W'
p4171
I5
sS'YKL085W'
p4172
I14
sS'YJR124C'
p4173
I12
sS'YNR043W'
p4174
I15
sS'YHL018W'
p4175
I1
sS'YOL089C'
p4176
I1
sS'YIL064W'
p4177
I4
sS'YER051W'
p4178
I4
sS'YKR094C'
p4179
I27
sS'YGR013W'
p4180
I5
sS'YML103C'
p4181
I12
sS'YOR377W'
p4182
I7
sS'YLL026W'
p4183
I29
sS'YCL002C'
p4184
I3
sS'YGL108C'
p4185
I4
sS'YDR421W'
p4186
I5
sS'YDR388W'
p4187
I25
sS'YGR199W'
p4188
I7
sS'YLR306W'
p4189
I2
sS'YPL038W-A'
p4190
I2
sS'YGL220W'
p4191
I5
sS'YOR328W'
p4192
I3
sS'YGR082W'
p4193
I7
sS'YDL115C'
p4194
I10
sS'YDR436W'
p4195
I2
sS'YHL027W'
p4196
I10
sS'YDR063W'
p4197
I6
sS'YOR319W'
p4198
I4
sS'YGR119C'
p4199
I11
sS'YGR035C'
p4200
I4
sS'YDR181C'
p4201
I7
sS'YOL127W'
p4202
I194
sS'YNL224C'
p4203
I7
sS'YAL020C'
p4204
I4
sS'YBR275C'
p4205
I5
sS'YDR539W'
p4206
I4
sS'YDR304C'
p4207
I18
sS'YMR177W'
p4208
I5
sS'YOR187W'
p4209
I20
sS'YOR292C'
p4210
I3
sS'YGR286C'
p4211
I7
sS'YCR037C'
p4212
I8
sS'YHR004C'
p4213
I3
sS'YMR217W'
p4214
I51
sS'YOR239W'
p4215
I22
sS'YOR136W'
p4216
I11
sS'YPR201W'
p4217
I3
sS'YDR494W'
p4218
I5
sS'YOR147W'
p4219
I6
sS'YGR246C'
p4220
I7
sS'YPL242C'
p4221
I7
sS'YLR046C'
p4222
I5
sS'YBR067C'
p4223
I15
sS'YLR064W'
p4224
I7
sS'YDR100W'
p4225
I3
sS'YLL004W'
p4226
I3
sS'YER049W'
p4227
I24
sS'YEL054C'
p4228
I74
sS'YMR239C'
p4229
I10
sS'YLR028C'
p4230
I21
sS'YER136W'
p4231
I21
sS'YML012W'
p4232
I29
sS'YOL009C'
p4233
I2
sS'YDR028C'
p4234
I8
sS'YOR217W'
p4235
I7
sS'YBL035C'
p4236
I5
sS'YNL206C'
p4237
I10
sS'YHR105W'
p4238
I1
sS'YLR060W'
p4239
I33
sS'YHR035W'
p4240
I2
sS'YER076C'
p4241
I1
sS'YDR422C'
p4242
I4
sS'YML091C'
p4243
I3
sS'YBR049C'
p4244
I11
sS'YKR080W'
p4245
I13
sS'YGL188C-A'
p4246
I3
sS'YPR148C'
p4247
I16
sS'YNL180C'
p4248
I13
sS'YMR195W'
p4249
I5
sS'YDR162C'
p4250
I5
sS'YDL098C'
p4251
I4
sS'YPL066W'
p4252
I6
sS'YOR076C'
p4253
I9
sS'YBL069W'
p4254
I5
sS'YNL040W'
p4255
I8
sS'YDR353W'
p4256
I24
sS'YJL001W'
p4257
I19
sS'YJL049W'
p4258
I3
sS'YHR183W'
p4259
I41
sS'YDL085C-A'
p4260
I2
sS'YOR129C'
p4261
I4
sS'YDL206W'
p4262
I2
sS'YHR060W'
p4263
I6
sS'YBR010W'
p4264
I19
sS'YER094C'
p4265
I9
sS'YIL010W'
p4266
I9
sS'YDL104C'
p4267
I2
sS'YKR037C'
p4268
I1
sS'YKL119C'
p4269
I5
sS'YPL016W'
p4270
I5
sS'YHR042W'
p4271
I15
sS'YER101C'
p4272
I2
sS'YMR155W'
p4273
I3
sS'YCR019W'
p4274
I3
sS'YLR086W'
p4275
I9
sS'YMR284W'
p4276
I3
sS'YML030W'
p4277
I2
sS'YML065W'
p4278
I10
sS'YER001W'
p4279
I3
sS'YLR285C-A'
p4280
I2
sS'YBL074C'
p4281
I1
sS'YGL023C'
p4282
I12
sS'YPR009W'
p4283
I5
sS'YMR115W'
p4284
I7
sS'YDL126C'
p4285
I79
sS'YMR260C'
p4286
I73
sS'YGR264C'
p4287
I38
sS'YOR161C'
p4288
I3
sS'YML078W'
p4289
I15
sS'YLR142W'
p4290
I3
sS'YIR018W'
p4291
I3
sS'YPL074W'
p4292
I12
sS'YJR025C'
p4293
I6
sS'YKL046C'
p4294
I13
sS'YBR145W'
p4295
I2
sS'YDR339C'
p4296
I10
sS'YNL310C'
p4297
I3
sS'YDR307W'
p4298
I3
sS'YAL041W'
p4299
I6
sS'YPL169C'
p4300
I4
sS'YHR161C'
p4301
I4
sS'YGR174C'
p4302
I2
sS'YDL224C'
p4303
I5
sS'YLR225C'
p4304
I3
sS'YGL207W'
p4305
I26
sS'YGL090W'
p4306
I2
sS'YLR454W'
p4307
I6
sS'YGR134W'
p4308
I4
sS'YLR270W'
p4309
I5
sS'YKL184W'
p4310
I4
sS'YGR169C'
p4311
I2
sS'YPR086W'
p4312
I5
sS'YKL086W'
p4313
I1
sS'YJR125C'
p4314
I10
sS'YMR060C'
p4315
I4
sS'YLR459W'
p4316
I6
sS'YJR003C'
p4317
I7
sS'YDL144C'
p4318
I6
sS'YFL028C'
p4319
I4
sS'YBR105C'
p4320
I2
sS'YPL034W'
p4321
I4
sS'YDR456W'
p4322
I10
sS'YNL062C'
p4323
I9
sS'YMR295C'
p4324
I8
sS'YPL116W'
p4325
I6
sS'YLR238W'
p4326
I3
sS'YDR324C'
p4327
I9
sS'YJL072C'
p4328
I4
sS'YOR112W'
p4329
I8
sS'YFL017C'
p4330
I12
sS'YDR262W'
p4331
I11
sS'YIL134W'
p4332
I4
sS'YJL163C'
p4333
I2
sS'YNL175C'
p4334
I21
sS'YDR084C'
p4335
I2
sS'YJR143C'
p4336
I17
sS'YOR356W'
p4337
I6
sS'YNL182C'
p4338
I11
sS'YAR027W'
p4339
I5
sS'YGR083C'
p4340
I22
sS'YHL026C'
p4341
I3
sS'YGL221C'
p4342
I17
sS'YGR034W'
p4343
I51
sS'YDR182W'
p4344
I6
sS'YNL290W'
p4345
I5
sS'YBL010C'
p4346
I4
sS'YDR139C'
p4347
I1
sS'YBR276C'
p4348
I7
sS'YJR147W'
p4349
I3
sS'YAL021C'
p4350
I5
sS'YHR128W'
p4351
I18
sS'YDR538W'
p4352
I3
sS'YOR316C'
p4353
I3
sS'YNL227C'
p4354
I6
sS'YBR123C'
p4355
I8
sS'YIL112W'
p4356
I15
sS'YDR501W'
p4357
I2
sS'YDL188C'
p4358
I5
sS'YOL104C'
p4359
I1
sS'YNR028W'
p4360
I6
sS'YDR470C'
p4361
I2
sS'YIL034C'
p4362
I15
sS'YIL043C'
p4363
I35
sS'YHR153C'
p4364
I2
sS'YPL134C'
p4365
I2
sS'YJL087C'
p4366
I3
sS'YLR347C'
p4367
I7
sS'YJR107W'
p4368
I2
sS'YNL157W'
p4369
I10
sS'YPL143W'
p4370
I60
sS'YBR218C'
p4371
I21
sS'YNR060W'
p4372
I1
sS'YML120C'
p4373
I2
sS'YGL174W'
p4374
I2
sS'YHR106W'
p4375
I2
sS'YOR216C'
p4376
I5
sS'YNL211C'
p4377
I3
sS'YBR035C'
p4378
I13
sS'YGL035C'
p4379
I5
sS'YBL036C'
p4380
I10
sS'YGR183C'
p4381
I3
sS'YBR080C'
p4382
I14
sS'YPR191W'
p4383
I6
sS'YER137C'
p4384
I6
sS'YDR027C'
p4385
I12
sS'YIL063C'
p4386
I8
sS'YBR170C'
p4387
I10
sS'YER071C'
p4388
I2
sS'YNL272C'
p4389
I9
sS'YBR048W'
p4390
I19
sS'YPR073C'
p4391
I8
sS'YKR081C'
p4392
I26
sS'YPL263C'
p4393
I15
sS'YDL001W'
p4394
I6
sS'YLR067C'
p4395
I3
sS'YOL013C'
p4396
I3
sS'YJL183W'
p4397
I11
sS'YPL218W'
p4398
I28
sS'YKL128C'
p4399
I6
sS'YEL028W'
p4400
I1
sS'YBL059C-A'
p4401
I2
sS'YIL065C'
p4402
I3
sS'YOL031C'
p4403
I6
sS'YHL019C'
p4404
I4
sS'YNL258C'
p4405
I9
sS'YJR094W-A'
p4406
I53
sS'YKL216W'
p4407
I57
sS'YGR012W'
p4408
I9
sS'YHL004W'
p4409
I2
sS'YJL205C'
p4410
I1
sS'YNL098C'
p4411
I12
sS'YML102W'
p4412
I5
sS'YOR370C'
p4413
I12
sS'YJL047C-A'
p4414
I7
sS'YGR270W'
p4415
I8
sS'YDR389W'
p4416
I5
sS'YHR062C'
p4417
I5
sS'YDL027C'
p4418
I4
sS'YER053C'
p4419
I3
sS'YPL051W'
p4420
I4
sS'YJR121W'
p4421
I16
sS'YDR049W'
p4422
I9
sS'YER100W'
p4423
I6
sS'YGL008C'
p4424
I133
sS'YJL026W'
p4425
I19
sS'YLR412W'
p4426
I7
sS'YER002W'
p4427
I13
sS'YCR018C'
p4428
I6
sS'YDL127W'
p4429
I6
sS'YBL075C'
p4430
I3
sS'YPR008W'
p4431
I5
sS'YGL020C'
p4432
I8
sS'YOR160W'
p4433
I7
sS'YGL133W'
p4434
I5
sS'YMR261C'
p4435
I4
sS'YMR112C'
p4436
I3
sS'YCR036W'
p4437
I10
sS'YMR216C'
p4438
I4
sS'YCL061C'
p4439
I6
sS'YIL047C'
p4440
I9
sS'YDR502C'
p4441
I18
sS'YGR065C'
p4442
I8
sS'YGR247W'
p4443
I2
sS'YDR101C'
p4444
I16
sS'YPR026W'
p4445
I5
sS'YEL002C'
p4446
I15
sS'YPL245W'
p4447
I6
sS'YBR066C'
p4448
I4
sS'YBR079C'
p4449
I41
sS'YHR199C'
p4450
I8
sS'YDL090C'
p4451
I3
sS'YFL054C'
p4452
I1
sS'YMR061W'
p4453
I5
sS'YJL128C'
p4454
I8
sS'YJR002W'
p4455
I14
sS'YDL145C'
p4456
I34
sS'YBL097W'
p4457
I8
sS'YBR126W-B'
p4458
I7
sS'YBR126W-A'
p4459
I3
sS'YGL068W'
p4460
I12
sS'YGR161W-C'
p4461
I4
sS'YDR325W'
p4462
I2
sS'YIL135C'
p4463
I1
sS'YDR370C'
p4464
I6
sS'YOR113W'
p4465
I1
sS'YDR087C'
p4466
I13
sS'YMR294W'
p4467
I4
sS'YDR265W'
p4468
I4
sS'YBR081C'
p4469
I8
sS'YNR008W'
p4470
I10
sS'YLR193C'
p4471
I5
sS'YDR072C'
p4472
I11
sS'YLR248W'
p4473
I14
sS'YOR283W'
p4474
I7
sS'YJL102W'
p4475
I2
sS'YNL043C'
p4476
I1
sS'YBR249C'
p4477
I43
sS'YNL181W'
p4478
I11
sS'YBL068W'
p4479
I10
sS'YER056C-A'
p4480
I38
sS'YDR352W'
p4481
I5
sS'YKL129C'
p4482
I8
sS'YDR524C-B'
p4483
I72
sS'YML051W'
p4484
I7
sS'YDR238C'
p4485
I32
sS'YDL105W'
p4486
I3
sS'YMR122W-A'
p4487
I16
sS'YCR098C'
p4488
I1
sS'YDR243C'
p4489
I3
sS'YHR082C'
p4490
I15
sS'YFR008W'
p4491
I3
sS'YPR168W'
p4492
I3
sS'YJL048C'
p4493
I1
sS'YPR113W'
p4494
I12
sS'YLR213C'
p4495
I1
sS'YKL161C'
p4496
I2
sS'YKR036C'
p4497
I6
sS'YPL113C'
p4498
I2
sS'YOL159C-A'
p4499
I2
sS'YIL113W'
p4500
I1
sS'YMR099C'
p4501
I25
sS'YOL107W'
p4502
I2
sS'YIL040W'
p4503
I2
sS'YDR471W'
p4504
I34
sS'YMR173W-A'
p4505
I13
sS'YGL219C'
p4506
I3
sS'YOR040W'
p4507
I1
sS'YAL051W'
p4508
I4
sS'YAL019W'
p4509
I9
sS'YNL067W'
p4510
I22
sS'YPL140C'
p4511
I4
sS'YLL059C'
p4512
I1
sS'YLR449W'
p4513
I33
sS'YNL156C'
p4514
I4
sS'YAR008W'
p4515
I3
sS'YBR219C'
p4516
I1
sS'YHR152W'
p4517
I2
sS'YGR169C-A'
p4518
I15
sS'YML123C'
p4519
I72
sS'YNR063W'
p4520
I1
sS'YLR239C'
p4521
I6
sS'YPL075W'
p4522
I8
sS'YJR024C'
p4523
I9
sS'YJL135W'
p4524
I1
sS'YNL029C'
p4525
I4
sS'YBR142W'
p4526
I12
sS'YHR166C'
p4527
I3
sS'YGR175C'
p4528
I20
sS'YIR017C'
p4529
I1
sS'YDR338C'
p4530
I3
sS'YIL128W'
p4531
I5
sS'YKL096W'
p4532
I6
sS'YGL097W'
p4533
I15
sS'YER113C'
p4534
I6
sS'YLR271W'
p4535
I2
sS'YJR126C'
p4536
I9
sS'YGR168C'
p4537
I11
sS'YGL204C'
p4538
I1
sS'YOR261C'
p4539
I24
sS'YIR042C'
p4540
I1
sS'YIL088C'
p4541
I5
sS'YOL152W'
p4542
I1
sS'YMR255W'
p4543
I7
sS'YOL125W'
p4544
I7
sS'YNL259C'
p4545
I4
sS'YML101C'
p4546
I2
sS'YCL058W-A'
p4547
I2
sS'YNL099C'
p4548
I6
sS'YGL059W'
p4549
I1
sS'YKR096W'
p4550
I9
sS'YDR378C'
p4551
I3
sS'YHL003C'
p4552
I15
sS'YOR371C'
p4553
I1
sS'YJR104C'
p4554
I49
sS'YER180C-A'
p4555
I1
sS'YFR043C'
p4556
I3
sS'YHL021C'
p4557
I2
sS'YLR304C'
p4558
I31
sS'YOR357C'
p4559
I6
sS'YGR153W'
p4560
I3
sS'YFR038W'
p4561
I20
sS'YNL303W'
p4562
I1
sS'YGR080W'
p4563
I3
sS'YOR037W'
p4564
I5
sS'YBL011W'
p4565
I8
sS'YDR183W'
p4566
I6
sS'YGL222C'
p4567
I1
sS'YDR138W'
p4568
I9
sS'YHR129C'
p4569
I8
sS'YOR317W'
p4570
I14
sS'YBR255C-A'
p4571
I2
sS'YGR033C'
p4572
I5
sS'YEL024W'
p4573
I1
sS'YAL022C'
p4574
I7
sS'YJR144W'
p4575
I10
sS'YOL078W'
p4576
I3
sS'YGL153W'
p4577
I2
sS'YOR383C'
p4578
I11
sS'YGL191W'
p4579
I3
sS'YJR010C-A'
p4580
I5
sS'YHR033W'
p4581
I2
sS'YMR171C'
p4582
I5
sS'YCR042C'
p4583
I4
sS'YOR185C'
p4584
I1
sS'YOR244W'
p4585
I11
sS'YEL003W'
p4586
I8
sS'YDR503C'
p4587
I2
sS'YGL037C'
p4588
I9
sS'YPL244C'
p4589
I5
sS'YDR492W'
p4590
I6
sS'YGR240C'
p4591
I57
sS'YGL049C'
p4592
I12
sS'YMR259C'
p4593
I8
sS'YBR061C'
p4594
I6
sS'YDR023W'
p4595
I75
sS'YOR145C'
p4596
I12
sS'YPR052C'
p4597
I8
sS'YPR025C'
p4598
I2
sS'YBR087W'
p4599
I7
sS'YBL037W'
p4600
I10
sS'YPR190C'
p4601
I10
sS'YOR215C'
p4602
I6
sS'YHR107C'
p4603
I5
sS'YAR002W'
p4604
I10
sS'YGL175C'
p4605
I1
sS'YOR262W'
p4606
I4
sS'YEL056W'
p4607
I6
sS'YMR194C-B'
p4608
I1
sS'YNL204C'
p4609
I3
sS'YLR066W'
p4610
I7
sS'YBR047W'
p4611
I3
sS'YEL029C'
p4612
I4
sS'YNL273W'
p4613
I4
sS'YOL012C'
p4614
I8
sS'YPL219W'
p4615
I1
sS'YPL262W'
p4616
I17
sS'YOR312C'
p4617
I28
sS'YJL003W'
p4618
I1
sS'YPL020C'
p4619
I10
sS'YKR057W'
p4620
I39
sS'YLR289W'
p4621
I3
sS'YOR284W'
p4622
I3
sS'YCL040W'
p4623
I4
sS'YOR163W'
p4624
I3
sS'YMR044W'
p4625
I3
sS'YJL077W-A'
p4626
I1
sS'YNL042W'
p4627
I2
sS'YBR012C'
p4628
I3
sS'YML050W'
p4629
I2
sS'YPL010W'
p4630
I12
sS'YHL040C'
p4631
I8
sS'YHR058C'
p4632
I6
sS'YDR239C'
p4633
I4
sS'YJR049C'
p4634
I8
sS'YPR112C'
p4635
I18
sS'YML085C'
p4636
I14
sS'YPR169W'
p4637
I16
sS'YDR242W'
p4638
I2
sS'YLR175W'
p4639
I48
sS'YIL061C'
p4640
I2
sS'YNL308C'
p4641
I36
sS'YML067C'
p4642
I8
sS'YER052C'
p4643
I13
sS'YLR080W'
p4644
I1
sS'YER003C'
p4645
I22
sS'YER103W'
p4646
I5
sS'YCR099C'
p4647
I3
sS'YGL254W'
p4648
I1
sS'YJL025W'
p4649
I6
sS'YPR143W'
p4650
I10
sS'YBR029C'
p4651
I6
sS'YMR262W'
p4652
I1
sS'YLR153C'
p4653
I22
sS'YOL059W'
p4654
I7
sS'YBL076C'
p4655
I82
sS'YMR113W'
p4656
I3
sS'YGL134W'
p4657
I7
sS'YNL021W'
p4658
I5
sS'YLR128W'
p4659
I2
sS'YKR068C'
p4660
I8
sS'YGL021W'
p4661
I8
sS'YBR143C'
p4662
I43
sS'YDR086C'
p4663
I18
sS'YHR072W-A'
p4664
I17
sS'YIR016W'
p4665
I3
sS'YPL072W'
p4666
I2
sS'YHR167W'
p4667
I3
sS'YJL134W'
p4668
I11
sS'YJL161W'
p4669
I1
sS'YDR449C'
p4670
I9
sS'YJL019W'
p4671
I4
sS'YLR367W'
p4672
I13
sS'YLR227C'
p4673
I3
sS'YKL080W'
p4674
I20
sS'YKL186C'
p4675
I9
sS'YGL096W'
p4676
I1
sS'YIR022W'
p4677
I13
sS'YHR083W'
p4678
I4
sS'YGR095C'
p4679
I3
sS'YKR042W'
p4680
I25
sS'YKL160W'
p4681
I14
sS'YDL091C'
p4682
I2
sS'YDL142C'
p4683
I1
sS'YCL027W'
p4684
I5
sS'YMR066W'
p4685
I3
sS'YHR198C'
p4686
I3
sS'YJR001W'
p4687
I10
sS'YGL196W'
p4688
I3
sS'YJL129C'
p4689
I8
sS'YLR209C'
p4690
I4
sS'YJL209W'
p4691
I7
sS'YDR264C'
p4692
I16
sS'YNL035C'
p4693
I6
sS'YMR026C'
p4694
I4
sS'YLR212C'
p4695
I3
sS'YJL074C'
p4696
I7
sS'YNL177C'
p4697
I9
sS'YKL162C'
p4698
I2
sS'YOR114W'
p4699
I5
sS'YDR326C'
p4700
I8
sS'YPR134W'
p4701
I2
sS'YLR250W'
p4702
I8
sS'YBR281C'
p4703
I4
sS'YCR075C'
p4704
I3
sS'YHL020C'
p4705
I9
sS'YIL009W'
p4706
I8
sS'YFR042W'
p4707
I8
sS'YHR076W'
p4708
I5
sS'YOR066W'
p4709
I3
sS'YOR354C'
p4710
I5
sS'YGL223C'
p4711
I9
sS'YOR036W'
p4712
I8
sS'YJR090C'
p4713
I8
sS'YGR032W'
p4714
I7
sS'YGL150C'
p4715
I11
sS'YOR349W'
p4716
I2
sS'YJR145C'
p4717
I12
sS'YNL292W'
p4718
I6
sS'YCL057C-A'
p4719
I4
sS'YBR270C'
p4720
I2
sS'YAL023C'
p4721
I22
sS'YGR027C'
p4722
I102
sS'YNL148C'
p4723
I2
sS'YDR066C'
p4724
I3
sS'YJR127C'
p4725
I8
sS'YBR256C'
p4726
I11
sS'YOR014W'
p4727
I9
sS'YLR390W'
p4728
I1
sS'YGR109C'
p4729
I3
sS'YKL073W'
p4730
I6
sS'YLR448W'
p4731
I34
sS'YPL141C'
p4732
I4
sS'YHR151C'
p4733
I7
sS'YDR311W'
p4734
I7
sS'YHR002W'
p4735
I4
sS'YDR472W'
p4736
I6
sS'YNL155W'
p4737
I8
sS'YNL100W'
p4738
I3
sS'YBR216C'
p4739
I5
sS'YMR210W'
p4740
I3
sS'YOR304C-A'
p4741
I1
sS'YMR318C'
p4742
I20
sS'YOR372C'
p4743
I3
sS'YCR009C'
p4744
I11
sS'YHR108W'
p4745
I16
sS'YDR025W'
p4746
I26
sS'YGL176C'
p4747
I6
sS'YBL071W-A'
p4748
I4
sS'YAR003W'
p4749
I10
sS'YBL030C'
p4750
I33
sS'YPL229W'
p4751
I1
sS'YMR236W'
p4752
I8
sS'YOR127W'
p4753
I7
sS'YOL011W'
p4754
I5
sS'YLL054C'
p4755
I1
sS'YLR443W'
p4756
I4
sS'YDR235W'
p4757
I7
sS'YJL047C'
p4758
I6
sS'YOR381W'
p4759
I2
sS'YER073W'
p4760
I50
sS'YLR065C'
p4761
I4
sS'YBR046C'
p4762
I1
sS'YOL124C'
p4763
I14
sS'YDR013W'
p4764
I1
sS'YDR003W'
p4765
I3
sS'YDR275W'
p4766
I4
sS'YNR040W'
p4767
I2
sS'YIL067C'
p4768
I2
sS'YHR021W-A'
p4769
I2
sS'YHR020W'
p4770
I52
sS'YOL033W'
p4771
I9
sS'YBR238C'
p4772
I2
sS'YGL058W'
p4773
I6
sS'YHL002W'
p4774
I7
sS'YKR099W'
p4775
I8
sS'YML100W'
p4776
I2
sS'YLR410W'
p4777
I9
sS'YER004W'
p4778
I6
sS'YOR144C'
p4779
I3
sS'YKL162C-A'
p4780
I1
sS'YBR039W'
p4781
I10
sS'YBL105C'
p4782
I11
sS'YKR016W'
p4783
I5
sS'YMR158W'
p4784
I5
sS'YMR251W-A'
p4785
I8
sS'YLL036C'
p4786
I7
sS'YJL024C'
p4787
I2
sS'YDR519W'
p4788
I3
sS'YDL029W'
p4789
I27
sS'YLR034C'
p4790
I7
sS'YER019W'
p4791
I3
sS'YBR028C'
p4792
I6
sS'YMR263W'
p4793
I2
sS'YKR069W'
p4794
I6
sS'YDL121C'
p4795
I12
sS'YJL217W'
p4796
I11
sS'YLR129W'
p4797
I20
sS'YNR032C-A'
p4798
I3
sS'YLR102C'
p4799
I4
sS'YMR172W'
p4800
I5
sS'YCR034W'
p4801
I14
sS'YDL007W'
p4802
I22
sS'YER088C-A'
p4803
I1
sS'YCR043C'
p4804
I2
sS'YDR504C'
p4805
I1
sS'YLL009C'
p4806
I3
sS'YJL146W'
p4807
I6
sS'YDR493W'
p4808
I2
sS'YGR241C'
p4809
I9
sS'YGL036W'
p4810
I3
sS'YPL247C'
p4811
I2
sS'YMR258C'
p4812
I11
sS'YBR060C'
p4813
I10
sS'YDR103W'
p4814
I5
sS'YPR053C'
p4815
I10
sS'YKL167C'
p4816
I3
sS'YIR023W'
p4817
I5
sS'YBL095W'
p4818
I3
sS'YDL092W'
p4819
I8
sS'YKR043C'
p4820
I17
sS'YER053C-A'
p4821
I1
sS'YMR067C'
p4822
I8
sS'YML116W-A'
p4823
I4
sS'YDL143W'
p4824
I36
sS'YCL021W-A'
p4825
I3
sS'YPR068C'
p4826
I2
sS'YGL197W'
p4827
I1
sS'YPR060C'
p4828
I7
sS'YNL036W'
p4829
I2
sS'YOR115C'
p4830
I7
sS'YIL129C'
p4831
I6
sS'YMR296C'
p4832
I11
sS'YDR267C'
p4833
I10
sS'YJL208C'
p4834
I4
sS'YOR162C'
p4835
I3
sS'YMR145C'
p4836
I9
sS'YDR161W'
p4837
I23
sS'YMR110C'
p4838
I4
sS'YGL128C'
p4839
I2
sS'YOR285W'
p4840
I13
sS'YHR077C'
p4841
I8
sS'YJL002C'
p4842
I19
sS'YCR065W'
p4843
I6
sS'YLR288C'
p4844
I2
sS'YPR159W'
p4845
I14
sS'YGR223C'
p4846
I1
sS'YDR074W'
p4847
I8
sS'YJR097W'
p4848
I2
sS'YHR059W'
p4849
I1
sS'YPR075C'
p4850
I6
sS'YBR013C'
p4851
I1
sS'YGL137W'
p4852
I25
sS'YML053C'
p4853
I5
sS'YPL011C'
p4854
I5
sS'YOL094C'
p4855
I6
sS'YNL309W'
p4856
I3
sS'YLL033W'
p4857
I2
sS'YJR048W'
p4858
I3
sS'YPR111W'
p4859
I5
sS'YHR084W'
p4860
I3
sS'YAL053W'
p4861
I6
sS'YNL149C'
p4862
I9
sS'YGL095C'
p4863
I9
sS'YBR257W'
p4864
I5
sS'YPL028W'
p4865
I37
sS'YOR205C'
p4866
I7
sS'YDL216C'
p4867
I2
sS'YIL079C'
p4868
I8
sS'YGR133W'
p4869
I4
sS'YOR017W'
p4870
I11
sS'YBR137W'
p4871
I4
sS'YDR473C'
p4872
I3
sS'YLR393W'
p4873
I2
sS'YDR310C'
p4874
I5
sS'YPL146C'
p4875
I14
sS'YKL072W'
p4876
I5
sS'YPL139C'
p4877
I2
sS'YBR217W'
p4878
I1
sS'YNL154C'
p4879
I10
sS'YNL001W'
p4880
I8
sS'YJL080C'
p4881
I25
sS'YIL046W'
p4882
I9
sS'YFR009W'
p4883
I15
sS'YNL101W'
p4884
I4
sS'YHR150W'
p4885
I7
sS'YDR081C'
p4886
I3
sS'YJL137C'
p4887
I1
sS'YCL009C'
p4888
I39
sS'YNL176C'
p4889
I2
sS'YKL149C'
p4890
I4
sS'YBR140C'
p4891
I6
sS'YDR448W'
p4892
I4
sS'YJR111C'
p4893
I3
sS'YHR085W'
p4894
I9
sS'YLR360W'
p4895
I3
sS'YPL189C-A'
p4896
I1
sS'YER087C-B'
p4897
I10
sS'YKL081W'
p4898
I120
sS'YPL164C'
p4899
I1
sS'YMR274C'
p4900
I2
sS'YLR226W'
p4901
I6
sS'YKL181W'
p4902
I45
sS'YDL229W'
p4903
I29
sS'YBR093C'
p4904
I4
sS'YOL032W'
p4905
I3
sS'YHR027C'
p4906
I31
sS'YNR047W'
p4907
I4
sS'YOR315W'
p4908
I11
sS'YBR239C'
p4909
I1
sS'YML107C'
p4910
I2
sS'YDR034C'
p4911
I7
sS'YKR098C'
p4912
I1
sS'YNL075W'
p4913
I9
sS'YML125C'
p4914
I15
sS'YLR251W'
p4915
I2
sS'YFR041C'
p4916
I5
sS'YHR071W'
p4917
I19
sS'YKL100C'
p4918
I9
sS'YOR355W'
p4919
I8
sS'YOR028C'
p4920
I2
sS'YPL106C'
p4921
I121
sS'YIL006W'
p4922
I5
sS'YAL034W-A'
p4923
I1
sS'YGR195W'
p4924
I10
sS'YOR316C-A'
p4925
I1
sS'YHL023C'
p4926
I4
sS'YGL151W'
p4927
I10
sS'YJR091C'
p4928
I5
sS'YGR031W'
p4929
I5
sS'YBR271W'
p4930
I4
sS'YOR035C'
p4931
I3
sS'YBL017C'
p4932
I11
sS'YAL024C'
p4933
I1
sS'YPL150W'
p4934
I7
sS'YOR060C'
p4935
I5
sS'YJL197W'
p4936
I7
sS'YMR213W'
p4937
I5
sS'YBR233W-A'
p4938
I1
sS'YMR173W'
p4939
I5
sS'YDR506C'
p4940
I3
sS'YDL006W'
p4941
I5
sS'YER123W'
p4942
I4
sS'YDR153C'
p4943
I8
sS'YGL038C'
p4944
I8
sS'YLL008W'
p4945
I22
sS'YDR505C'
p4946
I3
sS'YKL206C'
p4947
I5
sS'YHR132W-A'
p4948
I2
sS'YGR068C'
p4949
I6
sS'YPL246C'
p4950
I8
sS'YOR246C'
p4951
I7
sS'YGL039W'
p4952
I5
sS'YLR405W'
p4953
I7
sS'YEL001C'
p4954
I16
sS'YMR319C'
p4955
I22
sS'YBR085W'
p4956
I3
sS'YHR109W'
p4957
I2
sS'YER055C'
p4958
I90
sS'YPR169W-A'
p4959
I5
sS'YPL270W'
p4960
I4
sS'YHL001W'
p4961
I20
sS'YOR373W'
p4962
I2
sS'YHR091C'
p4963
I2
sS'YDR391C'
p4964
I2
sS'YGR180C'
p4965
I42
sS'YOR260W'
p4966
I15
sS'YPR196W'
p4967
I1
sS'YPL260W'
p4968
I11
sS'YOL010W'
p4969
I10
sS'YNL271C'
p4970
I10
sS'YOR228C'
p4971
I3
sS'YLL055W'
p4972
I2
sS'YER072W'
p4973
I50
sS'YMR111C'
p4974
I4
sS'YNL184C'
p4975
I1
sS'YDR508C'
p4976
I23
sS'YOR138C'
p4977
I6
sS'YMR144W'
p4978
I4
sS'YCL042W'
p4979
I5
sS'YCR088W'
p4980
I18
sS'YDR208W'
p4981
I6
sS'YJL058C'
p4982
I2
sS'YDR075W'
p4983
I2
sS'YLR177W'
p4984
I1
sS'YGR220C'
p4985
I9
sS'YBR014C'
p4986
I3
sS'YML052W'
p4987
I10
sS'YPL012W'
p4988
I17
sS'YMR089C'
p4989
I9
sS'YJL191W'
p4990
I12
sS'YDL108W'
p4991
I2
sS'YGR275W'
p4992
I5
sS'YOR286W'
p4993
I5
sS'YGR021W'
p4994
I2
sS'YDR240C'
p4995
I3
sS'YCR073W-A'
p4996
I3
sS'YBL046W'
p4997
I4
sS'YOR143C'
p4998
I5
sS'YDR119W'
p4999
I10
sS'YLR411W'
p5000
I1
sS'YBR063C'
p5001
I7
sS'YER005W'
p5002
I6
sS'YER105C'
p5003
I12
sS'YDR371W'
p5004
I3
sS'YDL028C'
p5005
I3
sS'YJL023C'
p5006
I3
sS'YER050C'
p5007
I4
sS'YCR008W'
p5008
I13
sS'YBL104C'
p5009
I6
sS'YGL002W'
p5010
I3
sS'YDR518W'
p5011
I4
sS'YLR119W'
p5012
I3
sS'YGL087C'
p5013
I3
sS'YLR082C'
p5014
I2
sS'YMR159C'
p5015
I1
sS'YLR035C'
p5016
I2
sS'YLR151C'
p5017
I1
sS'YMR264W'
p5018
I6
sS'YGL136C'
p5019
I2
sS'YPR018W'
p5020
I1
sS'YGR268C'
p5021
I2
sS'YER018C'
p5022
I2
sS'YOR034C-A'
p5023
I1
sS'YDL002C'
p5024
I8
sS'YIL125W'
p5025
I6
sS'YBR141C'
p5026
I4
sS'YJL136C'
p5027
I33
sS'YKL148C'
p5028
I2
sS'YDR140W'
p5029
I4
sS'YKL112W'
p5030
I12
sS'YJL076W'
p5031
I17
sS'YDR080W'
p5032
I8
sS'YHR016C'
p5033
I3
sS'YBR114W'
p5034
I3
sS'YPL250C'
p5035
I2
sS'YHR165C'
p5036
I14
sS'YKL028W'
p5037
I11
sS'YLR221C'
p5038
I12
sS'YHR046C'
p5039
I6
sS'YIR014W'
p5040
I1
sS'YPL070W'
p5041
I2
sS'YLR361C'
p5042
I8
sS'YGL159W'
p5043
I3
sS'YKL185W'
p5044
I15
sS'YKL082C'
p5045
I20
sS'YKL180W'
p5046
I75
sS'YMR064W'
p5047
I7
sS'YKL166C'
p5048
I4
sS'YJR007W'
p5049
I30
sS'YDL093W'
p5050
I8
sS'YER098W'
p5051
I2
sS'YHR047C'
p5052
I15
sS'YJL118W'
p5053
I2
sS'YPR132W'
p5054
I30
sS'YPR137W'
p5055
I10
sS'YGL001C'
p5056
I9
sS'YKL144C'
p5057
I5
sS'YMR291W'
p5058
I1
sS'YDL140C'
p5059
I13
sS'YPL038W'
p5060
I5
sS'YDR266C'
p5061
I6
sS'YGL194C'
p5062
I6
sS'YLR263W'
p5063
I3
sS'YOR116C'
p5064
I17
sS'YGL195W'
p5065
I28
sS'YLR207W'
p5066
I3
sS'YNL037C'
p5067
I6
sS'YFL013C'
p5068
I5
sS'YFR040W'
p5069
I11
sS'YPL107W'
p5070
I2
sS'YIL107C'
p5071
I4
sS'YLR138W'
p5072
I15
sS'YOR326W'
p5073
I33
sS'YIL007C'
p5074
I3
sS'YGR152C'
p5075
I4
sS'YOR061W'
p5076
I8
sS'YGR147C'
p5077
I13
sS'YJR092W'
p5078
I10
sS'YGR030C'
p5079
I2
sS'YAL025C'
p5080
I14
sS'YOR034C'
p5081
I4
sS'YBL014C'
p5082
I9
sS'YGL094C'
p5083
I12
sS'YJR059W'
p5084
I7
sS'YGR130C'
p5085
I5
sS'YPR100W'
p5086
I6
sS'YOR016C'
p5087
I14
sS'YDL217C'
p5088
I6
sS'YGR165W'
p5089
I5
sS'YGR055W'
p5090
I15
sS'YBR254C'
p5091
I2
sS'YDR313C'
p5092
I4
sS'YBR136W'
p5093
I3
sS'YNL153C'
p5094
I7
sS'YER088C'
p5095
I7
sS'YJL083W'
p5096
I1
sS'YCL056C'
p5097
I3
sS'YBR214W'
p5098
I1
sS'YPL138C'
p5099
I3
sS'YMR224C'
p5100
I3
sS'YJL141C'
p5101
I4
sS'YKL075C'
p5102
I3
sS'YCL035C'
p5103
I8
sS'YLR392C'
p5104
I3
sS'YNL102W'
p5105
I5
sS'YPL147W'
p5106
I1
sS'YMR234W'
p5107
I8
sS'YOL086W-A'
p5108
I1
sS'YBR084W'
p5109
I32
sS'YDL131W'
p5110
I11
sS'YAR042W'
p5111
I8
sS'YGR187C'
p5112
I15
sS'YKL101W'
p5113
I10
sS'YNL081C'
p5114
I5
sS'YCL016C'
p5115
I2
sS'YPL267W'
p5116
I5
sS'YOR229W'
p5117
I2
sS'YNL276C'
p5118
I1
sS'YLL056C'
p5119
I1
sS'YOL017W'
p5120
I2
sS'YDR006C'
p5121
I3
sS'YBL032W'
p5122
I14
sS'YOR083W'
p5123
I2
sS'YIL021W'
p5124
I19
sS'YLR010C'
p5125
I2
sS'YNL209W'
p5126
I27
sS'YNL294C'
p5127
I10
sS'YBR272C'
p5128
I5
sS'YDR298C'
p5129
I12
sS'YDR011W'
p5130
I14
sS'YHR071C-A'
p5131
I1
sS'YBL009W'
p5132
I6
sS'YCR067C'
p5133
I7
sS'YPR097W'
p5134
I8
sS'YOL151W'
p5135
I5
sS'YHR131C'
p5136
I5
sS'YHR026W'
p5137
I30
sS'YNL254C'
p5138
I4
sS'YDR197W'
p5139
I3
sS'YNL289W'
p5140
I11
sS'YIL029C'
p5141
I1
sS'YML106W'
p5142
I29
sS'YBR062C'
p5143
I4
sS'YDR118W'
p5144
I3
sS'YLR118C'
p5145
I4
sS'YER006W'
p5146
I31
sS'YPR051W'
p5147
I7
sS'YLL034C'
p5148
I13
sS'YOR142W'
p5149
I12
sS'YOR196C'
p5150
I3
sS'YER174C'
p5151
I4
sS'YER104W'
p5152
I2
sS'YLR150W'
p5153
I157
sS'YLR036C'
p5154
I1
sS'YEL046C'
p5155
I17
sS'YDL189W'
p5156
I6
sS'YDL123W'
p5157
I2
sS'YML008C'
p5158
I30
sS'YDL054C'
p5159
I5
sS'YPR019W'
p5160
I5
sS'YMR265C'
p5161
I4
sS'YML073C'
p5162
I85
sS'YMR087W'
p5163
I4
sS'YNL236W'
p5164
I6
sS'YHR143W-A'
p5165
I8
sS'YBR044C'
p5166
I6
sS'YOR287C'
p5167
I9
sS'YJR105W'
p5168
I28
sS'YDL072C'
p5169
I17
sS'YER159C'
p5170
I9
sS'YDL005C'
p5171
I7
sS'YER122C'
p5172
I21
sS'YHR113W'
p5173
I4
sS'YMR212C'
p5174
I11
sS'YER048W-A'
p5175
I5
sS'YNL313C'
p5176
I9
sS'YJL196C'
p5177
I17
sS'YPR117W'
p5178
I5
sS'YHR086W'
p5179
I4
sS'YOL126C'
p5180
I7
sS'YLR058C'
p5181
I40
sS'YOR247W'
p5182
I4
sS'YEL006W'
p5183
I5
sS'YDR058C'
p5184
I4
sS'YCR024C-B'
p5185
I33
sS'YKL207W'
p5186
I19
sS'YBR298C'
p5187
I3
sS'YPL249C'
p5188
I5
sS'YHR023W'
p5189
I11
sS'YER031C'
p5190
I14
sS'YDL109C'
p5191
I1
sS'YJR006W'
p5192
I6
sS'YGL187C'
p5193
I2
sS'YIR021W'
p5194
I2
sS'YKL165C'
p5195
I7
sS'YLR430W'
p5196
I13
sS'YBR198C'
p5197
I14
sS'YJL117W'
p5198
I22
sS'YKR041W'
p5199
I2
sS'YBR183W'
p5200
I3
sS'YMR091C'
p5201
I10
sS'YMR130W'
p5202
I2
sS'YML095C'
p5203
I1
sS'YOR117W'
p5204
I12
sS'YJR066W'
p5205
I7
sS'YMR025W'
p5206
I2
sS'YDR222W'
p5207
I6
sS'YMR290C'
p5208
I20
sS'YDL141W'
p5209
I4
sS'YLR206W'
p5210
I8
sS'YPR139C'
p5211
I3
sS'YML009W-B'
p5212
I4
sS'YDR076W'
p5213
I1
sS'YNL185C'
p5214
I7
sS'YJL059W'
p5215
I2
sS'YMR047C'
p5216
I9
sS'YMR147W'
p5217
I1
sS'YGR221C'
p5218
I2
sS'YDR247W'
p5219
I1
sS'YLR168C'
p5220
I2
sS'YGR274C'
p5221
I2
sS'YBR015C'
p5222
I12
sS'YML055W'
p5223
I5
sS'YML088W'
p5224
I7
sS'YLR176C'
p5225
I3
sS'YPL013C'
p5226
I6
s.