(dp1
S'YBR177C'
p2
I8
sS'YIL140W'
p3
I5
sS'YLR268W'
p4
I10
sS'YOR011W'
p5
I3
sS'YPL043W'
p6
I11
sS'YJL155C'
p7
I2
sS'YLL062C'
p8
I4
sS'YHR067W'
p9
I4
sS'YAL008W'
p10
I2
sS'YNR028W'
p11
I7
sS'YMR111C'
p12
I2
sS'YBR255W'
p13
I3
sS'YFR027W'
p14
I3
sS'YBR128C'
p15
I1
sS'YOL115W'
p16
I4
sS'YNL007C'
p17
I20
sS'YNL300W'
p18
I10
sS'YAL056W'
p19
I1
sS'YJR122W'
p20
I3
sS'YLR152C'
p21
I3
sS'YDR459C'
p22
I1
sS'YIL034C'
p23
I6
sS'YLR244C'
p24
I18
sS'YNL003C'
p25
I4
sS'YJR084W'
p26
I2
sS'YBR135W'
p27
I7
sS'YBR004C'
p28
I3
sS'YBR160W'
p29
I3
sS'YLR313C'
p30
I3
sS'YDL238C'
p31
I4
sS'YJL082W'
p32
I4
sS'YHR007C'
p33
I45
sS'YIR004W'
p34
I2
sS'YPL191C'
p35
I4
sS'YKL190W'
p36
I18
sS'YGL084C'
p37
I7
sS'YLR348C'
p38
I16
sS'YBR248C'
p39
I6
sS'YNR067C'
p40
I12
sS'YNL152W'
p41
I2
sS'YLR382C'
p42
I2
sS'YKL063C'
p43
I9
sS'YFL045C'
p44
I53
sS'YFL010C'
p45
I12
sS'YDR141C'
p46
I4
sS'YJL131C'
p47
I4
sS'YDL170W'
p48
I2
sS'YIL124W'
p49
I7
sS'YJR044C'
p50
I7
sS'YJR011C'
p51
I3
sS'YNL156C'
p52
I5
sS'YKL048C'
p53
I1
sS'YMR009W'
p54
I5
sS'YOR123C'
p55
I4
sS'YJL179W'
p56
I8
sS'YJL122W'
p57
I12
sS'YKL183W'
p58
I3
sS'YLR189C'
p59
I6
sS'YDR363W'
p60
I2
sS'YFL021W'
p61
I1
sS'YPL194W'
p62
I3
sS'YLR362W'
p63
I3
sS'YPR118W'
p64
I15
sS'YMR283C'
p65
I2
sS'YOR074C'
p66
I5
sS'YNL166C'
p67
I5
sS'YKL134C'
p68
I2
sS'YDR090C'
p69
I1
sS'YML061C'
p70
I2
sS'YIL108W'
p71
I2
sS'YPL166W'
p72
I4
sS'YKL052C'
p73
I1
sS'YBR273C'
p74
I2
sS'YFR005C'
p75
I7
sS'YHL036W'
p76
I1
sS'YAL026C'
p77
I6
sS'YOL034W'
p78
I1
sS'YMR038C'
p79
I16
sS'YFR050C'
p80
I16
sS'YBL008W'
p81
I2
sS'YLR079W'
p82
I6
sS'YLR447C'
p83
I24
sS'YNL202W'
p84
I2
sS'YGL237C'
p85
I3
sS'YGR126W'
p86
I1
sS'YIL062C'
p87
I11
sS'YNL295W'
p88
I2
sS'YAR035W'
p89
I1
sS'YAR019C'
p90
I3
sS'YDR299W'
p91
I2
sS'YOL116W'
p92
I1
sS'YJL140W'
p93
I13
sS'YBR182C'
p94
I1
sS'YGL257C'
p95
I5
sS'YDR196C'
p96
I3
sS'YBR202W'
p97
I9
sS'YHR101C'
p98
I2
sS'YNL239W'
p99
I6
sS'YDR410C'
p100
I4
sS'YBR280C'
p101
I2
sS'YGR020C'
p102
I17
sS'YNR045W'
p103
I1
sS'YPL143W'
p104
I213
sS'YML105C'
p105
I12
sS'YLL040C'
p106
I7
sS'YIL091C'
p107
I3
sS'YOR234C'
p108
I91
sS'YCL032W'
p109
I1
sS'YLR357W'
p110
I8
sS'YPL104W'
p111
I3
sS'YNL103W'
p112
I4
sS'YAL046C'
p113
I7
sS'YDR198C'
p114
I3
sS'YAL039C'
p115
I2
sS'YNR018W'
p116
I16
sS'YNL168C'
p117
I10
sS'YDL185W'
p118
I58
sS'YFR047C'
p119
I8
sS'YBR215W'
p120
I3
sS'YGL092W'
p121
I10
sS'YLR403W'
p122
I4
sS'YNL147W'
p123
I10
sS'YBR159W'
p124
I22
sS'YDR364C'
p125
I4
sS'YML127W'
p126
I4
sS'YCL030C'
p127
I19
sS'YHR078W'
p128
I5
sS'YGR084C'
p129
I3
sS'YDR286C'
p130
I4
sS'YFR018C'
p131
I9
sS'YCR002C'
p132
I2
sS'YNR060W'
p133
I2
sS'YER042W'
p134
I11
sS'YJR110W'
p135
I3
sS'YGL157W'
p136
I6
sS'YLR233C'
p137
I1
sS'YGR099W'
p138
I4
sS'YBL015W'
p139
I1
sS'YOL090W'
p140
I6
sS'YLR300W'
p141
I29
sS'YNL145W'
p142
I42
sS'YJL091C'
p143
I3
sS'YJR140C'
p144
I4
sS'YGR146C'
p145
I2
sS'YOR033C'
p146
I1
sS'YOR062C'
p147
I3
sS'YML120C'
p148
I5
sS'YNR021W'
p149
I17
sS'YBR043C'
p150
I2
sS'YPL067C'
p151
I3
sS'YDR380W'
p152
I3
sS'YGL100W'
p153
I12
sS'YBR094W'
p154
I5
sS'YNL094W'
p155
I2
sS'YHR112C'
p156
I4
sS'YNR007C'
p157
I2
sS'YDR035W'
p158
I12
sS'YGR042W'
p159
I2
sS'YPL156C'
p160
I1
sS'YDR485C'
p161
I1
sS'YGR077C'
p162
I4
sS'YOR216C'
p163
I7
sS'YIL044C'
p164
I6
sS'YPL239W'
p165
I10
sS'YNL197C'
p166
I7
sS'YPR183W'
p167
I14
sS'YLR069C'
p168
I4
sS'YDL073W'
p169
I2
sS'YPR133C'
p170
I6
sS'YBL042C'
p171
I5
sS'YNL091W'
p172
I7
sS'YCR046C'
p173
I10
sS'YLR059C'
p174
I4
sS'YOL001W'
p175
I2
sS'YIL056W'
p176
I4
sS'YBR054W'
p177
I7
sS'YDR059C'
p178
I4
sS'YOL063C'
p179
I3
sS'YPL224C'
p180
I4
sS'YLR137W'
p181
I1
sS'YNL144C'
p182
I1
sS'YLR020C'
p183
I4
sS'YNL217W'
p184
I11
sS'YKL204W'
p185
I2
sS'YER067W'
p186
I1
sS'YDL042C'
p187
I3
sS'YMR226C'
p188
I26
sS'YOR058C'
p189
I3
sS'YPL248C'
p190
I2
sS'YDR531W'
p191
I2
sS'YFR024CA'
p192
I12
sS'YIL013C'
p193
I1
sS'YMR233W'
p194
I3
sS'YPL206C'
p195
I3
sS'YLR352W'
p196
I2
sS'YDL060W'
p197
I4
sS'YMR235C'
p198
I12
sS'YLR002C'
p199
I5
sS'YOR303W'
p200
I5
sS'YOR071C'
p201
I3
sS'YDR393W'
p202
I3
sS'YBR293W'
p203
I2
sS'YIR022W'
p204
I13
sS'YGL215W'
p205
I11
sS'YNR052C'
p206
I2
sS'YGR019W'
p207
I6
sS'YGL194CA'
p208
I3
sS'YEL032W'
p209
I3
sS'YOL076W'
p210
I4
sS'YER145C'
p211
I20
sS'YER110C'
p212
I26
sS'YHR123W'
p213
I9
sS'YPL149W'
p214
I2
sS'YBL033C'
p215
I3
sS'YDR022C'
p216
I3
sS'YPL266W'
p217
I3
sS'YOR304W'
p218
I5
sS'YLR023C'
p219
I6
sS'YML112W'
p220
I3
sS'YHL010C'
p221
I1
sS'YGR183C'
p222
I8
sS'YER169W'
p223
I4
sS'YNL321W'
p224
I4
sS'YOR226C'
p225
I12
sS'YGL241W'
p226
I1
sS'YEL025C'
p227
I1
sS'YLR108C'
p228
I3
sS'YLR229C'
p229
I16
sS'YNL186W'
p230
I9
sS'YPR176C'
p231
I4
sS'YCL044C'
p232
I4
sS'YKR008W'
p233
I3
sS'YLR017W'
p234
I14
sS'YMR146C'
p235
I27
sS'YPR165W'
p236
I33
sS'YPR024W'
p237
I6
sS'YDR226W'
p238
I96
sS'YMR266W'
p239
I9
sS'YDR057W'
p240
I2
sS'YKR064W'
p241
I2
sS'YLR097C'
p242
I2
sS'YCR060W'
p243
I6
sS'YJL036W'
p244
I4
sS'YER041W'
p245
I3
sS'YEL059CA'
p246
I3
sS'YBR016W'
p247
I12
sS'YER009W'
p248
I53
sS'YBR036C'
p249
I8
sS'YLR446W'
p250
I1
sS'YDL139C'
p251
I2
sS'YDR246W'
p252
I2
sS'YOR288C'
p253
I2
sS'YLR163C'
p254
I4
sS'YCR028C'
p255
I2
sS'YLR115W'
p256
I4
sS'YNL288W'
p257
I4
sS'YOL077WA'
p258
I11
sS'YMR126C'
p259
I4
sS'YHR089C'
p260
I14
sS'YGL014W'
p261
I6
sS'YMR168C'
p262
I2
sS'YML043C'
p263
I6
sS'YLL035W'
p264
I6
sS'YMR258C'
p265
I1
sS'YNL323W'
p266
I6
sS'YER007W'
p267
I1
sS'YGL114W'
p268
I1
sS'YER027C'
p269
I3
sS'YER167W'
p270
I2
sS'YDL013W'
p271
I4
sS'YBL106C'
p272
I2
sS'YMR104C'
p273
I6
sS'YGL044C'
p274
I4
sS'YGL169W'
p275
I5
sS'YER107C'
p276
I4
sS'YNR044W'
p277
I3
sS'YDL195W'
p278
I13
sS'YBR038W'
p279
I7
sS'YLR219W'
p280
I2
sS'YDR117C'
p281
I6
sS'YLR120C'
p282
I6
sS'YCR026C'
p283
I4
sS'YPL170W'
p284
I4
sS'YBL052C'
p285
I2
sS'YBR060C'
p286
I2
sS'YPL202C'
p287
I4
sS'YEL047C'
p288
I16
sS'YPR036W'
p289
I32
sS'YIL026C'
p290
I2
sS'YNL317W'
p291
I3
sS'YLL019C'
p292
I5
sS'YGR235C'
p293
I10
sS'YDR068W'
p294
I4
sS'YDL055C'
p295
I113
sS'YDR177W'
p296
I13
sS'YEL043W'
p297
I6
sS'YJL003W'
p298
I3
sS'YML072C'
p299
I17
sS'YHR052W'
p300
I10
sS'YDR142C'
p301
I2
sS'YKR026C'
p302
I8
sS'YFL044C'
p303
I6
sS'YJR043C'
p304
I3
sS'YPL263C'
p305
I11
sS'YJR012C'
p306
I1
sS'YJL130C'
p307
I30
sS'YJL078C'
p308
I8
sS'YJR126C'
p309
I2
sS'YKL060C'
p310
I942
sS'YBL085W'
p311
I2
sS'YKL173W'
p312
I4
sS'YIR023W'
p313
I1
sS'YGR200C'
p314
I6
sS'YBR056W'
p315
I5
sS'YLR383W'
p316
I1
sS'YDL177C'
p317
I6
sS'YIL127C'
p318
I7
sS'YDR082W'
p319
I1
sS'YDR348C'
p320
I8
sS'YLR369W'
p321
I3
sS'YKL182W'
p322
I54
sS'YOR291W'
p323
I6
sS'YDR469W'
p324
I6
sS'YMR079W'
p325
I24
sS'YDR333C'
p326
I4
sS'YKL051W'
p327
I3
sS'YMR013C'
p328
I1
sS'YPL167C'
p329
I4
sS'YLR223C'
p330
I2
sS'YIR012W'
p331
I17
sS'YLR363C'
p332
I2
sS'YNR026C'
p333
I5
sS'YNR046W'
p334
I11
sS'YNL328C'
p335
I3
sS'YJL014W'
p336
I25
sS'YDR219C'
p337
I3
sS'YCR011C'
p338
I13
sS'YPL218W'
p339
I44
sS'YLR431C'
p340
I2
sS'YKR046C'
p341
I2
sS'YJR036C'
p342
I1
sS'YJR005W'
p343
I7
sS'YGR217W'
p344
I2
sS'YNL072W'
p345
I6
sS'YBL098W'
p346
I2
sS'YDL095W'
p347
I25
sS'YMR030W'
p348
I1
sS'YOR174W'
p349
I4
sS'YER030W'
p350
I9
sS'YFL002C'
p351
I1
sS'YDR155C'
p352
I230
sS'YPR149W'
p353
I44
sS'YGL181W'
p354
I7
sS'YJL176C'
p355
I7
sS'YJR072C'
p356
I11
sS'YDR047W'
p357
I9
sS'YKR039W'
p358
I2
sS'YPL087W'
p359
I5
sS'YNL015W'
p360
I11
sS'YCR084C'
p361
I8
sS'YDR302W'
p362
I3
sS'YGL003C'
p363
I1
sS'YJL054W'
p364
I12
sS'YHR178W'
p365
I1
sS'YOR118W'
p366
I1
sS'YLR205C'
p367
I3
sS'YDR268W'
p368
I5
sS'YLR283W'
p369
I3
sS'YBL071WA'
p370
I5
sS'YOL003C'
p371
I1
sS'YML094W'
p372
I6
sS'YKR006C'
p373
I5
sS'YDL117W'
p374
I4
sS'YDR204W'
p375
I5
sS'YLR435W'
p376
I10
sS'YDR251W'
p377
I5
sS'YJR054W'
p378
I3
sS'YPL269W'
p379
I1
sS'YMR293C'
p380
I1
sS'YER089C'
p381
I10
sS'YAL038W'
p382
I673
sS'YIL105C'
p383
I2
sS'YNL162WA'
p384
I2
sS'YNL119W'
p385
I3
sS'YNR006W'
p386
I2
sS'YHR086W'
p387
I2
sS'YAL047C'
p388
I2
sS'YIL150C'
p389
I3
sS'YJL208C'
p390
I3
sS'YDR285W'
p391
I1
sS'YNL064C'
p392
I54
sS'YGR158C'
p393
I7
sS'YKL077W'
p394
I15
sS'YFR046C'
p395
I2
sS'YBR212W'
p396
I3
sS'YJR109C'
p397
I6
sS'YPL147W'
p398
I2
sS'YLR254C'
p399
I1
sS'YFR014C'
p400
I2
sS'YBR158W'
p401
I21
sS'YPL105C'
p402
I6
sS'YLR392C'
p403
I3
sS'YOL097C'
p404
I15
sS'YOR110W'
p405
I3
sS'YMR285C'
p406
I2
sS'YJL096W'
p407
I8
sS'YJR141W'
p408
I2
sS'YDR407C'
p409
I5
sS'YHR143WA'
p410
I15
sS'YJR094C'
p411
I1
sS'YNR020C'
p412
I1
sS'YKL029C'
p413
I11
sS'YBR258C'
p414
I2
sS'YPL024W'
p415
I2
sS'YLR457C'
p416
I1
sS'YLR301W'
p417
I19
sS'YAL007C'
p418
I11
sS'YJL070C'
p419
I3
sS'YHR142W'
p420
I6
sS'YGR098C'
p421
I1
sS'YBR223C'
p422
I1
sS'YOR103C'
p423
I5
sS'YGL154C'
p424
I1
sS'YPL178W'
p425
I9
sS'YJL154C'
p426
I4
sS'YDR091C'
p427
I17
sS'YJL123C'
p428
I11
sS'YIR005W'
p429
I1
sS'YJL203W'
p430
I1
sS'YAL009W'
p431
I4
sS'YIL147C'
p432
I2
sS'YBR129C'
p433
I3
sS'YDL160C'
p434
I12
sS'YBR176W'
p435
I1
sS'YPR138C'
p436
I3
sS'YPL173W'
p437
I3
sS'YDL215C'
p438
I4
sS'YGR167W'
p439
I20
sS'YJL059W'
p440
I4
sS'YKL099C'
p441
I6
sS'YPL097W'
p442
I3
sS'YDR315C'
p443
I3
sS'YJL143W'
p444
I8
sS'YBR161W'
p445
I4
sS'YGL238W'
p446
I7
sS'YGL085W'
p447
I3
sS'YNL104C'
p448
I17
sS'YPL145C'
p449
I11
sS'YIL118W'
p450
I9
sS'YNL151C'
p451
I6
sS'YKL191W'
p452
I12
sS'YLR220W'
p453
I8
sS'YHR006W'
p454
I2
sS'YHR120W'
p455
I6
sS'YOR023C'
p456
I6
sS'YGR106C'
p457
I15
sS'YKL021C'
p458
I4
sS'YHR025W'
p459
I20
sS'YNL083W'
p460
I3
sS'YPR147C'
p461
I4
sS'YNL258C'
p462
I2
sS'YBL018C'
p463
I10
sS'YOR098C'
p464
I4
sS'YOR357C'
p465
I3
sS'YOL137W'
p466
I2
sS'YLR410W'
p467
I7
sS'YDR530C'
p468
I4
sS'YDR131C'
p469
I2
sS'YER111C'
p470
I3
sS'YEL031W'
p471
I19
sS'YOL071W'
p472
I3
sS'YNR053C'
p473
I6
sS'YDL063C'
p474
I6
sS'YER144C'
p475
I1
sS'YNL163C'
p476
I5
sS'YOR385W'
p477
I1
sS'YGR185C'
p478
I35
sS'YJL189W'
p479
I485
sS'YER087CB'
p480
I25
sS'YER168C'
p481
I7
sS'YPL265W'
p482
I15
sS'YIL083C'
p483
I3
sS'YMR202W'
p484
I34
sS'YOR081C'
p485
I5
sS'YEL026W'
p486
I41
sS'YLL050C'
p487
I84
sS'YDR392W'
p488
I2
sS'YBR290W'
p489
I3
sS'YLR180W'
p490
I36
sS'YNL274C'
p491
I5
sS'YIL096C'
p492
I2
sS'YML113W'
p493
I7
sS'YDR021W'
p494
I1
sS'YGL063W'
p495
I1
sS'YPL212C'
p496
I6
sS'YMR296C'
p497
I14
sS'YHR136C'
p498
I12
sS'YGL173C'
p499
I15
sS'YLR330W'
p500
I12
sS'YPR095C'
p501
I5
sS'YOR310C'
p502
I26
sS'YFR051C'
p503
I10
sS'YHR024C'
p504
I7
sS'YDR188W'
p505
I24
sS'YAL027W'
p506
I1
sS'YPL152W'
p507
I2
sS'YGL236C'
p508
I2
sS'YGR129W'
p509
I2
sS'YAR018C'
p510
I2
sS'YHR133C'
p511
I9
sS'YDR541C'
p512
I3
sS'YOL080C'
p513
I4
sS'YOR369C'
p514
I414
sS'YNL275W'
p515
I4
sS'YOL117W'
p516
I1
sS'YNR014W'
p517
I2
sS'YGR021W'
p518
I4
sS'YDR411C'
p519
I4
sS'YBR283C'
p520
I24
sS'YIL090W'
p521
I4
sS'YBR205W'
p522
I9
sS'YOR321W'
p523
I10
sS'YDL160CA'
p524
I6
sS'YML104C'
p525
I7
sS'YBR183W'
p526
I3
sS'YDL004W'
p527
I18
sS'YGL256W'
p528
I5
sS'YDR195W'
p529
I4
sS'YOR319W'
p530
I2
sS'YOL048C'
p531
I3
sS'YGR072W'
p532
I2
sS'YNL256W'
p533
I4
sS'YOL058W'
p534
I4
sS'YMR278W'
p535
I6
sS'YER184C'
p536
I2
sS'YLR136C'
p537
I4
sS'YPR071W'
p538
I2
sS'YMR207C'
p539
I1
sS'YML015C'
p540
I1
sS'YOR197W'
p541
I16
sS'YCR007C'
p542
I2
sS'YDR016C'
p543
I5
sS'YEL004W'
p544
I1
sS'YBR255CA'
p545
I1
sS'YDL014W'
p546
I37
sS'YHR015W'
p547
I2
sS'YLL032C'
p548
I3
sS'YCR027C'
p549
I1
sS'YDL194W'
p550
I2
sS'YLR186W'
p551
I15
sS'YBR039W'
p552
I12
sS'YER024W'
p553
I1
sS'YDR116C'
p554
I4
sS'YGR258C'
p555
I3
sS'YLR325C'
p556
I270
sS'YER053CA'
p557
I1
sS'YMR110C'
p558
I4
sS'YDL056W'
p559
I4
sS'YGR234W'
p560
I56
sS'YMR108W'
p561
I17
sS'YPL213W'
p562
I2
sS'YKL117W'
p563
I25
sS'YMR178W'
p564
I5
sS'YCL005WA'
p565
I22
sS'YPR017C'
p566
I4
sS'YGL115W'
p567
I7
sS'YNL299W'
p568
I1
sS'YOL129W'
p569
I16
sS'YEL044W'
p570
I7
sS'YMR247C'
p571
I3
sS'YDR427W'
p572
I8
sS'YML071C'
p573
I5
sS'YBR077C'
p574
I7
sS'YDR176W'
p575
I3
sS'YPL177C'
p576
I11
sS'YDR122W'
p577
I4
sS'YER120W'
p578
I22
sS'YNL090W'
p579
I6
sS'YBR042C'
p580
I4
sS'YOL062C'
p581
I4
sS'YDR381W'
p582
I50
sS'YGL103W'
p583
I459
sS'YDR484W'
p584
I5
sS'YJL194W'
p585
I5
sS'YMR098C'
p586
I2
sS'YOR370C'
p587
I9
sS'YBR095C'
p588
I5
sS'YHR111W'
p589
I4
sS'YBL045C'
p590
I6
sS'YGL071W'
p591
I4
sS'YDR524C'
p592
I2
sS'YGR043C'
p593
I1
sS'YPR184W'
p594
I1
sS'YOR224C'
p595
I19
sS'YDL070W'
p596
I9
sS'YNL193W'
p597
I2
sS'YCR047C'
p598
I3
sS'YMR187C'
p599
I3
sS'YNL261W'
p600
I3
sS'YKL135C'
p601
I4
sS'YER064C'
p602
I4
sS'YDR389W'
p603
I8
sS'YOL002C'
p604
I6
sS'YLR190W'
p605
I4
sS'YML111W'
p606
I4
sS'YOR359W'
p607
I3
sS'YLL021W'
p608
I8
sS'YKL205W'
p609
I8
sS'YLR407W'
p610
I2
sS'YBR088C'
p611
I13
sS'YLR425W'
p612
I1
sS'YBR055C'
p613
I3
sS'YOR175C'
p614
I8
sS'YER033C'
p615
I2
sS'YNL329C'
p616
I1
sS'YFL005W'
p617
I13
sS'YKL110C'
p618
I1
sS'YMR014W'
p619
I3
sS'YPR040W'
p620
I5
sS'YHR040W'
p621
I3
sS'YMR152W'
p622
I3
sS'YML057W'
p623
I3
sS'YDR178W'
p624
I3
sS'YKR038C'
p625
I7
sS'YGL028C'
p626
I15
sS'YLR288C'
p627
I2
sS'YGL180W'
p628
I3
sS'YJL115W'
p629
I3
sS'YJR073C'
p630
I4
sS'YGL004C'
p631
I2
sS'YLR204W'
p632
I7
sS'YML097C'
p633
I1
sS'YIR030C'
p634
I2
sS'YLR055C'
p635
I4
sS'YJL055W'
p636
I16
sS'YHR193C'
p637
I99
sS'YMR292W'
p638
I7
sS'YPR134W'
p639
I4
sS'YBL099W'
p640
I26
sS'YMR132C'
p641
I3
sS'YDR303C'
p642
I7
sS'YPL008W'
p643
I3
sS'YOR126C'
p644
I4
sS'YDL116W'
p645
I6
sS'YPL184C'
p646
I5
sS'YGL027C'
p647
I8
sS'YPR153W'
p648
I1
sS'YMR042W'
p649
I4
sS'YDR252W'
p650
I2
sS'YOR119C'
p651
I4
sS'YLL003W'
p652
I1
sS'YOR165W'
p653
I3
sS'YDR054C'
p654
I13
sS'YLR409C'
p655
I4
sS'YNL316C'
p656
I3
sS'YMR268C'
p657
I3
sS'YCL045C'
p658
I14
sS'YPL088W'
p659
I3
sS'YJL046W'
p660
I2
sS'YOR092W'
p661
I2
sS'YMR041C'
p662
I2
sS'YDR221W'
p663
I4
sS'YMR267W'
p664
I3
sS'YLR109W'
p665
I324
sS'YKR009C'
p666
I2
sS'YDR078C'
p667
I3
sS'YOR358W'
p668
I2
sS'YKL103C'
p669
I7
sS'YCR061W'
p670
I2
sS'YMR109W'
p671
I6
sS'YMR078C'
p672
I2
sS'YLR094C'
p673
I3
sS'YDL154W'
p674
I2
sS'YDR232W'
p675
I15
sS'YDR245W'
p676
I8
sS'YHR088W'
p677
I4
sS'YGR276C'
p678
I2
sS'YLR390W'
p679
I8
sS'YBR017C'
p680
I12
sS'YKR014C'
p681
I17
sS'YML037C'
p682
I1
sS'YDL138W'
p683
I2
sS'YOR056C'
p684
I6
sS'YJR060W'
p685
I4
sS'YMR251WA'
p686
I49
sS'YLR141W'
p687
I1
sS'YPR162C'
p688
I3
sS'YDL089W'
p689
I2
sS'YLR178C'
p690
I4
sS'YHR175W'
p691
I4
sS'YGR166W'
p692
I3
sS'YDL161W'
p693
I6
sS'YKL101W'
p694
I5
sS'YOR191W'
p695
I4
sS'YGR096W'
p696
I4
sS'YJL178C'
p697
I12
sS'YDL212W'
p698
I26
sS'YNL161W'
p699
I4
sS'YGR184C'
p700
I5
sS'YDR096W'
p701
I3
sS'YPR111W'
p702
I2
sS'YBR175W'
p703
I2
sS'YPL046C'
p704
I3
sS'YGL099W'
p705
I10
sS'YIL119C'
p706
I4
sS'YLR315W'
p707
I1
sS'YPL124W'
p708
I2
sS'YPL193W'
p709
I2
sS'YKL196C'
p710
I20
sS'YDR314C'
p711
I3
sS'YJL144W'
p712
I2
sS'YLR231C'
p713
I10
sS'YPR117W'
p714
I1
sS'YDR255C'
p715
I5
sS'YFR021W'
p716
I1
sS'YKL098W'
p717
I1
sS'YJR139C'
p718
I56
sS'YKL016C'
p719
I14
sS'YBR133C'
p720
I5
sS'YGL017W'
p721
I3
sS'YBR162C'
p722
I28
sS'YIL004C'
p723
I6
sS'YPR129W'
p724
I11
sS'YKL174C'
p725
I4
sS'YJR013W'
p726
I9
sS'YJL133W'
p727
I8
sS'YGR260W'
p728
I15
sS'YDR143C'
p729
I5
sS'YDL176W'
p730
I4
sS'YBR111C'
p731
I9
sS'YPR037C'
p732
I8
sS'YKL121W'
p733
I2
sS'YML036W'
p734
I5
sS'YKR027W'
p735
I5
sS'YFL047W'
p736
I3
sS'YGR201C'
p737
I1
sS'YPR122W'
p738
I4
sS'YLR380W'
p739
I11
sS'YKL034W'
p740
I1
sS'YKL061W'
p741
I5
sS'YJR042W'
p742
I5
sS'YMR281W'
p743
I2
sS'YOR243C'
p744
I4
sS'YMR012W'
p745
I27
sS'YER093C'
p746
I2
sS'YGR100W'
p747
I2
sS'YLR133W'
p748
I3
sS'YNL023C'
p749
I3
sS'YDR349C'
p750
I7
sS'YIR011C'
p751
I8
sS'YOR171C'
p752
I4
sS'YDR214W'
p753
I21
sS'YIL126W'
p754
I10
sS'YIL106W'
p755
I5
sS'YPL005W'
p756
I1
sS'YLR295C'
p757
I7
sS'YDL201W'
p758
I6
sS'YDR468C'
p759
I2
sS'YJL133CA'
p760
I8
sS'YDR332W'
p761
I4
sS'YHR168W'
p762
I1
sS'YOL102C'
p763
I3
sS'YOR064C'
p764
I3
sS'YPR008W'
p765
I4
sS'YOR048C'
p766
I6
sS'YJL147C'
p767
I1
sS'YFR003C'
p768
I5
sS'YNL297C'
p769
I5
sS'YOL081W'
p770
I7
sS'YIL033C'
p771
I9
sS'YOL036W'
p772
I3
sS'YGL148W'
p773
I32
sS'YOR002W'
p774
I8
sS'YNR041C'
p775
I2
sS'YPL162C'
p776
I4
sS'YIL048W'
p777
I3
sS'YDR189W'
p778
I7
sS'YAL028W'
p779
I3
sS'YOL056W'
p780
I1
sS'YGR116W'
p781
I15
sS'YFR052W'
p782
I7
sS'YMR302C'
p783
I5
sS'YBR282W'
p784
I7
sS'YOR079C'
p785
I1
sS'YDR404C'
p786
I7
sS'YIL024C'
p787
I1
sS'YHR132C'
p788
I10
sS'YGR088W'
p789
I2
sS'YLR103C'
p790
I1
sS'YLR188W'
p791
I6
sS'YGL073W'
p792
I2
sS'YDR194C'
p793
I13
sS'YNL243W'
p794
I9
sS'YDR014W'
p795
I2
sS'YKR074W'
p796
I9
sS'YNL257C'
p797
I7
sS'YIR006C'
p798
I8
sS'YHL029C'
p799
I5
sS'YIL093C'
p800
I4
sS'YBR204C'
p801
I4
sS'YBR111WA'
p802
I8
sS'YNR032CA'
p803
I3
sS'YDR466W'
p804
I1
sS'YLR397C'
p805
I3
sS'YJL210W'
p806
I2
sS'YFR045W'
p807
I1
sS'YKL138CA'
p808
I4
sS'YIL104C'
p809
I2
sS'YIL151C'
p810
I5
sS'YIL002C'
p811
I3
sS'YMR112C'
p812
I4
sS'YGL086W'
p813
I4
sS'YGR159C'
p814
I25
sS'YDL223C'
p815
I1
sS'YAL044C'
p816
I26
sS'YBR213W'
p817
I1
sS'YNL234W'
p818
I1
sS'YLR355C'
p819
I154
sS'YJL116C'
p820
I1
sS'YLR246W'
p821
I1
sS'YPR081C'
p822
I2
sS'YNL118C'
p823
I5
sS'YNR030W'
p824
I7
sS'YNR023W'
p825
I3
sS'YOL096C'
p826
I1
sS'YGL228W'
p827
I11
sS'YDR284C'
p828
I3
sS'YJR117W'
p829
I14
sS'YJL097W'
p830
I12
sS'YBR259W'
p831
I1
sS'YGR111W'
p832
I3
sS'YGL155W'
p833
I3
sS'YJR135WA'
p834
I10
sS'YOR007C'
p835
I42
sS'YLR451W'
p836
I3
sS'YDR406W'
p837
I2
sS'YBR193C'
p838
I5
sS'YJR101W'
p839
I6
sS'YJR120W'
p840
I5
sS'YPR163C'
p841
I37
sS'YHR143W'
p842
I33
sS'YBR222C'
p843
I5
sS'YPR088C'
p844
I11
sS'YLR131C'
p845
I4
sS'YPR101W'
p846
I5
sS'YER127W'
p847
I6
sS'YLR199C'
p848
I6
sS'YEL005C'
p849
I2
sS'YCL004W'
p850
I1
sS'YPL128C'
p851
I3
sS'YBR096W'
p852
I10
sS'YGR133W'
p853
I5
sS'YJL193W'
p854
I2
sS'YJR093C'
p855
I2
sS'YEL027W'
p856
I91
sS'YDL015C'
p857
I12
sS'YNL281W'
p858
I22
sS'YDR123C'
p859
I2
sS'YHR110W'
p860
I9
sS'YBR041W'
p861
I4
sS'YDR430C'
p862
I5
sS'YGR193C'
p863
I3
sS'YPR185W'
p864
I2
sS'YIL142W'
p865
I17
sS'YGR015C'
p866
I2
sS'YNR035C'
p867
I16
sS'YLR406C'
p868
I78
sS'YCR036W'
p869
I6
sS'YLR077W'
p870
I3
sS'YCR044C'
p871
I7
sS'YNL219C'
p872
I6
sS'YDR037W'
p873
I48
sS'YGR040W'
p874
I3
sS'YER178W'
p875
I70
sS'YLR057W'
p876
I4
sS'YCR004C'
p877
I14
sS'YPL222W'
p878
I1
sS'YLR320W'
p879
I2
sS'YHR005C'
p880
I6
sS'YPR135W'
p881
I1
sS'YAR008W'
p882
I6
sS'YHR121W'
p883
I11
sS'YNL322C'
p884
I10
sS'YDL179W'
p885
I1
sS'YHR034C'
p886
I6
sS'YBL019W'
p887
I1
sS'YMR231W'
p888
I3
sS'YOL070C'
p889
I6
sS'YOL138C'
p890
I2
sS'YOR188W'
p891
I5
sS'YMR216C'
p892
I8
sS'YJL085W'
p893
I1
sS'YDR533C'
p894
I2
sS'YOL148C'
p895
I2
sS'YLR452C'
p896
I17
sS'YNR054C'
p897
I3
sS'YER147C'
p898
I1
sS'YDR130C'
p899
I2
sS'YIL015W'
p900
I8
sS'YPR082C'
p901
I3
sS'YBR291C'
p902
I2
sS'YOL038W'
p903
I9
sS'YLR393W'
p904
I2
sS'YAR015W'
p905
I16
sS'YOR384W'
p906
I2
sS'YCR020CA'
p907
I5
sS'YDR020C'
p908
I2
sS'YHR201C'
p909
I3
sS'YJL093C'
p910
I4
sS'YOR320C'
p911
I6
sS'YNR001C'
p912
I9
sS'YOR347C'
p913
I6
sS'YNL082W'
p914
I6
sS'YLL051C'
p915
I4
sS'YDR395W'
p916
I17
sS'YOR279C'
p917
I3
sS'YPL264C'
p918
I2
sS'YGR008C'
p919
I9
sS'YLR036C'
p920
I4
sS'YKL211C'
p921
I6
sS'YGL060W'
p922
I3
sS'YNL311C'
p923
I2
sS'YLL002W'
p924
I1
sS'YJL030W'
p925
I2
sS'YLR424W'
p926
I1
sS'YLR408C'
p927
I2
sS'YGL123W'
p928
I262
sS'YKR066C'
p929
I12
sS'YDR079W'
p930
I4
sS'YGR248W'
p931
I2
sS'YNL154C'
p932
I7
sS'YER043C'
p933
I85
sS'YBR074W'
p934
I4
sS'YGR191W'
p935
I11
sS'YOR150W'
p936
I5
sS'YKL033WA'
p937
I14
sS'YPL096CA'
p938
I1
sS'YMR106C'
p939
I1
sS'YDR055W'
p940
I5
sS'YBL061C'
p941
I7
sS'YGL203C'
p942
I4
sS'YPL041C'
p943
I4
sS'YMR140W'
p944
I3
sS'YLR095C'
p945
I2
sS'YBR034C'
p946
I14
sS'YML014W'
p947
I4
sS'YLR040C'
p948
I2
sS'YCR091W'
p949
I1
sS'YLR401C'
p950
I10
sS'YDR244W'
p951
I3
sS'YLR304C'
p952
I37
sS'YKL018W'
p953
I6
sS'YDL088C'
p954
I2
sS'YJR063W'
p955
I6
sS'YGR271W'
p956
I9
sS'YMR161W'
p957
I3
sS'YDL157C'
p958
I14
sS'YDR233C'
p959
I25
sS'YJL184W'
p960
I5
sS'YER025W'
p961
I21
sS'YDR527W'
p962
I3
sS'YCR059C'
p963
I4
sS'YML041C'
p964
I4
sS'YDL197C'
p965
I4
sS'YER078C'
p966
I3
sS'YER130C'
p967
I2
sS'YDR115W'
p968
I8
sS'YDR428C'
p969
I6
sS'YIL077C'
p970
I2
sS'YGR071C'
p971
I2
sS'YCR106W'
p972
I1
sS'YER165W'
p973
I80
sS'YML038C'
p974
I5
sS'YCL059C'
p975
I11
sS'YJL181W'
p976
I3
sS'YKR071C'
p977
I10
sS'YKR031C'
p978
I5
sS'YDR489W'
p979
I3
sS'YGR196C'
p980
I5
sS'YNL101W'
p981
I7
sS'YOR233W'
p982
I4
sS'YLR011W'
p983
I3
sS'YPR049C'
p984
I3
sS'YDL057W'
p985
I2
sS'YGR257C'
p986
I8
sS'YNL070W'
p987
I12
sS'YHR150W'
p988
I1
sS'YPL235W'
p989
I4
sS'YDL008W'
p990
I8
sS'YBL050W'
p991
I11
sS'YJR086W'
p992
I10
sS'YGR280C'
p993
I1
sS'YGR237C'
p994
I2
sS'YDL159W'
p995
I4
sS'YJR014W'
p996
I15
sS'YJL132W'
p997
I1
sS'YGL190C'
p998
I5
sS'YBR110W'
p999
I1
sS'YDR144C'
p1000
I6
sS'YPL018W'
p1001
I2
sS'YGL018C'
p1002
I2
sS'YMR194CB'
p1003
I2
sS'YMR075W'
p1004
I3
sS'YGR202C'
p1005
I3
sS'YKL120W'
p1006
I12
sS'YJR041C'
p1007
I4
sS'YKL175W'
p1008
I4
sS'YKR028W'
p1009
I4
sS'YFL046W'
p1010
I2
sS'YDR379W'
p1011
I1
sS'YMR179W'
p1012
I2
sS'YLR381W'
p1013
I1
sS'YNL176C'
p1014
I4
sS'YHR169W'
p1015
I4
sS'YMR286W'
p1016
I7
sS'YDL175C'
p1017
I2
sS'YCR087CA'
p1018
I10
sS'YGL009C'
p1019
I53
sS'YKL168C'
p1020
I2
sS'YDL200C'
p1021
I3
sS'YDL102W'
p1022
I4
sS'YLR237W'
p1023
I4
sS'YER092W'
p1024
I6
sS'YIL121W'
p1025
I6
sS'YLR214W'
p1026
I15
sS'YMR149W'
p1027
I9
sS'YIR010W'
p1028
I5
sS'YDR331W'
p1029
I7
sS'YNL298W'
p1030
I4
sS'YIL002WA'
p1031
I19
sS'YML056C'
p1032
I24
sS'YKR044W'
p1033
I2
sS'YJL127C'
p1034
I2
sS'YGL029W'
p1035
I6
sS'YFL004W'
p1036
I20
sS'YKL149C'
p1037
I2
sS'YNL078W'
p1038
I4
sS'YER139C'
p1039
I1
sS'YDL128W'
p1040
I8
sS'YLR433C'
p1041
I5
sS'YDR322CA'
p1042
I4
sS'YPL098C'
p1043
I11
sS'YMR153W'
p1044
I11
sS'YGR239C'
p1045
I1
sS'YIR015W'
p1046
I3
sS'YDL040C'
p1047
I11
sS'YPL096W'
p1048
I1
sS'YER032W'
p1049
I2
sS'YJR070C'
p1050
I14
sS'YPR170WB'
p1051
I29
sS'YKL185W'
p1052
I6
sS'YDL097C'
p1053
I13
sS'YPR003C'
p1054
I1
sS'YGL005C'
p1055
I4
sS'YGR262C'
p1056
I4
sS'YPL160W'
p1057
I38
sS'YIR024C'
p1058
I1
sS'YDL111C'
p1059
I13
sS'YPL245W'
p1060
I4
sS'YOL016C'
p1061
I2
sS'YDR202C'
p1062
I2
sS'YPL007C'
p1063
I2
sS'YMR029C'
p1064
I5
sS'YBR066C'
p1065
I5
sS'YLR104W'
p1066
I4
sS'YJR010CA'
p1067
I5
sS'YGR215W'
p1068
I11
sS'YDR253C'
p1069
I2
sS'YDR507C'
p1070
I4
sS'YOR335C'
p1071
I29
sS'YML096W'
p1072
I2
sS'YHR192W'
p1073
I6
sS'YCR082W'
p1074
I12
sS'YNL085W'
p1075
I18
sS'YDR300C'
p1076
I7
sS'YJL158C'
p1077
I40
sS'YGL087C'
p1078
I5
sS'YMR177W'
p1079
I5
sS'YIL003W'
p1080
I2
sS'YMR224C'
p1081
I2
sS'YBR245C'
p1082
I7
sS'YPL155C'
p1083
I2
sS'YBR163W'
p1084
I5
sS'YDR465C'
p1085
I2
sS'YLR276C'
p1086
I10
sS'YER019CA'
p1087
I35
sS'YKL079W'
p1088
I6
sS'YFR044C'
p1089
I33
sS'YBR210W'
p1090
I6
sS'YPL103C'
p1091
I2
sS'YIL103W'
p1092
I4
sS'YBR269C'
p1093
I4
sS'YFR033C'
p1094
I10
sS'YDR283C'
p1095
I5
sS'YJR096W'
p1096
I3
sS'YNL037C'
p1097
I22
sS'YLR398C'
p1098
I4
sS'YBR192W'
p1099
I3
sS'YNL188W'
p1100
I2
sS'YJR116W'
p1101
I3
sS'YKL027W'
p1102
I2
sS'YGR143W'
p1103
I2
sS'YGR112W'
p1104
I2
sS'YNR022C'
p1105
I11
sS'YGL229C'
p1106
I1
sS'YLR056W'
p1107
I38
sS'YBR125C'
p1108
I2
sS'YLR356W'
p1109
I3
sS'YBR221C'
p1110
I44
sS'YJL094C'
p1111
I4
sS'YGR074W'
p1112
I1
sS'YKL057C'
p1113
I4
sS'YGL098W'
p1114
I3
sS'YJR056C'
p1115
I2
sS'YDR097C'
p1116
I4
sS'YLR404W'
p1117
I3
sS'YJL121C'
p1118
I16
sS'YGR161C'
p1119
I4
sS'YGR186W'
p1120
I8
sS'YIR001C'
p1121
I5
sS'YOR047C'
p1122
I1
sS'YDL213C'
p1123
I11
sS'YIL132C'
p1124
I1
sS'YIL145C'
p1125
I5
sS'YKL195W'
p1126
I5
sS'YGL216W'
p1127
I5
sS'YDR317W'
p1128
I1
sS'YFL031W'
p1129
I74
sS'YDR478W'
p1130
I1
sS'YHR064C'
p1131
I70
sS'YKL015W'
p1132
I3
sS'YKL179C'
p1133
I7
sS'YMR020W'
p1134
I3
sS'YJR089W'
p1135
I2
sS'YJL145W'
p1136
I12
sS'YDR377W'
p1137
I13
sS'YIR007W'
p1138
I2
sS'YJL201W'
p1139
I7
sS'YLR314C'
p1140
I14
sS'YLR153C'
p1141
I30
sS'YNL126W'
p1142
I3
sS'YBR132C'
p1143
I4
sS'YKL040C'
p1144
I5
sS'YPR114W'
p1145
I13
sS'YLR249W'
p1146
I356
sS'YNL004W'
p1147
I3
sS'YOR327C'
p1148
I14
sS'YHR039CA'
p1149
I59
sS'YOR378W'
p1150
I1
sS'YDR336W'
p1151
I2
sS'YPL069C'
p1152
I2
sS'YOR265W'
p1153
I12
sS'YOL139C'
p1154
I39
sS'YIL092W'
p1155
I1
sS'YDR379CA'
p1156
I6
sS'YOR207C'
p1157
I7
sS'YKL006CA'
p1158
I3
sS'YLR321C'
p1159
I4
sS'YNL191W'
p1160
I3
sS'YOR266W'
p1161
I4
sS'YPL203W'
p1162
I5
sS'YNR055C'
p1163
I5
sS'YDR532C'
p1164
I3
sS'YHL040C'
p1165
I3
sS'YGR052W'
p1166
I1
sS'YCL012C'
p1167
I1
sS'YDR184C'
p1168
I5
sS'YNR011C'
p1169
I6
sS'YNL167C'
p1170
I3
sS'YKL210W'
p1171
I32
sS'YNL221C'
p1172
I4
sS'YLR194C'
p1173
I3
sS'YOR278W'
p1174
I3
sS'YNL284C'
p1175
I6
sS'YER146W'
p1176
I22
sS'YLR426W'
p1177
I2
sS'YGL061C'
p1178
I3
sS'YDR394W'
p1179
I11
sS'YNL173C'
p1180
I6
sS'YPR145W'
p1181
I33
sS'YDR399W'
p1182
I27
sS'YAR014C'
p1183
I3
sS'YOR353C'
p1184
I5
sS'YOR087W'
p1185
I5
sS'YKL127W'
p1186
I14
sS'YHR159W'
p1187
I2
sS'YPL132W'
p1188
I4
sS'YIL114C'
p1189
I4
sS'YPL030W'
p1190
I1
sS'YPL100W'
p1191
I4
sS'YGL234W'
p1192
I21
sS'YOL055C'
p1193
I3
sS'YPR093C'
p1194
I2
sS'YOL082W'
p1195
I3
sS'YAL029C'
p1196
I3
sS'YIL070C'
p1197
I3
sS'YKL013C'
p1198
I14
sS'YOR148C'
p1199
I3
sS'YNL108C'
p1200
I8
sS'YDR421W'
p1201
I5
sS'YLR226W'
p1202
I3
sS'YHL035C'
p1203
I3
sS'YMR301C'
p1204
I3
sS'YGL171W'
p1205
I1
sS'YDR294C'
p1206
I8
sS'YFR002W'
p1207
I4
sS'YBR267W'
p1208
I6
sS'YJL217W'
p1209
I27
sS'YNL250W'
p1210
I1
sS'YMR011W'
p1211
I20
sS'YGR089W'
p1212
I4
sS'YBL029W'
p1213
I1
sS'YDR325W'
p1214
I4
sS'YDR501W'
p1215
I2
sS'YGR023W'
p1216
I1
sS'YHL028W'
p1217
I2
sS'YNL131W'
p1218
I27
sS'YMR166C'
p1219
I2
sS'YNL124W'
p1220
I4
sS'YJL073W'
p1221
I3
sS'YBL005W'
p1222
I2
sS'YOR322C'
p1223
I7
sS'YNL048W'
p1224
I4
sS'YOL125W'
p1225
I1
sS'YLR371W'
p1226
I5
sS'YDR079CA'
p1227
I1
sS'YNL327W'
p1228
I15
sS'YLR130C'
p1229
I5
sS'YER022W'
p1230
I2
sS'YBR057C'
p1231
I2
sS'YNR059W'
p1232
I1
sS'YDR041W'
p1233
I6
sS'YGL047W'
p1234
I4
sS'YMR165C'
p1235
I6
sS'YOL114C'
p1236
I1
sS'YKR070W'
p1237
I7
sS'YNL059C'
p1238
I2
sS'YMR205C'
p1239
I64
sS'YIL094C'
p1240
I18
sS'YCR005C'
p1241
I12
sS'YJL185C'
p1242
I1
sS'YER164W'
p1243
I6
sS'YBL101C'
p1244
I4
sS'YPR055W'
p1245
I5
sS'YML017W'
p1246
I11
sS'YIL016W'
p1247
I10
sS'YLR032W'
p1248
I4
sS'YOR274W'
p1249
I3
sS'YPR141C'
p1250
I3
sS'YPL011C'
p1251
I3
sS'YML126C'
p1252
I29
sS'YBL051C'
p1253
I8
sS'YGR281W'
p1254
I8
sS'YMR213W'
p1255
I4
sS'YLR089C'
p1256
I5
sS'YPL161C'
p1257
I2
sS'YMR298W'
p1258
I8
sS'YMR022W'
p1259
I9
sS'YDR488C'
p1260
I4
sS'YNL115C'
p1261
I2
sS'YJL063C'
p1262
I6
sS'YOL021C'
p1263
I5
sS'YGR256W'
p1264
I1
sS'YEL042W'
p1265
I8
sS'YLR113W'
p1266
I10
sS'YEL020C'
p1267
I2
sS'YHL013C'
p1268
I6
sS'YOL060C'
p1269
I6
sS'YML129C'
p1270
I5
sS'YGR009C'
p1271
I5
sS'YNL208W'
p1272
I35
sS'YMR185W'
p1273
I1
sS'YCL005W'
p1274
I2
sS'YGL105W'
p1275
I49
sS'YBR097W'
p1276
I3
sS'YLR014C'
p1277
I1
sS'YDL076C'
p1278
I4
sS'YOR137C'
p1279
I2
sS'YDR120C'
p1280
I4
sS'YER126C'
p1281
I11
sS'YPL060W'
p1282
I5
sS'YMR227C'
p1283
I3
sS'YPR186C'
p1284
I2
sS'YOR113W'
p1285
I3
sS'YGR194C'
p1286
I2
sS'YDR486C'
p1287
I3
sS'YJL192C'
p1288
I9
sS'YHR117W'
p1289
I6
sS'YOL130W'
p1290
I6
sS'YDR030C'
p1291
I1
sS'YOR014W'
p1292
I11
sS'YBL029CA'
p1293
I2
sS'YNL325C'
p1294
I4
sS'YPL274W'
p1295
I5
sS'YBL047C'
p1296
I9
sS'YNL293W'
p1297
I2
sS'YEL051W'
p1298
I37
sS'YLR207W'
p1299
I2
sS'YLL023C'
p1300
I6
sS'YKL203C'
p1301
I2
sS'YOL004W'
p1302
I10
sS'YPL209C'
p1303
I2
sS'YGR014W'
p1304
I10
sS'YGL050W'
p1305
I2
sS'YPR161C'
p1306
I5
sS'YLR234W'
p1307
I3
sS'YDL036C'
p1308
I4
sS'YMR032W'
p1309
I2
sS'YMR150C'
p1310
I3
sS'YFL007W'
p1311
I10
sS'YML059C'
p1312
I5
sS'YGL219C'
p1313
I3
sS'YDL129W'
p1314
I2
sS'YDR063W'
p1315
I7
sS'YKR045C'
p1316
I3
sS'YPL099C'
p1317
I2
sS'YGR238C'
p1318
I2
sS'YIR025W'
p1319
I2
sS'YCR012W'
p1320
I668
sS'YML121W'
p1321
I3
sS'YER035W'
p1322
I5
sS'YDR201W'
p1323
I4
sS'YOR065W'
p1324
I1
sS'YDR254W'
p1325
I1
sS'YPR128C'
p1326
I6
sS'YGR263C'
p1327
I4
sS'YKL156W'
p1328
I73
sS'YMR310C'
p1329
I5
sS'YHR191C'
p1330
I2
sS'YDL110C'
p1331
I5
sS'YDL098C'
p1332
I2
sS'YDR301W'
p1333
I5
sS'YJL053W'
p1334
I5
sS'YPR104C'
p1335
I4
sS'YMR069W'
p1336
I1
sS'YPL129W'
p1337
I11
sS'YPL023C'
p1338
I3
sS'YGR214W'
p1339
I156
sS'YPL141C'
p1340
I5
sS'YPR002W'
p1341
I1
sS'YGL006W'
p1342
I4
sS'YPL006W'
p1343
I6
sS'YOR293W'
p1344
I237
sS'YCR083W'
p1345
I11
sS'YKR067W'
p1346
I2
sS'YLR297W'
p1347
I5
sS'YML028W'
p1348
I185
sS'YCR063W'
p1349
I4
sS'YLL001W'
p1350
I7
sS'YOR168W'
p1351
I17
sS'YDR052C'
p1352
I2
sS'YHL006C'
p1353
I1
sS'YMR043W'
p1354
I6
sS'YPR173C'
p1355
I6
sS'YCL047C'
p1356
I2
sS'YJL031C'
p1357
I3
sS'YML077W'
p1358
I2
sS'YMR068W'
p1359
I2
sS'YER068W'
p1360
I4
sS'YER013W'
p1361
I1
sS'YMR269W'
p1362
I1
sS'YPL078C'
p1363
I13
sS'YMR092C'
p1364
I9
sS'YDL021W'
p1365
I3
sS'YLR143W'
p1366
I1
sS'YLR043C'
p1367
I61
sS'YJL008C'
p1368
I21
sS'YDL018C'
p1369
I5
sS'YPL176C'
p1370
I3
sS'YMR102C'
p1371
I2
sS'YML060W'
p1372
I1
sS'YJR062C'
p1373
I2
sS'YGR054W'
p1374
I8
sS'YDL156W'
p1375
I2
sS'YPR160W'
p1376
I3
sS'YMR191W'
p1377
I2
sS'YBL060W'
p1378
I2
sS'YML035C'
p1379
I9
sS'YNL181W'
p1380
I6
sS'YPL254W'
p1381
I5
sS'YCL010C'
p1382
I6
sS'YNL277W'
p1383
I2
sS'YGR189C'
p1384
I14
sS'YCR090C'
p1385
I9
sS'YPR171W'
p1386
I4
sS'YKL056C'
p1387
I290
sS'YAL060W'
p1388
I10
sS'YFL025C'
p1389
I2
sS'YKL009W'
p1390
I14
sS'YIL144W'
p1391
I2
sS'YPL270W'
p1392
I6
sS'YOR124C'
p1393
I11
sS'YOR332W'
p1394
I52
sS'YKR056W'
p1395
I6
sS'YJR057W'
p1396
I2
sS'YJL126W'
p1397
I2
sS'YKL150W'
p1398
I6
sS'YIL133C'
p1399
I148
sS'YHR063C'
p1400
I7
sS'YJL200C'
p1401
I11
sS'YBR148W'
p1402
I1
sS'YGL211W'
p1403
I7
sS'YDR316W'
p1404
I4
sS'YMR093W'
p1405
I7
sS'YPL113C'
p1406
I1
sS'YCR076C'
p1407
I5
sS'YPL195W'
p1408
I8
sS'YNL107W'
p1409
I1
sS'YIR036C'
p1410
I5
sS'YNR003C'
p1411
I5
sS'YBL063W'
p1412
I1
sS'YDR479C'
p1413
I1
sS'YAL059W'
p1414
I11
sS'YKR035WA'
p1415
I6
sS'YKL194C'
p1416
I3
sS'YOR030W'
p1417
I2
sS'YKL096W'
p1418
I16
sS'YDR089W'
p1419
I6
sS'YKL014C'
p1420
I7
sS'YGL160W'
p1421
I3
sS'YMR021C'
p1422
I5
sS'YNR036C'
p1423
I15
sS'YPL216W'
p1424
I1
sS'YJR040W'
p1425
I2
sS'YPR119W'
p1426
I2
sS'YJR015W'
p1427
I4
sS'YDR378C'
p1428
I16
sS'YOL122C'
p1429
I3
sS'YGR277C'
p1430
I11
sS'YBL086C'
p1431
I4
sS'YKL176C'
p1432
I5
sS'YKR029C'
p1433
I3
sS'YDR249C'
p1434
I2
sS'YGL191W'
p1435
I23
sS'YJL104W'
p1436
I5
sS'YOR296W'
p1437
I1
sS'YFL041W'
p1438
I6
sS'YJL168C'
p1439
I1
sS'YDR145W'
p1440
I7
sS'YDL174C'
p1441
I3
sS'YER091C'
p1442
I43
sS'YJL062W'
p1443
I2
sS'YPL085W'
p1444
I9
sS'YDL103C'
p1445
I9
sS'YJR008W'
p1446
I1
sS'YDL203C'
p1447
I4
sS'YHR132WA'
p1448
I8
sS'YML031W'
p1449
I5
sS'YLR215C'
p1450
I3
sS'YML082W'
p1451
I4
sS'YLR439W'
p1452
I4
sS'YKL100C'
p1453
I8
sS'YDR216W'
p1454
I3
sS'YKL130C'
p1455
I4
sS'YOR106W'
p1456
I3
sS'YPL138C'
p1457
I2
sS'YNL021W'
p1458
I4
sS'YNL236W'
p1459
I2
sS'YOL054W'
p1460
I2
sS'YFR001W'
p1461
I7
sS'YPR152C'
p1462
I2
sS'YBR220C'
p1463
I4
sS'YIL019W'
p1464
I1
sS'YIL115C'
p1465
I6
sS'YKR013W'
p1466
I9
sS'YGL233W'
p1467
I3
sS'YCL027W'
p1468
I4
sS'YGR113W'
p1469
I7
sS'YLR319C'
p1470
I2
sS'YMR036C'
p1471
I3
sS'YDL109C'
p1472
I1
sS'YOL053W'
p1473
I2
sS'YHR029C'
p1474
I6
sS'YPL091W'
p1475
I13
sS'YPR164W'
p1476
I10
sS'YIL031W'
p1477
I4
sS'YDR295C'
p1478
I4
sS'YAL033W'
p1479
I4
sS'YLR203C'
p1480
I12
sS'YGR155W'
p1481
I56
sS'YGL208W'
p1482
I1
sS'YFR049W'
p1483
I6
sS'YBR284W'
p1484
I1
sS'YMR195W'
p1485
I3
sS'YDR108W'
p1486
I3
sS'YNR049C'
p1487
I6
sS'YDR192C'
p1488
I2
sS'YOL112W'
p1489
I3
sS'YKR004C'
p1490
I1
sS'YML109W'
p1491
I1
sS'YLR342W'
p1492
I35
sS'YOL083W'
p1493
I1
sS'YLR335W'
p1494
I9
sS'YNL251C'
p1495
I4
sS'YJR102C'
p1496
I2
sS'YPL089C'
p1497
I1
sS'YHR134W'
p1498
I1
sS'YOR020C'
p1499
I61
sS'YBL028C'
p1500
I12
sS'YBL004W'
p1501
I15
sS'YBR164C'
p1502
I10
sS'YIL153W'
p1503
I3
sS'YIL045W'
p1504
I1
sS'YJR088C'
p1505
I12
sS'YHR074W'
p1506
I10
sS'YBR211C'
p1507
I2
sS'YLR368W'
p1508
I4
sS'YBR268W'
p1509
I5
sS'YFR030W'
p1510
I6
sS'YKL089W'
p1511
I2
sS'YOR006C'
p1512
I7
sS'YBR131W'
p1513
I1
sS'YLR277C'
p1514
I3
sS'YAL011W'
p1515
I4
sS'YDL155W'
p1516
I3
sS'YBR244W'
p1517
I11
sS'YIL055C'
p1518
I1
sS'YPL053C'
p1519
I9
sS'YLR436C'
p1520
I7
sS'YOR028C'
p1521
I3
sS'YBR179C'
p1522
I1
sS'YDR282C'
p1523
I1
sS'YDR009W'
p1524
I1
sS'YJR097W'
p1525
I2
sS'YPR091C'
p1526
I7
sS'YLR351C'
p1527
I12
sS'YOL094C'
p1528
I2
sS'YPR031W'
p1529
I1
sS'YAL002W'
p1530
I1
sS'YJL095W'
p1531
I2
sS'YHR018C'
p1532
I10
sS'YDR408C'
p1533
I9
sS'YOR260W'
p1534
I16
sS'YBR126C'
p1535
I12
sS'YOL149W'
p1536
I3
sS'YLR257W'
p1537
I8
sS'YGL202W'
p1538
I20
sS'YPL106C'
p1539
I95
sS'YLR173W'
p1540
I4
sS'YOR046C'
p1541
I18
sS'YOR152C'
p1542
I2
sS'YNL141W'
p1543
I3
sS'YPL208W'
p1544
I5
sS'YBL026W'
p1545
I13
sS'YMR220W'
p1546
I9
sS'YPR187W'
p1547
I19
sS'YKL032C'
p1548
I4
sS'YEL018W'
p1549
I4
sS'YDR121W'
p1550
I4
sS'YER125W'
p1551
I17
sS'YOR258W'
p1552
I2
sS'YDR432W'
p1553
I24
sS'YGR195W'
p1554
I6
sS'YPL211W'
p1555
I15
sS'YMR115W'
p1556
I3
sS'YDL077C'
p1557
I4
sS'YOR222W'
p1558
I7
sS'YOL061W'
p1559
I10
sS'YOR206W'
p1560
I13
sS'YGL104C'
p1561
I1
sS'YER152C'
p1562
I11
sS'YLR015W'
p1563
I1
sS'YHR116W'
p1564
I2
sS'YPL259C'
p1565
I2
sS'YOL100W'
p1566
I2
sS'YPL052W'
p1567
I1
sS'YLR008C'
p1568
I8
sS'YPR066W'
p1569
I4
sS'YMR219W'
p1570
I4
sS'YBL046W'
p1571
I1
sS'YGR017W'
p1572
I7
sS'YDR031W'
p1573
I1
sS'YJR061W'
p1574
I1
sS'YOL005C'
p1575
I14
sS'YCL054W'
p1576
I3
sS'YOL107W'
p1577
I3
sS'YEL050C'
p1578
I3
sS'YHR036W'
p1579
I3
sS'YHR016C'
p1580
I7
sS'YOL072W'
p1581
I4
sS'YLR450W'
p1582
I4
sS'YNR048W'
p1583
I3
sS'YGL159W'
p1584
I2
sS'YOR155C'
p1585
I2
sS'YGR109C'
p1586
I2
sS'YGL224C'
p1587
I4
sS'YIL017C'
p1588
I2
sS'YNL268W'
p1589
I3
sS'YOR307C'
p1590
I1
sS'YLR396C'
p1591
I6
sS'YHR147C'
p1592
I8
sS'YOL123W'
p1593
I9
sS'YDR132C'
p1594
I1
sS'YML116W'
p1595
I4
sS'YNL084C'
p1596
I9
sS'YGL066W'
p1597
I2
sS'YGR156W'
p1598
I2
sS'YDR185C'
p1599
I1
sS'YOR070C'
p1600
I1
sS'YLR179C'
p1601
I31
sS'YOR386W'
p1602
I1
sS'YAR042W'
p1603
I4
sS'YOR166C'
p1604
I1
sS'YHR207C'
p1605
I3
sS'YOL086C'
p1606
I690
sS'YBR162WA'
p1607
I14
sS'YOR051C'
p1608
I6
sS'YNL044W'
p1609
I7
sS'YMR313C'
p1610
I2
sS'YDR425W'
p1611
I1
sS'YNL220W'
p1612
I16
sS'YBL007C'
p1613
I15
sS'YGR060W'
p1614
I36
sS'YCL064C'
p1615
I27
sS'YML076C'
p1616
I2
sS'YER174C'
p1617
I2
sS'YML029W'
p1618
I2
sS'YOR140W'
p1619
I2
sS'YOL133W'
p1620
I7
sS'YPR073C'
p1621
I8
sS'YDR179WA'
p1622
I1
sS'YNL313C'
p1623
I4
sS'YHR094C'
p1624
I16
sS'YCR073WA'
p1625
I5
sS'YLR127C'
p1626
I3
sS'YPL042C'
p1627
I2
sS'YEL017CA'
p1628
I115
sS'YCR033W'
p1629
I3
sS'YER069W'
p1630
I3
sS'YMR091C'
p1631
I6
sS'YER012W'
p1632
I25
sS'YDR104C'
p1633
I1
sS'YDR222W'
p1634
I1
sS'YBL067C'
p1635
I7
sS'YMR208W'
p1636
I3
sS'YHR098C'
p1637
I11
sS'YDL019C'
p1638
I2
sS'YML034W'
p1639
I5
sS'YDL045WA'
p1640
I8
sS'YPR023C'
p1641
I9
sS'YLR042C'
p1642
I2
sS'YCR093W'
p1643
I7
sS'YLR144C'
p1644
I6
sS'YIL152W'
p1645
I4
sS'YPR058W'
p1646
I3
sS'YDL020C'
p1647
I10
sS'YDR168W'
p1648
I6
sS'YJR112WA'
p1649
I1
sS'YGL080W'
p1650
I3
sS'YKL096WA'
p1651
I147
sS'YOR093C'
p1652
I4
sS'YJL186W'
p1653
I11
sS'YER023W'
p1654
I27
sS'YER163C'
p1655
I4
sS'YPL268W'
p1656
I2
sS'YER132C'
p1657
I3
sS'YPL116W'
p1658
I6
sS'YPL140C'
p1659
I1
sS'YBR069C'
p1660
I16
sS'YML016C'
p1661
I3
sS'YGL040C'
p1662
I15
sS'YKR084C'
p1663
I7
sS'YDL017W'
p1664
I4
sS'YDR512C'
p1665
I4
sS'YDR113C'
p1666
I3
sS'YLL031C'
p1667
I5
sS'YOR021C'
p1668
I10
sS'YDR058C'
p1669
I4
sS'YLR088W'
p1670
I6
sS'YBR021W'
p1671
I3
sS'YNL283C'
p1672
I3
sS'YGR255C'
p1673
I3
sS'YDR525WA'
p1674
I5
sS'YNL138W'
p1675
I14
sS'YGL110C'
p1676
I5
sS'YDL051W'
p1677
I22
sS'YKL074C'
p1678
I2
sS'YBL102W'
p1679
I10
sS'YOL086WA'
p1680
I8
sS'YIL038C'
p1681
I3
sS'YGR282C'
p1682
I67
sS'YHR005CA'
p1683
I27
sS'YNL183C'
p1684
I2
sS'YCR030C'
p1685
I6
sS'YMR077C'
p1686
I2
sS'YPL183C'
p1687
I7
sS'YDR166C'
p1688
I3
sS'YKR088C'
p1689
I4
sS'YNL068C'
p1690
I3
sS'YGR204W'
p1691
I20
sS'YMR198W'
p1692
I2
sS'YJR080C'
p1693
I4
sS'YJL005W'
p1694
I6
sS'YJL050W'
p1695
I6
sS'YDL192W'
p1696
I73
sS'YOL095C'
p1697
I1
sS'YDR146C'
p1698
I5
sS'YKR063C'
p1699
I4
sS'YPL158C'
p1700
I4
sS'YDR248C'
p1701
I4
sS'YJR016C'
p1702
I44
sS'YDL202W'
p1703
I6
sS'YDL100C'
p1704
I23
sS'YFL008W'
p1705
I5
sS'YDR337W'
p1706
I3
sS'YOL006C'
p1707
I7
sS'YJL061W'
p1708
I6
sS'YOR049C'
p1709
I3
sS'YLR216C'
p1710
I37
sS'YPR181C'
p1711
I21
sS'YDR217C'
p1712
I4
sS'YGR063C'
p1713
I6
sS'YDR441C'
p1714
I11
sS'YGL140C'
p1715
I2
sS'YPL094C'
p1716
I10
sS'YNL020C'
p1717
I1
sS'YOR101W'
p1718
I5
sS'YLR290C'
p1719
I6
sS'YER090W'
p1720
I10
sS'YIL123W'
p1721
I22
sS'YMR246W'
p1722
I26
sS'YMR035W'
p1723
I2
sS'YDR231C'
p1724
I3
sS'YAL044WA'
p1725
I15
sS'YJL112W'
p1726
I5
sS'YCR015C'
p1727
I4
sS'YKR011C'
p1728
I3
sS'YPR018W'
p1729
I1
sS'YDR159W'
p1730
I4
sS'YNL095C'
p1731
I1
sS'YGL185C'
p1732
I3
sS'YMR059W'
p1733
I2
sS'YDR062W'
p1734
I15
sS'YLL033W'
p1735
I2
sS'YNL265C'
p1736
I7
sS'YOR230W'
p1737
I33
sS'YML058W'
p1738
I38
sS'YML123C'
p1739
I75
sS'YOR251C'
p1740
I6
sS'YER034W'
p1741
I2
sS'YJR076C'
p1742
I9
sS'YHR190W'
p1743
I13
sS'YLR106C'
p1744
I12
sS'YPR013C'
p1745
I3
sS'YPR005C'
p1746
I1
sS'YKR065C'
p1747
I14
sS'YKL157W'
p1748
I10
sS'YKR002W'
p1749
I5
sS'YBR003W'
p1750
I4
sS'YDR200C'
p1751
I5
sS'YPL050C'
p1752
I9
sS'YBR068C'
p1753
I12
sS'YDR279W'
p1754
I3
sS'YDL113C'
p1755
I4
sS'YNL011C'
p1756
I5
sS'YDR357C'
p1757
I4
sS'YDL099W'
p1758
I2
sS'YLR201C'
p1759
I6
sS'YBR130C'
p1760
I9
sS'YJR021C'
p1761
I4
sS'YLR274W'
p1762
I2
sS'YGL126W'
p1763
I4
sS'YPR016C'
p1764
I23
sS'YBR247C'
p1765
I4
sS'YDL006W'
p1766
I3
sS'YDR463W'
p1767
I5
sS'YIL001W'
p1768
I3
sS'YAL010C'
p1769
I2
sS'YIL154C'
p1770
I3
sS'YFR032CA'
p1771
I270
sS'YIL047C'
p1772
I5
sS'YIL101C'
p1773
I2
sS'YBR165W'
p1774
I1
sS'YHR097C'
p1775
I3
sS'YDL220C'
p1776
I3
sS'YGR170W'
p1777
I5
sS'YHR075C'
p1778
I2
sS'YKL004W'
p1779
I10
sS'YOR208W'
p1780
I1
sS'YNL142W'
p1781
I1
sS'YMR250W'
p1782
I3
sS'YFR031C'
p1783
I2
sS'YMR083W'
p1784
I46
sS'YHR019C'
p1785
I45
sS'YJR129C'
p1786
I2
sS'YOR367W'
p1787
I10
sS'YDR281C'
p1788
I7
sS'YAL003W'
p1789
I290
sS'YIL149C'
p1790
I2
sS'YNL271C'
p1791
I9
sS'YGR169CA'
p1792
I4
sS'YLR200W'
p1793
I7
sS'YPL075W'
p1794
I4
sS'YLR258W'
p1795
I7
sS'YNL200C'
p1796
I3
sS'YNR015W'
p1797
I4
sS'YJR098C'
p1798
I1
sS'YBR127C'
p1799
I57
sS'YOL098C'
p1800
I8
sS'YLR350W'
p1801
I4
sS'YMR253C'
p1802
I3
sS'YFL024C'
p1803
I2
sS'YPL243W'
p1804
I13
sS'YAL061W'
p1805
I2
sS'YHR176W'
p1806
I2
sS'YGR163W'
p1807
I2
sS'YDR497C'
p1808
I13
sS'YKL022C'
p1809
I3
sS'YLR018C'
p1810
I6
sS'YKL055C'
p1811
I1
sS'YOR012W'
p1812
I3
sS'YBL092W'
p1813
I367
sS'YOR095C'
p1814
I8
sS'YDR368W'
p1815
I7
sS'YBR101C'
p1816
I9
sS'YLR147C'
p1817
I3
sS'YDL164C'
p1818
I4
sS'YJR050W'
p1819
I2
sS'YLR105C'
p1820
I1
sS'YNL073W'
p1821
I4
sS'YDL211C'
p1822
I2
sS'YDR375C'
p1823
I3
sS'YHR062C'
p1824
I3
sS'YIL014W'
p1825
I3
sS'YBR149W'
p1826
I15
sS'YGL210W'
p1827
I5
sS'YPR110C'
p1828
I26
sS'YDR088C'
p1829
I4
sS'YDR320C'
p1830
I2
sS'YKL042W'
p1831
I1
sS'YLR376C'
p1832
I1
sS'YLR281C'
p1833
I2
sS'YNL158W'
p1834
I7
sS'YNL066W'
p1835
I30
sS'YPL112C'
p1836
I7
sS'YGL226CA'
p1837
I7
sS'YAL058W'
p1838
I3
sS'YDR452W'
p1839
I8
sS'YLR316C'
p1840
I4
sS'YDR319C'
p1841
I5
sS'YFR022W'
p1842
I2
sS'YKL095W'
p1843
I1
sS'YJR136C'
p1844
I2
sS'YGL225W'
p1845
I21
sS'YHR037W'
p1846
I7
sS'YJL098W'
p1847
I6
sS'YKL137W'
p1848
I6
sS'YFR017C'
p1849
I1
sS'YML108W'
p1850
I6
sS'YHR017W'
p1851
I2
sS'YOL044W'
p1852
I3
sS'YDR534C'
p1853
I1
sS'YHR148W'
p1854
I5
sS'YLR323C'
p1855
I2
sS'YOL028C'
p1856
I4
sS'YNR057C'
p1857
I1
sS'YDR186C'
p1858
I6
sS'YBR103W'
p1859
I4
sS'YBL038W'
p1860
I1
sS'YML117W'
p1861
I3
sS'YGL067W'
p1862
I4
sS'YDR424C'
p1863
I16
sS'YDL085CA'
p1864
I9
sS'YNL278W'
p1865
I4
sS'YIR003W'
p1866
I4
sS'YOR069W'
p1867
I4
sS'YGR038W'
p1868
I5
sS'YKR001C'
p1869
I18
sS'YER140W'
p1870
I4
sS'YOR363C'
p1871
I2
sS'YNL087W'
p1872
I8
sS'YFL029C'
p1873
I2
sS'YNL223W'
p1874
I3
sS'YBR227C'
p1875
I3
sS'YLR318W'
p1876
I1
sS'YBR278W'
p1877
I4
sS'YFR055W'
p1878
I7
sS'YOR067C'
p1879
I3
sS'YOR273C'
p1880
I6
sS'YOL158C'
p1881
I18
sS'YDR296W'
p1882
I7
sS'YGL232W'
p1883
I11
sS'YPL107W'
p1884
I2
sS'YLR063W'
p1885
I1
sS'YGR141W'
p1886
I2
sS'YOR109W'
p1887
I5
sS'YIL030C'
p1888
I7
sS'YIL116W'
p1889
I9
sS'YMR123W'
p1890
I8
sS'YPL032C'
p1891
I3
sS'YGR094W'
p1892
I38
sS'YJR138W'
p1893
I3
sS'YLR442C'
p1894
I3
sS'YDR191W'
p1895
I2
sS'YJR103W'
p1896
I5
sS'YPR046W'
p1897
I1
sS'YHR028C'
p1898
I6
sS'YBR265W'
p1899
I5
sS'YFR048W'
p1900
I3
sS'YBR287W'
p1901
I4
sS'YNR037C'
p1902
I14
sS'YEL001C'
p1903
I15
sS'YCL024W'
p1904
I2
sS'YMR063W'
p1905
I3
sS'YMR307W'
p1906
I81
sS'YPL271W'
p1907
I14
sS'YAL032C'
p1908
I3
sS'YGL145W'
p1909
I2
sS'YGL112C'
p1910
I8
sS'YHR137W'
p1911
I5
sS'YNL160W'
p1912
I6
sS'YBR230C'
p1913
I6
sS'YNL252C'
p1914
I6
sS'YBR187W'
p1915
I6
sS'YNL046W'
p1916
I5
sS'YER133W'
p1917
I26
sS'YGL248W'
p1918
I3
sS'YKL197C'
p1919
I1
sS'YHR077C'
p1920
I4
sS'YCR003W'
p1921
I4
sS'YOR342C'
p1922
I4
sS'YLR132C'
p1923
I1
sS'YER020W'
p1924
I3
sS'YER162C'
p1925
I2
sS'YNL255C'
p1926
I43
sS'YDR511W'
p1927
I8
sS'YML011C'
p1928
I5
sS'YKL035W'
p1929
I27
sS'YNL201C'
p1930
I3
sS'YDL190C'
p1931
I4
sS'YMR210W'
p1932
I2
sS'YHR102W'
p1933
I2
sS'YHR030C'
p1934
I4
sS'YDR043C'
p1935
I2
sS'YGR076C'
p1936
I5
sS'YER075C'
p1937
I2
sS'YJL187C'
p1938
I3
sS'YEL015W'
p1939
I5
sS'YBL103C'
p1940
I1
sS'YEL040W'
p1941
I17
sS'YKR085C'
p1942
I4
sS'YPR131C'
p1943
I3
sS'YPL045W'
p1944
I6
sS'YLR418C'
p1945
I4
sS'YLR224W'
p1946
I7
sS'YOL078W'
p1947
I2
sS'YJR094WA'
p1948
I208
sS'YER059W'
p1949
I4
sS'YMR243C'
p1950
I18
sS'YGL111W'
p1951
I5
sS'YLR271W'
p1952
I1
sS'YBR289W'
p1953
I2
sS'YGR161WC'
p1954
I3
sS'YOR132W'
p1955
I6
sS'YBL025W'
p1956
I2
sS'YLR102C'
p1957
I1
sS'YOL066C'
p1958
I1
sS'YDR126W'
p1959
I2
sS'YLR388W'
p1960
I175
sS'YKL212W'
p1961
I12
sS'YJL071W'
p1962
I1
sS'YGL167C'
p1963
I9
sS'YHR115C'
p1964
I4
sS'YBL091CA'
p1965
I2
sS'YER124C'
p1966
I22
sS'YEL022W'
p1967
I10
sS'YPL188W'
p1968
I2
sS'YPR188C'
p1969
I4
sS'YIL053W'
p1970
I125
sS'YDL074C'
p1971
I8
sS'YER153C'
p1972
I1
sS'YOR374W'
p1973
I11
sS'YJL190C'
p1974
I266
sS'YKL001C'
p1975
I5
sS'YLR052W'
p1976
I6
sS'YGL107C'
p1977
I3
sS'YOR269W'
p1978
I2
sS'YOR212W'
p1979
I11
sS'YPL256C'
p1980
I7
sS'YDR520C'
p1981
I2
sS'YKL201C'
p1982
I2
sS'YLL049W'
p1983
I7
sS'YMR221C'
p1984
I7
sS'YMR037C'
p1985
I7
sS'YNL106C'
p1986
I4
sS'YDL069C'
p1987
I2
sS'YGR016W'
p1988
I1
sS'YEL053C'
p1989
I1
sS'YMR280C'
p1990
I1
sS'YDR236C'
p1991
I4
sS'YJL042W'
p1992
I4
sS'YER037W'
p1993
I4
sS'YPL037C'
p1994
I96
sS'YER057C'
p1995
I14
sS'YCR092C'
p1996
I1
sS'YMR156C'
p1997
I5
sS'YKL145W'
p1998
I23
sS'YJL111W'
p1999
I12
sS'YOR223W'
p2000
I2
sS'YIL066C'
p2001
I1
sS'YMR211W'
p2002
I2
sS'YKR010C'
p2003
I3
sS'YKR051W'
p2004
I1
sS'YGL184C'
p2005
I1
sS'YLL010C'
p2006
I6
sS'YMR058W'
p2007
I55
sS'YDR061W'
p2008
I3
sS'YCL026CB'
p2009
I4
sS'YPR072W'
p2010
I7
sS'YOR290C'
p2011
I5
sS'YKL114C'
p2012
I2
sS'YER093CA'
p2013
I2
sS'YML093W'
p2014
I3
sS'YJR077C'
p2015
I14
sS'YHR197W'
p2016
I7
sS'YCR081W'
p2017
I3
sS'YBR002C'
p2018
I7
sS'YDR391C'
p2019
I3
sS'YPR106W'
p2020
I2
sS'YFR015C'
p2021
I2
sS'YDR276C'
p2022
I45
sS'YGR261C'
p2023
I10
sS'YKL154W'
p2024
I5
sS'YGR180C'
p2025
I50
sS'YDR158W'
p2026
I42
sS'YOR111W'
p2027
I4
sS'YMR116C'
p2028
I296
sS'YOL019W'
p2029
I5
sS'YML081CA'
p2030
I12
sS'YLR107W'
p2031
I2
sS'YMR073C'
p2032
I4
sS'YPL082C'
p2033
I8
sS'YDR323C'
p2034
I1
sS'YGL030W'
p2035
I195
sS'YOL136C'
p2036
I6
sS'YGR283C'
p2037
I2
sS'YDL052C'
p2038
I8
sS'YER175C'
p2039
I3
sS'YMR308C'
p2040
I18
sS'YDR381CA'
p2041
I3
sS'YMR174C'
p2042
I1
sS'YIL084C'
p2043
I2
sS'YLR429W'
p2044
I10
sS'YDL183C'
p2045
I2
sS'YMR218C'
p2046
I2
sS'YDR050C'
p2047
I442
sS'YGR061C'
p2048
I27
sS'YLL007C'
p2049
I1
sS'YNL231C'
p2050
I12
sS'YCR032W'
p2051
I2
sS'YNL312W'
p2052
I9
sS'YDR105C'
p2053
I1
sS'YLR441C'
p2054
I169
sS'YOL152W'
p2055
I2
sS'YBL066C'
p2056
I1
sS'YPL241C'
p2057
I3
sS'YGL120C'
p2058
I11
sS'YLR145W'
p2059
I1
sS'YLR045C'
p2060
I5
sS'YDL241W'
p2061
I6
sS'YLR098C'
p2062
I1
sS'YOR238W'
p2063
I3
sS'YBR207W'
p2064
I8
sS'YPR022C'
p2065
I5
sS'YLR110C'
p2066
I544
sS'YIR038C'
p2067
I7
sS'YHR099W'
p2068
I4
sS'YEL071W'
p2069
I29
sS'YKR058W'
p2070
I1
sS'YBR098W'
p2071
I3
sS'YML062C'
p2072
I4
sS'YPL233W'
p2073
I6
sS'YOR302W'
p2074
I2
sS'YOR040W'
p2075
I2
sS'YNL041C'
p2076
I6
sS'YDR369C'
p2077
I1
sS'YBR106W'
p2078
I78
sS'YOL073C'
p2079
I3
sS'YPL039W'
p2080
I3
sS'YBL093C'
p2081
I3
sS'YKL054C'
p2082
I26
sS'YLR453C'
p2083
I2
sS'YHR171W'
p2084
I2
sS'YGR162W'
p2085
I26
sS'YDL165W'
p2086
I6
sS'YPL066W'
p2087
I2
sS'YGR227W'
p2088
I3
sS'YDR258C'
p2089
I6
sS'YDR032C'
p2090
I25
sS'YJL124C'
p2091
I13
sS'YOR076C'
p2092
I3
sS'YDR179C'
p2093
I3
sS'YLR253W'
p2094
I4
sS'YKL023W'
p2095
I8
sS'YNL165W'
p2096
I3
sS'YJR051W'
p2097
I6
sS'YKL094W'
p2098
I7
sS'YNL022C'
p2099
I6
sS'YDR261C'
p2100
I2
sS'YIL131C'
p2101
I6
sS'YKL143W'
p2102
I6
sS'YBR146W'
p2103
I4
sS'YDR318W'
p2104
I2
sS'YFL034W'
p2105
I3
sS'YPL031C'
p2106
I4
sS'YHR061C'
p2107
I1
sS'YDR453C'
p2108
I3
sS'YER080W'
p2109
I11
sS'YJL164C'
p2110
I6
sS'YNL125C'
p2111
I2
sS'YNL065W'
p2112
I4
sS'YJR019C'
p2113
I1
sS'YOL026C'
p2114
I14
sS'YJR135C'
p2115
I1
sS'YDR321W'
p2116
I20
sS'YGL213C'
p2117
I4
sS'YNL178W'
p2118
I367
sS'YDR147W'
p2119
I4
sS'YHR200W'
p2120
I17
sS'YMR031C'
p2121
I8
sS'YBL080C'
p2122
I1
sS'YMR076C'
p2123
I3
sS'YGR205W'
p2124
I2
sS'YDR356W'
p2125
I3
sS'YMR136W'
p2126
I1
sS'YDR167W'
p2127
I4
sS'YNL182C'
p2128
I4
sS'YJL051W'
p2129
I4
sS'YJR017C'
p2130
I10
sS'YPL180W'
p2131
I2
sS'YHR057C'
p2132
I7
sS'YOR027W'
p2133
I37
sS'YOR380W'
p2134
I1
sS'YNL027W'
p2135
I6
sS'YPL022W'
p2136
I1
sS'YDR440W'
p2137
I5
sS'YJL060W'
p2138
I7
sS'YDL101C'
p2139
I5
sS'YDL205C'
p2140
I9
sS'YKL018CA'
p2141
I2
sS'YML080W'
p2142
I3
sS'YNL099C'
p2143
I4
sS'YMR027W'
p2144
I9
sS'YLR291C'
p2145
I12
sS'YDR210W'
p2146
I24
sS'YGR048W'
p2147
I9
sS'YDL230W'
p2148
I5
sS'YOR259C'
p2149
I14
sS'YML115C'
p2150
I7
sS'YJR113C'
p2151
I4
sS'YBR279W'
p2152
I4
sS'YGR024C'
p2153
I9
sS'YLR149C'
p2154
I2
sS'YOR281C'
p2155
I9
sS'YIL117C'
p2156
I3
sS'YAL055W'
p2157
I2
sS'YHR041C'
p2158
I5
sS'YOL052C'
p2159
I6
sS'YGR140W'
p2160
I1
sS'YDR475C'
p2161
I2
sS'YPL137C'
p2162
I3
sS'YNL116W'
p2163
I3
sS'YOL023W'
p2164
I1
sS'YGR097W'
p2165
I5
sS'YHR156C'
p2166
I2
sS'YBR151W'
p2167
I5
sS'YCL025C'
p2168
I1
sS'YBR184W'
p2169
I1
sS'YGL231C'
p2170
I8
sS'YOR241W'
p2171
I6
sS'YGR157W'
p2172
I36
sS'YNL282W'
p2173
I6
sS'YBR286W'
p2174
I51
sS'YJL127CB'
p2175
I7
sS'YGL144C'
p2176
I1
sS'YBR168W'
p2177
I2
sS'YDR297W'
p2178
I8
sS'YAL031C'
p2179
I3
sS'YML070W'
p2180
I13
sS'YBL006C'
p2181
I9
sS'YLR340W'
p2182
I307
sS'YGR108W'
p2183
I4
sS'YMR070W'
p2184
I3
sS'YBR264C'
p2185
I4
sS'YBR231C'
p2186
I3
sS'YHR162W'
p2187
I20
sS'YBR246W'
p2188
I2
sS'YPL110C'
p2189
I3
sS'YGR207C'
p2190
I13
sS'YLR275W'
p2191
I3
sS'YOR004W'
p2192
I7
sS'YOR073W'
p2193
I2
sS'YDR212W'
p2194
I18
sS'YBR166C'
p2195
I4
sS'YDR462W'
p2196
I6
sS'YKL043W'
p2197
I6
sS'YIL155C'
p2198
I2
sS'YGR171C'
p2199
I2
sS'YDL227C'
p2200
I11
sS'YPL065W'
p2201
I2
sS'YAL048C'
p2202
I4
sS'YPL055C'
p2203
I5
sS'YPL210C'
p2204
I8
sS'YAL013W'
p2205
I2
sS'YOR298CA'
p2206
I76
sS'YGL093W'
p2207
I2
sS'YDR098C'
p2208
I13
sS'YOR371C'
p2209
I3
sS'YPL095C'
p2210
I1
sS'YOR330C'
p2211
I2
sS'YGL200C'
p2212
I29
sS'YJR099W'
p2213
I3
sS'YOR130C'
p2214
I3
sS'YOR044W'
p2215
I1
sS'YLR259C'
p2216
I62
sS'YNL052W'
p2217
I9
sS'YMR034C'
p2218
I2
sS'YFR036W'
p2219
I5
sS'YPL157W'
p2220
I7
sS'YKL005C'
p2221
I5
sS'YBR120C'
p2222
I1
sS'YLR085C'
p2223
I3
sS'YLR312WA'
p2224
I5
sS'YDR280W'
p2225
I10
sS'YOR179C'
p2226
I4
sS'YKL215C'
p2227
I8
sS'YGL166W'
p2228
I2
sS'YHR114W'
p2229
I2
sS'YNR034WA'
p2230
I2
sS'YHR138C'
p2231
I4
sS'YBL024W'
p2232
I11
sS'YMR241W'
p2233
I17
sS'YGR123C'
p2234
I11
sS'YGL079W'
p2235
I4
sS'YDL075W'
p2236
I242
sS'YER150W'
p2237
I1
sS'YDR127W'
p2238
I10
sS'YNL279W'
p2239
I1
sS'YCL034W'
p2240
I12
sS'YOL018C'
p2241
I3
sS'YBR288C'
p2242
I8
sS'YOR220W'
p2243
I2
sS'YJR067C'
p2244
I2
sS'YMR222C'
p2245
I3
sS'YGR197C'
p2246
I1
sS'YMR284W'
p2247
I2
sS'YNL264C'
p2248
I4
sS'YNL155W'
p2249
I7
sS'YPR158W'
p2250
I6
sS'YOR142W'
p2251
I24
sS'YDR434W'
p2252
I7
sS'YGL106W'
p2253
I23
sS'YOL027C'
p2254
I10
sS'YOR211C'
p2255
I6
sS'YPL257W'
p2256
I3
sS'YPL135W'
p2257
I6
sS'YDR033W'
p2258
I75
sS'YPL120W'
p2259
I2
sS'YPL117C'
p2260
I11
sS'YIL075C'
p2261
I24
sS'YOL145C'
p2262
I3
sS'YGL226W'
p2263
I5
sS'YHR038W'
p2264
I2
sS'YJL099W'
p2265
I2
sS'YHR149C'
p2266
I2
sS'YIL020C'
p2267
I4
sS'YLR177W'
p2268
I3
sS'YBR208C'
p2269
I4
sS'YNR074C'
p2270
I4
sS'YDR005C'
p2271
I2
sS'YHL025W'
p2272
I2
sS'YGL091C'
p2273
I3
sS'YOL045W'
p2274
I5
sS'YFR010W'
p2275
I15
sS'YHL009C'
p2276
I3
sS'YDL112W'
p2277
I8
sS'YHL021C'
p2278
I5
sS'YJL109C'
p2279
I8
sS'YLR390WA'
p2280
I22
sS'YHR205W'
p2281
I5
sS'YGR037C'
p2282
I74
sS'YIL008W'
p2283
I9
sS'YOR236W'
p2284
I3
sS'YBL039C'
p2285
I17
sS'YGR188C'
p2286
I3
sS'YER143W'
p2287
I3
sS'YNL045W'
p2288
I7
sS'YNL086W'
p2289
I4
sS'YGL064C'
p2290
I2
sS'YFR053C'
p2291
I25
sS'YGR284C'
p2292
I9
sS'YDL053C'
p2293
I10
sS'YJR005CA'
p2294
I1
sS'YPR004C'
p2295
I15
sS'YOR122C'
p2296
I73
sS'YIL071C'
p2297
I2
sS'YMR240C'
p2298
I4
sS'YIL005W'
p2299
I4
sS'YKL109W'
p2300
I1
sS'YKR062W'
p2301
I4
sS'YNL286W'
p2302
I2
sS'YPR108W'
p2303
I9
sS'YMR119W'
p2304
I6
sS'YPR069C'
p2305
I41
sS'YLL006W'
p2306
I5
sS'YMR215W'
p2307
I9
sS'YDR051C'
p2308
I5
sS'YGR062C'
p2309
I3
sS'YML128C'
p2310
I3
sS'YER010C'
p2311
I3
sS'YER176W'
p2312
I4
sS'YIL049W'
p2313
I3
sS'YKR003W'
p2314
I10
sS'YDL180W'
p2315
I1
sS'YGL127C'
p2316
I4
sS'YBR030W'
p2317
I3
sS'YLR336C'
p2318
I4
sS'YDL133W'
p2319
I4
sS'YDL232W'
p2320
I13
sS'YJL019W'
p2321
I3
sS'YDL022W'
p2322
I19
sS'YPR021C'
p2323
I1
sS'YLR044C'
p2324
I1283
sS'YGR244C'
p2325
I9
sS'YOR286W'
p2326
I11
sS'YKR037C'
p2327
I2
sS'YBR065C'
p2328
I3
sS'YLR099C'
p2329
I4
sS'YOR149C'
p2330
I3
sS'YGR117C'
p2331
I4
sS'YML032C'
p2332
I6
sS'YPR178W'
p2333
I3
sS'YLR146C'
p2334
I3
sS'YDR240C'
p2335
I1
sS'YMR033W'
p2336
I3
sS'YHR135C'
p2337
I6
sS'YDR429C'
p2338
I20
sS'YHR079C'
p2339
I3
sS'YDL035C'
p2340
I1
sS'YER118C'
p2341
I2
sS'YML010W'
p2342
I12
sS'YDL193W'
p2343
I7
sS'YOR164C'
p2344
I8
sS'YER021W'
p2345
I14
sS'YBR052C'
p2346
I14
sS'YER134C'
p2347
I8
sS'YEL052W'
p2348
I4
sS'YMR162C'
p2349
I1
sS'YMR055C'
p2350
I1
sS'YEL009C'
p2351
I46
sS'YER161C'
p2352
I8
sS'YBR083W'
p2353
I2
sS'YHR103W'
p2354
I4
sS'YNR019W'
p2355
I6
sS'YOR001W'
p2356
I6
sS'YNL047C'
p2357
I1
sS'YDR498C'
p2358
I3
sS'YFL013C'
p2359
I4
sS'YOR257W'
p2360
I3
sS'YGR002C'
p2361
I3
sS'YEL041W'
p2362
I2
sS'YER129W'
p2363
I4
sS'YOL113W'
p2364
I1
sS'YDR111C'
p2365
I6
sS'YOL159CA'
p2366
I3
sS'YGR253C'
p2367
I13
sS'YDR510W'
p2368
I43
sS'YKR082W'
p2369
I6
sS'YLR228C'
p2370
I2
sS'YHR129C'
p2371
I2
sS'YLR019W'
p2372
I6
sS'YCR079W'
p2373
I3
sS'YPR045C'
p2374
I7
sS'YER058W'
p2375
I2
sS'YPR010C'
p2376
I18
sS'YPL231W'
p2377
I53
sS'YLR148W'
p2378
I5
sS'YMR137C'
p2379
I2
sS'YDR164C'
p2380
I3
sS'YKL155C'
p2381
I1
sS'YKL178C'
p2382
I2
sS'YJR069C'
p2383
I14
sS'YKL033W'
p2384
I4
sS'YLR242C'
p2385
I1
sS'YDR119W'
p2386
I10
sS'YGR145W'
p2387
I6
sS'YKR055W'
p2388
I2
sS'YFL042C'
p2389
I4
sS'YDR351W'
p2390
I4
sS'YJL107C'
p2391
I1
sS'YOL119C'
p2392
I2
sS'YMR188C'
p2393
I8
sS'YDR148C'
p2394
I9
sS'YPL181W'
p2395
I1
sS'YJR034W'
p2396
I3
sS'YLR121C'
p2397
I2
sS'YOR003W'
p2398
I1
sS'YLR210W'
p2399
I2
sS'YNL055C'
p2400
I66
sS'YDL204W'
p2401
I1
sS'YDL106C'
p2402
I2
sS'YIL042C'
p2403
I3
sS'YDR335W'
p2404
I6
sS'YKR061W'
p2405
I4
sS'YHR081W'
p2406
I6
sS'YGL116W'
p2407
I4
sS'YGR206W'
p2408
I4
sS'YMR039C'
p2409
I6
sS'YOR239W'
p2410
I10
sS'YPL014W'
p2411
I3
sS'YML081W'
p2412
I8
sS'YHR181W'
p2413
I8
sS'YNL320W'
p2414
I4
sS'YDR443C'
p2415
I4
sS'YDR211W'
p2416
I14
sS'YCR095C'
p2417
I4
sS'YMR128W'
p2418
I4
sS'YLL011W'
p2419
I9
sS'YCR077C'
p2420
I7
sS'YML130C'
p2421
I8
sS'YJL029C'
p2422
I3
sS'YER056C'
p2423
I11
sS'YGL130W'
p2424
I3
sS'YMR157C'
p2425
I3
sS'YJL033W'
p2426
I5
sS'YER036C'
p2427
I31
sS'YLR417W'
p2428
I1
sS'YNL306W'
p2429
I11
sS'YML075C'
p2430
I6
sS'YCR017C'
p2431
I11
sS'YDR237W'
p2432
I4
sS'YOR297C'
p2433
I1
sS'YDR060W'
p2434
I10
sS'YDR540C'
p2435
I3
sS'YMR080C'
p2436
I9
sS'YPR144C'
p2437
I4
sS'YGL187C'
p2438
I11
sS'YMR193W'
p2439
I7
sS'YJL023C'
p2440
I3
sS'YBR001C'
p2441
I3
sS'YNL246W'
p2442
I3
sS'YOR315W'
p2443
I7
sS'YCL033C'
p2444
I3
sS'YHR196W'
p2445
I7
sS'YLR354C'
p2446
I61
sS'YMR048W'
p2447
I1
sS'YDR277C'
p2448
I2
sS'YPR067W'
p2449
I4
sS'YML092C'
p2450
I14
sS'YNL113W'
p2451
I12
sS'YML025C'
p2452
I4
sS'YDL124W'
p2453
I18
sS'YDR257C'
p2454
I5
sS'YJR074W'
p2455
I3
sS'YNL291C'
p2456
I2
sS'YGR266W'
p2457
I3
sS'YDL148C'
p2458
I6
sS'YJL167W'
p2459
I26
sS'YPL076W'
p2460
I3
sS'YAL012W'
p2461
I49
sS'YHR163W'
p2462
I15
sS'YMR200W'
p2463
I12
sS'YKL011C'
p2464
I3
sS'YKL080W'
p2465
I26
sS'YBR167C'
p2466
I2
sS'YIL156W'
p2467
I2
sS'YNR031C'
p2468
I5
sS'YBR241C'
p2469
I2
sS'YPL196W'
p2470
I1
sS'YPL215W'
p2471
I5
sS'YLR272C'
p2472
I2
sS'YOR005C'
p2473
I1
sS'YDL226C'
p2474
I18
sS'YNR017W'
p2475
I6
sS'YKL059C'
p2476
I3
sS'YFR037C'
p2477
I9
sS'YCL039W'
p2478
I1
sS'YAL049C'
p2479
I6
sS'YJL212C'
p2480
I9
sS'YGR136W'
p2481
I8
sS'YNL097C'
p2482
I3
sS'YOR008C'
p2483
I5
sS'YOR018W'
p2484
I4
sS'YDR513W'
p2485
I20
sS'YDR461W'
p2486
I32
sS'YGL201C'
p2487
I5
sS'YGR070W'
p2488
I2
sS'YKL084W'
p2489
I6
sS'YBR121C'
p2490
I52
sS'YFL027C'
p2491
I3
sS'YDL146W'
p2492
I5
sS'YKL133C'
p2493
I3
sS'YJR052W'
p2494
I3
sS'YNL079C'
p2495
I38
sS'YMR062C'
p2496
I3
sS'YLR292C'
p2497
I7
sS'YKL020C'
p2498
I2
sS'YHR170W'
p2499
I15
sS'YJL125C'
p2500
I3
sS'YBR107C'
p2501
I4
sS'YBL090W'
p2502
I12
sS'YDR259C'
p2503
I1
sS'YPR034W'
p2504
I5
sS'YMR159C'
p2505
I1
sS'YKL068W'
p2506
I3
sS'YLR099WA'
p2507
I5
sS'YDL166C'
p2508
I7
sS'YDR260C'
p2509
I4
sS'YKL142W'
p2510
I13
sS'YPL049C'
p2511
I3
sS'YGL212W'
p2512
I2
sS'YNL122C'
p2513
I3
sS'YER081W'
p2514
I5
sS'YIL136W'
p2515
I2
sS'YNL241C'
p2516
I30
sS'YDR169C'
p2517
I2
sS'YPR041W'
p2518
I20
sS'YKL159C'
p2519
I3
sS'YDR373W'
p2520
I7
sS'YGR233C'
p2521
I8
sS'YDR322W'
p2522
I5
sS'YNL008C'
p2523
I5
sS'YOL111C'
p2524
I5
sS'YDR004W'
p2525
I2
sS'YGL227W'
p2526
I5
sS'YOR350C'
p2527
I1
sS'YFR011C'
p2528
I4
sS'YIL074C'
p2529
I10
sS'YMR312W'
p2530
I4
sS'YIL161W'
p2531
I6
sS'YLL043W'
p2532
I2
sS'YOL144W'
p2533
I3
sS'YMR297W'
p2534
I22
sS'YLR395C'
p2535
I8
sS'YHL008C'
p2536
I2
sS'YOR096W'
p2537
I221
sS'YIL021W'
p2538
I6
sS'YCL016C'
p2539
I2
sS'YHR039C'
p2540
I6
sS'YBR274W'
p2541
I2
sS'YER131W'
p2542
I136
sS'YGL178W'
p2543
I3
sS'YNL249C'
p2544
I1
sS'YMR090W'
p2545
I4
sS'YKL088W'
p2546
I2
sS'YER142C'
p2547
I1
sS'YML119W'
p2548
I3
sS'YGR056W'
p2549
I3
sS'YGR036C'
p2550
I2
sS'YNL225C'
p2551
I2
sS'YGR121C'
p2552
I4
sS'YOR185C'
p2553
I7
sS'YLR084C'
p2554
I3
sS'YGL065C'
p2555
I5
sS'YKR087C'
p2556
I1
sS'YDR180W'
p2557
I1
sS'YOR052C'
p2558
I6
sS'YLR243W'
p2559
I2
sS'YAL001C'
p2560
I4
sS'YLR196W'
p2561
I8
sS'YPL221W'
p2562
I3
sS'YIL036W'
p2563
I3
sS'YPL047W'
p2564
I3
sS'YMR135C'
p2565
I3
sS'YPL236C'
p2566
I1
sS'YHR155W'
p2567
I2
sS'YOR045W'
p2568
I21
sS'YDR476C'
p2569
I9
sS'YEL003W'
p2570
I12
sS'YJR112W'
p2571
I4
sS'YDL231C'
p2572
I4
sS'YBR252W'
p2573
I15
sS'YBR225W'
p2574
I1
sS'YPL012W'
p2575
I7
sS'YIL110W'
p2576
I3
sS'YMR086W'
p2577
I3
sS'YIL158W'
p2578
I4
sS'YJL206C'
p2579
I2
sS'YOR264W'
p2580
I4
sS'YJR083C'
p2581
I2
sS'YOL159C'
p2582
I3
sS'YLL018CA'
p2583
I1
sS'YBR169C'
p2584
I1
sS'YNL135C'
p2585
I79
sS'YAL030W'
p2586
I6
sS'YBR263W'
p2587
I25
sS'YMR305C'
p2588
I26
sS'YBL001C'
p2589
I25
sS'YBR185C'
p2590
I2
sS'YDR019C'
p2591
I13
sS'YNL207W'
p2592
I6
sS'YOR232W'
p2593
I26
sS'YGR150C'
p2594
I4
sS'YJR133W'
p2595
I7
sS'YDR224C'
p2596
I64
sS'YLR438W'
p2597
I14
sS'YEL055C'
p2598
I8
sS'YER119C'
p2599
I2
sS'YGR058W'
p2600
I2
sS'YMR196W'
p2601
I4
sS'YBR053C'
p2602
I3
sS'YML013W'
p2603
I3
sS'YPL077C'
p2604
I2
sS'YLL058W'
p2605
I4
sS'YDR499W'
p2606
I2
sS'YBR082C'
p2607
I39
sS'YOR210W'
p2608
I23
sS'YBL034C'
p2609
I3
sS'YMR252C'
p2610
I2
sS'YJR022W'
p2611
I4
sS'YOL008W'
p2612
I4
sS'YER077C'
p2613
I1
sS'YNL224C'
p2614
I4
sS'YGL246C'
p2615
I3
sS'YNL010W'
p2616
I38
sS'YCR054C'
p2617
I3
sS'YDR045C'
p2618
I4
sS'YPL232W'
p2619
I11
sS'YKR083C'
p2620
I2
sS'YMR209C'
p2621
I6
sS'YEL017W'
p2622
I3
sS'YGR252W'
p2623
I3
sS'YDL003W'
p2624
I2
sS'YER128W'
p2625
I2
sS'YJR123W'
p2626
I417
sS'YOR020WA'
p2627
I1
sS'YDL078C'
p2628
I7
sS'YGR003W'
p2629
I3
sS'YDR517W'
p2630
I9
sS'YGL043W'
p2631
I11
sS'YOR256C'
p2632
I4
sS'YPR011C'
p2633
I1
sS'YLL061W'
p2634
I3
sS'YDR110W'
p2635
I4
sS'YLR061W'
p2636
I232
sS'YKL214C'
p2637
I4
sS'YOL088C'
p2638
I11
sS'YDR419W'
p2639
I2
sS'YOR361C'
p2640
I16
sS'YLL009C'
p2641
I5
sS'YGL113W'
p2642
I1
sS'YKR095W'
p2643
I8
sS'YMR223W'
p2644
I1
sS'YPL214C'
p2645
I3
sS'YGR029W'
p2646
I6
sS'YDL199C'
p2647
I2
sS'YOR334W'
p2648
I2
sS'YLR193C'
p2649
I5
sS'YLR154C'
p2650
I7
sS'YBL023C'
p2651
I4
sS'YNR010W'
p2652
I4
sS'YML067C'
p2653
I6
sS'YGL078C'
p2654
I6
sS'YML058WA'
p2655
I3
sS'YOR329C'
p2656
I6
sS'YDR435C'
p2657
I4
sS'YJR055W'
p2658
I2
sS'YER151C'
p2659
I11
sS'YIL098C'
p2660
I2
sS'YLR005W'
p2661
I2
sS'YPR052C'
p2662
I31
sS'YLL027W'
p2663
I5
sS'YJL076W'
p2664
I14
sS'YOR382W'
p2665
I22
sS'YOR144C'
p2666
I2
sS'YOR253W'
p2667
I11
sS'YNL069C'
p2668
I297
sS'YNL267W'
p2669
I3
sS'YCL001W'
p2670
I9
sS'YGR198W'
p2671
I6
sS'YKL189W'
p2672
I4
sS'YPR048W'
p2673
I4
sS'YAR007C'
p2674
I4
sS'YLR050C'
p2675
I10
sS'YGR010W'
p2676
I2
sS'YML064C'
p2677
I3
sS'YKR091W'
p2678
I1
sS'YER055C'
p2679
I36
sS'YNL307C'
p2680
I8
sS'YCR016W'
p2681
I6
sS'YLL012W'
p2682
I5
sS'YCL052C'
p2683
I3
sS'YDR067C'
p2684
I2
sS'YNL002C'
p2685
I13
sS'YHR167W'
p2686
I1
sS'YLR218C'
p2687
I1
sS'YLR087C'
p2688
I1
sS'YJL044C'
p2689
I2
sS'YMR154C'
p2690
I1
sS'YCR094W'
p2691
I3
sS'YGL186C'
p2692
I5
sS'YDR234W'
p2693
I10
sS'YGL131C'
p2694
I1
sS'YGR218W'
p2695
I9
sS'YEL060C'
p2696
I10
sS'YKR049C'
p2697
I9
sS'YPL028W'
p2698
I33
sS'YPR179C'
p2699
I3
sS'YHR195W'
p2700
I2
sS'YGR267C'
p2701
I14
sS'YDL149W'
p2702
I1
sS'YDL125C'
p2703
I27
sS'YJL149W'
p2704
I2
sS'YPR006C'
p2705
I3
sS'YMR114C'
p2706
I3
sS'YPL002C'
p2707
I5
sS'YGL022W'
p2708
I11
sS'YML079W'
p2709
I11
sS'YKL017C'
p2710
I1
sS'YMR049C'
p2711
I4
sS'YDR229W'
p2712
I5
sS'YJR075W'
p2713
I8
sS'YPR124W'
p2714
I24
sS'YPL237W'
p2715
I25
sS'YLL029W'
p2716
I8
sS'YDL181W'
p2717
I2
sS'YOR344C'
p2718
I5
sS'YGR285C'
p2719
I41
sS'YPR189W'
p2720
I5
sS'YNL232W'
p2721
I3
sS'YER017C'
p2722
I7
sS'YBR022W'
p2723
I3
sS'YMR214W'
p2724
I3
sS'YBR079C'
p2725
I27
sS'YNR066C'
p2726
I1
sS'YLR438CA'
p2727
I4
sS'YER177W'
p2728
I75
sS'YDR500C'
p2729
I175
sS'YGL032C'
p2730
I15
sS'YMR176W'
p2731
I3
sS'YCL063W'
p2732
I2
sS'YER048C'
p2733
I7
sS'YEL019C'
p2734
I5
sS'YML048W'
p2735
I10
sS'YNL112W'
p2736
I14
sS'YLR027C'
p2737
I30
sS'YDR107C'
p2738
I5
sS'YDL132W'
p2739
I8
sS'YBL064C'
p2740
I11
sS'YHR104W'
p2741
I7
sS'YIL014CA'
p2742
I3
sS'YGR245C'
p2743
I9
sS'YNL009W'
p2744
I1
sS'YPL119C'
p2745
I2
sS'YLR047C'
p2746
I3
sS'YDL130WA'
p2747
I7
sS'YDL025C'
p2748
I2
sS'YGR229C'
p2749
I9
sS'YPR057W'
p2750
I3
sS'YMR270C'
p2751
I2
sS'YLR293C'
p2752
I94
sS'YDL147W'
p2753
I20
sS'YBR058CA'
p2754
I10
sS'YJR053W'
p2755
I2
sS'YPR065W'
p2756
I5
sS'YBR104W'
p2757
I6
sS'YJL171C'
p2758
I13
sS'YBL091C'
p2759
I15
sS'YOR262W'
p2760
I2
sS'YIL041W'
p2761
I21
sS'YIR002C'
p2762
I2
sS'YKL012W'
p2763
I2
sS'YNL242W'
p2764
I1
sS'YDL167C'
p2765
I2
sS'YER082C'
p2766
I8
sS'YIL137C'
p2767
I3
sS'YKL069W'
p2768
I12
sS'YNL310C'
p2769
I4
sS'YNL123W'
p2770
I12
sS'YMR003W'
p2771
I2
sS'YDR372C'
p2772
I16
sS'YBR119W'
p2773
I2
sS'YPL179W'
p2774
I5
sS'YEL056W'
p2775
I3
sS'YLR373C'
p2776
I1
sS'YKL092C'
p2777
I1
sS'YFL016C'
p2778
I5
sS'YDR451C'
p2779
I5
sS'YJL162C'
p2780
I2
sS'YKL198C'
p2781
I3
sS'YLR260W'
p2782
I3
sS'YDR085C'
p2783
I1
sS'YNR075W'
p2784
I2
sS'YNL032W'
p2785
I4
sS'YPR109W'
p2786
I4
sS'YKL152C'
p2787
I725
sS'YJR035W'
p2788
I2
sS'YDR350C'
p2789
I2
sS'YJL100W'
p2790
I1
sS'YPL126W'
p2791
I9
sS'YMR129W'
p2792
I1
sS'YKR054C'
p2793
I3
sS'YMR001C'
p2794
I4
sS'YJL006C'
p2795
I4
sS'YPR074C'
p2796
I60
sS'YBL082C'
p2797
I6
sS'YDL081C'
p2798
I234
sS'YIR034C'
p2799
I1
sS'YMR138W'
p2800
I4
sS'YDR165W'
p2801
I6
sS'YGL013C'
p2802
I4
sS'YLR191W'
p2803
I5
sS'YFL018C'
p2804
I24
sS'YJR068W'
p2805
I6
sS'YJL139C'
p2806
I1
sS'YDL178W'
p2807
I4
sS'YER095W'
p2808
I3
sS'YLR456W'
p2809
I3
sS'YHR080C'
p2810
I2
sS'YML086C'
p2811
I9
sS'YKR030W'
p2812
I5
sS'YDL207W'
p2813
I4
sS'YCL058WA'
p2814
I3
sS'YDR334W'
p2815
I3
sS'YPL015C'
p2816
I7
sS'YLR211C'
p2817
I3
sS'YLR375W'
p2818
I6
sS'YDR514C'
p2819
I2
sS'YMR181C'
p2820
I3
sS'YJL066C'
p2821
I2
sS'YHR182W'
p2822
I3
sS'YDL107W'
p2823
I3
sS'YNR029C'
p2824
I3
sS'YGR091W'
p2825
I2
sS'YBR122C'
p2826
I5
sS'YHR001W'
p2827
I6
sS'YDR477W'
p2828
I10
sS'YLR146WA'
p2829
I2
sS'YOL105C'
p2830
I2
sS'YBR199W'
p2831
I10
sS'YCR020WB'
p2832
I4
sS'YMR088C'
p2833
I4
sS'YJR148W'
p2834
I41
sS'YBR253W'
p2835
I5
sS'YFR029W'
p2836
I1
sS'YIL035C'
p2837
I6
sS'YIL111W'
p2838
I14
sS'YIL159W'
p2839
I2
sS'YBR153W'
p2840
I3
sS'YJR082C'
p2841
I4
sS'YLR346C'
p2842
I1
sS'YOL087C'
p2843
I2
sS'YJL004C'
p2844
I4
sS'YJR106W'
p2845
I2
sS'YJL084C'
p2846
I2
sS'YHR154W'
p2847
I3
sS'YOL007C'
p2848
I7
sS'YNL024CA'
p2849
I8
sS'YHR199CA'
p2850
I2
sS'YDR291W'
p2851
I2
sS'YHL014C'
p2852
I1
sS'YBR262C'
p2853
I7
sS'YMR304W'
p2854
I3
sS'YGR041W'
p2855
I9
sS'YKL010C'
p2856
I7
sS'YPL255W'
p2857
I2
sS'YMR289W'
p2858
I2
sS'YOL012C'
p2859
I16
sS'YPL168W'
p2860
I1
sS'YOR128C'
p2861
I9
sS'YAL015C'
p2862
I4
sS'YFL036W'
p2863
I3
sS'YGR177C'
p2864
I4
sS'YDL209C'
p2865
I1
sS'YKL045W'
p2866
I4
sS'YMR239C'
p2867
I2
sS'YIL157C'
p2868
I6
sS'YLR273C'
p2869
I2
sS'YIL051C'
p2870
I73
sS'YPL057C'
p2871
I8
sS'YNL074C'
p2872
I8
sS'YDR365C'
p2873
I4
sS'YPL151C'
p2874
I4
sS'YKL007W'
p2875
I10
sS'YNL169C'
p2876
I4
sS'YFR034C'
p2877
I5
sS'YGL206C'
p2878
I25
sS'YDL225W'
p2879
I5
sS'YCL038C'
p2880
I3
sS'YHR070W'
p2881
I5
sS'YDR460W'
p2882
I5
sS'YMR028W'
p2883
I2
sS'YOR377W'
p2884
I2
sS'YLR364W'
p2885
I3
sS'YKL058W'
p2886
I7
sS'YKL085W'
p2887
I8
sS'YJR124C'
p2888
I7
sS'YHL047C'
p2889
I6
sS'YOR360C'
p2890
I3
sS'YOR227W'
p2891
I2
sS'YHL018W'
p2892
I3
sS'YPR174C'
p2893
I3
sS'YOL089C'
p2894
I2
sS'YDR416W'
p2895
I4
sS'YPR116W'
p2896
I1
sS'YGL129C'
p2897
I7
sS'YLL026W'
p2898
I15
sS'YHR023W'
p2899
I7
sS'YOL065C'
p2900
I3
sS'YGL251C'
p2901
I1
sS'YBL022C'
p2902
I9
sS'YGL164C'
p2903
I2
sS'YER156C'
p2904
I8
sS'YDR125C'
p2905
I3
sS'YGR013W'
p2906
I5
sS'YML103C'
p2907
I9
sS'YEL038W'
p2908
I6
sS'YCL014W'
p2909
I4
sS'YOL025W'
p2910
I2
sS'YGL172W'
p2911
I7
sS'YCL002C'
p2912
I4
sS'YGL108C'
p2913
I4
sS'YPL040C'
p2914
I3
sS'YKL151C'
p2915
I5
sS'YLR051C'
p2916
I4
sS'YDR388W'
p2917
I22
sS'YGR199W'
p2918
I1
sS'YLR289W'
p2919
I2
sS'YNR032W'
p2920
I5
sS'YLR306W'
p2921
I4
sS'YOL147C'
p2922
I5
sS'YNL280C'
p2923
I13
sS'YDR007W'
p2924
I7
sS'YOR284W'
p2925
I2
sS'YGL220W'
p2926
I11
sS'YPR089W'
p2927
I5
sS'YBR233W'
p2928
I3
sS'YPL122C'
p2929
I3
sS'YMR295C'
p2930
I33
sS'YOR328W'
p2931
I2
sS'YGR082W'
p2932
I10
sS'YMR291W'
p2933
I5
sS'YKL113C'
p2934
I8
sS'YKL104C'
p2935
I10
sS'YHR012W'
p2936
I5
sS'YDR436W'
p2937
I2
sS'YHL027W'
p2938
I2
sS'YKL116C'
p2939
I3
sS'YHL011C'
p2940
I12
sS'YLR285W'
p2941
I4
sS'YGR119C'
p2942
I8
sS'YGR035C'
p2943
I7
sS'YDR181C'
p2944
I2
sS'YOL127W'
p2945
I422
sS'YOR163W'
p2946
I5
sS'YLR326W'
p2947
I4
sS'YGL179C'
p2948
I1
sS'YAL020C'
p2949
I1
sS'YPL048W'
p2950
I35
sS'YBR275C'
p2951
I2
sS'YDR539W'
p2952
I2
sS'YCR075WA'
p2953
I4
sS'YBL013W'
p2954
I1
sS'YLR267W'
p2955
I1
sS'YMR212C'
p2956
I7
sS'YBR025C'
p2957
I66
sS'YML001W'
p2958
I16
sS'YLL028W'
p2959
I5
sS'YOR187W'
p2960
I21
sS'YER016W'
p2961
I7
sS'YBL059CA'
p2962
I7
sS'YGR286C'
p2963
I2
sS'YCR037C'
p2964
I9
sS'YHR004C'
p2965
I1
sS'YMR217W'
p2966
I51
sS'YJL103C'
p2967
I1
sS'YGL035C'
p2968
I4
sS'YER170W'
p2969
I1
sS'YOR136W'
p2970
I20
sS'YKL222C'
p2971
I2
sS'YPR056W'
p2972
I1
sS'YDR494W'
p2973
I5
sS'YLR026C'
p2974
I3
sS'YKR086W'
p2975
I3
sS'YGL026C'
p2976
I23
sS'YGR246C'
p2977
I2
sS'YHR008C'
p2978
I17
sS'YMR277W'
p2979
I4
sS'YPL242C'
p2980
I5
sS'YKR036C'
p2981
I5
sS'YBR067C'
p2982
I14
sS'YPL172C'
p2983
I1
sS'YCR068W'
p2984
I3
sS'YLL004W'
p2985
I3
sS'YER049W'
p2986
I6
sS'YGL125W'
p2987
I6
sS'YML009C'
p2988
I8
sS'YMR015C'
p2989
I12
sS'YOR275C'
p2990
I4
sS'YPR172W'
p2991
I6
sS'YDL033C'
p2992
I3
sS'YMR255W'
p2993
I5
sS'YGL068W'
p2994
I11
sS'YNL006W'
p2995
I7
sS'YLR028C'
p2996
I17
sS'YER136W'
p2997
I13
sS'YGL247W'
p2998
I1
sS'YER116C'
p2999
I3
sS'YML012W'
p3000
I35
sS'YOL009C'
p3001
I5
sS'YDR028C'
p3002
I4
sS'YML050W'
p3003
I1
sS'YOR217W'
p3004
I10
sS'YBL035C'
p3005
I4
sS'YPL010W'
p3006
I19
sS'YCR057C'
p3007
I6
sS'YNL206C'
p3008
I3
sS'YHR105W'
p3009
I2
sS'YLR060W'
p3010
I42
sS'YDR516C'
p3011
I8
sS'YHR035W'
p3012
I1
sS'YER076C'
p3013
I2
sS'YIL063C'
p3014
I7
sS'YPR140W'
p3015
I3
sS'YGR251W'
p3016
I4
sS'YHR204W'
p3017
I1
sS'YNL259C'
p3018
I6
sS'YPR047W'
p3019
I1
sS'YIL122W'
p3020
I2
sS'YEL020WA'
p3021
I12
sS'YML091C'
p3022
I2
sS'YBR049C'
p3023
I8
sS'YDR044W'
p3024
I6
sS'YKR080W'
p3025
I10
sS'YEL016C'
p3026
I3
sS'YKL078W'
p3027
I1
sS'YDL002C'
p3028
I8
sS'YDR354W'
p3029
I10
sS'YJR032W'
p3030
I5
sS'YOR037W'
p3031
I2
sS'YIR037W'
p3032
I14
sS'YDR071C'
p3033
I15
sS'YDR162C'
p3034
I2
sS'YMR134W'
p3035
I4
sS'YGL012W'
p3036
I28
sS'YER074WA'
p3037
I14
sS'YOL057W'
p3038
I9
sS'YJL101C'
p3039
I5
sS'YOR035C'
p3040
I1
sS'YBL069W'
p3041
I3
sS'YFR004W'
p3042
I11
sS'YDR353W'
p3043
I27
sS'YMR139W'
p3044
I1
sS'YHR009C'
p3045
I9
sS'YDL080C'
p3046
I2
sS'YJL049W'
p3047
I1
sS'YHR183W'
p3048
I70
sS'YDR017C'
p3049
I4
sS'YOR129C'
p3050
I1
sS'YDR213W'
p3051
I4
sS'YKL068WA'
p3052
I6
sS'YML085C'
p3053
I27
sS'YPR167C'
p3054
I1
sS'YNL053W'
p3055
I1
sS'YDL206W'
p3056
I4
sS'YHR060W'
p3057
I7
sS'YER094C'
p3058
I13
sS'YIL022W'
p3059
I6
sS'YDL104C'
p3060
I1
sS'YGR208W'
p3061
I5
sS'YNL024C'
p3062
I1
sS'YLR378C'
p3063
I25
sS'YKL119C'
p3064
I8
sS'YLR212C'
p3065
I5
sS'YHR042W'
p3066
I11
sS'YCR075C'
p3067
I2
sS'YER101C'
p3068
I2
sS'YMR155W'
p3069
I1
sS'YKR079C'
p3070
I4
sS'YNL248C'
p3071
I8
sS'YDR171W'
p3072
I2
sS'YLR086W'
p3073
I1
sS'YGR105W'
p3074
I10
sS'YDR066C'
p3075
I2
sS'YLR151C'
p3076
I3
sS'YOR025W'
p3077
I9
sS'YML030W'
p3078
I3
sS'YCL051W'
p3079
I3
sS'YML065W'
p3080
I3
sS'YCR097W'
p3081
I11
sS'YER001W'
p3082
I6
sS'YKR072C'
p3083
I8
sS'YDR235W'
p3084
I4
sS'YJL047C'
p3085
I2
sS'YER038C'
p3086
I2
sS'YBL074C'
p3087
I3
sS'YDR275W'
p3088
I6
sS'YGL023C'
p3089
I5
sS'YHR049W'
p3090
I4
sS'YEL061C'
p3091
I2
sS'YBR007C'
p3092
I2
sS'YLR175W'
p3093
I39
sS'YDL126C'
p3094
I41
sS'YDR228C'
p3095
I4
sS'YHR194W'
p3096
I1
sS'YGR288W'
p3097
I1
sS'YOR295W'
p3098
I3
sS'YOR340C'
p3099
I7
sS'YMR260C'
p3100
I73
sS'YGR264C'
p3101
I29
sS'YNL110C'
p3102
I12
sS'YOR161C'
p3103
I5
sS'YML078W'
p3104
I18
sS'YLR142W'
p3105
I1
sS'YOR158W'
p3106
I6
sS'YOR151C'
p3107
I16
sS'YDL208W'
p3108
I24
sS'YIR018W'
p3109
I4
sS'YPL074W'
p3110
I2
sS'YIL129C'
p3111
I5
sS'YKL046C'
p3112
I10
sS'YBR145W'
p3113
I2
sS'YDR339C'
p3114
I14
sS'YAL014C'
p3115
I10
sS'YMR019W'
p3116
I1
sS'YFL037W'
p3117
I29
sS'YIL027C'
p3118
I3
sS'YOR075W'
p3119
I4
sS'YPL169C'
p3120
I4
sS'YHR161C'
p3121
I4
sS'YBR243C'
p3122
I4
sS'YNL199C'
p3123
I4
sS'YDL224C'
p3124
I4
sS'YLR181C'
p3125
I6
sS'YLR225C'
p3126
I5
sS'YNL134C'
p3127
I6
sS'YGL207W'
p3128
I12
sS'YGL090W'
p3129
I3
sS'YNL111C'
p3130
I11
sS'YPL058C'
p3131
I6
sS'YLR454W'
p3132
I8
sS'YGR134W'
p3133
I3
sS'YCR073C'
p3134
I2
sS'YLR270W'
p3135
I2
sS'YGL070C'
p3136
I8
sS'YOL103W'
p3137
I4
sS'YHR071W'
p3138
I9
sS'YGR169C'
p3139
I1
sS'YLR309C'
p3140
I6
sS'YPR086W'
p3141
I13
sS'YKL086W'
p3142
I1
sS'YJR125C'
p3143
I4
sS'YIL068C'
p3144
I3
sS'YMR060C'
p3145
I3
sS'YNL189W'
p3146
I13
sS'YDR153C'
p3147
I6
sS'YJL065C'
p3148
I9
sS'YPL127C'
p3149
I6
sS'YDR320CA'
p3150
I8
sS'YGR120C'
p3151
I3
sS'YJR003C'
p3152
I1
sS'YNR034W'
p3153
I2
sS'YJL170C'
p3154
I1
sS'YDL144C'
p3155
I3
sS'YFL028C'
p3156
I4
sS'YJR078W'
p3157
I2
sS'YBR105C'
p3158
I3
sS'YLR080W'
p3159
I1
sS'YLR262CA'
p3160
I52
sS'YKR020W'
p3161
I1
sS'YMR053C'
p3162
I2
sS'YDR371W'
p3163
I1
sS'YDR456W'
p3164
I6
sS'YDR308C'
p3165
I9
sS'YLR372W'
p3166
I26
sS'YNL062C'
p3167
I9
sS'YMR004W'
p3168
I4
sS'YER083C'
p3169
I4
sS'YHR050W'
p3170
I6
sS'YOR066W'
p3171
I1
sS'YDR324C'
p3172
I6
sS'YLR389C'
p3173
I4
sS'YJL072C'
p3174
I4
sS'YDR374WA'
p3175
I7
sS'YHR172W'
p3176
I2
sS'YOR112W'
p3177
I5
sS'YFL017C'
p3178
I5
sS'YDL168W'
p3179
I8
sS'YDR262W'
p3180
I5
sS'YIL134W'
p3181
I1
sS'YJL163C'
p3182
I1
sS'YNL175C'
p3183
I13
sS'YGR173W'
p3184
I5
sS'YDL240W'
p3185
I3
sS'YBR234C'
p3186
I13
sS'YOR061W'
p3187
I10
sS'YOR356W'
p3188
I7
sS'YFR013W'
p3189
I1
sS'YBR261C'
p3190
I9
sS'YAR027W'
p3191
I5
sS'YLR068W'
p3192
I1
sS'YHR013C'
p3193
I19
sS'YGR083C'
p3194
I7
sS'YOL040C'
p3195
I343
sS'YKR077W'
p3196
I1
sS'YPR020W'
p3197
I4
sS'YGL045W'
p3198
I1
sS'YCL035C'
p3199
I17
sS'YHL026C'
p3200
I1
sS'YOR308C'
p3201
I3
sS'YOL146W'
p3202
I2
sS'YGL221C'
p3203
I9
sS'YHR144C'
p3204
I3
sS'YDR006C'
p3205
I5
sS'YGR034W'
p3206
I236
sS'YBR229C'
p3207
I7
sS'YMR100W'
p3208
I4
sS'YPR084W'
p3209
I2
sS'YDR190C'
p3210
I12
sS'YNL290W'
p3211
I9
sS'YBL010C'
p3212
I4
sS'YJR100C'
p3213
I3
sS'YDR139C'
p3214
I10
sS'YBR276C'
p3215
I4
sS'YJR147W'
p3216
I6
sS'YMR314W'
p3217
I17
sS'YKR017C'
p3218
I2
sS'YAL021C'
p3219
I3
sS'YNL247W'
p3220
I14
sS'YHR140W'
p3221
I3
sS'YHR128W'
p3222
I24
sS'YDR538W'
p3223
I2
sS'YOR316C'
p3224
I6
sS'YCL011C'
p3225
I11
sS'YMR184W'
p3226
I7
sS'YBR123C'
p3227
I3
sS'YIL112W'
p3228
I2
sS'YBR198C'
p3229
I3
sS'YML049C'
p3230
I5
sS'YLR241W'
p3231
I1
sS'YGR090W'
p3232
I9
sS'YDL233W'
p3233
I2
sS'YFR028C'
p3234
I7
sS'YMR204C'
p3235
I2
sS'YNR047W'
p3236
I4
sS'YPL019C'
p3237
I44
sS'YOR147W'
p3238
I4
sS'YNL071W'
p3239
I24
sS'YNL132W'
p3240
I9
sS'YDR470C'
p3241
I3
sS'YBR029C'
p3242
I9
sS'YIL043C'
p3243
I26
sS'YHR153C'
p3244
I1
sS'YDR386W'
p3245
I3
sS'YOR042W'
p3246
I6
sS'YGL141W'
p3247
I5
sS'YMR124W'
p3248
I1
sS'YKR089C'
p3249
I4
sS'YBR152W'
p3250
I2
sS'YJL087C'
p3251
I3
sS'YLR347C'
p3252
I12
sS'YDR292C'
p3253
I5
sS'YPR063C'
p3254
I9
sS'YER166W'
p3255
I10
sS'YOR131C'
p3256
I6
sS'YNL137C'
p3257
I2
sS'YAL036C'
p3258
I12
sS'YCL028W'
p3259
I9
sS'YAL034WA'
p3260
I1
sS'YGL174W'
p3261
I2
sS'YHR106W'
p3262
I1
sS'YLR172C'
p3263
I17
sS'YOL164W'
p3264
I3
sS'YNL164C'
p3265
I7
sS'YHR208W'
p3266
I53
sS'YNL211C'
p3267
I2
sS'YDL065C'
p3268
I2
sS'YGL244W'
p3269
I10
sS'YBR035C'
p3270
I16
sS'YMR167W'
p3271
I2
sS'YBL036C'
p3272
I9
sS'YOR249C'
p3273
I2
sS'YBR296C'
p3274
I1
sS'YBR080C'
p3275
I8
sS'YPR191W'
p3276
I14
sS'YJL020C'
p3277
I7
sS'YER137C'
p3278
I1
sS'YDL030W'
p3279
I3
sS'YNR033W'
p3280
I5
sS'YDR027C'
p3281
I5
sS'YJL110C'
p3282
I2
sS'YHR068W'
p3283
I28
sS'YER071C'
p3284
I4
sS'YOR271C'
p3285
I6
sS'YNL272C'
p3286
I3
sS'YMR238W'
p3287
I2
sS'YKL218C'
p3288
I6
sS'YKR081C'
p3289
I10
sS'YEL011W'
p3290
I1
sS'YGR001C'
p3291
I15
sS'YDL001W'
p3292
I4
sS'YBL107C'
p3293
I4
sS'YLR067C'
p3294
I3
sS'YHR051W'
p3295
I8
sS'YOL013C'
p3296
I3
sS'YJL183W'
p3297
I9
sS'YLL063C'
p3298
I1
sS'YKL128C'
p3299
I13
sS'YGR250C'
p3300
I2
sS'YDR515W'
p3301
I3
sS'YPR033C'
p3302
I30
sS'YOR254C'
p3303
I20
sS'YOR201C'
p3304
I4
sS'YOR276W'
p3305
I26
sS'YMR309C'
p3306
I15
sS'YGL250W'
p3307
I1
sS'YMR287C'
p3308
I2
sS'YMR023C'
p3309
I2
sS'YIL065C'
p3310
I8
sS'YOR089C'
p3311
I3
sS'YOL031C'
p3312
I1
sS'YHR119W'
p3313
I5
sS'YHL019C'
p3314
I6
sS'YHR076W'
p3315
I2
sS'YMR180C'
p3316
I4
sS'YGL163C'
p3317
I2
sS'YPL234C'
p3318
I31
sS'YOR336W'
p3319
I3
sS'YKL216W'
p3320
I30
sS'YML021C'
p3321
I3
sS'YGR012W'
p3322
I4
sS'YBL021C'
p3323
I3
sS'YHL004W'
p3324
I5
sS'YGR124W'
p3325
I51
sS'YJL205C'
p3326
I6
sS'YLR007W'
p3327
I3
sS'YPL252C'
p3328
I6
sS'YLR139C'
p3329
I2
sS'YML102W'
p3330
I3
sS'YPL154C'
p3331
I29
sS'YER157W'
p3332
I5
sS'YOL022C'
p3333
I7
sS'YGR270W'
p3334
I6
sS'YEL037C'
p3335
I16
sS'YDR437W'
p3336
I3
sS'YKL019W'
p3337
I5
sS'YMR054W'
p3338
I7
sS'YDR065W'
p3339
I1
sS'YBL059W'
p3340
I3
sS'YDL027C'
p3341
I2
sS'YER053C'
p3342
I2
sS'YNL305C'
p3343
I1
sS'YPL051W'
p3344
I3
sS'YJR121W'
p3345
I44
sS'YLL014W'
p3346
I10
sS'YCL050C'
p3347
I16
sS'YGR047C'
p3348
I3
sS'YCR021C'
p3349
I1
sS'YDR049W'
p3350
I2
sS'YJL148W'
p3351
I11
sS'YPL153C'
p3352
I3
sS'YER100W'
p3353
I8
sS'YFR040W'
p3354
I4
sS'YKR078W'
p3355
I3
sS'YPR079W'
p3356
I2
sS'YGL008C'
p3357
I313
sS'YJL026W'
p3358
I40
sS'YLR412W'
p3359
I4
sS'YER002W'
p3360
I9
sS'YCR018C'
p3361
I4
sS'YPL101W'
p3362
I5
sS'YDL127W'
p3363
I3
sS'YDR272W'
p3364
I3
sS'YOR301W'
p3365
I8
sS'YHR048W'
p3366
I2
sS'YOR159C'
p3367
I4
sS'YML020W'
p3368
I1
sS'YGL020C'
p3369
I8
sS'YOR160W'
p3370
I6
sS'YGL133W'
p3371
I3
sS'YOR294W'
p3372
I13
sS'YEL062W'
p3373
I1
sS'YMR261C'
p3374
I5
sS'YHR202W'
p3375
I1
sS'YDR100W'
p3376
I7
sS'YJL039C'
p3377
I6
sS'YBR006W'
p3378
I2
sS'YLR038C'
p3379
I7
sS'YPR085C'
p3380
I2
sS'YOR038C'
p3381
I2
sS'YLR187W'
p3382
I3
sS'YNL212W'
p3383
I4
sS'YDR387C'
p3384
I5
sS'YPL072W'
p3385
I2
sS'YER015W'
p3386
I2
sS'YLR353W'
p3387
I2
sS'YML006C'
p3388
I1
sS'YCL061C'
p3389
I4
sS'YDR439W'
p3390
I1
sS'YNL148C'
p3391
I1
sS'YNL253W'
p3392
I2
sS'YBR024W'
p3393
I1
sS'YDR502C'
p3394
I24
sS'YGR065C'
p3395
I3
sS'YER062C'
p3396
I10
sS'YER171W'
p3397
I7
sS'YDL047W'
p3398
I8
sS'YGR247W'
p3399
I2
sS'YDR101C'
p3400
I6
sS'YPR026W'
p3401
I1
sS'YML046W'
p3402
I4
sS'YGL124C'
p3403
I1
sS'YOR080W'
p3404
I1
sS'YLR070C'
p3405
I1
sS'YDL130W'
p3406
I222
sS'YPR166C'
p3407
I3
sS'YMR276W'
p3408
I20
sS'YEL002C'
p3409
I17
sS'YLR165C'
p3410
I2
sS'YLR025W'
p3411
I5
sS'YCR069W'
p3412
I16
sS'YOL030W'
p3413
I15
sS'YLR049C'
p3414
I6
sS'YDR495C'
p3415
I2
sS'YPL189CA'
p3416
I2
sS'YKL146W'
p3417
I5
sS'YLR278C'
p3418
I2
sS'YLR016C'
p3419
I2
sS'YDR341C'
p3420
I27
sS'YJL013C'
p3421
I2
sS'YJL173C'
p3422
I9
sS'YPL068C'
p3423
I3
sS'YPR169W'
p3424
I5
sS'YHR199C'
p3425
I4
sS'YDR152W'
p3426
I7
sS'YDL090C'
p3427
I4
sS'YGR101W'
p3428
I2
sS'YFL054C'
p3429
I2
sS'YMR061W'
p3430
I4
sS'YJL128C'
p3431
I7
sS'YJR002W'
p3432
I11
sS'YDL145C'
p3433
I15
sS'YBL097W'
p3434
I4
sS'YIL076W'
p3435
I11
sS'YDR309C'
p3436
I4
sS'YNL061W'
p3437
I11
sS'YKR021W'
p3438
I3
sS'YDR398W'
p3439
I2
sS'YHR209W'
p3440
I2
sS'YFL014W'
p3441
I4
sS'YDR457W'
p3442
I12
sS'YLR386W'
p3443
I4
sS'YIL135C'
p3444
I2
sS'YKL008C'
p3445
I10
sS'YKL067W'
p3446
I17
sS'YLR185W'
p3447
I248
sS'YMR005W'
p3448
I10
sS'YDR370C'
p3449
I3
sS'YPR107C'
p3450
I2
sS'YFL034CA'
p3451
I24
sS'YLR262C'
p3452
I8
sS'YFL034CB'
p3453
I4
sS'YNL121C'
p3454
I13
sS'YDR087C'
p3455
I4
sS'YMR294W'
p3456
I1
sS'YDR265W'
p3457
I3
sS'YBR081C'
p3458
I3
sS'YPL175W'
p3459
I1
sS'YNR008W'
p3460
I3
sS'YLR092W'
p3461
I1
sS'YJL166W'
p3462
I9
sS'YDR072C'
p3463
I4
sS'YER044C'
p3464
I5
sS'YMR072W'
p3465
I15
sS'YLR248W'
p3466
I7
sS'YOR283W'
p3467
I8
sS'YJL102W'
p3468
I1
sS'YKL105C'
p3469
I2
sS'YMR160W'
p3470
I2
sS'YKL075C'
p3471
I1
sS'YJR033C'
p3472
I3
sS'YDL087C'
p3473
I3
sS'YBL068W'
p3474
I4
sS'YGL011C'
p3475
I19
sS'YMR225C'
p3476
I8
sS'YDR352W'
p3477
I2
sS'YKL129C'
p3478
I4
sS'YDR163W'
p3479
I2
sS'YML051W'
p3480
I6
sS'YDR238C'
p3481
I19
sS'YOR173W'
p3482
I2
sS'YHR184W'
p3483
I1
sS'YDL105W'
p3484
I2
sS'YBR011C'
p3485
I116
sS'YPL026C'
p3486
I4
sS'YDR243C'
p3487
I2
sS'YHR082C'
p3488
I5
sS'YGR209C'
p3489
I59
sS'YML068W'
p3490
I1
sS'YPL017C'
p3491
I2
sS'YPR168W'
p3492
I4
sS'YJL048C'
p3493
I3
sS'YPR113W'
p3494
I21
sS'YLR213C'
p3495
I2
sS'YNL050C'
p3496
I5
sS'YJR150C'
p3497
I1
sS'YBR251W'
p3498
I7
sS'YKL041W'
p3499
I2
sS'YIL113W'
p3500
I1
sS'YMR099C'
p3501
I22
sS'YIR008C'
p3502
I4
sS'YLR240W'
p3503
I2
sS'YGR093W'
p3504
I2
sS'YOL077C'
p3505
I17
sS'YIL040W'
p3506
I7
sS'YDR471W'
p3507
I125
sS'YGR135W'
p3508
I17
sS'YPL217C'
p3509
I8
sS'YKL144C'
p3510
I2
sS'YDL234C'
p3511
I1
sS'YHR003C'
p3512
I4
sS'YAL051W'
p3513
I3
sS'YDR036C'
p3514
I3
sS'YOR221C'
p3515
I3
sS'YAL019W'
p3516
I10
sS'YNL218W'
p3517
I1
sS'YLR449W'
p3518
I12
sS'YNL136W'
p3519
I2
sS'YKL049C'
p3520
I3
sS'YDR293C'
p3521
I13
sS'YBR155W'
p3522
I5
sS'YBL002W'
p3523
I61
sS'YNR038W'
p3524
I7
sS'YMR094W'
p3525
I4
sS'YNL080C'
p3526
I5
sS'YDR376W'
p3527
I5
sS'YCL029C'
p3528
I6
sS'YLR195C'
p3529
I4
sS'YHR152W'
p3530
I9
sS'YBR188C'
p3531
I2
sS'YMR197C'
p3532
I4
sS'YNR063W'
p3533
I2
sS'YOL067C'
p3534
I5
sS'YLR239C'
p3535
I3
sS'YGR028W'
p3536
I3
sS'YAL017W'
p3537
I7
sS'YJR024C'
p3538
I13
sS'YFL038C'
p3539
I43
sS'YBR242W'
p3540
I3
sS'YLR083C'
p3541
I14
sS'YNL029C'
p3542
I1
sS'YBR142W'
p3543
I3
sS'YOR231W'
p3544
I2
sS'YNR013C'
p3545
I5
sS'YHR166C'
p3546
I2
sS'YGR175C'
p3547
I29
sS'YJR131W'
p3548
I6
sS'YIR017C'
p3549
I3
sS'YDR338C'
p3550
I2
sS'YIL128W'
p3551
I5
sS'YNL127W'
p3552
I2
sS'YBR108W'
p3553
I4
sS'YJR137C'
p3554
I8
sS'YNR012W'
p3555
I6
sS'YGL097W'
p3556
I7
sS'YHR073W'
p3557
I6
sS'YJL151C'
p3558
I12
sS'YIL010W'
p3559
I7
sS'YKL087C'
p3560
I2
sS'YNL076W'
p3561
I6
sS'YDR367W'
p3562
I5
sS'YHR072W'
p3563
I4
sS'YGR168C'
p3564
I2
sS'YBR173C'
p3565
I11
sS'YIL064W'
p3566
I7
sS'YOR261C'
p3567
I14
sS'YHR045W'
p3568
I3
sS'YHR021C'
p3569
I189
sS'YPL163C'
p3570
I8
sS'YGL253W'
p3571
I103
sS'YLR363WA'
p3572
I6
sS'YHL032C'
p3573
I6
sS'YJL010C'
p3574
I6
sS'YIL088C'
p3575
I3
sS'YGL162W'
p3576
I1
sS'YCR028CA'
p3577
I19
sS'YMR183C'
p3578
I6
sS'YOL059W'
p3579
I14
sS'YDR414C'
p3580
I2
sS'YLR138W'
p3581
I5
sS'YOR337W'
p3582
I4
sS'YMR010W'
p3583
I7
sS'YKL219W'
p3584
I1
sS'YML101C'
p3585
I11
sS'YHR118C'
p3586
I2
sS'YPR094W'
p3587
I5
sS'YNL081C'
p3588
I8
sS'YGL059W'
p3589
I3
sS'YMR074C'
p3590
I11
sS'YGL075C'
p3591
I2
sS'YKR092C'
p3592
I15
sS'YPL253C'
p3593
I2
sS'YBL020W'
p3594
I3
sS'YGR203W'
p3595
I3
sS'YHL003C'
p3596
I8
sS'YER154W'
p3597
I6
sS'YDR422C'
p3598
I5
sS'YEL036C'
p3599
I5
sS'YBR260C'
p3600
I8
sS'YHR010W'
p3601
I246
sS'YDR400W'
p3602
I3
sS'YJR104C'
p3603
I109
sS'YLL048C'
p3604
I10
sS'YFR043C'
p3605
I2
sS'YAL042W'
p3606
I16
sS'YGL041WA'
p3607
I4
sS'YAL035W'
p3608
I24
sS'YOL041C'
p3609
I5
sS'YGR153W'
p3610
I2
sS'YFR038W'
p3611
I1
sS'YBR235W'
p3612
I2
sS'YDR001C'
p3613
I6
sS'YIL162W'
p3614
I7
sS'YNR061C'
p3615
I14
sS'YGR080W'
p3616
I2
sS'YOL109W'
p3617
I183
sS'YBL011W'
p3618
I5
sS'YOR043W'
p3619
I8
sS'YBR195C'
p3620
I3
sS'YDR183W'
p3621
I1
sS'YGL222C'
p3622
I2
sS'YDR138W'
p3623
I2
sS'YGR122W'
p3624
I2
sS'YOR317W'
p3625
I6
sS'YOR091W'
p3626
I14
sS'YGR033C'
p3627
I3
sS'YAL022C'
p3628
I5
sS'YJR144W'
p3629
I8
sS'YMR315W'
p3630
I17
sS'YLR328W'
p3631
I8
sS'YBR228W'
p3632
I3
sS'YGL153W'
p3633
I4
sS'YJR039W'
p3634
I1
sS'YGR046W'
p3635
I3
sS'YPR068C'
p3636
I1
sS'YDR384C'
p3637
I8
sS'YLR039C'
p3638
I6
sS'YML007W'
p3639
I3
sS'YOR305W'
p3640
I3
sS'YER063W'
p3641
I10
sS'YDR481C'
p3642
I14
sS'YER014W'
p3643
I3
sS'YMR171C'
p3644
I6
sS'YGL057C'
p3645
I3
sS'YER172C'
p3646
I2
sS'YNL192W'
p3647
I7
sS'YNL180C'
p3648
I4
sS'YCR042C'
p3649
I4
sS'YNL213C'
p3650
I3
sS'YCR035C'
p3651
I6
sS'YOR244W'
p3652
I4
sS'YPL134C'
p3653
I3
sS'YDL046W'
p3654
I13
sS'YDR503C'
p3655
I1
sS'YGL037C'
p3656
I25
sS'YBR058C'
p3657
I5
sS'YPL244C'
p3658
I3
sS'YDR492W'
p3659
I4
sS'YLR024C'
p3660
I2
sS'YLR071C'
p3661
I4
sS'YGR240C'
p3662
I61
sS'YPL228W'
p3663
I5
sS'YEL058W'
p3664
I7
sS'YMR259C'
p3665
I6
sS'YKL024C'
p3666
I20
sS'YMR148W'
p3667
I1
sS'YBR061C'
p3668
I5
sS'YHL007C'
p3669
I3
sS'YOR145C'
p3670
I10
sS'YLR399C'
p3671
I15
sS'YPR025C'
p3672
I3
sS'YBR087W'
p3673
I2
sS'YLR006C'
p3674
I3
sS'YDR330W'
p3675
I2
sS'YER149C'
p3676
I4
sS'YBL037W'
p3677
I5
sS'YER114C'
p3678
I5
sS'YOR375C'
p3679
I33
sS'YPR190C'
p3680
I5
sS'YLR075W'
p3681
I410
sS'YOR306C'
p3682
I4
sS'YHR107C'
p3683
I11
sS'YAR002W'
p3684
I7
sS'YHR127W'
p3685
I5
sS'YOR153W'
p3686
I92
sS'YGL175C'
p3687
I2
sS'YMR237W'
p3688
I6
sS'YDL048C'
p3689
I1
sS'YDL064W'
p3690
I10
sS'YDL031W'
p3691
I4
sS'YMR257C'
p3692
I3
sS'YDR026C'
p3693
I2
sS'YMR272C'
p3694
I3
sS'YLR066W'
p3695
I9
sS'YBR047W'
p3696
I1
sS'YDR046C'
p3697
I7
sS'YEL029C'
p3698
I5
sS'YMR228W'
p3699
I4
sS'YMR125W'
p3700
I6
sS'YOR202W'
p3701
I9
sS'YOL128C'
p3702
I2
sS'YGL245W'
p3703
I57
sS'YNL273W'
p3704
I6
sS'YCR051W'
p3705
I14
sS'YER070W'
p3706
I19
sS'YPL219W'
p3707
I1
sS'YPL262W'
p3708
I15
sS'YGR006W'
p3709
I1
sS'YMR002W'
p3710
I26
sS'YGR079W'
p3711
I3
sS'YDL119C'
p3712
I2
sS'YDR160W'
p3713
I1
sS'YPL020C'
p3714
I2
sS'YKR057W'
p3715
I128
sS'YER045C'
p3716
I1
sS'YKL039W'
p3717
I10
sS'YGL198W'
p3718
I5
sS'YNL040W'
p3719
I2
sS'YGR222W'
p3720
I4
sS'YDL086W'
p3721
I6
sS'YOL092W'
p3722
I13
sS'YLR422W'
p3723
I6
sS'YPR115W'
p3724
I3
sS'YLR093C'
p3725
I5
sS'YMR044W'
p3726
I2
sS'YDR073W'
p3727
I4
sS'YJR065C'
p3728
I16
sS'YNL042W'
p3729
I1
sS'YJR030C'
p3730
I6
sS'YNL063W'
p3731
I2
sS'YKR093W'
p3732
I12
sS'YNL308C'
p3733
I8
sS'YGR216C'
p3734
I2
sS'YOL064C'
p3735
I14
sS'YOR022C'
p3736
I2
sS'YOR198C'
p3737
I26
sS'YJL001W'
p3738
I13
sS'YHR058C'
p3739
I3
sS'YDR239C'
p3740
I4
sS'YJR049C'
p3741
I6
sS'YOR292C'
p3742
I2
sS'YGL010W'
p3743
I2
sS'YML069W'
p3744
I10
sS'YKR019C'
p3745
I4
sS'YOR324C'
p3746
I5
sS'YMR026C'
p3747
I6
sS'YHR085W'
p3748
I2
sS'YGR279C'
p3749
I46
sS'YOR172W'
p3750
I2
sS'YML114C'
p3751
I3
sS'YDR064W'
p3752
I321
sS'YMR275C'
p3753
I1
sS'YBL056W'
p3754
I12
sS'YLR324W'
p3755
I3
sS'YER052C'
p3756
I9
sS'YLR427W'
p3757
I1
sS'YNL260C'
p3758
I3
sS'YLL015W'
p3759
I10
sS'YER048WA'
p3760
I8
sS'YPL061W'
p3761
I120
sS'YKR007W'
p3762
I6
sS'YMR089C'
p3763
I12
sS'YER003C'
p3764
I19
sS'YER103W'
p3765
I2
sS'YPL115C'
p3766
I3
sS'YGR172C'
p3767
I6
sS'YDR173C'
p3768
I3
sS'YGL254W'
p3769
I3
sS'YCL057W'
p3770
I12
sS'YJL025W'
p3771
I5
sS'YLR413W'
p3772
I19
sS'YBR072W'
p3773
I5
sS'YBR005W'
p3774
I1
sS'YDL120W'
p3775
I1
sS'YMR262W'
p3776
I6
sS'YDR273W'
p3777
I1
sS'YJL165C'
p3778
I4
sS'YGR231C'
p3779
I14
sS'YEL063C'
p3780
I8
sS'YBL076C'
p3781
I48
sS'YMR113W'
p3782
I4
sS'YPR097W'
p3783
I5
sS'YGL134W'
p3784
I2
sS'YDR326C'
p3785
I4
sS'YLR128W'
p3786
I1
sS'YKR068C'
p3787
I6
sS'YOR099W'
p3788
I16
sS'YLR387C'
p3789
I4
sS'YGL021W'
p3790
I2
sS'YPR032W'
p3791
I5
sS'YDL173W'
p3792
I4
sS'YBR143C'
p3793
I38
sS'YDR086C'
p3794
I53
sS'YMR006C'
p3795
I7
sS'YOR346W'
p3796
I3
sS'YJR130C'
p3797
I2
sS'YML023C'
p3798
I1
sS'YAL016W'
p3799
I5
sS'YFL039C'
p3800
I170
sS'YPR112C'
p3801
I10
sS'YJL134W'
p3802
I6
sS'YJL161W'
p3803
I1
sS'YDR449C'
p3804
I8
sS'YIL097W'
p3805
I3
sS'YCL049C'
p3806
I1
sS'YNR039C'
p3807
I2
sS'YLR367W'
p3808
I55
sS'YHR001WA'
p3809
I7
sS'YPL131W'
p3810
I319
sS'YLR183C'
p3811
I4
sS'YKL186C'
p3812
I5
sS'YPL064C'
p3813
I5
sS'YOR127W'
p3814
I2
sS'YNL077W'
p3815
I3
sS'YNL326C'
p3816
I3
sS'YMR311C'
p3817
I8
sS'YBR109C'
p3818
I32
sS'YBR172C'
p3819
I5
sS'YDR346C'
p3820
I16
sS'YJL172W'
p3821
I13
sS'YDR151C'
p3822
I4
sS'YBL078C'
p3823
I4
sS'YHR083W'
p3824
I11
sS'YNL222W'
p3825
I6
sS'YGR095C'
p3826
I4
sS'YMR163C'
p3827
I2
sS'YPL086C'
p3828
I4
sS'YPR010CA'
p3829
I3
sS'YFR039C'
p3830
I3
sS'YKR042W'
p3831
I64
sS'YKL160W'
p3832
I16
sS'YPL092W'
p3833
I4
sS'YER007CA'
p3834
I12
sS'YPL029W'
p3835
I3
sS'YHR146W'
p3836
I9
sS'YDL091C'
p3837
I1
sS'YDL142C'
p3838
I2
sS'YJL088W'
p3839
I1
sS'YMR066W'
p3840
I1
sS'YHR198C'
p3841
I5
sS'YJR001W'
p3842
I5
sS'YGL196W'
p3843
I6
sS'YKL126W'
p3844
I7
sS'YJL129C'
p3845
I4
sS'YLR209C'
p3846
I4
sS'YHR158C'
p3847
I5
sS'YJL209W'
p3848
I2
sS'YDR264C'
p3849
I12
sS'YDR306C'
p3850
I3
sS'YKL064W'
p3851
I2
sS'YLR265C'
p3852
I4
sS'YKR022C'
p3853
I5
sS'YNL035C'
p3854
I3
sS'YLR287C'
p3855
I5
sS'YPL174C'
p3856
I1
sS'YOL052CA'
p3857
I2
sS'YJL074C'
p3858
I2
sS'YLR370C'
p3859
I8
sS'YNL177C'
p3860
I6
sS'YKL162C'
p3861
I3
sS'YOR114W'
p3862
I1
sS'YDR454C'
p3863
I25
sS'YIL009W'
p3864
I5
sS'YLR250W'
p3865
I10
sS'YAL034C'
p3866
I2
sS'YKL122C'
p3867
I10
sS'YHR011W'
p3868
I2
sS'YAL043C'
p3869
I3
sS'YOL093W'
p3870
I4
sS'YIL078W'
p3871
I50
sS'YOL042W'
p3872
I2
sS'YPL004C'
p3873
I16
sS'YBL058W'
p3874
I11
sS'YBR236C'
p3875
I6
sS'YPL125W'
p3876
I8
sS'YBR189W'
p3877
I272
sS'YCL037C'
p3878
I17
sS'YHL020C'
p3879
I7
sS'YGR081C'
p3880
I6
sS'YDR289C'
p3881
I5
sS'YOR054C'
p3882
I2
sS'YFR042W'
p3883
I4
sS'YLR305C'
p3884
I3
sS'YOR063W'
p3885
I447
sS'YOL140W'
p3886
I4
sS'YGL223C'
p3887
I3
sS'YOR036W'
p3888
I3
sS'YBL016W'
p3889
I4
sS'YML131W'
p3890
I2
sS'YGR032W'
p3891
I1
sS'YML003W'
p3892
I1
sS'YGL150C'
p3893
I3
sS'YLR170C'
p3894
I3
sS'YGR125W'
p3895
I5
sS'YNL292W'
p3896
I2
sS'YCR019W'
p3897
I3
sS'YBR194W'
p3898
I2
sS'YDR423C'
p3899
I4
sS'YOR354C'
p3900
I5
sS'YOL108C'
p3901
I2
sS'YJL092W'
p3902
I2
sS'YIL039W'
p3903
I8
sS'YMR316W'
p3904
I2
sS'YAL023C'
p3905
I14
sS'YNR009W'
p3906
I5
sS'YGR132C'
p3907
I10
sS'YIL138C'
p3908
I13
sS'YDR109C'
p3909
I6
sS'YJR127C'
p3910
I5
sS'YIL143C'
p3911
I7
sS'YGR092W'
p3912
I4
sS'YBR256C'
p3913
I7
sS'YKL002W'
p3914
I6
sS'YDR328C'
p3915
I19
sS'YLR247C'
p3916
I3
sS'YJR090C'
p3917
I3
sS'YDL235C'
p3918
I9
sS'YOR057W'
p3919
I8
sS'YIR009W'
p3920
I2
sS'YGL081W'
p3921
I2
sS'YLR345W'
p3922
I4
sS'YKL073W'
p3923
I8
sS'YGR103W'
p3924
I18
sS'YNL130C'
p3925
I15
sS'YPL118W'
p3926
I7
sS'YHR151C'
p3927
I4
sS'YDR311W'
p3928
I4
sS'YHR002W'
p3929
I2
sS'YDR472W'
p3930
I3
sS'YGR057C'
p3931
I4
sS'YLR197W'
p3932
I40
sS'YNL100W'
p3933
I1
sS'YLR078C'
p3934
I6
sS'YBR154C'
p3935
I11
sS'YBR216C'
p3936
I4
sS'YNL245C'
p3937
I1
sS'YGL143C'
p3938
I4
sS'YLR001C'
p3939
I2
sS'YLR126C'
p3940
I5
sS'YMR318C'
p3941
I20
sS'YGR181W'
p3942
I17
sS'YBR062C'
p3943
I5
sS'YHR108W'
p3944
I9
sS'YOR349W'
p3945
I1
sS'YDL067C'
p3946
I8
sS'YGL176C'
p3947
I1
sS'YBR086C'
p3948
I10
sS'YDR135C'
p3949
I11
sS'YAR003W'
p3950
I2
sS'YBL030C'
p3951
I35
sS'YMR256C'
p3952
I12
sS'YPL229W'
p3953
I2
sS'YMR236W'
p3954
I8
sS'YNL304W'
p3955
I1
sS'YER148W'
p3956
I7
sS'YGL242C'
p3957
I12
sS'YHL015W'
p3958
I283
sS'YOL011W'
p3959
I2
sS'YIL087C'
p3960
I2
sS'YOR195W'
p3961
I2
sS'YLL054C'
p3962
I2
sS'YLR443W'
p3963
I1
sS'YLL013C'
p3964
I7
sS'YPR127W'
p3965
I5
sS'YNR024W'
p3966
I2
sS'YMR192W'
p3967
I5
sS'YGR078C'
p3968
I10
sS'YOR104W'
p3969
I3
sS'YML074C'
p3970
I17
sS'YOR141C'
p3971
I8
sS'YER073W'
p3972
I19
sS'YMR229C'
p3973
I28
sS'YLL038C'
p3974
I4
sS'YBR046C'
p3975
I4
sS'YOL124C'
p3976
I8
sS'YDR013W'
p3977
I1
sS'YPR125W'
p3978
I2
sS'YNR040W'
p3979
I1
sS'YOR086C'
p3980
I12
sS'YIL067C'
p3981
I3
sS'YNL051W'
p3982
I2
sS'YMR201C'
p3983
I2
sS'YOR270C'
p3984
I23
sS'YHR020W'
p3985
I38
sS'YIL009CA'
p3986
I2
sS'YGL252C'
p3987
I4
sS'YOL033W'
p3988
I4
sS'YBR201W'
p3989
I4
sS'YBR238C'
p3990
I5
sS'YDR415C'
p3991
I3
sS'YGL161C'
p3992
I11
sS'YPR051W'
p3993
I4
sS'YIR026C'
p3994
I3
sS'YER155C'
p3995
I11
sS'YBR037C'
p3996
I3
sS'YKL047W'
p3997
I1
sS'YGL058W'
p3998
I9
sS'YHL002W'
p3999
I3
sS'YPR009W'
p4000
I6
sS'YNL263C'
p4001
I9
sS'YML027W'
p4002
I3
sS'YKR099W'
p4003
I1
sS'YLR033W'
p4004
I5
sS'YPL001W'
p4005
I3
sS'YDR128W'
p4006
I4
sS'YMR274C'
p4007
I1
sS'YER051W'
p4008
I4
sS'YER004W'
p4009
I7
sS'YGL119W'
p4010
I1
sS'YER028C'
p4011
I1
sS'YMR052W'
p4012
I1
sS'YCR072C'
p4013
I3
sS'YKR016W'
p4014
I4
sS'YMR158W'
p4015
I5
sS'YLR114C'
p4016
I4
sS'YMR203W'
p4017
I13
sS'YLL036C'
p4018
I6
sS'YCR023C'
p4019
I3
sS'YDR519W'
p4020
I8
sS'YGR278W'
p4021
I2
sS'YDL029W'
p4022
I24
sS'YKR076W'
p4023
I3
sS'YKL141W'
p4024
I8
sS'YBL057C'
p4025
I4
sS'YBR073W'
p4026
I4
sS'YLR034C'
p4027
I5
sS'YMR122WA'
p4028
I65
sS'YER019W'
p4029
I9
sS'YBR028C'
p4030
I4
sS'YEL064C'
p4031
I1
sS'YMR263W'
p4032
I4
sS'YDR270W'
p4033
I1
sS'YPR103W'
p4034
I21
sS'YOR215C'
p4035
I2
sS'YKR069W'
p4036
I3
sS'YDR172W'
p4037
I24
sS'YDL121C'
p4038
I5
sS'YMR299C'
p4039
I1
sS'YBR078W'
p4040
I82
sS'YDR464W'
p4041
I4
sS'YLR129W'
p4042
I8
sS'YGR230W'
p4043
I5
sS'YPR199C'
p4044
I6
sS'YPR120C'
p4045
I4
sS'YPR062W'
p4046
I16
sS'YBL041W'
p4047
I17
sS'YMR097C'
p4048
I1
sS'YDR528W'
p4049
I5
sS'YDL058W'
p4050
I10
sS'YER173W'
p4051
I2
sS'YLR150W'
p4052
I183
sS'YBR026C'
p4053
I3
sS'YMR172W'
p4054
I2
sS'YNL214W'
p4055
I4
sS'YCR034W'
p4056
I24
sS'YER060W'
p4057
I2
sS'YBR091C'
p4058
I6
sS'YPR180W'
p4059
I1
sS'YEL013W'
p4060
I10
sS'YDL007W'
p4061
I17
sS'YPR083W'
p4062
I1
sS'YMR244CA'
p4063
I5
sS'YGL056C'
p4064
I4
sS'YOR280C'
p4065
I6
sS'YDR480W'
p4066
I3
sS'YML004C'
p4067
I10
sS'YCR043C'
p4068
I12
sS'YOR289W'
p4069
I1
sS'YPL227C'
p4070
I10
sS'YDL010W'
p4071
I4
sS'YMR024W'
p4072
I3
sS'YDR461CA'
p4073
I4
sS'YBR059C'
p4074
I7
sS'YML019W'
p4075
I4
sS'YJL146W'
p4076
I4
sS'YDR493W'
p4077
I6
sS'YDL045C'
p4078
I2
sS'YGR241C'
p4079
I2
sS'YGL036W'
p4080
I3
sS'YPL247C'
p4081
I3
sS'YBR071W'
p4082
I4
sS'YJL207C'
p4083
I4
sS'YDL198C'
p4084
I4
sS'YDR103W'
p4085
I4
sS'YLR072W'
p4086
I2
sS'YKL167C'
p4087
I3
sS'YPL159C'
p4088
I3
sS'YOR181W'
p4089
I2
sS'YGR212W'
p4090
I2
sS'YOR125C'
p4091
I7
sS'YBL095W'
p4092
I3
sS'YDL092W'
p4093
I8
sS'YKR043C'
p4094
I18
sS'YPL084W'
p4095
I5
sS'YLR166C'
p4096
I3
sS'YMR067C'
p4097
I4
sS'YJL011C'
p4098
I4
sS'YDL143W'
p4099
I17
sS'YKL138C'
p4100
I8
sS'YBL079W'
p4101
I5
sS'YNL056W'
p4102
I5
sS'YPL093W'
p4103
I21
sS'YDR347W'
p4104
I4
sS'YFL001W'
p4105
I3
sS'YKL025C'
p4106
I2
sS'YER086W'
p4107
I17
sS'YGL197W'
p4108
I7
sS'YDR207C'
p4109
I2
sS'YKL125W'
p4110
I4
sS'YLR264W'
p4111
I103
sS'YKL170W'
p4112
I1
sS'YKR023W'
p4113
I1
sS'YNL036W'
p4114
I10
sS'YOR115C'
p4115
I6
sS'YKL038W'
p4116
I3
sS'YPR157W'
p4117
I2
sS'YJR025C'
p4118
I12
sS'YLR208W'
p4119
I9
sS'YDR267C'
p4120
I1
sS'YLR286C'
p4121
I48
sS'YNL016W'
p4122
I33
sS'YDR496C'
p4123
I8
sS'YLR384C'
p4124
I14
sS'YDR307W'
p4125
I3
sS'YOR304CA'
p4126
I4
sS'YPR019W'
p4127
I4
sS'YML099C'
p4128
I2
sS'YOR162C'
p4129
I1
sS'YLR421C'
p4130
I10
sS'YMR145C'
p4131
I14
sS'YDR161W'
p4132
I12
sS'YLR090W'
p4133
I6
sS'YBR102C'
p4134
I3
sS'YAR002CA'
p4135
I16
sS'YJR064W'
p4136
I28
sS'YGL128C'
p4137
I1
sS'YPR036WA'
p4138
I25
sS'YOR285W'
p4139
I28
sS'YJL002C'
p4140
I21
sS'YML022W'
p4141
I27
sS'YCR065W'
p4142
I4
sS'YNL159C'
p4143
I4
sS'YER046W'
p4144
I3
sS'YJR031C'
p4145
I5
sS'YPR159W'
p4146
I10
sS'YGR223C'
p4147
I2
sS'YDR074W'
p4148
I7
sS'YPR143W'
p4149
I7
sS'YKR050W'
p4150
I1
sS'YHR059W'
p4151
I7
sS'YPR075C'
p4152
I8
sS'YBR013C'
p4153
I4
sS'YPL183WA'
p4154
I7
sS'YMR087W'
p4155
I3
sS'YML053C'
p4156
I2
sS'YIL146C'
p4157
I2
sS'YFL049W'
p4158
I2
sS'YKR018C'
p4159
I6
sS'YNL309W'
p4160
I1
sS'YER099C'
p4161
I7
sS'YDL150W'
p4162
I4
sS'YJR048W'
p4163
I7
sS'YHR186C'
p4164
I2
sS'YHR084W'
p4165
I7
sS'YNL038W'
p4166
I5
sS'YKL003C'
p4167
I9
sS'YAL053W'
p4168
I8
sS'YNL149C'
p4169
I18
sS'YGL095C'
p4170
I4
sS'YBR257W'
p4171
I2
sS'YJR132W'
p4172
I6
sS'YCR024CA'
p4173
I169
sS'YIL139C'
p4174
I4
sS'YCR024CB'
p4175
I68
sS'YJR119C'
p4176
I1
sS'YOR205C'
p4177
I1
sS'YDL216C'
p4178
I3
sS'YIL079C'
p4179
I3
sS'YHR069C'
p4180
I6
sS'YDR329C'
p4181
I2
sS'YGR142W'
p4182
I3
sS'YFR025C'
p4183
I8
sS'YHR065C'
p4184
I6
sS'YOR017W'
p4185
I5
sS'YMR199W'
p4186
I3
sS'YBR137W'
p4187
I4
sS'YDR473C'
p4188
I2
sS'YKL192C'
p4189
I17
sS'YGL082W'
p4190
I4
sS'YDR310C'
p4191
I10
sS'YPL146C'
p4192
I3
sS'YKL072W'
p4193
I3
sS'YPL139C'
p4194
I3
sS'YBR217W'
p4195
I3
sS'YGR178C'
p4196
I7
sS'YPR098C'
p4197
I4
sS'YNL001W'
p4198
I8
sS'YDL236W'
p4199
I10
sS'YJL080C'
p4200
I28
sS'YIL046W'
p4201
I2
sS'YGR174C'
p4202
I3
sS'YGL142C'
p4203
I3
sS'YFR009W'
p4204
I13
sS'YKR096W'
p4205
I3
sS'YGR179C'
p4206
I6
sS'YGR102C'
p4207
I7
sS'YDR081C'
p4208
I3
sS'YJL137C'
p4209
I2
sS'YCL009C'
p4210
I31
sS'YKL065C'
p4211
I10
sS'YBR139W'
p4212
I7
sS'YBR233WA'
p4213
I7
sS'YBR115C'
p4214
I13
sS'YBR140C'
p4215
I3
sS'YDR448W'
p4216
I5
sS'YOR097C'
p4217
I5
sS'YJR111C'
p4218
I2
sS'YJR046W'
p4219
I10
sS'YHR188C'
p4220
I11
sS'YDL005C'
p4221
I5
sS'YFL023W'
p4222
I1
sS'YLR360W'
p4223
I2
sS'YHR164C'
p4224
I3
sS'YKL081W'
p4225
I120
sS'YDR092W'
p4226
I8
sS'YNL139C'
p4227
I6
sS'YPL108W'
p4228
I4
sS'YDR361C'
p4229
I4
sS'YPL164C'
p4230
I1
sS'YBR171W'
p4231
I5
sS'YNL005C'
p4232
I2
sS'YNL088W'
p4233
I8
sS'YJL157C'
p4234
I4
sS'YHR206W'
p4235
I3
sS'YKL181W'
p4236
I21
sS'YOL032W'
p4237
I2
sS'YML063W'
p4238
I261
sS'YGR271CA'
p4239
I5
sS'YHR027C'
p4240
I18
sS'YPR139C'
p4241
I6
sS'YGL255W'
p4242
I2
sS'YFR007W'
p4243
I1
sS'YJL180C'
p4244
I3
sS'YKR090W'
p4245
I6
sS'YLR333C'
p4246
I139
sS'YNL026W'
p4247
I4
sS'YOL075C'
p4248
I7
sS'YHL030W'
p4249
I11
sS'YBR200W'
p4250
I4
sS'YNL262W'
p4251
I5
sS'YAR028W'
p4252
I5
sS'YBR239C'
p4253
I2
sS'YML107C'
p4254
I3
sS'YNL092W'
p4255
I1
sS'YGL077C'
p4256
I8
sS'YPL204W'
p4257
I6
sS'YNL133C'
p4258
I1
sS'YKR098C'
p4259
I3
sS'YOL069W'
p4260
I2
sS'YKL184W'
p4261
I7
sS'YDR412W'
p4262
I6
sS'YDR129C'
p4263
I16
sS'YOR352W'
p4264
I3
sS'YLR359W'
p4265
I19
sS'YNL138WA'
p4266
I2
sS'YKR101W'
p4267
I1
sS'YGR026W'
p4268
I8
sS'YNL129W'
p4269
I6
sS'YML125C'
p4270
I18
sS'YAL040C'
p4271
I2
sS'YLR251W'
p4272
I2
sS'YDR288W'
p4273
I3
sS'YBR157C'
p4274
I6
sS'YCL036W'
p4275
I3
sS'YFR041C'
p4276
I2
sS'YIL050W'
p4277
I3
sS'YOR355W'
p4278
I12
sS'YGR086C'
p4279
I42
sS'YPL111W'
p4280
I11
sS'YOR077W'
p4281
I2
sS'YOL143C'
p4282
I24
sS'YIL006W'
p4283
I1
sS'YOL043C'
p4284
I2
sS'YNL233W'
p4285
I3
sS'YBR237W'
p4286
I3
sS'YHL023C'
p4287
I2
sS'YGL151W'
p4288
I5
sS'YBR197C'
p4289
I4
sS'YCL057CA'
p4290
I11
sS'YGR075C'
p4291
I1
sS'YJR091C'
p4292
I6
sS'YGR031W'
p4293
I1
sS'YJL204C'
p4294
I1
sS'YOL020W'
p4295
I4
sS'YBR271W'
p4296
I1
sS'YDR003W'
p4297
I4
sS'YBL017C'
p4298
I11
sS'YNL244C'
p4299
I53
sS'YNR027W'
p4300
I3
sS'YAL024C'
p4301
I2
sS'YPL150W'
p4302
I4
sS'YJR142W'
p4303
I4
sS'YER115C'
p4304
I6
sS'YJL197W'
p4305
I4
sS'YER158C'
p4306
I2
sS'YPL199C'
p4307
I6
sS'YGL055W'
p4308
I17
sS'YPL071C'
p4309
I1
sS'YCL008C'
p4310
I6
sS'YOR245C'
p4311
I3
sS'YOL141W'
p4312
I1
sS'YML005W'
p4313
I1
sS'YNL215W'
p4314
I4
sS'YDR529C'
p4315
I12
sS'YGR044C'
p4316
I7
sS'YDL059C'
p4317
I1
sS'YOR204W'
p4318
I47
sS'YEL012W'
p4319
I3
sS'YBL040C'
p4320
I7
sS'YER123W'
p4321
I2
sS'YJL012C'
p4322
I38
sS'YPR043W'
p4323
I274
sS'YDR382W'
p4324
I270
sS'YDR524CB'
p4325
I266
sS'YDR483W'
p4326
I18
sS'YLL008W'
p4327
I5
sS'YOR219C'
p4328
I4
sS'YDR505C'
p4329
I6
sS'YKL206C'
p4330
I5
sS'YER061C'
p4331
I1
sS'YLR135W'
p4332
I1
sS'YMR300C'
p4333
I13
sS'YLR022C'
p4334
I1
sS'YGR068C'
p4335
I3
sS'YPL246C'
p4336
I11
sS'YOR246C'
p4337
I5
sS'YPL226W'
p4338
I12
sS'YLR073C'
p4339
I3
sS'YGL039W'
p4340
I7
sS'YNR004W'
p4341
I1
sS'YER183C'
p4342
I7
sS'YML018C'
p4343
I4
sS'YDL044C'
p4344
I5
sS'YHR090C'
p4345
I3
sS'YDL066W'
p4346
I35
sS'YER112W'
p4347
I5
sS'YMR319C'
p4348
I3
sS'YBR295W'
p4349
I3
sS'YBR085W'
p4350
I3
sS'YHR109W'
p4351
I3
sS'YBL031W'
p4352
I3
sS'YIL011W'
p4353
I2
sS'YEL034W'
p4354
I232
sS'YOR039W'
p4355
I13
sS'YNR050C'
p4356
I10
sS'YKR100C'
p4357
I9
sS'YKL208W'
p4358
I1
sS'YJL079C'
p4359
I2
sS'YCL017C'
p4360
I7
sS'YBR023C'
p4361
I7
sS'YOR237W'
p4362
I1
sS'YPL260W'
p4363
I6
sS'YGR004W'
p4364
I3
sS'YML110C'
p4365
I12
sS'YNR016C'
p4366
I39
sS'YOR362C'
p4367
I11
sS'YKR095WA'
p4368
I7
sS'YOL010W'
p4369
I2
sS'YLR064W'
p4370
I7
sS'YLR419W'
p4371
I5
sS'YGL048C'
p4372
I17
sS'YOR083W'
p4373
I1
sS'YOR228C'
p4374
I2
sS'YGL243W'
p4375
I2
sS'YCR053W'
p4376
I30
sS'YLL055W'
p4377
I2
sS'YER072W'
p4378
I91
sS'YPR105C'
p4379
I7
sS'YKL106W'
p4380
I3
sS'YOR272W'
p4381
I11
sS'YGL019W'
p4382
I8
sS'YLR091W'
p4383
I3
sS'YNL330C'
p4384
I7
sS'YER047C'
p4385
I2
sS'YOR138C'
p4386
I1
sS'YPR029C'
p4387
I8
sS'YMR144W'
p4388
I4
sS'YCR066W'
p4389
I2
sS'YML098W'
p4390
I3
sS'YJL034W'
p4391
I40
sS'YLR420W'
p4392
I4
sS'YCR088W'
p4393
I18
sS'YOR252W'
p4394
I5
sS'YDR208W'
p4395
I3
sS'YJL058C'
p4396
I2
sS'YDR075W'
p4397
I1
sS'YHR087W'
p4398
I8
sS'YFL048C'
p4399
I6
sS'YLR117C'
p4400
I3
sS'YGR220C'
p4401
I11
sS'YBR014C'
p4402
I6
sS'YML052W'
p4403
I13
sS'YDL153C'
p4404
I4
sS'YLR299W'
p4405
I2
sS'YOR176W'
p4406
I9
sS'YHR187W'
p4407
I3
sS'YDL108W'
p4408
I4
sS'YNL172W'
p4409
I1
sS'YGR275W'
p4410
I10
sS'YMR071C'
p4411
I5
sS'YIR033W'
p4412
I8
sS'YNL254C'
p4413
I3
sS'YBL089W'
p4414
I3
sS'YDL084W'
p4415
I58
sS'YGL016W'
p4416
I6
sS'YOR209C'
p4417
I19
sS'YPL059W'
p4418
I14
sS'YMR120C'
p4419
I17
sS'YLL022C'
p4420
I4
sS'YOR143C'
p4421
I4
sS'YER029C'
p4422
I5
sS'YCL055W'
p4423
I4
sS'YLR411W'
p4424
I2
sS'YDR490C'
p4425
I2
sS'YER005W'
p4426
I4
sS'YER105C'
p4427
I3
sS'YKR075C'
p4428
I3
sS'YHR032W'
p4429
I7
sS'YPL034W'
p4430
I3
sS'YBL054W'
p4431
I4
sS'YDL028C'
p4432
I3
sS'YCR024C'
p4433
I1
sS'YER050C'
p4434
I9
sS'YCR008W'
p4435
I7
sS'YBL104C'
p4436
I2
sS'YKL165C'
p4437
I5
sS'YCR071C'
p4438
I2
sS'YLR009W'
p4439
I12
sS'YDR518W'
p4440
I4
sS'YLR119W'
p4441
I3
sS'YDR175C'
p4442
I5
sS'YLR082C'
p4443
I2
sS'YOR341W'
p4444
I23
sS'YJL062WA'
p4445
I11
sS'YOR189W'
p4446
I5
sS'YLR035C'
p4447
I1
sS'YOR154W'
p4448
I2
sS'YOR213C'
p4449
I1
sS'YDL122W'
p4450
I8
sS'YMR264W'
p4451
I11
sS'YGL136C'
p4452
I3
sS'YBR070C'
p4453
I4
sS'YLR065C'
p4454
I8
sS'YPR061C'
p4455
I2
sS'YIR035C'
p4456
I4
sS'YGR268C'
p4457
I5
sS'YGR007W'
p4458
I8
sS'YNL315C'
p4459
I5
sS'YER018C'
p4460
I5
sS'YOR299W'
p4461
I2
sS'YEL065W'
p4462
I14
sS'YJR045C'
p4463
I74
sS'YHR189W'
p4464
I3
sS'YLR385C'
p4465
I4
sS'YMR288W'
p4466
I1
sS'YIL125W'
p4467
I16
sS'YBR141C'
p4468
I1
sS'YMR008C'
p4469
I5
sS'YJL136C'
p4470
I209
sS'YKL148C'
p4471
I2
sS'YDR140W'
p4472
I1
sS'YKL112W'
p4473
I4
sS'YDL171C'
p4474
I18
sS'YKL062W'
p4475
I2
sS'YLR238W'
p4476
I2
sS'YDR080W'
p4477
I3
sS'YJR010W'
p4478
I2
sS'YBR138C'
p4479
I4
sS'YBR114W'
p4480
I6
sS'YPL250C'
p4481
I4
sS'YNR043W'
p4482
I9
sS'YHR165C'
p4483
I5
sS'YJL218W'
p4484
I4
sS'YNL075W'
p4485
I9
sS'YKL028W'
p4486
I5
sS'YLR222C'
p4487
I9
sS'YLR221C'
p4488
I8
sS'YDR093W'
p4489
I5
sS'YMR282C'
p4490
I2
sS'YIL109C'
p4491
I13
sS'YHR046C'
p4492
I3
sS'YMR016C'
p4493
I5
sS'YIR014W'
p4494
I1
sS'YPL070W'
p4495
I4
sS'YLR361C'
p4496
I6
sS'YOR085W'
p4497
I7
sS'YDR362C'
p4498
I3
sS'YFL022C'
p4499
I14
sS'YKL053CA'
p4500
I6
sS'YPL109C'
p4501
I1
sS'YOL101C'
p4502
I4
sS'YJL156C'
p4503
I3
sS'YNL240C'
p4504
I3
sS'YFL026W'
p4505
I32
sS'YKL082C'
p4506
I1
sS'YKL180W'
p4507
I208
sS'YOR094W'
p4508
I1
sS'YMR064W'
p4509
I5
sS'YKL166C'
p4510
I8
sS'YJR007W'
p4511
I30
sS'YGR211W'
p4512
I9
sS'YJL174W'
p4513
I16
sS'YDL093W'
p4514
I3
sS'YJL069C'
p4515
I3
sS'YNL185C'
p4516
I8
sS'YLR168C'
p4517
I3
sS'YLR298C'
p4518
I4
sS'YER098W'
p4519
I1
sS'YHR047C'
p4520
I7
sS'YJL118W'
p4521
I2
sS'YML095C'
p4522
I3
sS'YPR137W'
p4523
I8
sS'YJL016W'
p4524
I3
sS'YGL001C'
p4525
I17
sS'YJR058C'
p4526
I4
sS'YDR444W'
p4527
I1
sS'YDL115C'
p4528
I2
sS'YER087W'
p4529
I2
sS'YDL140C'
p4530
I17
sS'YDR359C'
p4531
I6
sS'YKL124W'
p4532
I2
sS'YDR304C'
p4533
I33
sS'YKL171W'
p4534
I3
sS'YDL219W'
p4535
I9
sS'YPL038W'
p4536
I2
sS'YDR363WA'
p4537
I24
sS'YCR086W'
p4538
I4
sS'YDR266C'
p4539
I4
sS'YGL194C'
p4540
I1
sS'YDR206W'
p4541
I4
sS'YJL056C'
p4542
I2
sS'YKL091C'
p4543
I3
sS'YOR116C'
p4544
I9
sS'YMR025W'
p4545
I2
sS'YKR024C'
p4546
I2
sS'YIL095W'
p4547
I3
sS'YDR084C'
p4548
I7
sS'YPL063W'
p4549
I11
sS'YKL140W'
p4550
I3
sS'YBR156C'
p4551
I2
sS'YML124C'
p4552
I13
sS'YIL107C'
p4553
I1
sS'YOL142W'
p4554
I4
sS'YDR287W'
p4555
I2
sS'YGL209W'
p4556
I2
sS'YNL229C'
p4557
I7
sS'YOR326W'
p4558
I13
sS'YDR405W'
p4559
I1
sS'YIL007C'
p4560
I1
sS'YCL031C'
p4561
I9
sS'YAL041W'
p4562
I4
sS'YLR459W'
p4563
I5
sS'YGL156W'
p4564
I1
sS'YGR152C'
p4565
I2
sS'YNL025C'
p4566
I2
sS'YJL090C'
p4567
I4
sS'YJR143C'
p4568
I17
sS'YBR196C'
p4569
I140
sS'YHL044W'
p4570
I1
sS'YPL144W'
p4571
I7
sS'YGR147C'
p4572
I11
sS'YDR002W'
p4573
I42
sS'YJR092W'
p4574
I6
sS'YOR311C'
p4575
I8
sS'YGR030C'
p4576
I2
sS'YAL025C'
p4577
I4
sS'YOR034C'
p4578
I3
sS'YBL014C'
p4579
I3
sS'YDL141W'
p4580
I5
sS'YGL094C'
p4581
I4
sS'YNL039W'
p4582
I5
sS'YBR170C'
p4583
I6
sS'YGR149W'
p4584
I3
sS'YJR059W'
p4585
I4
sS'YGR130C'
p4586
I3
sS'YOR368W'
p4587
I2
sS'YDR458C'
p4588
I3
sS'YJR118C'
p4589
I7
sS'YOR016C'
p4590
I4
sS'YDL217C'
p4591
I5
sS'YGR165W'
p4592
I4
sS'YGR055W'
p4593
I16
sS'YGR128C'
p4594
I6
sS'YBR254C'
p4595
I5
sS'YDR313C'
p4596
I3
sS'YBR136W'
p4597
I3
sS'YLR245C'
p4598
I6
sS'YKL193C'
p4599
I2
sS'YNL153C'
p4600
I9
sS'YGL083W'
p4601
I4
sS'YJL083W'
p4602
I1
sS'YBR214W'
p4603
I3
sS'YLR310C'
p4604
I10
sS'YOR060C'
p4605
I2
sS'YDL237W'
p4606
I8
sS'YJR085C'
p4607
I10
sS'YJL141C'
p4608
I4
sS'YBR249C'
p4609
I32
sS'YNL287W'
p4610
I22
sS'YPL133C'
p4611
I1
sS'YFR008W'
p4612
I1
sS'YNL102W'
p4613
I7
sS'YIL023C'
p4614
I2
sS'YMR234W'
p4615
I4
sS'YBR085CA'
p4616
I16
sS'YDR137W'
p4617
I2
sS'YHR031C'
p4618
I4
sS'YKL209C'
p4619
I10
sS'YPR175W'
p4620
I1
sS'YBR084W'
p4621
I18
sS'YLR003C'
p4622
I4
sS'YGR049W'
p4623
I2
sS'YLR337C'
p4624
I5
sS'YER113C'
p4625
I3
sS'YDR397C'
p4626
I9
sS'YNR051C'
p4627
I8
sS'YGR187C'
p4628
I4
sS'YDR056C'
p4629
I7
sS'YHR122W'
p4630
I2
sS'YDR390C'
p4631
I3
sS'YER180CA'
p4632
I7
sS'YPL267W'
p4633
I2
sS'YOR229W'
p4634
I5
sS'YPR198W'
p4635
I1
sS'YEL024W'
p4636
I6
sS'YHL017W'
p4637
I6
sS'YOR383C'
p4638
I25
sS'YOR194C'
p4639
I8
sS'YOL017W'
p4640
I3
sS'YHL038C'
p4641
I2
sS'YMR190C'
p4642
I4
sS'YPL123C'
p4643
I3
sS'YGR005C'
p4644
I5
sS'YBL032W'
p4645
I10
sS'YGL049C'
p4646
I7
sS'YDR023W'
p4647
I46
sS'YHL034C'
p4648
I32
sS'YGL240W'
p4649
I2
sS'YCR052W'
p4650
I9
sS'YNL294C'
p4651
I2
sS'YLR332W'
p4652
I5
sS'YBR272C'
p4653
I2
sS'YLR327C'
p4654
I7
sS'YDR298C'
p4655
I13
sS'YDR011W'
p4656
I18
sS'YIL061C'
p4657
I2
sS'YBL009W'
p4658
I1
sS'YDR182W'
p4659
I7
sS'YCL043C'
p4660
I60
sS'YGR127W'
p4661
I2
sS'YFR006W'
p4662
I7
sS'YHL031C'
p4663
I2
sS'YML100W'
p4664
I5
sS'YOL151W'
p4665
I8
sS'YHR131C'
p4666
I4
sS'YKL213C'
p4667
I3
sS'YHR026W'
p4668
I19
sS'YGR104C'
p4669
I4
sS'YOL039W'
p4670
I222
sS'YOR026W'
p4671
I4
sS'YBR203W'
p4672
I1
sS'YLR437C'
p4673
I4
sS'YNL238W'
p4674
I5
sS'YOR090C'
p4675
I5
sS'YBR281C'
p4676
I1
sS'YJL198W'
p4677
I5
sS'YPL207W'
p4678
I3
sS'YDR197W'
p4679
I3
sS'YGR027C'
p4680
I340
sS'YNL289W'
p4681
I5
sS'YOL135C'
p4682
I1
sS'YOR323C'
p4683
I18
sS'YLL041C'
p4684
I2
sS'YML106W'
p4685
I36
sS'YCR009C'
p4686
I9
sS'YDR118W'
p4687
I1
sS'YOR193W'
p4688
I2
sS'YPR070W'
p4689
I2
sS'YLR118C'
p4690
I5
sS'YER006W'
p4691
I12
sS'YGL117W'
p4692
I2
sS'YER026C'
p4693
I18
sS'YLR182W'
p4694
I7
sS'YMR105C'
p4695
I6
sS'YER182W'
p4696
I4
sS'YLL034C'
p4697
I4
sS'YML042W'
p4698
I1
sS'YBL105C'
p4699
I6
sS'YOR196C'
p4700
I6
sS'YKR060W'
p4701
I3
sS'YDR069C'
p4702
I1
sS'YOL049W'
p4703
I15
sS'YOL110W'
p4704
I2
sS'YKR048C'
p4705
I17
sS'YER104W'
p4706
I3
sS'YGR232W'
p4707
I3
sS'YEL066W'
p4708
I6
sS'YEL046C'
p4709
I34
sS'YBL055C'
p4710
I3
sS'YPR035W'
p4711
I42
sS'YDL189W'
p4712
I4
sS'YNL314W'
p4713
I3
sS'YLL018C'
p4714
I26
sS'YDL123W'
p4715
I2
sS'YDR227W'
p4716
I2
sS'YPR060C'
p4717
I10
sS'YML008C'
p4718
I31
sS'YDL054C'
p4719
I2
sS'YHL039W'
p4720
I6
sS'YDR174W'
p4721
I16
sS'YMR265C'
p4722
I2
sS'YML073C'
p4723
I190
sS'YGL137W'
p4724
I25
sS'YOR157C'
p4725
I10
sS'YLR455W'
p4726
I3
sS'YGL101W'
p4727
I1
sS'YOR250C'
p4728
I3
sS'YCL056C'
p4729
I2
sS'YBR230WA'
p4730
I4
sS'YBR044C'
p4731
I2
sS'YOR287C'
p4732
I6
sS'YJR105W'
p4733
I40
sS'YDR383C'
p4734
I3
sS'YDL072C'
p4735
I16
sS'YER159C'
p4736
I3
sS'YEL048C'
p4737
I4
sS'YER122C'
p4738
I13
sS'YHR113W'
p4739
I4
sS'YMR189W'
p4740
I15
sS'YNL237W'
p4741
I4
sS'YDR482C'
p4742
I4
sS'YPR182W'
p4743
I11
sS'YJL196C'
p4744
I17
sS'YPL003W'
p4745
I1
sS'YDR034C'
p4746
I2
sS'YGL054C'
p4747
I19
sS'YGL025C'
p4748
I3
sS'YNL230C'
p4749
I1
sS'YLR021W'
p4750
I4
sS'YOL126C'
p4751
I5
sS'YLR058C'
p4752
I45
sS'YOR247W'
p4753
I19
sS'YEL006W'
p4754
I4
sS'YGR243W'
p4755
I1
sS'YDR506C'
p4756
I2
sS'YGL038C'
p4757
I6
sS'YLR074C'
p4758
I7
sS'YNL216W'
p4759
I4
sS'YKL207W'
p4760
I20
sS'YLR405W'
p4761
I3
sS'YNL227C'
p4762
I2
sS'YPL225W'
p4763
I33
sS'YDL043C'
p4764
I2
sS'YHR091C'
p4765
I2
sS'YDL012C'
p4766
I7
sS'YPL249C'
p4767
I3
sS'YJL024C'
p4768
I9
sS'YPR148C'
p4769
I12
sS'YER031C'
p4770
I9
sS'YCR048W'
p4771
I7
sS'YJR006W'
p4772
I2
sS'YIR021W'
p4773
I3
sS'YJL177W'
p4774
I106
sS'YGL002W'
p4775
I9
sS'YLR430W'
p4776
I3
sS'YOR108W'
p4777
I12
sS'YGL139W'
p4778
I2
sS'YJL068C'
p4779
I1
sS'YJL117W'
p4780
I14
sS'YKR041W'
p4781
I1
sS'YNL054W'
p4782
I4
sS'YKL108W'
p4783
I2
sS'YGR210C'
p4784
I5
sS'YDR156W'
p4785
I9
sS'YMR130W'
p4786
I3
sS'YPR155C'
p4787
I2
sS'YHR179W'
p4788
I46
sS'YOR117W'
p4789
I15
sS'YLR176C'
p4790
I1
sS'YNL049C'
p4791
I6
sS'YGL195W'
p4792
I34
sS'YOR167C'
p4793
I151
sS'YKL172W'
p4794
I9
sS'YKR025W'
p4795
I4
sS'YMR290C'
p4796
I10
sS'YLR423C'
p4797
I3
sS'YDR305C'
p4798
I3
sS'YDR205W'
p4799
I2
sS'YJL057C'
p4800
I3
sS'YPR100W'
p4801
I10
sS'YLR266C'
p4802
I3
sS'YLR206W'
p4803
I12
sS'YER088C'
p4804
I4
sS'YLR284C'
p4805
I2
sS'YDR358W'
p4806
I1
sS'YDR076W'
p4807
I1
sS'YDR508C'
p4808
I19
sS'YPR028W'
p4809
I27
sS'YMR117C'
p4810
I2
sS'YLR096W'
p4811
I4
sS'YCR067C'
p4812
I9
sS'YJL035C'
p4813
I2
sS'YPR133WA'
p4814
I31
sS'YKR052C'
p4815
I4
sS'YMR047C'
p4816
I9
sS'YMR147W'
p4817
I1
sS'YOR120W'
p4818
I2
sS'YER040W'
p4819
I3
sS'YCR089W'
p4820
I1
sS'YGR221C'
p4821
I2
sS'YBL088C'
p4822
I3
sS'YDR247W'
p4823
I1
sS'YFL017WA'
p4824
I4
sS'YGR274C'
p4825
I4
sS'YLR100W'
p4826
I21
sS'YBR015C'
p4827
I9
sS'YML055W'
p4828
I6
sS'YML088W'
p4829
I2
sS'YJR066W'
p4830
I2
sS'YLR116W'
p4831
I2
sS'YER008C'
p4832
I3
sS'YJL081C'
p4833
I5
sS'YMR127C'
p4834
I1
sS'YPL013C'
p4835
I4
sS'YLR440C'
p4836
I3
sS'YOR177C'
p4837
I2
sS'YDL135C'
p4838
I11
sS'YHR072WA'
p4839
I36
sS'YLR192C'
p4840
I23
s.