(dp1
cnumpy.core.multiarray
scalar
p2
(cnumpy
dtype
p3
(S'i8'
I0
I1
tRp4
(I3
S'<'
NNNI-1
I-1
I0
tbS'\x00\x00\x00\x00\x00\x00\x00\x00'
tRp5
(dp6
S'YBR177C'
p7
I6
sS'YIL140W'
p8
I2
sS'YLR268W'
p9
I8
sS'YOR011W'
p10
I1
sS'YLR357W'
p11
I3
sS'YJL155C'
p12
I1
sS'YHR067W'
p13
I1
sS'YAL008W'
p14
I3
sS'YOR043W'
p15
I5
sS'YBR255W'
p16
I1
sS'YFR027W'
p17
I1
sS'YBR128C'
p18
I0
sS'YCR093W'
p19
I9
sS'YAL056W'
p20
I2
sS'YJR122W'
p21
I1
sS'YFR043C'
p22
I1
sS'YDR459C'
p23
I1
sS'YLR244C'
p24
I19
sS'YNL003C'
p25
I3
sS'YJR084W'
p26
I2
sS'YBR135W'
p27
I5
sS'YLR233C'
p28
I0
sS'YBR160W'
p29
I4
sS'YBR070C'
p30
I3
sS'YLR313C'
p31
I0
sS'YDL238C'
p32
I1
sS'YJL082W'
p33
I3
sS'YHR007C'
p34
I44
sS'YIL095W'
p35
I1
sS'YIR004W'
p36
I5
sS'YPL191C'
p37
I1
sS'YKL190W'
p38
I11
sS'YLR182W'
p39
I2
sS'YGL084C'
p40
I5
sS'YLR348C'
p41
I11
sS'YBR248C'
p42
I5
sS'YNR067C'
p43
I13
sS'YNL152W'
p44
I2
sS'YLR382C'
p45
I1
sS'YKL063C'
p46
I5
sS'YFL045C'
p47
I63
sS'YFL010C'
p48
I17
sS'YDR141C'
p49
I4
sS'YJL131C'
p50
I1
sS'YDL170W'
p51
I1
sS'YIL124W'
p52
I9
sS'YER113C'
p53
I3
sS'YJR044C'
p54
I6
sS'YJR011C'
p55
I1
sS'YPL039W'
p56
I1
sS'YFR008W'
p57
I1
sS'YLR129W'
p58
I6
sS'YGL141W'
p59
I1
sS'YMR009W'
p60
I4
sS'YDR168W'
p61
I10
sS'YJL179W'
p62
I7
sS'YJL122W'
p63
I9
sS'YKL183W'
p64
I2
sS'YDR363W'
p65
I1
sS'YFL021W'
p66
I2
sS'YPL194W'
p67
I1
sS'YLR362W'
p68
I1
sS'YKL126W'
p69
I7
sS'YMR283C'
p70
I1
sS'YPL024W'
p71
I2
sS'YKL134C'
p72
I1
sS'YER105C'
p73
I7
sS'YDR090C'
p74
I2
sS'YJR112WA'
p75
I2
sS'YCL017C'
p76
I10
sS'YIL108W'
p77
I3
sS'YPL166W'
p78
I1
sS'YKL052C'
p79
I3
sS'YBR273C'
p80
I3
sS'YFR005C'
p81
I3
sS'YHL036W'
p82
I0
sS'YDR329C'
p83
I3
sS'YAL026C'
p84
I5
sS'YOL034W'
p85
I1
sS'YFR050C'
p86
I16
sS'YBL008W'
p87
I2
sS'YLR079W'
p88
I25
sS'YLR447C'
p89
I35
sS'YGL237C'
p90
I1
sS'YGR126W'
p91
I1
sS'YIL062C'
p92
I15
sS'YNL295W'
p93
I1
sS'YAR035W'
p94
I0
sS'YOL126C'
p95
I5
sS'YAR019C'
p96
I1
sS'YDR299W'
p97
I4
sS'YOL116W'
p98
I2
sS'YGL255W'
p99
I1
sS'YJL149W'
p100
I1
sS'YML129C'
p101
I8
sS'YGL257C'
p102
I3
sS'YDR196C'
p103
I3
sS'YBR202W'
p104
I4
sS'YER023W'
p105
I35
sS'YNL239W'
p106
I9
sS'YDR410C'
p107
I4
sS'YBR280C'
p108
I1
sS'YGR020C'
p109
I30
sS'YNR045W'
p110
I1
sS'YKL148C'
p111
I2
sS'YML105C'
p112
I7
sS'YBR026C'
p113
I5
sS'YNL288W'
p114
I3
sS'YIL091C'
p115
I4
sS'YOR322C'
p116
I3
sS'YKR061W'
p117
I1
sS'YBR193C'
p118
I2
sS'YPL104W'
p119
I1
sS'YNL103W'
p120
I3
sS'YAL046C'
p121
I7
sS'YDR198C'
p122
I1
sS'YAL039C'
p123
I1
sS'YNR018W'
p124
I12
sS'YKL059C'
p125
I2
sS'YCR034W'
p126
I16
sS'YFR047C'
p127
I7
sS'YBR215W'
p128
I1
sS'YIL106W'
p129
I3
sS'YPL252C'
p130
I6
sS'YPL183WA'
p131
I5
sS'YBR159W'
p132
I15
sS'YCL039W'
p133
I1
sS'YML127W'
p134
I4
sS'YDR404C'
p135
I8
sS'YHR078W'
p136
I2
sS'YGR084C'
p137
I3
sS'YDR286C'
p138
I3
sS'YFR018C'
p139
I4
sS'YDR399W'
p140
I25
sS'YGR028W'
p141
I2
sS'YAL036C'
p142
I10
sS'YER042W'
p143
I8
sS'YLR455W'
p144
I4
sS'YGL157W'
p145
I6
sS'YGR099W'
p146
I2
sS'YBL015W'
p147
I2
sS'YGR128C'
p148
I6
sS'YOL090W'
p149
I5
sS'YLR300W'
p150
I34
sS'YNL145W'
p151
I45
sS'YJL091C'
p152
I3
sS'YJR140C'
p153
I2
sS'YGR146C'
p154
I4
sS'YOR033C'
p155
I2
sS'YOR062C'
p156
I0
sS'YAL034WA'
p157
I1
sS'YNR021W'
p158
I17
sS'YBR043C'
p159
I1
sS'YDR380W'
p160
I2
sS'YGL100W'
p161
I7
sS'YBR094W'
p162
I3
sS'YMR244CA'
p163
I4
sS'YHR112C'
p164
I2
sS'YGR142W'
p165
I3
sS'YNR007C'
p166
I0
sS'YDR035W'
p167
I12
sS'YGR042W'
p168
I2
sS'YDR485C'
p169
I1
sS'YLR011W'
p170
I1
sS'YIL044C'
p171
I5
sS'YPL239W'
p172
I8
sS'YPR183W'
p173
I15
sS'YOR206W'
p174
I9
sS'YDL073W'
p175
I2
sS'YBL042C'
p176
I5
sS'YCR046C'
p177
I7
sS'YLR059C'
p178
I5
sS'YOL001W'
p179
I1
sS'YLR187W'
p180
I2
sS'YBR054W'
p181
I3
sS'YDR059C'
p182
I2
sS'YPL224C'
p183
I2
sS'YLR137W'
p184
I1
sS'YLR020C'
p185
I3
sS'YNL217W'
p186
I8
sS'YKL204W'
p187
I3
sS'YER067W'
p188
I4
sS'YDL042C'
p189
I2
sS'YMR226C'
p190
I23
sS'YPL248C'
p191
I0
sS'YDR531W'
p192
I6
sS'YFR024CA'
p193
I13
sS'YIL013C'
p194
I0
sS'YMR233W'
p195
I2
sS'YPL206C'
p196
I4
sS'YOL136C'
p197
I3
sS'YDL060W'
p198
I6
sS'YLR002C'
p199
I4
sS'YPR084W'
p200
I1
sS'YDR393W'
p201
I2
sS'YBR293W'
p202
I1
sS'YGL215W'
p203
I11
sS'YNR052C'
p204
I4
sS'YGR019W'
p205
I4
sS'YGL194CA'
p206
I2
sS'YEL032W'
p207
I5
sS'YOL076W'
p208
I5
sS'YER145C'
p209
I21
sS'YER110C'
p210
I35
sS'YHR123W'
p211
I4
sS'YBL033C'
p212
I3
sS'YDR022C'
p213
I1
sS'YPL266W'
p214
I8
sS'YJL157C'
p215
I5
sS'YOR304W'
p216
I3
sS'YDL010W'
p217
I2
sS'YML110C'
p218
I14
sS'YML112W'
p219
I1
sS'YHL010C'
p220
I1
sS'YBR296C'
p221
I0
sS'YER169W'
p222
I1
sS'YOL016C'
p223
I3
sS'YOR226C'
p224
I8
sS'YGL241W'
p225
I2
sS'YEL025C'
p226
I2
sS'YLR108C'
p227
I3
sS'YDL146W'
p228
I1
sS'YNL186W'
p229
I5
sS'YPR176C'
p230
I3
sS'YCL044C'
p231
I1
sS'YKR008W'
p232
I4
sS'YLR017W'
p233
I9
sS'YMR146C'
p234
I28
sS'YDR226W'
p235
I94
sS'YMR266W'
p236
I8
sS'YDR057W'
p237
I2
sS'YKR064W'
p238
I1
sS'YLR097C'
p239
I2
sS'YCR060W'
p240
I5
sS'YJL036W'
p241
I2
sS'YER041W'
p242
I1
sS'YEL059CA'
p243
I1
sS'YBR016W'
p244
I9
sS'YER009W'
p245
I51
sS'YBR036C'
p246
I9
sS'YLR292C'
p247
I8
sS'YDL139C'
p248
I1
sS'YDR246W'
p249
I2
sS'YOR288C'
p250
I2
sS'YDL045C'
p251
I2
sS'YGR241C'
p252
I3
sS'YMR079W'
p253
I23
sS'YLR115W'
p254
I2
sS'YOL077WA'
p255
I10
sS'YMR126C'
p256
I1
sS'YHR089C'
p257
I15
sS'YGL014W'
p258
I7
sS'YGL036W'
p259
I2
sS'YMR168C'
p260
I1
sS'YML043C'
p261
I1
sS'YLL035W'
p262
I2
sS'YOR245C'
p263
I2
sS'YER007W'
p264
I0
sS'YGL114W'
p265
I2
sS'YER027C'
p266
I5
sS'YER167W'
p267
I2
sS'YDL013W'
p268
I2
sS'YBL106C'
p269
I1
sS'YMR104C'
p270
I1
sS'YGL044C'
p271
I2
sS'YER107C'
p272
I4
sS'YDL195W'
p273
I15
sS'YBR038W'
p274
I5
sS'YLR219W'
p275
I2
sS'YDR117C'
p276
I3
sS'YGR282C'
p277
I70
sS'YCR026C'
p278
I2
sS'YBL052C'
p279
I2
sS'YDL198C'
p280
I4
sS'YEL047C'
p281
I11
sS'YLR285W'
p282
I7
sS'YPR036W'
p283
I31
sS'YKL218C'
p284
I1
sS'YPR016C'
p285
I19
sS'YNL317W'
p286
I2
sS'YLL019C'
p287
I2
sS'YGR235C'
p288
I5
sS'YDR068W'
p289
I4
sS'YDR109C'
p290
I1
sS'YBR228W'
p291
I1
sS'YDL055C'
p292
I127
sS'YBL020W'
p293
I3
sS'YDR177W'
p294
I10
sS'YOR349W'
p295
I0
sS'YML009C'
p296
I11
sS'YLR337C'
p297
I2
sS'YML072C'
p298
I21
sS'YHR052W'
p299
I10
sS'YKL167C'
p300
I4
sS'YDR142C'
p301
I1
sS'YKR026C'
p302
I6
sS'YFL044C'
p303
I3
sS'YJR043C'
p304
I2
sS'YEL011W'
p305
I1
sS'YJR012C'
p306
I1
sS'YJL130C'
p307
I34
sS'YJL078C'
p308
I4
sS'YKL060C'
p309
I1049
sS'YBL085W'
p310
I3
sS'YKL173W'
p311
I2
sS'YGR212W'
p312
I0
sS'YGR200C'
p313
I7
sS'YBR056W'
p314
I5
sS'YLR383W'
p315
I2
sS'YDL177C'
p316
I1
sS'YIL127C'
p317
I4
sS'YDR082W'
p318
I1
sS'YBL095W'
p319
I3
sS'YDR348C'
p320
I4
sS'YKL182W'
p321
I73
sS'YDR469W'
p322
I4
sS'YDR333C'
p323
I3
sS'YKL051W'
p324
I0
sS'YMR013C'
p325
I1
sS'YPL167C'
p326
I0
sS'YLR223C'
p327
I2
sS'YIR012W'
p328
I9
sS'YDR326C'
p329
I5
sS'YLR363C'
p330
I3
sS'YER019W'
p331
I3
sS'YNL328C'
p332
I1
sS'YJL014W'
p333
I16
sS'YDR219C'
p334
I2
sS'YCR011C'
p335
I7
sS'YLL063C'
p336
I0
sS'YLR431C'
p337
I0
sS'YKR046C'
p338
I2
sS'YGR204W'
p339
I26
sS'YJR005W'
p340
I3
sS'YGR217W'
p341
I2
sS'YNL072W'
p342
I2
sS'YBL098W'
p343
I2
sS'YDL095W'
p344
I22
sS'YBL068W'
p345
I7
sS'YOR174W'
p346
I2
sS'YER030W'
p347
I12
sS'YFL002C'
p348
I3
sS'YDR155C'
p349
I251
sS'YPR149W'
p350
I50
sS'YGL181W'
p351
I4
sS'YJL176C'
p352
I4
sS'YJR072C'
p353
I8
sS'YLR151C'
p354
I0
sS'YKR039W'
p355
I1
sS'YPL087W'
p356
I4
sS'YNL015W'
p357
I13
sS'YCR084C'
p358
I12
sS'YDR302W'
p359
I3
sS'YGL003C'
p360
I1
sS'YJL054W'
p361
I6
sS'YHR178W'
p362
I1
sS'YOR118W'
p363
I2
sS'YLR205C'
p364
I1
sS'YDR268W'
p365
I2
sS'YLR283W'
p366
I1
sS'YPL170W'
p367
I3
sS'YOR254C'
p368
I15
sS'YML094W'
p369
I7
sS'YKR006C'
p370
I6
sS'YDL117W'
p371
I3
sS'YDR204W'
p372
I4
sS'YDR251W'
p373
I5
sS'YMR293C'
p374
I0
sS'YPR138C'
p375
I4
sS'YAL038W'
p376
I773
sS'YIL105C'
p377
I2
sS'YNL162WA'
p378
I2
sS'YNL119W'
p379
I2
sS'YOR090C'
p380
I4
sS'YOR074C'
p381
I4
sS'YLR189C'
p382
I2
sS'YIL150C'
p383
I1
sS'YDR285W'
p384
I0
sS'YNR019W'
p385
I4
sS'YGR158C'
p386
I4
sS'YKL077W'
p387
I15
sS'YFR046C'
p388
I1
sS'YBR212W'
p389
I3
sS'YJR109C'
p390
I7
sS'YLR254C'
p391
I1
sS'YFR014C'
p392
I3
sS'YBR158W'
p393
I16
sS'YPL150W'
p394
I2
sS'YPL105C'
p395
I4
sS'YHR121W'
p396
I6
sS'YOL097C'
p397
I17
sS'YNL122C'
p398
I3
sS'YJL096W'
p399
I5
sS'YJR141W'
p400
I1
sS'YDR407C'
p401
I3
sS'YHR143WA'
p402
I20
sS'YJR094C'
p403
I0
sS'YGL245W'
p404
I57
sS'YNR020C'
p405
I1
sS'YBR258C'
p406
I1
sS'YLR301W'
p407
I27
sS'YAL007C'
p408
I14
sS'YIL136W'
p409
I1
sS'YHR142W'
p410
I3
sS'YPL129W'
p411
I7
sS'YBR223C'
p412
I1
sS'YOR264W'
p413
I6
sS'YGL154C'
p414
I1
sS'YJL154C'
p415
I5
sS'YDR091C'
p416
I15
sS'YJL123C'
p417
I6
sS'YOL031C'
p418
I3
sS'YIR034C'
p419
I4
sS'YIR005W'
p420
I1
sS'YJL203W'
p421
I1
sS'YAL009W'
p422
I2
sS'YBR011C'
p423
I120
sS'YJR054W'
p424
I2
sS'YBR129C'
p425
I3
sS'YDL160C'
p426
I16
sS'YBR176W'
p427
I2
sS'YDR207C'
p428
I1
sS'YDL215C'
p429
I3
sS'YGR167W'
p430
I19
sS'YKL099C'
p431
I6
sS'YDR315C'
p432
I1
sS'YJL143W'
p433
I6
sS'YBR161W'
p434
I2
sS'YGL238W'
p435
I10
sS'YKL029C'
p436
I12
sS'YNL104C'
p437
I23
sS'YPL145C'
p438
I16
sS'YIL118W'
p439
I7
sS'YNL151C'
p440
I5
sS'YKL191W'
p441
I8
sS'YNR006W'
p442
I2
sS'YHR006W'
p443
I2
sS'YHR120W'
p444
I2
sS'YDL020C'
p445
I6
sS'YOL111C'
p446
I5
sS'YDR084C'
p447
I5
sS'YAL042W'
p448
I18
sS'YHR025W'
p449
I20
sS'YNL083W'
p450
I1
sS'YDR217C'
p451
I2
sS'YGL163C'
p452
I1
sS'YBL018C'
p453
I6
sS'YDR004W'
p454
I1
sS'YOL137W'
p455
I2
sS'YDR530C'
p456
I2
sS'YDR131C'
p457
I0
sS'YER111C'
p458
I3
sS'YEL031W'
p459
I23
sS'YOL071W'
p460
I2
sS'YNR053C'
p461
I10
sS'YDL063C'
p462
I5
sS'YER144C'
p463
I2
sS'YOR367W'
p464
I5
sS'YOR385W'
p465
I1
sS'YCR042C'
p466
I2
sS'YGR185C'
p467
I34
sS'YJL189W'
p468
I552
sS'YER087CB'
p469
I24
sS'YER168C'
p470
I4
sS'YPL265W'
p471
I13
sS'YIL083C'
p472
I4
sS'YOR081C'
p473
I2
sS'YEL026W'
p474
I50
sS'YNL298W'
p475
I2
sS'YDR392W'
p476
I2
sS'YBR290W'
p477
I2
sS'YDR172W'
p478
I25
sS'YNL274C'
p479
I2
sS'YGL227W'
p480
I1
sS'YML113W'
p481
I2
sS'YDR021W'
p482
I1
sS'YGL063W'
p483
I0
sS'YPL212C'
p484
I6
sS'YLR208W'
p485
I16
sS'YOR101W'
p486
I5
sS'YBR291C'
p487
I1
sS'YGR081C'
p488
I5
sS'YLR330W'
p489
I8
sS'YBL059W'
p490
I1
sS'YPR095C'
p491
I1
sS'YOR310C'
p492
I32
sS'YFR051C'
p493
I12
sS'YHR024C'
p494
I5
sS'YDR458C'
p495
I2
sS'YDR188W'
p496
I23
sS'YOL128C'
p497
I1
sS'YGL236C'
p498
I1
sS'YGR129W'
p499
I1
sS'YAR018C'
p500
I2
sS'YHR133C'
p501
I12
sS'YDR541C'
p502
I2
sS'YOL080C'
p503
I3
sS'YOR369C'
p504
I485
sS'YNL241C'
p505
I22
sS'YOL117W'
p506
I1
sS'YOR092W'
p507
I2
sS'YGR021W'
p508
I1
sS'YDR411C'
p509
I3
sS'YBR283C'
p510
I22
sS'YIL090W'
p511
I4
sS'YBR205W'
p512
I12
sS'YOR321W'
p513
I3
sS'YDL160CA'
p514
I3
sS'YML104C'
p515
I2
sS'YBR183W'
p516
I2
sS'YDL004W'
p517
I17
sS'YNR044W'
p518
I2
sS'YDR195W'
p519
I1
sS'YKL087C'
p520
I2
sS'YOL048C'
p521
I1
sS'YER026C'
p522
I14
sS'YNL256W'
p523
I3
sS'YOL058W'
p524
I2
sS'YMR278W'
p525
I3
sS'YGR072W'
p526
I1
sS'YIL076W'
p527
I13
sS'YLR136C'
p528
I4
sS'YGL010W'
p529
I2
sS'YMR207C'
p530
I1
sS'YML015C'
p531
I2
sS'YOR197W'
p532
I14
sS'YCR007C'
p533
I0
sS'YDR347W'
p534
I7
sS'YDR016C'
p535
I5
sS'YEL004W'
p536
I1
sS'YBR255CA'
p537
I1
sS'YDL014W'
p538
I40
sS'YHL008C'
p539
I2
sS'YLL032C'
p540
I1
sS'YCR027C'
p541
I2
sS'YDL194W'
p542
I0
sS'YDR422C'
p543
I3
sS'YBR039W'
p544
I14
sS'YER024W'
p545
I0
sS'YDR116C'
p546
I3
sS'YGR258C'
p547
I1
sS'YOR230W'
p548
I28
sS'YER053CA'
p549
I0
sS'YAL044WA'
p550
I8
sS'YDL056W'
p551
I2
sS'YGR234W'
p552
I55
sS'YDL165W'
p553
I5
sS'YJL112W'
p554
I2
sS'YMR178W'
p555
I5
sS'YCL005WA'
p556
I25
sS'YPR017C'
p557
I3
sS'YGL115W'
p558
I10
sS'YNL299W'
p559
I1
sS'YOL129W'
p560
I12
sS'YEL044W'
p561
I5
sS'YMR247C'
p562
I4
sS'YPR037C'
p563
I5
sS'YML071C'
p564
I2
sS'YBR077C'
p565
I4
sS'YDR176W'
p566
I3
sS'YOR352W'
p567
I1
sS'YDR122W'
p568
I4
sS'YER120W'
p569
I29
sS'YNL090W'
p570
I5
sS'YBR042C'
p571
I4
sS'YOL062C'
p572
I4
sS'YDR381W'
p573
I42
sS'YGL103W'
p574
I515
sS'YDR484W'
p575
I1
sS'YJL194W'
p576
I2
sS'YNL183C'
p577
I2
sS'YOL022C'
p578
I5
sS'YBR095C'
p579
I2
sS'YPR036WA'
p580
I25
sS'YHR111W'
p581
I3
sS'YBL045C'
p582
I8
sS'YBR182C'
p583
I0
sS'YDR524C'
p584
I2
sS'YGR043C'
p585
I0
sS'YPR184W'
p586
I1
sS'YOR224C'
p587
I26
sS'YDL070W'
p588
I9
sS'YGL185C'
p589
I1
sS'YCR047C'
p590
I3
sS'YMR187C'
p591
I1
sS'YDR287W'
p592
I2
sS'YEL037C'
p593
I12
sS'YBR217W'
p594
I1
sS'YER064C'
p595
I8
sS'YOR241W'
p596
I5
sS'YBR203W'
p597
I0
sS'YOL002C'
p598
I4
sS'YCR065W'
p599
I4
sS'YOR359W'
p600
I2
sS'YLL021W'
p601
I5
sS'YKL205W'
p602
I4
sS'YLR407W'
p603
I2
sS'YBR088C'
p604
I12
sS'YBR055C'
p605
I2
sS'YOR175C'
p606
I8
sS'YER033C'
p607
I1
sS'YNL329C'
p608
I2
sS'YFL005W'
p609
I18
sS'YOL124C'
p610
I4
sS'YKL110C'
p611
I4
sS'YOL030W'
p612
I13
sS'YHR040W'
p613
I1
sS'YMR152W'
p614
I4
sS'YML057W'
p615
I3
sS'YDR178W'
p616
I3
sS'YKR038C'
p617
I6
sS'YGL028C'
p618
I10
sS'YMR029C'
p619
I3
sS'YGL180W'
p620
I1
sS'YJL115W'
p621
I2
sS'YJR073C'
p622
I5
sS'YGL004C'
p623
I1
sS'YLR204W'
p624
I5
sS'YML097C'
p625
I2
sS'YKR007W'
p626
I4
sS'YJL055W'
p627
I10
sS'YHR193C'
p628
I108
sS'YMR292W'
p629
I8
sS'YBL099W'
p630
I33
sS'YMR132C'
p631
I1
sS'YDR303C'
p632
I4
sS'YPL008W'
p633
I1
sS'YJR035W'
p634
I1
sS'YNL305C'
p635
I3
sS'YDL116W'
p636
I4
sS'YPL184C'
p637
I7
sS'YGL027C'
p638
I9
sS'YPR153W'
p639
I1
sS'YMR042W'
p640
I1
sS'YDR252W'
p641
I1
sS'YOR119C'
p642
I2
sS'YLL003W'
p643
I1
sS'YJR076C'
p644
I7
sS'YLR425W'
p645
I1
sS'YLR409C'
p646
I6
sS'YNL316C'
p647
I1
sS'YMR268C'
p648
I1
sS'YCL045C'
p649
I12
sS'YPL088W'
p650
I0
sS'YKR065C'
p651
I9
sS'YMR041C'
p652
I1
sS'YDR221W'
p653
I4
sS'YMR267W'
p654
I3
sS'YKL207W'
p655
I15
sS'YLL040C'
p656
I6
sS'YKR009C'
p657
I0
sS'YKL049C'
p658
I2
sS'YDR078C'
p659
I1
sS'YKL103C'
p660
I6
sS'YCR061W'
p661
I4
sS'YMR109W'
p662
I8
sS'YMR078C'
p663
I2
sS'YLR094C'
p664
I3
sS'YDL154W'
p665
I0
sS'YDR232W'
p666
I12
sS'YNL262W'
p667
I3
sS'YDR245W'
p668
I10
sS'YHR088W'
p669
I3
sS'YGR276C'
p670
I3
sS'YBR017C'
p671
I9
sS'YER100W'
p672
I6
sS'YML037C'
p673
I0
sS'YDL138W'
p674
I1
sS'YJR060W'
p675
I6
sS'YLR141W'
p676
I1
sS'YPR162C'
p677
I2
sS'YDL089W'
p678
I2
sS'YPR071W'
p679
I2
sS'YHR175W'
p680
I5
sS'YGR166W'
p681
I1
sS'YMR305C'
p682
I21
sS'YDL161W'
p683
I4
sS'YAL001C'
p684
I2
sS'YDL212W'
p685
I19
sS'YER098W'
p686
I0
sS'YER104W'
p687
I1
sS'YNL161W'
p688
I4
sS'YJR055W'
p689
I1
sS'YDR096W'
p690
I1
sS'YLR197W'
p691
I46
sS'YBR175W'
p692
I2
sS'YPL046C'
p693
I3
sS'YDR390C'
p694
I3
sS'YGL099W'
p695
I8
sS'YIL119C'
p696
I2
sS'YLR315W'
p697
I1
sS'YPL193W'
p698
I2
sS'YKL196C'
p699
I19
sS'YDR314C'
p700
I1
sS'YJL144W'
p701
I0
sS'YLR231C'
p702
I6
sS'YPR105C'
p703
I4
sS'YFR021W'
p704
I2
sS'YKL098W'
p705
I2
sS'YJR139C'
p706
I51
sS'YKL016C'
p707
I15
sS'YBR133C'
p708
I4
sS'YFL049W'
p709
I1
sS'YBR162C'
p710
I41
sS'YIL004C'
p711
I4
sS'YDR279W'
p712
I2
sS'YKL174C'
p713
I2
sS'YJR013W'
p714
I3
sS'YJL133W'
p715
I3
sS'YKR035WA'
p716
I5
sS'YDR143C'
p717
I3
sS'YDL176W'
p718
I1
sS'YBR111C'
p719
I13
sS'YKL121W'
p720
I1
sS'YMR108W'
p721
I29
sS'YKR027W'
p722
I1
sS'YFL047W'
p723
I3
sS'YGR201C'
p724
I2
sS'YDR272W'
p725
I7
sS'YLR380W'
p726
I6
sS'YKL034W'
p727
I1
sS'YKL061W'
p728
I1
sS'YJR042W'
p729
I5
sS'YMR281W'
p730
I2
sS'YMR012W'
p731
I29
sS'YPL160W'
p732
I43
sS'YGR100W'
p733
I2
sS'YKR087C'
p734
I2
sS'YNL023C'
p735
I2
sS'YDR349C'
p736
I5
sS'YIR011C'
p737
I3
sS'YJR048W'
p738
I8
sS'YDR214W'
p739
I15
sS'YIL126W'
p740
I7
sS'YGR104C'
p741
I2
sS'YLR201C'
p742
I3
sS'YLR295C'
p743
I9
sS'YDL201W'
p744
I7
sS'YDR468C'
p745
I3
sS'YJL133CA'
p746
I4
sS'YDR332W'
p747
I1
sS'YHR168W'
p748
I1
sS'YJR112W'
p749
I2
sS'YOR064C'
p750
I1
sS'YGR268C'
p751
I2
sS'YOR159C'
p752
I4
sS'YBR130C'
p753
I5
sS'YFR003C'
p754
I5
sS'YNL297C'
p755
I4
sS'YOL081W'
p756
I4
sS'YIL033C'
p757
I6
sS'YOL036W'
p758
I3
sS'YGL148W'
p759
I31
sS'YOR002W'
p760
I6
sS'YJR065C'
p761
I17
sS'YDR023W'
p762
I53
sS'YPL133C'
p763
I1
sS'YIL048W'
p764
I3
sS'YDR189W'
p765
I5
sS'YAL028W'
p766
I0
sS'YOL056W'
p767
I2
sS'YBR225W'
p768
I1
sS'YFR052W'
p769
I13
sS'YMR302C'
p770
I3
sS'YBR282W'
p771
I5
sS'YOR079C'
p772
I1
sS'YCL030C'
p773
I22
sS'YHR132C'
p774
I8
sS'YGR088W'
p775
I0
sS'YMR083W'
p776
I40
sS'YLR188W'
p777
I5
sS'YGL073W'
p778
I2
sS'YBR257W'
p779
I2
sS'YDR194C'
p780
I11
sS'YOL049W'
p781
I10
sS'YDR515W'
p782
I2
sS'YDR014W'
p783
I1
sS'YJR031C'
p784
I3
sS'YNL257C'
p785
I2
sS'YNR030W'
p786
I5
sS'YHL029C'
p787
I2
sS'YIL093C'
p788
I2
sS'YBR204C'
p789
I2
sS'YBR111WA'
p790
I6
sS'YIL158W'
p791
I5
sS'YGR106C'
p792
I24
sS'YLR397C'
p793
I3
sS'YGR065C'
p794
I2
sS'YDR463W'
p795
I4
sS'YFR045W'
p796
I1
sS'YKL138CA'
p797
I7
sS'YIL104C'
p798
I2
sS'YIL151C'
p799
I2
sS'YIL002C'
p800
I2
sS'YGL086W'
p801
I3
sS'YGR159C'
p802
I26
sS'YDL223C'
p803
I1
sS'YAL044C'
p804
I31
sS'YBR213W'
p805
I1
sS'YKL081W'
p806
I148
sS'YLR355C'
p807
I150
sS'YLR398C'
p808
I4
sS'YPR081C'
p809
I1
sS'YNL118C'
p810
I6
sS'YML101C'
p811
I5
sS'YNR023W'
p812
I1
sS'YOL096C'
p813
I1
sS'YGL228W'
p814
I9
sS'YDR284C'
p815
I4
sS'YJR117W'
p816
I10
sS'YJL097W'
p817
I9
sS'YBR259W'
p818
I1
sS'YGR111W'
p819
I4
sS'YGL155W'
p820
I4
sS'YNL135C'
p821
I84
sS'YJR135WA'
p822
I9
sS'YOR301W'
p823
I7
sS'YOL019W'
p824
I3
sS'YDR406W'
p825
I2
sS'YOR048C'
p826
I6
sS'YAL030W'
p827
I8
sS'YNL147W'
p828
I10
sS'YDR233C'
p829
I32
sS'YHR143W'
p830
I21
sS'YOL041C'
p831
I8
sS'YBR222C'
p832
I6
sS'YLR131C'
p833
I2
sS'YER034W'
p834
I2
sS'YER127W'
p835
I5
sS'YNL091W'
p836
I4
sS'YOL063C'
p837
I2
sS'YCL004W'
p838
I1
sS'YPL128C'
p839
I3
sS'YBR096W'
p840
I10
sS'YPL042C'
p841
I2
sS'YJL193W'
p842
I2
sS'YJR093C'
p843
I2
sS'YEL027W'
p844
I96
sS'YDL015C'
p845
I17
sS'YOL086C'
p846
I788
sS'YDR123C'
p847
I1
sS'YHR110W'
p848
I6
sS'YBR041W'
p849
I5
sS'YDR430C'
p850
I4
sS'YGR193C'
p851
I5
sS'YPR185W'
p852
I1
sS'YNL327W'
p853
I17
sS'YGR015C'
p854
I1
sS'YBR185C'
p855
I2
sS'YLR406C'
p856
I86
sS'YDR387C'
p857
I1
sS'YLR077W'
p858
I3
sS'YCR044C'
p859
I5
sS'YNL219C'
p860
I6
sS'YDR037W'
p861
I51
sS'YGR040W'
p862
I3
sS'YER178W'
p863
I69
sS'YLR057W'
p864
I2
sS'YOL003C'
p865
I2
sS'YPL222W'
p866
I1
sS'YLR320W'
p867
I1
sS'YHR005C'
p868
I8
sS'YAR008W'
p869
I2
sS'YOR320C'
p870
I6
sS'YHR034C'
p871
I2
sS'YBL019W'
p872
I0
sS'YMR231W'
p873
I2
sS'YOL070C'
p874
I4
sS'YOL138C'
p875
I1
sS'YNL138WA'
p876
I3
sS'YGR150C'
p877
I1
sS'YDR533C'
p878
I2
sS'YLR452C'
p879
I7
sS'YML103C'
p880
I6
sS'YNR054C'
p881
I3
sS'YKL192C'
p882
I19
sS'YER147C'
p883
I1
sS'YDR130C'
p884
I2
sS'YIL015W'
p885
I15
sS'YFR031C'
p886
I2
sS'YGR184C'
p887
I6
sS'YOL038W'
p888
I16
sS'YNL275W'
p889
I1
sS'YAR015W'
p890
I15
sS'YOR384W'
p891
I0
sS'YCR020CA'
p892
I5
sS'YDR020C'
p893
I2
sS'YHR201C'
p894
I5
sS'YPL213W'
p895
I1
sS'YNL082W'
p896
I1
sS'YLL051C'
p897
I3
sS'YDR427W'
p898
I10
sS'YOR279C'
p899
I0
sS'YPL264C'
p900
I0
sS'YGR008C'
p901
I8
sS'YGL172W'
p902
I5
sS'YKL211C'
p903
I7
sS'YGL060W'
p904
I2
sS'YNL311C'
p905
I1
sS'YLL002W'
p906
I1
sS'YJL030W'
p907
I2
sS'YLR424W'
p908
I1
sS'YDR165W'
p909
I8
sS'YLR408C'
p910
I1
sS'YGL123W'
p911
I331
sS'YBR249C'
p912
I32
sS'YKR066C'
p913
I11
sS'YDR079W'
p914
I2
sS'YGR248W'
p915
I1
sS'YER043C'
p916
I83
sS'YBR074W'
p917
I5
sS'YGR191W'
p918
I6
sS'YOR150W'
p919
I7
sS'YDR281C'
p920
I4
sS'YPL096CA'
p921
I2
sS'YMR106C'
p922
I1
sS'YDR310C'
p923
I4
sS'YDR055W'
p924
I7
sS'YBL061C'
p925
I4
sS'YGL203C'
p926
I5
sS'YMR140W'
p927
I2
sS'YGL070C'
p928
I6
sS'YLR095C'
p929
I2
sS'YBR034C'
p930
I12
sS'YML036W'
p931
I3
sS'YLR040C'
p932
I1
sS'YCR091W'
p933
I0
sS'YER062C'
p934
I12
sS'YDR244W'
p935
I2
sS'YHR122W'
p936
I4
sS'YDL088C'
p937
I3
sS'YJR063W'
p938
I8
sS'YLR113W'
p939
I12
sS'YML013W'
p940
I3
sS'YDL157C'
p941
I15
sS'YPR163C'
p942
I39
sS'YJL184W'
p943
I6
sS'YER025W'
p944
I25
sS'YDR527W'
p945
I4
sS'YMR315W'
p946
I15
sS'YCR059C'
p947
I5
sS'YML041C'
p948
I1
sS'YDL197C'
p949
I1
sS'YER078C'
p950
I2
sS'YER130C'
p951
I2
sS'YDR115W'
p952
I6
sS'YMR166C'
p953
I2
sS'YGR071C'
p954
I1
sS'YCR106W'
p955
I1
sS'YER165W'
p956
I78
sS'YGL082W'
p957
I4
sS'YML038C'
p958
I4
sS'YCL059C'
p959
I11
sS'YML014W'
p960
I4
sS'YLR437C'
p961
I4
sS'YFR009W'
p962
I15
sS'YKR071C'
p963
I8
sS'YER156C'
p964
I10
sS'YDR489W'
p965
I1
sS'YOR233W'
p966
I2
sS'YPR049C'
p967
I1
sS'YDL057W'
p968
I1
sS'YGR257C'
p969
I4
sS'YMR179W'
p970
I2
sS'YPL235W'
p971
I9
sS'YDL008W'
p972
I4
sS'YBL050W'
p973
I9
sS'YLR350W'
p974
I4
sS'YGR280C'
p975
I3
sS'YGR237C'
p976
I2
sS'YDL159W'
p977
I1
sS'YJR014W'
p978
I17
sS'YJL132W'
p979
I0
sS'YGL190C'
p980
I5
sS'YBR110W'
p981
I4
sS'YDR144C'
p982
I8
sS'YML091C'
p983
I1
sS'YPL018W'
p984
I2
sS'YGL018C'
p985
I1
sS'YMR194CB'
p986
I2
sS'YMR075W'
p987
I1
sS'YGR202C'
p988
I2
sS'YKL120W'
p989
I14
sS'YJR041C'
p990
I3
sS'YKL175W'
p991
I6
sS'YKR028W'
p992
I6
sS'YFL046W'
p993
I3
sS'YDR379W'
p994
I1
sS'YLR381W'
p995
I1
sS'YKL065C'
p996
I12
sS'YHR169W'
p997
I4
sS'YMR074C'
p998
I19
sS'YOR103C'
p999
I8
sS'YMR011W'
p1000
I15
sS'YCR087CA'
p1001
I7
sS'YAL061W'
p1002
I1
sS'YGR178C'
p1003
I12
sS'YNL059C'
p1004
I5
sS'YDL200C'
p1005
I2
sS'YDL102W'
p1006
I2
sS'YPR145W'
p1007
I36
sS'YIL121W'
p1008
I4
sS'YGL002W'
p1009
I5
sS'YLR214W'
p1010
I19
sS'YEL002C'
p1011
I16
sS'YIR010W'
p1012
I2
sS'YDR331W'
p1013
I4
sS'YLR176C'
p1014
I1
sS'YOR293W'
p1015
I266
sS'YML056C'
p1016
I30
sS'YKR044W'
p1017
I1
sS'YGL029W'
p1018
I5
sS'YFL004W'
p1019
I20
sS'YBR115C'
p1020
I8
sS'YCR069W'
p1021
I6
sS'YDL128W'
p1022
I8
sS'YLR433C'
p1023
I3
sS'YMR068W'
p1024
I0
sS'YPL098C'
p1025
I9
sS'YMR153W'
p1026
I3
sS'YGR239C'
p1027
I1
sS'YMR124W'
p1028
I2
sS'YDL040C'
p1029
I12
sS'YER032W'
p1030
I1
sS'YJR070C'
p1031
I23
sS'YDR448W'
p1032
I3
sS'YPL189CA'
p1033
I3
sS'YDL097C'
p1034
I14
sS'YPR003C'
p1035
I1
sS'YGL005C'
p1036
I3
sS'YGR262C'
p1037
I3
sS'YIR024C'
p1038
I1
sS'YDL111C'
p1039
I6
sS'YLR049C'
p1040
I4
sS'YDR202C'
p1041
I2
sS'YPL007C'
p1042
I2
sS'YDR495C'
p1043
I1
sS'YLR104W'
p1044
I4
sS'YKL159C'
p1045
I1
sS'YGR215W'
p1046
I6
sS'YJR046W'
p1047
I5
sS'YDR253C'
p1048
I0
sS'YDR507C'
p1049
I5
sS'YML096W'
p1050
I2
sS'YHR192W'
p1051
I3
sS'YCR082W'
p1052
I17
sS'YDR300C'
p1053
I8
sS'YBR101C'
p1054
I7
sS'YGL087C'
p1055
I6
sS'YPL052W'
p1056
I1
sS'YIL003W'
p1057
I2
sS'YBR245C'
p1058
I5
sS'YBR163W'
p1059
I2
sS'YDR465C'
p1060
I4
sS'YLR276C'
p1061
I8
sS'YER019CA'
p1062
I37
sS'YKL079W'
p1063
I2
sS'YFR044C'
p1064
I31
sS'YBR210W'
p1065
I4
sS'YPL103C'
p1066
I1
sS'YIL103W'
p1067
I3
sS'YBR269C'
p1068
I6
sS'YFR033C'
p1069
I8
sS'YDR283C'
p1070
I3
sS'YJR096W'
p1071
I3
sS'YAL010C'
p1072
I1
sS'YBR192W'
p1073
I2
sS'YNL188W'
p1074
I2
sS'YJR116W'
p1075
I2
sS'YJL013C'
p1076
I1
sS'YGR143W'
p1077
I2
sS'YGR112W'
p1078
I1
sS'YNR022C'
p1079
I6
sS'YGL229C'
p1080
I1
sS'YOR130C'
p1081
I2
sS'YBR125C'
p1082
I3
sS'YCL043C'
p1083
I65
sS'YLR356W'
p1084
I2
sS'YBR221C'
p1085
I43
sS'YJL173C'
p1086
I11
sS'YJL094C'
p1087
I2
sS'YGL043W'
p1088
I8
sS'YNL166C'
p1089
I3
sS'YGL098W'
p1090
I2
sS'YJR056C'
p1091
I1
sS'YDR097C'
p1092
I3
sS'YKR069W'
p1093
I1
sS'YLR404W'
p1094
I1
sS'YJL121C'
p1095
I19
sS'YGR161C'
p1096
I2
sS'YGR186W'
p1097
I7
sS'YHR062C'
p1098
I4
sS'YPL069C'
p1099
I2
sS'YDL213C'
p1100
I6
sS'YIL132C'
p1101
I0
sS'YIL145C'
p1102
I5
sS'YBR149W'
p1103
I14
sS'YGL216W'
p1104
I2
sS'YDR317W'
p1105
I0
sS'YFL031W'
p1106
I84
sS'YDR478W'
p1107
I1
sS'YHR064C'
p1108
I62
sS'YKL015W'
p1109
I3
sS'YGR210C'
p1110
I7
sS'YGL210W'
p1111
I4
sS'YMR020W'
p1112
I1
sS'YJR089W'
p1113
I1
sS'YJL145W'
p1114
I8
sS'YDR377W'
p1115
I14
sS'YIR007W'
p1116
I1
sS'YJL201W'
p1117
I3
sS'YLR314C'
p1118
I12
sS'YNL126W'
p1119
I2
sS'YBR132C'
p1120
I2
sS'YKL040C'
p1121
I6
sS'YPR114W'
p1122
I8
sS'YLR249W'
p1123
I374
sS'YNL004W'
p1124
I4
sS'YOR327C'
p1125
I13
sS'YHR039CA'
p1126
I71
sS'YOR378W'
p1127
I0
sS'YFR015C'
p1128
I1
sS'YOR265W'
p1129
I8
sS'YOL139C'
p1130
I53
sS'YIL092W'
p1131
I0
sS'YDR379CA'
p1132
I1
sS'YKL006CA'
p1133
I5
sS'YLR321C'
p1134
I3
sS'YOR266W'
p1135
I1
sS'YPL203W'
p1136
I3
sS'YNR055C'
p1137
I4
sS'YDR532C'
p1138
I1
sS'YIL014W'
p1139
I3
sS'YML098W'
p1140
I2
sS'YGR052W'
p1141
I0
sS'YCL012C'
p1142
I2
sS'YDR184C'
p1143
I3
sS'YKL210W'
p1144
I31
sS'YNL221C'
p1145
I4
sS'YOR278W'
p1146
I2
sS'YER146W'
p1147
I18
sS'YNL085W'
p1148
I17
sS'YGL061C'
p1149
I3
sS'YDR394W'
p1150
I12
sS'YPL210C'
p1151
I8
sS'YFL034CB'
p1152
I2
sS'YOR330C'
p1153
I3
sS'YAR014C'
p1154
I4
sS'YOR087W'
p1155
I3
sS'YKL057C'
p1156
I5
sS'YHR159W'
p1157
I1
sS'YPL132W'
p1158
I2
sS'YIL114C'
p1159
I3
sS'YGL226CA'
p1160
I8
sS'YGL234W'
p1161
I28
sS'YOL055C'
p1162
I1
sS'YPR093C'
p1163
I1
sS'YOL082W'
p1164
I3
sS'YAL029C'
p1165
I5
sS'YDR452W'
p1166
I7
sS'YNL108C'
p1167
I5
sS'YDR421W'
p1168
I2
sS'YLR239C'
p1169
I1
sS'YOR065W'
p1170
I4
sS'YHL035C'
p1171
I3
sS'YMR301C'
p1172
I3
sS'YGL171W'
p1173
I4
sS'YDR294C'
p1174
I6
sS'YAL049C'
p1175
I6
sS'YFR002W'
p1176
I6
sS'YBR267W'
p1177
I4
sS'YNL250W'
p1178
I1
sS'YDL175C'
p1179
I2
sS'YGR089W'
p1180
I2
sS'YBL029W'
p1181
I0
sS'YDR457W'
p1182
I8
sS'YGR023W'
p1183
I0
sS'YHL028W'
p1184
I1
sS'YNL131W'
p1185
I25
sS'YLR386W'
p1186
I3
sS'YKL095W'
p1187
I1
sS'YKL137W'
p1188
I5
sS'YBL005W'
p1189
I2
sS'YGL197W'
p1190
I4
sS'YNL048W'
p1191
I3
sS'YDR056C'
p1192
I8
sS'YOR243C'
p1193
I7
sS'YLR130C'
p1194
I4
sS'YER022W'
p1195
I2
sS'YBR057C'
p1196
I2
sS'YPL269W'
p1197
I1
sS'YDR041W'
p1198
I4
sS'YGL047W'
p1199
I2
sS'YMR165C'
p1200
I2
sS'YKR070W'
p1201
I6
sS'YKR096W'
p1202
I2
sS'YKL168C'
p1203
I1
sS'YMR205C'
p1204
I71
sS'YGL225W'
p1205
I20
sS'YCR005C'
p1206
I7
sS'YJL185C'
p1207
I0
sS'YER164W'
p1208
I5
sS'YBL101C'
p1209
I2
sS'YPR055W'
p1210
I2
sS'YML017W'
p1211
I7
sS'YHR037W'
p1212
I6
sS'YLR032W'
p1213
I1
sS'YGL078C'
p1214
I9
sS'YHR069C'
p1215
I4
sS'YBL051C'
p1216
I6
sS'YGR281W'
p1217
I7
sS'YLR089C'
p1218
I7
sS'YER092W'
p1219
I6
sS'YDR488C'
p1220
I1
sS'YJL063C'
p1221
I4
sS'YGR256W'
p1222
I0
sS'YEL042W'
p1223
I13
sS'YPR048W'
p1224
I2
sS'YEL020C'
p1225
I1
sS'YHL013C'
p1226
I3
sS'YOL060C'
p1227
I3
sS'YGR009C'
p1228
I3
sS'YNL208W'
p1229
I34
sS'YNR047W'
p1230
I3
sS'YCL005W'
p1231
I2
sS'YGL105W'
p1232
I51
sS'YBR097W'
p1233
I1
sS'YLR014C'
p1234
I1
sS'YFR017C'
p1235
I0
sS'YDL076C'
p1236
I3
sS'YDR120C'
p1237
I8
sS'YER126C'
p1238
I11
sS'YMR227C'
p1239
I1
sS'YPR186C'
p1240
I1
sS'YNL121C'
p1241
I17
sS'YGR194C'
p1242
I1
sS'YDR486C'
p1243
I4
sS'YJL192C'
p1244
I15
sS'YHR117W'
p1245
I6
sS'YDR030C'
p1246
I0
sS'YBL029CA'
p1247
I2
sS'YPL274W'
p1248
I6
sS'YFL022C'
p1249
I22
sS'YBL047C'
p1250
I11
sS'YOR315W'
p1251
I7
sS'YEL051W'
p1252
I35
sS'YDR265W'
p1253
I1
sS'YLL023C'
p1254
I4
sS'YKL203C'
p1255
I3
sS'YOL004W'
p1256
I9
sS'YLR005W'
p1257
I2
sS'YDR439W'
p1258
I1
sS'YGR014W'
p1259
I8
sS'YLR278C'
p1260
I2
sS'YGL101W'
p1261
I5
sS'YDL036C'
p1262
I2
sS'YDR125C'
p1263
I0
sS'YKL171W'
p1264
I1
sS'YAR027W'
p1265
I4
sS'YMR032W'
p1266
I2
sS'YMR150C'
p1267
I4
sS'YFL007W'
p1268
I7
sS'YML059C'
p1269
I3
sS'YDL129W'
p1270
I1
sS'YDR063W'
p1271
I7
sS'YKR045C'
p1272
I1
sS'YPL099C'
p1273
I2
sS'YHR087W'
p1274
I3
sS'YGR238C'
p1275
I1
sS'YCR012W'
p1276
I759
sS'YER035W'
p1277
I2
sS'YEL066W'
p1278
I5
sS'YDL084W'
p1279
I67
sS'YDR201W'
p1280
I3
sS'YOR177C'
p1281
I0
sS'YDR254W'
p1282
I1
sS'YPR128C'
p1283
I5
sS'YGR263C'
p1284
I1
sS'YKL156W'
p1285
I76
sS'YHR148W'
p1286
I4
sS'YHR191C'
p1287
I2
sS'YDL110C'
p1288
I3
sS'YDL098C'
p1289
I2
sS'YDR301W'
p1290
I3
sS'YJL053W'
p1291
I3
sS'YPR104C'
p1292
I2
sS'YMR069W'
p1293
I0
sS'YIR025W'
p1294
I1
sS'YPR002W'
p1295
I0
sS'YGL006W'
p1296
I3
sS'YPL006W'
p1297
I4
sS'YCR083W'
p1298
I7
sS'YKR067W'
p1299
I3
sS'YNL310C'
p1300
I4
sS'YML028W'
p1301
I217
sS'YCR063W'
p1302
I1
sS'YLL001W'
p1303
I3
sS'YOR168W'
p1304
I26
sS'YDR052C'
p1305
I2
sS'YCL001W'
p1306
I12
sS'YER040W'
p1307
I1
sS'YMR043W'
p1308
I5
sS'YPR173C'
p1309
I7
sS'YGL059W'
p1310
I1
sS'YCL047C'
p1311
I2
sS'YJL031C'
p1312
I3
sS'YML077W'
p1313
I5
sS'YDR322CA'
p1314
I5
sS'YER068W'
p1315
I3
sS'YER013W'
p1316
I1
sS'YMR269W'
p1317
I0
sS'YLR090W'
p1318
I3
sS'YMR092C'
p1319
I11
sS'YDL021W'
p1320
I1
sS'YLR143W'
p1321
I2
sS'YLR043C'
p1322
I59
sS'YJL008C'
p1323
I19
sS'YDL018C'
p1324
I4
sS'YML060W'
p1325
I2
sS'YJR062C'
p1326
I2
sS'YGL067W'
p1327
I4
sS'YDR461CA'
p1328
I4
sS'YBR035C'
p1329
I14
sS'YPR160W'
p1330
I3
sS'YMR191W'
p1331
I3
sS'YBL060W'
p1332
I1
sS'YML035C'
p1333
I6
sS'YJR033C'
p1334
I2
sS'YGR216C'
p1335
I2
sS'YLR050C'
p1336
I5
sS'YDR424C'
p1337
I9
sS'YNL277W'
p1338
I1
sS'YDL085CA'
p1339
I11
sS'YCR090C'
p1340
I8
sS'YNL167C'
p1341
I1
sS'YAL060W'
p1342
I13
sS'YLR099WA'
p1343
I9
sS'YFL025C'
p1344
I2
sS'YKL009W'
p1345
I13
sS'YLR178C'
p1346
I4
sS'YIL144W'
p1347
I2
sS'YNL307C'
p1348
I12
sS'YBR156C'
p1349
I1
sS'YNL278W'
p1350
I1
sS'YPL068C'
p1351
I1
sS'YLR075W'
p1352
I496
sS'YJR057W'
p1353
I4
sS'YJL126W'
p1354
I1
sS'YGL011C'
p1355
I20
sS'YIL133C'
p1356
I153
sS'YHR063C'
p1357
I9
sS'YJL200C'
p1358
I8
sS'YBR148W'
p1359
I0
sS'YGL211W'
p1360
I3
sS'YDR316W'
p1361
I1
sS'YMR093W'
p1362
I5
sS'YPL113C'
p1363
I0
sS'YCL052C'
p1364
I3
sS'YPL195W'
p1365
I6
sS'YNL107W'
p1366
I2
sS'YDR352W'
p1367
I3
sS'YNR003C'
p1368
I4
sS'YBL063W'
p1369
I1
sS'YDR479C'
p1370
I1
sS'YAL059W'
p1371
I6
sS'YMR033W'
p1372
I4
sS'YNL007C'
p1373
I21
sS'YKL157W'
p1374
I11
sS'YKL096W'
p1375
I15
sS'YDR089W'
p1376
I3
sS'YKL014C'
p1377
I6
sS'YLR237W'
p1378
I2
sS'YMR021C'
p1379
I2
sS'YJR040W'
p1380
I3
sS'YPR119W'
p1381
I4
sS'YPR103W'
p1382
I18
sS'YDR378C'
p1383
I16
sS'YER140W'
p1384
I2
sS'YBL086C'
p1385
I1
sS'YKL176C'
p1386
I4
sS'YKR029C'
p1387
I2
sS'YDR249C'
p1388
I1
sS'YDL108W'
p1389
I2
sS'YGL191W'
p1390
I11
sS'YJL104W'
p1391
I9
sS'YPL019C'
p1392
I41
sS'YFL041W'
p1393
I5
sS'YJL168C'
p1394
I3
sS'YDR145W'
p1395
I5
sS'YDL174C'
p1396
I4
sS'YER091C'
p1397
I47
sS'YJL062W'
p1398
I3
sS'YPL085W'
p1399
I7
sS'YNL325C'
p1400
I1
sS'YLR297W'
p1401
I2
sS'YDL203C'
p1402
I2
sS'YHR132WA'
p1403
I8
sS'YGR105W'
p1404
I10
sS'YLR087C'
p1405
I2
sS'YLR215C'
p1406
I2
sS'YML082W'
p1407
I2
sS'YKL100C'
p1408
I6
sS'YDR216W'
p1409
I1
sS'YKL130C'
p1410
I4
sS'YOR106W'
p1411
I2
sS'YPL162C'
p1412
I2
sS'YOL054W'
p1413
I1
sS'YFR001W'
p1414
I5
sS'YPR152C'
p1415
I1
sS'YBR220C'
p1416
I4
sS'YPL131W'
p1417
I341
sS'YIL115C'
p1418
I7
sS'YGL233W'
p1419
I4
sS'YCL027W'
p1420
I1
sS'YGR113W'
p1421
I2
sS'YLR251W'
p1422
I1
sS'YLR319C'
p1423
I2
sS'YGL186C'
p1424
I4
sS'YBR278W'
p1425
I2
sS'YHR029C'
p1426
I4
sS'YGR209C'
p1427
I57
sS'YDR234W'
p1428
I6
sS'YIL031W'
p1429
I2
sS'YDR295C'
p1430
I2
sS'YAL033W'
p1431
I4
sS'YLR203C'
p1432
I7
sS'YGR155W'
p1433
I56
sS'YBR157C'
p1434
I2
sS'YFR049W'
p1435
I5
sS'YBR284W'
p1436
I0
sS'YNR036C'
p1437
I15
sS'YDR108W'
p1438
I1
sS'YNR049C'
p1439
I2
sS'YDR192C'
p1440
I1
sS'YOL112W'
p1441
I1
sS'YKR004C'
p1442
I1
sS'YML109W'
p1443
I1
sS'YLR342W'
p1444
I41
sS'YOL083W'
p1445
I0
sS'YLR335W'
p1446
I9
sS'YNL251C'
p1447
I5
sS'YJR102C'
p1448
I1
sS'YPL089C'
p1449
I1
sS'YHR134W'
p1450
I1
sS'YOR020C'
p1451
I71
sS'YBL028C'
p1452
I13
sS'YER123W'
p1453
I3
sS'YLR426W'
p1454
I2
sS'YBR164C'
p1455
I10
sS'YIL153W'
p1456
I2
sS'YOL092W'
p1457
I7
sS'YJR088C'
p1458
I8
sS'YHR074W'
p1459
I8
sS'YJL217W'
p1460
I26
sS'YPL043W'
p1461
I7
sS'YLR368W'
p1462
I1
sS'YGR277C'
p1463
I3
sS'YFR030W'
p1464
I3
sS'YKL089W'
p1465
I1
sS'YOR006C'
p1466
I2
sS'YOR341W'
p1467
I24
sS'YBR131W'
p1468
I1
sS'YLR277C'
p1469
I2
sS'YAL011W'
p1470
I1
sS'YDL155W'
p1471
I4
sS'YBR244W'
p1472
I10
sS'YIL055C'
p1473
I0
sS'YPL053C'
p1474
I7
sS'YGL243W'
p1475
I1
sS'YGR086C'
p1476
I49
sS'YBR179C'
p1477
I2
sS'YDR282C'
p1478
I1
sS'YPL155C'
p1479
I1
sS'YJR097W'
p1480
I2
sS'YJR090C'
p1481
I3
sS'YLR351C'
p1482
I11
sS'YOL094C'
p1483
I3
sS'YPR116W'
p1484
I1
sS'YAL002W'
p1485
I1
sS'YJL095W'
p1486
I2
sS'YHR018C'
p1487
I5
sS'YDR408C'
p1488
I9
sS'YPL100W'
p1489
I1
sS'YOL149W'
p1490
I4
sS'YPL067C'
p1491
I1
sS'YNR014W'
p1492
I0
sS'YOR077W'
p1493
I1
sS'YOR046C'
p1494
I16
sS'YNL141W'
p1495
I6
sS'YBL026W'
p1496
I14
sS'YMR220W'
p1497
I7
sS'YPR187W'
p1498
I23
sS'YHR204W'
p1499
I2
sS'YEL018W'
p1500
I2
sS'YDR121W'
p1501
I4
sS'YER125W'
p1502
I14
sS'YDR009W'
p1503
I0
sS'YDR432W'
p1504
I29
sS'YGR195W'
p1505
I5
sS'YPL211W'
p1506
I15
sS'YDL077C'
p1507
I2
sS'YOR222W'
p1508
I3
sS'YDL001W'
p1509
I1
sS'YOL061W'
p1510
I11
sS'YAL014C'
p1511
I4
sS'YGL104C'
p1512
I1
sS'YER152C'
p1513
I7
sS'YLR015W'
p1514
I1
sS'YHR116W'
p1515
I1
sS'YPL259C'
p1516
I3
sS'YGR094W'
p1517
I49
sS'YDL059C'
p1518
I1
sS'YIL050W'
p1519
I3
sS'YLR008C'
p1520
I8
sS'YER099C'
p1521
I4
sS'YPL002C'
p1522
I2
sS'YMR219W'
p1523
I3
sS'YLR055C'
p1524
I3
sS'YGR017W'
p1525
I6
sS'YDR031W'
p1526
I2
sS'YCR028C'
p1527
I2
sS'YOL005C'
p1528
I9
sS'YOR213C'
p1529
I2
sS'YGR093W'
p1530
I2
sS'YEL050C'
p1531
I4
sS'YIR035C'
p1532
I3
sS'YHR036W'
p1533
I1
sS'YIL077C'
p1534
I1
sS'YOL072W'
p1535
I1
sS'YLR450W'
p1536
I4
sS'YLR442C'
p1537
I1
sS'YPL202C'
p1538
I2
sS'YDR191W'
p1539
I0
sS'YGL224C'
p1540
I3
sS'YIL017C'
p1541
I1
sS'YNL268W'
p1542
I9
sS'YOR307C'
p1543
I3
sS'YLR396C'
p1544
I2
sS'YOL123W'
p1545
I15
sS'YDR132C'
p1546
I0
sS'YML116W'
p1547
I1
sS'YNL084C'
p1548
I8
sS'YGL066W'
p1549
I1
sS'YBR265W'
p1550
I5
sS'YIL088C'
p1551
I5
sS'YDR185C'
p1552
I0
sS'YLR179C'
p1553
I32
sS'YOR386W'
p1554
I1
sS'YAR042W'
p1555
I4
sS'YJR075W'
p1556
I11
sS'YHR207C'
p1557
I2
sS'YLL048C'
p1558
I11
sS'YBR162WA'
p1559
I26
sS'YOR051C'
p1560
I9
sS'YJL165C'
p1561
I3
sS'YDR425W'
p1562
I1
sS'YNL220W'
p1563
I22
sS'YBL007C'
p1564
I13
sS'YGR060W'
p1565
I42
sS'YCL064C'
p1566
I28
sS'YML076C'
p1567
I1
sS'YER174C'
p1568
I4
sS'YML029W'
p1569
I2
sS'YBL107C'
p1570
I3
sS'YDR151C'
p1571
I3
sS'YDR179WA'
p1572
I1
sS'YOR152C'
p1573
I1
sS'YCR073WA'
p1574
I5
sS'YGR285C'
p1575
I57
sS'YNL076W'
p1576
I2
sS'YEL017CA'
p1577
I130
sS'YCR033W'
p1578
I3
sS'YER069W'
p1579
I2
sS'YMR091C'
p1580
I6
sS'YER012W'
p1581
I21
sS'YDR104C'
p1582
I0
sS'YDR222W'
p1583
I2
sS'YBL067C'
p1584
I5
sS'YJR001W'
p1585
I7
sS'YHR098C'
p1586
I11
sS'YDL019C'
p1587
I4
sS'YML034W'
p1588
I4
sS'YDL045WA'
p1589
I6
sS'YPR023C'
p1590
I6
sS'YLR042C'
p1591
I1
sS'YNL300W'
p1592
I8
sS'YLR144C'
p1593
I2
sS'YBL017C'
p1594
I8
sS'YIL152W'
p1595
I1
sS'YPR058W'
p1596
I5
sS'YLR068W'
p1597
I2
sS'YOR123C'
p1598
I4
sS'YJR007W'
p1599
I23
sS'YML061C'
p1600
I2
sS'YAL019W'
p1601
I5
sS'YNL202W'
p1602
I0
sS'YJL186W'
p1603
I9
sS'YHR101C'
p1604
I1
sS'YER163C'
p1605
I4
sS'YPL268W'
p1606
I1
sS'YER132C'
p1607
I2
sS'YCR002C'
p1608
I8
sS'YML016C'
p1609
I2
sS'YGR077C'
p1610
I1
sS'YLR133W'
p1611
I2
sS'YDL017W'
p1612
I1
sS'YDR512C'
p1613
I4
sS'YDR113C'
p1614
I1
sS'YLL031C'
p1615
I4
sS'YLR033W'
p1616
I3
sS'YLR088W'
p1617
I5
sS'YBR021W'
p1618
I1
sS'YBR230C'
p1619
I8
sS'YGR255C'
p1620
I4
sS'YDR525WA'
p1621
I4
sS'YGL110C'
p1622
I1
sS'YDL051W'
p1623
I22
sS'YKL074C'
p1624
I1
sS'YBL102W'
p1625
I8
sS'YNL252C'
p1626
I3
sS'YPL237W'
p1627
I39
sS'YLR120C'
p1628
I4
sS'YBR187W'
p1629
I13
sS'YHR005CA'
p1630
I30
sS'YEL043W'
p1631
I3
sS'YMR077C'
p1632
I1
sS'YPL183C'
p1633
I4
sS'YDR166C'
p1634
I2
sS'YKR088C'
p1635
I4
sS'YHR001WA'
p1636
I5
sS'YPR118W'
p1637
I12
sS'YBR198C'
p1638
I4
sS'YJR036C'
p1639
I0
sS'YGL248W'
p1640
I3
sS'YBL002W'
p1641
I70
sS'YJL005W'
p1642
I4
sS'YJL050W'
p1643
I9
sS'YDL192W'
p1644
I82
sS'YOL095C'
p1645
I1
sS'YDR146C'
p1646
I3
sS'YER177W'
p1647
I90
sS'YDR508C'
p1648
I18
sS'YPL158C'
p1649
I4
sS'YDR248C'
p1650
I4
sS'YJR016C'
p1651
I52
sS'YDL202W'
p1652
I4
sS'YDL100C'
p1653
I30
sS'YFL008W'
p1654
I3
sS'YDR337W'
p1655
I4
sS'YGL055W'
p1656
I26
sS'YJL061W'
p1657
I4
sS'YOR049C'
p1658
I1
sS'YLR216C'
p1659
I30
sS'YPR181C'
p1660
I21
sS'YPR147C'
p1661
I4
sS'YGL032C'
p1662
I8
sS'YDR441C'
p1663
I5
sS'YPL094C'
p1664
I15
sS'YNL020C'
p1665
I1
sS'YPL023C'
p1666
I4
sS'YLR290C'
p1667
I2
sS'YPL163C'
p1668
I7
sS'YIL123W'
p1669
I31
sS'YCL029C'
p1670
I2
sS'YMR246W'
p1671
I23
sS'YDL236W'
p1672
I8
sS'YMR035W'
p1673
I2
sS'YPR161C'
p1674
I3
sS'YOR291W'
p1675
I3
sS'YKL117W'
p1676
I27
sS'YCR015C'
p1677
I1
sS'YHR152W'
p1678
I5
sS'YKR011C'
p1679
I2
sS'YDR159W'
p1680
I2
sS'YML005W'
p1681
I1
sS'YNL193W'
p1682
I2
sS'YMR059W'
p1683
I1
sS'YDR062W'
p1684
I13
sS'YML058W'
p1685
I38
sS'YML123C'
p1686
I91
sS'YLR435W'
p1687
I5
sS'YOR165W'
p1688
I7
sS'YHR190W'
p1689
I14
sS'YLR106C'
p1690
I9
sS'YPR005C'
p1691
I0
sS'YNL044W'
p1692
I10
sS'YKR002W'
p1693
I3
sS'YNL016W'
p1694
I30
sS'YBR003W'
p1695
I3
sS'YDR200C'
p1696
I1
sS'YDR255C'
p1697
I1
sS'YPR129W'
p1698
I9
sS'YGR260W'
p1699
I14
sS'YNL011C'
p1700
I1
sS'YDR357C'
p1701
I5
sS'YDL099W'
p1702
I3
sS'YPL005W'
p1703
I0
sS'YJL147C'
p1704
I1
sS'YJL109C'
p1705
I11
sS'YJR021C'
p1706
I1
sS'YLR274W'
p1707
I3
sS'YBR247C'
p1708
I5
sS'YLR185W'
p1709
I246
sS'YJL210W'
p1710
I3
sS'YIL001W'
p1711
I1
sS'YLR369W'
p1712
I2
sS'YIL154C'
p1713
I2
sS'YPL149W'
p1714
I2
sS'YBR102C'
p1715
I2
sS'YOR007C'
p1716
I49
sS'YJR143C'
p1717
I20
sS'YIL101C'
p1718
I0
sS'YBR165W'
p1719
I2
sS'YHR097C'
p1720
I1
sS'YDL220C'
p1721
I1
sS'YGR170W'
p1722
I2
sS'YHR075C'
p1723
I1
sS'YKL004W'
p1724
I10
sS'YOR208W'
p1725
I1
sS'YNL142W'
p1726
I0
sS'YOL148C'
p1727
I2
sS'YPR082C'
p1728
I3
sS'YPL154C'
p1729
I33
sS'YHR019C'
p1730
I45
sS'YJR129C'
p1731
I1
sS'YML055W'
p1732
I6
sS'YKL033WA'
p1733
I17
sS'YJR110W'
p1734
I1
sS'YIL149C'
p1735
I3
sS'YGR169CA'
p1736
I2
sS'YPL101W'
p1737
I3
sS'YLR258W'
p1738
I6
sS'YIL023C'
p1739
I2
sS'YNR015W'
p1740
I3
sS'YJR098C'
p1741
I0
sS'YBR127C'
p1742
I71
sS'YOR047C'
p1743
I2
sS'YFL024C'
p1744
I2
sS'YLR047C'
p1745
I1
sS'YGL009C'
p1746
I59
sS'YHR176W'
p1747
I0
sS'YGR163W'
p1748
I3
sS'YJL127C'
p1749
I1
sS'YKL022C'
p1750
I2
sS'YEL040W'
p1751
I27
sS'YKL055C'
p1752
I1
sS'YOR012W'
p1753
I1
sS'YBL092W'
p1754
I430
sS'YEL065W'
p1755
I11
sS'YDR368W'
p1756
I12
sS'YJL158C'
p1757
I48
sS'YGR229C'
p1758
I9
sS'YDL164C'
p1759
I2
sS'YJR050W'
p1760
I2
sS'YNR016C'
p1761
I46
sS'YJL101C'
p1762
I5
sS'YDL211C'
p1763
I0
sS'YLR234W'
p1764
I1
sS'YIR001C'
p1765
I2
sS'YKL195W'
p1766
I9
sS'YKL179C'
p1767
I4
sS'YDR088C'
p1768
I1
sS'YDR320C'
p1769
I2
sS'YKL042W'
p1770
I1
sS'YLR376C'
p1771
I0
sS'YNL066W'
p1772
I31
sS'YPL112C'
p1773
I6
sS'YPL030W'
p1774
I3
sS'YAL058W'
p1775
I3
sS'YKL013C'
p1776
I16
sS'YLR316C'
p1777
I1
sS'YDR319C'
p1778
I1
sS'YFR022W'
p1779
I0
sS'YNL124W'
p1780
I1
sS'YJR136C'
p1781
I1
sS'YIL094C'
p1782
I20
sS'YGL164C'
p1783
I1
sS'YIL016W'
p1784
I8
sS'YJL098W'
p1785
I4
sS'YLR451W'
p1786
I1
sS'YER090W'
p1787
I12
sS'YML108W'
p1788
I5
sS'YHR017W'
p1789
I2
sS'YBL054W'
p1790
I2
sS'YOL044W'
p1791
I1
sS'YDR534C'
p1792
I0
sS'YMR310C'
p1793
I3
sS'YLR323C'
p1794
I1
sS'YOL028C'
p1795
I3
sS'YNR057C'
p1796
I0
sS'YDR186C'
p1797
I4
sS'YBR103W'
p1798
I2
sS'YBL038W'
p1799
I4
sS'YML117W'
p1800
I4
sS'YGR054W'
p1801
I11
sS'YCL010C'
p1802
I4
sS'YGR189C'
p1803
I16
sS'YOR246C'
p1804
I7
sS'YOR332W'
p1805
I58
sS'YIR003W'
p1806
I3
sS'YOR069W'
p1807
I3
sS'YGR038W'
p1808
I4
sS'YBR078W'
p1809
I84
sS'YOL122C'
p1810
I3
sS'YOR363C'
p1811
I1
sS'YNL087W'
p1812
I8
sS'YIL128W'
p1813
I3
sS'YJR111C'
p1814
I1
sS'YBR104W'
p1815
I3
sS'YNL223W'
p1816
I0
sS'YBR227C'
p1817
I2
sS'YLR318W'
p1818
I0
sS'YOL053W'
p1819
I1
sS'YFR055W'
p1820
I7
sS'YOR067C'
p1821
I5
sS'YDR296W'
p1822
I5
sS'YGL232W'
p1823
I8
sS'YML124C'
p1824
I15
sS'YPR091C'
p1825
I5
sS'YGR141W'
p1826
I1
sS'YNL173C'
p1827
I3
sS'YIL116W'
p1828
I6
sS'YPL032C'
p1829
I6
sS'YOL100W'
p1830
I1
sS'YDL122W'
p1831
I6
sS'YLR194C'
p1832
I4
sS'YNR048W'
p1833
I1
sS'YGR109C'
p1834
I1
sS'YJR103W'
p1835
I4
sS'YHR028C'
p1836
I7
sS'YGR156W'
p1837
I2
sS'YFR048W'
p1838
I2
sS'YGL169W'
p1839
I2
sS'YNR037C'
p1840
I9
sS'YBR136W'
p1841
I1
sS'YOL113W'
p1842
I2
sS'YCL024W'
p1843
I1
sS'YMR307W'
p1844
I90
sS'YAL032C'
p1845
I1
sS'YGL145W'
p1846
I2
sS'YGL112C'
p1847
I5
sS'YHR137W'
p1848
I5
sS'YOR021C'
p1849
I13
sS'YNL283C'
p1850
I4
sS'YLR021W'
p1851
I4
sS'YOL086WA'
p1852
I4
sS'YMR014W'
p1853
I3
sS'YER133W'
p1854
I22
sS'YMR198W'
p1855
I2
sS'YKL197C'
p1856
I2
sS'YOL006C'
p1857
I4
sS'YCR003W'
p1858
I3
sS'YLR132C'
p1859
I1
sS'YER020W'
p1860
I3
sS'YER162C'
p1861
I0
sS'YNL255C'
p1862
I39
sS'YDR511W'
p1863
I3
sS'YML011C'
p1864
I2
sS'YKL035W'
p1865
I20
sS'YNL201C'
p1866
I3
sS'YBR068C'
p1867
I19
sS'YLL034C'
p1868
I5
sS'YHR102W'
p1869
I2
sS'YER112W'
p1870
I7
sS'YDR043C'
p1871
I1
sS'YMR250W'
p1872
I3
sS'YER075C'
p1873
I1
sS'YJL187C'
p1874
I2
sS'YEL015W'
p1875
I4
sS'YBL103C'
p1876
I1
sS'YLR018C'
p1877
I4
sS'YKR085C'
p1878
I8
sS'YMR319C'
p1879
I4
sS'YPL045W'
p1880
I2
sS'YLR418C'
p1881
I3
sS'YJL062WA'
p1882
I9
sS'YPR013C'
p1883
I1
sS'YLR063W'
p1884
I1
sS'YER059W'
p1885
I2
sS'YMR243C'
p1886
I18
sS'YGL111W'
p1887
I5
sS'YNL110C'
p1888
I11
sS'YBR289W'
p1889
I2
sS'YGR161WC'
p1890
I2
sS'YOR132W'
p1891
I4
sS'YBL025W'
p1892
I2
sS'YPL048W'
p1893
I31
sS'YOL066C'
p1894
I2
sS'YDR126W'
p1895
I0
sS'YLR388W'
p1896
I191
sS'YKL212W'
p1897
I16
sS'YJL071W'
p1898
I1
sS'YPL216W'
p1899
I0
sS'YHR115C'
p1900
I4
sS'YBL091CA'
p1901
I2
sS'YER124C'
p1902
I16
sS'YEL022W'
p1903
I6
sS'YBL031W'
p1904
I1
sS'YPR188C'
p1905
I6
sS'YIL053W'
p1906
I152
sS'YDL074C'
p1907
I6
sS'YNL073W'
p1908
I3
sS'YOR374W'
p1909
I9
sS'YJL190C'
p1910
I293
sS'YMR218C'
p1911
I2
sS'YNL265C'
p1912
I3
sS'YGR196C'
p1913
I2
sS'YOR269W'
p1914
I1
sS'YOR212W'
p1915
I8
sS'YPL256C'
p1916
I25
sS'YLR281C'
p1917
I0
sS'YKL201C'
p1918
I1
sS'YLL049W'
p1919
I4
sS'YMR221C'
p1920
I5
sS'YOL026C'
p1921
I8
sS'YNL106C'
p1922
I1
sS'YGL198W'
p1923
I6
sS'YNR032W'
p1924
I2
sS'YGL167C'
p1925
I11
sS'YEL053C'
p1926
I2
sS'YFR053C'
p1927
I21
sS'YMR280C'
p1928
I0
sS'YDR236C'
p1929
I2
sS'YJL042W'
p1930
I4
sS'YER037W'
p1931
I2
sS'YDR372C'
p1932
I10
sS'YER057C'
p1933
I19
sS'YCR092C'
p1934
I1
sS'YDR160W'
p1935
I1
sS'YMR156C'
p1936
I1
sS'YKL145W'
p1937
I19
sS'YJL111W'
p1938
I15
sS'YOR223W'
p1939
I1
sS'YHR021C'
p1940
I205
sS'YKR010C'
p1941
I1
sS'YDL043C'
p1942
I2
sS'YNL192W'
p1943
I6
sS'YLL010C'
p1944
I3
sS'YNL160W'
p1945
I6
sS'YLR436C'
p1946
I3
sS'YCL026CB'
p1947
I0
sS'YOR290C'
p1948
I5
sS'YKL114C'
p1949
I5
sS'YER093CA'
p1950
I1
sS'YML093W'
p1951
I5
sS'YJR077C'
p1952
I17
sS'YHR197W'
p1953
I3
sS'YCR081W'
p1954
I2
sS'YBR002C'
p1955
I3
sS'YDR423C'
p1956
I3
sS'YPR106W'
p1957
I2
sS'YPR004C'
p1958
I10
sS'YDR276C'
p1959
I46
sS'YLR200W'
p1960
I9
sS'YKL154W'
p1961
I6
sS'YKR003W'
p1962
I7
sS'YDR158W'
p1963
I34
sS'YKL092C'
p1964
I2
sS'YMR116C'
p1965
I322
sS'YPL004C'
p1966
I23
sS'YHR065C'
p1967
I6
sS'YML081CA'
p1968
I15
sS'YLR107W'
p1969
I2
sS'YNL047C'
p1970
I1
sS'YER153C'
p1971
I2
sS'YDR451C'
p1972
I4
sS'YGL030W'
p1973
I228
sS'YGR283C'
p1974
I2
sS'YDL052C'
p1975
I11
sS'YER175C'
p1976
I1
sS'YJL178C'
p1977
I9
sS'YMR174C'
p1978
I0
sS'YJL033W'
p1979
I5
sS'YLR429W'
p1980
I10
sS'YDL183C'
p1981
I0
sS'YDR032C'
p1982
I22
sS'YNL074C'
p1983
I3
sS'YDR050C'
p1984
I481
sS'YGR061C'
p1985
I29
sS'YLL007C'
p1986
I1
sS'YLR052W'
p1987
I4
sS'YCR032W'
p1988
I1
sS'YNL312W'
p1989
I6
sS'YDR105C'
p1990
I3
sS'YGL117W'
p1991
I1
sS'YOR271C'
p1992
I13
sS'YBL066C'
p1993
I1
sS'YPL241C'
p1994
I2
sS'YGL107C'
p1995
I3
sS'YLR145W'
p1996
I1
sS'YLR045C'
p1997
I3
sS'YDR169C'
p1998
I2
sS'YLR098C'
p1999
I1
sS'YOL125W'
p2000
I2
sS'YPR022C'
p2001
I2
sS'YLR110C'
p2002
I598
sS'YIR038C'
p2003
I4
sS'YHR099W'
p2004
I7
sS'YEL071W'
p2005
I29
sS'YKR058W'
p2006
I0
sS'YBR098W'
p2007
I0
sS'YML062C'
p2008
I1
sS'YGL156W'
p2009
I0
sS'YPR108W'
p2010
I12
sS'YKL152C'
p2011
I793
sS'YDR369C'
p2012
I1
sS'YBR106W'
p2013
I81
sS'YOL073C'
p2014
I2
sS'YBL093C'
p2015
I5
sS'YKL054C'
p2016
I19
sS'YLR453C'
p2017
I0
sS'YHR171W'
p2018
I0
sS'YGR162W'
p2019
I28
sS'YMR298W'
p2020
I9
sS'YDR350C'
p2021
I1
sS'YNL078W'
p2022
I4
sS'YDR520C'
p2023
I1
sS'YJL124C'
p2024
I13
sS'YGR245C'
p2025
I6
sS'YDR179C'
p2026
I2
sS'YLR253W'
p2027
I2
sS'YKL023W'
p2028
I2
sS'YNL165W'
p2029
I1
sS'YJR051W'
p2030
I4
sS'YKL094W'
p2031
I8
sS'YNL022C'
p2032
I3
sS'YPR131C'
p2033
I4
sS'YIL131C'
p2034
I4
sS'YKL143W'
p2035
I5
sS'YBR146W'
p2036
I6
sS'YDR318W'
p2037
I1
sS'YFL034W'
p2038
I2
sS'YPL031C'
p2039
I4
sS'YHR061C'
p2040
I2
sS'YDR453C'
p2041
I1
sS'YER080W'
p2042
I9
sS'YJL164C'
p2043
I4
sS'YNL125C'
p2044
I1
sS'YNL065W'
p2045
I1
sS'YJR019C'
p2046
I1
sS'YJR135C'
p2047
I1
sS'YDR321W'
p2048
I22
sS'YNR001C'
p2049
I11
sS'YNL178W'
p2050
I425
sS'YKL184W'
p2051
I11
sS'YDR147W'
p2052
I2
sS'YHR200W'
p2053
I16
sS'YMR031C'
p2054
I4
sS'YBL080C'
p2055
I1
sS'YMR076C'
p2056
I3
sS'YGR205W'
p2057
I3
sS'YDL069C'
p2058
I1
sS'YMR136W'
p2059
I1
sS'YDR167W'
p2060
I4
sS'YDR239C'
p2061
I2
sS'YJL051W'
p2062
I2
sS'YEL005C'
p2063
I1
sS'YGR016W'
p2064
I0
sS'YJR017C'
p2065
I15
sS'YPL180W'
p2066
I2
sS'YJL116C'
p2067
I0
sS'YNL227C'
p2068
I2
sS'YMR183C'
p2069
I15
sS'YOR027W'
p2070
I40
sS'YLL055W'
p2071
I0
sS'YNL027W'
p2072
I2
sS'YPL022W'
p2073
I3
sS'YDR336W'
p2074
I1
sS'YJL060W'
p2075
I4
sS'YDL101C'
p2076
I2
sS'YER072W'
p2077
I95
sS'YDL205C'
p2078
I6
sS'YKL018CA'
p2079
I1
sS'YML080W'
p2080
I2
sS'YPL095C'
p2081
I1
sS'YMR285C'
p2082
I2
sS'YLR291C'
p2083
I9
sS'YDR210W'
p2084
I17
sS'YIL122W'
p2085
I0
sS'YDL230W'
p2086
I1
sS'YPR166C'
p2087
I7
sS'YML115C'
p2088
I6
sS'YJR113C'
p2089
I5
sS'YBR279W'
p2090
I5
sS'YGL075C'
p2091
I1
sS'YOR281C'
p2092
I7
sS'YIL117C'
p2093
I2
sS'YAL055W'
p2094
I1
sS'YHR041C'
p2095
I5
sS'YOL052C'
p2096
I5
sS'YGR140W'
p2097
I1
sS'YDR475C'
p2098
I1
sS'YPL137C'
p2099
I4
sS'YOL158C'
p2100
I12
sS'YGR097W'
p2101
I2
sS'YHR156C'
p2102
I0
sS'YBR151W'
p2103
I8
sS'YCL025C'
p2104
I2
sS'YBR184W'
p2105
I0
sS'YGL231C'
p2106
I9
sS'YBR199W'
p2107
I9
sS'YHR136C'
p2108
I11
sS'YNL282W'
p2109
I2
sS'YBR286W'
p2110
I52
sS'YJL127CB'
p2111
I8
sS'YGL144C'
p2112
I1
sS'YBR168W'
p2113
I1
sS'YDR297W'
p2114
I9
sS'YAL031C'
p2115
I1
sS'YML070W'
p2116
I11
sS'YBL006C'
p2117
I7
sS'YLR340W'
p2118
I373
sS'YKL082C'
p2119
I4
sS'YGR108W'
p2120
I4
sS'YMR070W'
p2121
I2
sS'YBR264C'
p2122
I3
sS'YKL165C'
p2123
I4
sS'YBR231C'
p2124
I1
sS'YHR162W'
p2125
I37
sS'YBR246W'
p2126
I3
sS'YOR204W'
p2127
I46
sS'YPL110C'
p2128
I2
sS'YDL178W'
p2129
I4
sS'YLR275W'
p2130
I2
sS'YOR004W'
p2131
I5
sS'YER095W'
p2132
I3
sS'YLR186W'
p2133
I10
sS'YDR462W'
p2134
I4
sS'YKL043W'
p2135
I4
sS'YIL155C'
p2136
I2
sS'YGR171C'
p2137
I1
sS'YDL227C'
p2138
I6
sS'YPL065W'
p2139
I1
sS'YAL048C'
p2140
I1
sS'YPL055C'
p2141
I3
sS'YAL013W'
p2142
I1
sS'YOR298CA'
p2143
I72
sS'YGL093W'
p2144
I2
sS'YDR098C'
p2145
I11
sS'YLR324W'
p2146
I3
sS'YHR011W'
p2147
I1
sS'YGL200C'
p2148
I30
sS'YJR099W'
p2149
I3
sS'YOR044W'
p2150
I1
sS'YLR259C'
p2151
I72
sS'YML086C'
p2152
I8
sS'YGL184C'
p2153
I0
sS'YFR036W'
p2154
I2
sS'YGR231C'
p2155
I14
sS'YPL157W'
p2156
I2
sS'YKL005C'
p2157
I2
sS'YBR120C'
p2158
I2
sS'YLR085C'
p2159
I2
sS'YLR312WA'
p2160
I4
sS'YDR280W'
p2161
I4
sS'YER088C'
p2162
I4
sS'YMR058W'
p2163
I48
sS'YKL215C'
p2164
I4
sS'YDR067C'
p2165
I2
sS'YGL166W'
p2166
I2
sS'YDR061W'
p2167
I3
sS'YHR138C'
p2168
I2
sS'YMR022W'
p2169
I7
sS'YMR241W'
p2170
I20
sS'YPR189W'
p2171
I4
sS'YGL079W'
p2172
I3
sS'YDL075W'
p2173
I287
sS'YER150W'
p2174
I1
sS'YBL071WA'
p2175
I7
sS'YNL279W'
p2176
I0
sS'YDR400W'
p2177
I4
sS'YDR118W'
p2178
I1
sS'YOL018C'
p2179
I2
sS'YBR288C'
p2180
I4
sS'YDL003W'
p2181
I3
sS'YOR220W'
p2182
I3
sS'YKR092C'
p2183
I15
sS'YOR259C'
p2184
I15
sS'YNL231C'
p2185
I12
sS'YMR284W'
p2186
I1
sS'YNL264C'
p2187
I4
sS'YGR117C'
p2188
I4
sS'YDR208W'
p2189
I4
sS'YBL105C'
p2190
I4
sS'YDR434W'
p2191
I5
sS'YGL106W'
p2192
I25
sS'YOL027C'
p2193
I7
sS'YOR211C'
p2194
I4
sS'YPL257W'
p2195
I1
sS'YPL135W'
p2196
I10
sS'YOR347C'
p2197
I3
sS'YPL120W'
p2198
I1
sS'YIL075C'
p2199
I18
sS'YOL145C'
p2200
I6
sS'YGL226W'
p2201
I2
sS'YIL019W'
p2202
I2
sS'YJL099W'
p2203
I1
sS'YHR149C'
p2204
I3
sS'YIL020C'
p2205
I3
sS'YDR395W'
p2206
I11
sS'YOR353C'
p2207
I2
sS'YNR074C'
p2208
I3
sS'YDR005C'
p2209
I3
sS'YHL025W'
p2210
I3
sS'YIL097W'
p2211
I0
sS'YOL045W'
p2212
I2
sS'YFR010W'
p2213
I9
sS'YHL009C'
p2214
I2
sS'YDL112W'
p2215
I5
sS'YHL021C'
p2216
I4
sS'YPR101W'
p2217
I2
sS'YLR390WA'
p2218
I22
sS'YGL041WA'
p2219
I4
sS'YHR205W'
p2220
I6
sS'YGR037C'
p2221
I70
sS'YIL008W'
p2222
I7
sS'YNL273W'
p2223
I2
sS'YOL010W'
p2224
I4
sS'YOR236W'
p2225
I4
sS'YBL039C'
p2226
I21
sS'YGR188C'
p2227
I1
sS'YER143W'
p2228
I2
sS'YER089C'
p2229
I11
sS'YNL086W'
p2230
I1
sS'YGL064C'
p2231
I1
sS'YOR030W'
p2232
I1
sS'YGR284C'
p2233
I16
sS'YDL053C'
p2234
I7
sS'YJR005CA'
p2235
I0
sS'YCL050C'
p2236
I15
sS'YOR122C'
p2237
I79
sS'YFR038W'
p2238
I3
sS'YMR240C'
p2239
I1
sS'YIL005W'
p2240
I4
sS'YKL109W'
p2241
I2
sS'YKR062W'
p2242
I4
sS'YBR235W'
p2243
I2
sS'YMR119W'
p2244
I3
sS'YPR069C'
p2245
I41
sS'YGR261C'
p2246
I6
sS'YMR215W'
p2247
I11
sS'YDR051C'
p2248
I4
sS'YGR062C'
p2249
I1
sS'YER010C'
p2250
I3
sS'YER176W'
p2251
I2
sS'YIL049W'
p2252
I1
sS'YML003W'
p2253
I0
sS'YDL180W'
p2254
I1
sS'YGL127C'
p2255
I3
sS'YBR030W'
p2256
I2
sS'YLR336C'
p2257
I3
sS'YDL133W'
p2258
I2
sS'YBR122C'
p2259
I6
sS'YJL019W'
p2260
I2
sS'YDL022W'
p2261
I16
sS'YPR021C'
p2262
I2
sS'YLR044C'
p2263
I1381
sS'YGR244C'
p2264
I10
sS'YIR033W'
p2265
I5
sS'YBR065C'
p2266
I2
sS'YLR099C'
p2267
I4
sS'YOR149C'
p2268
I2
sS'YML126C'
p2269
I34
sS'YLR100W'
p2270
I16
sS'YGR075C'
p2271
I0
sS'YML032C'
p2272
I3
sS'YLR146C'
p2273
I3
sS'YGR271W'
p2274
I3
sS'YHR135C'
p2275
I7
sS'YDR429C'
p2276
I30
sS'YAL047C'
p2277
I1
sS'YDL035C'
p2278
I3
sS'YER118C'
p2279
I5
sS'YML010W'
p2280
I12
sS'YBR119W'
p2281
I2
sS'YMR253C'
p2282
I1
sS'YOR164C'
p2283
I11
sS'YER021W'
p2284
I14
sS'YMR208W'
p2285
I4
sS'YER134C'
p2286
I4
sS'YEL052W'
p2287
I4
sS'YMR162C'
p2288
I3
sS'YEL009C'
p2289
I62
sS'YER161C'
p2290
I3
sS'YBR083W'
p2291
I3
sS'YHR103W'
p2292
I5
sS'YOR001W'
p2293
I5
sS'YNL200C'
p2294
I1
sS'YDR498C'
p2295
I2
sS'YNL240C'
p2296
I2
sS'YOR257W'
p2297
I2
sS'YPL082C'
p2298
I6
sS'YGR002C'
p2299
I2
sS'YEL041W'
p2300
I0
sS'YER129W'
p2301
I3
sS'YGR004W'
p2302
I2
sS'YDL044C'
p2303
I1
sS'YDR111C'
p2304
I2
sS'YOL159CA'
p2305
I2
sS'YGR253C'
p2306
I23
sS'YDR510W'
p2307
I49
sS'YKR082W'
p2308
I5
sS'YOL115W'
p2309
I3
sS'YPL050C'
p2310
I11
sS'YCR079W'
p2311
I1
sS'YPR045C'
p2312
I3
sS'YER058W'
p2313
I1
sS'YPR010C'
p2314
I22
sS'YPL231W'
p2315
I62
sS'YLR148W'
p2316
I2
sS'YMR137C'
p2317
I1
sS'YDR164C'
p2318
I3
sS'YKL155C'
p2319
I2
sS'YKL178C'
p2320
I0
sS'YJR069C'
p2321
I10
sS'YKL033W'
p2322
I1
sS'YCR020WB'
p2323
I3
sS'YCL055W'
p2324
I2
sS'YNR031C'
p2325
I3
sS'YKR055W'
p2326
I1
sS'YNL046W'
p2327
I3
sS'YDR351W'
p2328
I2
sS'YJL107C'
p2329
I0
sS'YOL119C'
p2330
I2
sS'YMR188C'
p2331
I3
sS'YDR148C'
p2332
I8
sS'YPL181W'
p2333
I3
sS'YJR034W'
p2334
I3
sS'YLR121C'
p2335
I0
sS'YOR003W'
p2336
I0
sS'YLR210W'
p2337
I1
sS'YDR490C'
p2338
I2
sS'YPL096W'
p2339
I1
sS'YDL204W'
p2340
I1
sS'YDL106C'
p2341
I1
sS'YFR029W'
p2342
I1
sS'YDR335W'
p2343
I5
sS'YPR141C'
p2344
I1
sS'YAL022C'
p2345
I4
sS'YHR081W'
p2346
I4
sS'YGL056C'
p2347
I3
sS'YKR031C'
p2348
I2
sS'YMR039C'
p2349
I4
sS'YIL035C'
p2350
I6
sS'YPL014W'
p2351
I1
sS'YML081W'
p2352
I4
sS'YHR181W'
p2353
I5
sS'YIL002WA'
p2354
I16
sS'YDL179W'
p2355
I2
sS'YDR211W'
p2356
I10
sS'YCR095C'
p2357
I2
sS'YMR128W'
p2358
I4
sS'YDR381CA'
p2359
I2
sS'YCR077C'
p2360
I8
sS'YJR144W'
p2361
I7
sS'YJL029C'
p2362
I3
sS'YER056C'
p2363
I14
sS'YGL130W'
p2364
I3
sS'YMR157C'
p2365
I3
sS'YJL180C'
p2366
I2
sS'YER036C'
p2367
I33
sS'YLR417W'
p2368
I1
sS'YNL306W'
p2369
I10
sS'YML075C'
p2370
I5
sS'YNL191W'
p2371
I3
sS'YDR237W'
p2372
I4
sS'YOR297C'
p2373
I3
sS'YDR060W'
p2374
I11
sS'YDR540C'
p2375
I0
sS'YMR080C'
p2376
I7
sS'YKR013W'
p2377
I10
sS'YCR024C'
p2378
I0
sS'YBR001C'
p2379
I3
sS'YGL153W'
p2380
I2
sS'YPL003W'
p2381
I1
sS'YGR145W'
p2382
I5
sS'YCL036W'
p2383
I2
sS'YHR196W'
p2384
I7
sS'YLR354C'
p2385
I69
sS'YMR048W'
p2386
I1
sS'YHR035W'
p2387
I0
sS'YDR277C'
p2388
I0
sS'YPR067W'
p2389
I4
sS'YML092C'
p2390
I15
sS'YOR167C'
p2391
I191
sS'YML025C'
p2392
I3
sS'YDL124W'
p2393
I19
sS'YDR257C'
p2394
I3
sS'YJR074W'
p2395
I4
sS'YPR127W'
p2396
I3
sS'YGR266W'
p2397
I3
sS'YDL148C'
p2398
I5
sS'YJL167W'
p2399
I34
sS'YPL076W'
p2400
I1
sS'YAL012W'
p2401
I39
sS'YHR163W'
p2402
I15
sS'YCR071C'
p2403
I4
sS'YKL011C'
p2404
I1
sS'YDR079CA'
p2405
I3
sS'YBR167C'
p2406
I2
sS'YIL156W'
p2407
I2
sS'YBR241C'
p2408
I1
sS'YDR499W'
p2409
I1
sS'YPL196W'
p2410
I2
sS'YDR518W'
p2411
I5
sS'YLR272C'
p2412
I2
sS'YOR005C'
p2413
I0
sS'YDL226C'
p2414
I13
sS'YBR140C'
p2415
I4
sS'YNR017W'
p2416
I12
sS'YNL168C'
p2417
I7
sS'YGL092W'
p2418
I7
sS'YDR364C'
p2419
I2
sS'YLR352W'
p2420
I1
sS'YJL212C'
p2421
I6
sS'YGR136W'
p2422
I11
sS'YML007W'
p2423
I5
sS'YPL156C'
p2424
I1
sS'YOR018W'
p2425
I1
sS'YIL056W'
p2426
I2
sS'YDR461W'
p2427
I33
sS'YGL201C'
p2428
I4
sS'YGR070W'
p2429
I1
sS'YNL113W'
p2430
I13
sS'YBR121C'
p2431
I49
sS'YLR229C'
p2432
I15
sS'YKL133C'
p2433
I0
sS'YJR052W'
p2434
I1
sS'YNL079C'
p2435
I43
sS'YMR062C'
p2436
I4
sS'YMR015C'
p2437
I11
sS'YKL020C'
p2438
I2
sS'YHR170W'
p2439
I10
sS'YJL125C'
p2440
I3
sS'YBR107C'
p2441
I1
sS'YBL090W'
p2442
I4
sS'YDR259C'
p2443
I0
sS'YBR207W'
p2444
I4
sS'YGL120C'
p2445
I10
sS'YKL068W'
p2446
I5
sS'YGR098C'
p2447
I2
sS'YDL166C'
p2448
I5
sS'YDR260C'
p2449
I2
sS'YNR039C'
p2450
I2
sS'YKL142W'
p2451
I14
sS'YPL049C'
p2452
I5
sS'YLR035C'
p2453
I1
sS'YNL064C'
p2454
I50
sS'YOR110W'
p2455
I2
sS'YER081W'
p2456
I2
sS'YJL070C'
p2457
I1
sS'YPL178W'
p2458
I10
sS'YGL057C'
p2459
I1
sS'YKL180W'
p2460
I248
sS'YDR373W'
p2461
I8
sS'YLR190W'
p2462
I6
sS'YDR322W'
p2463
I3
sS'YNL008C'
p2464
I2
sS'YOR023C'
p2465
I2
sS'YJR066W'
p2466
I3
sS'YOR098C'
p2467
I5
sS'YDL120W'
p2468
I8
sS'YIL096C'
p2469
I2
sS'YOR350C'
p2470
I1
sS'YFR011C'
p2471
I4
sS'YIL074C'
p2472
I9
sS'YMR312W'
p2473
I2
sS'YCL033C'
p2474
I5
sS'YIL161W'
p2475
I1
sS'YGL173C'
p2476
I22
sS'YLR395C'
p2477
I11
sS'YHR015W'
p2478
I0
sS'YLR457C'
p2479
I0
sS'YHR039C'
p2480
I8
sS'YBR274W'
p2481
I2
sS'YER131W'
p2482
I141
sS'YDL190C'
p2483
I4
sS'YNL249C'
p2484
I0
sS'YMR090W'
p2485
I1
sS'YKL088W'
p2486
I2
sS'YER142C'
p2487
I2
sS'YML119W'
p2488
I1
sS'YGR056W'
p2489
I2
sS'YGR036C'
p2490
I1
sS'YNL225C'
p2491
I1
sS'YGR121C'
p2492
I0
sS'YCR035C'
p2493
I4
sS'YDR182W'
p2494
I5
sS'YGL065C'
p2495
I3
sS'YNR059W'
p2496
I1
sS'YDR180W'
p2497
I2
sS'YOR052C'
p2498
I8
sS'YLR243W'
p2499
I3
sS'YGR096W'
p2500
I1
sS'YLR196W'
p2501
I8
sS'YIL036W'
p2502
I3
sS'YPL047W'
p2503
I3
sS'YMR135C'
p2504
I1
sS'YCR009C'
p2505
I13
sS'YPL236C'
p2506
I1
sS'YHR155W'
p2507
I2
sS'YOR045W'
p2508
I16
sS'YDR476C'
p2509
I5
sS'YDL046W'
p2510
I13
sS'YOL102C'
p2511
I3
sS'YDL231C'
p2512
I2
sS'YBR252W'
p2513
I13
sS'YGR116W'
p2514
I13
sS'YIL110W'
p2515
I4
sS'YGL128C'
p2516
I0
sS'YNR032CA'
p2517
I7
sS'YIL147C'
p2518
I4
sS'YJR083C'
p2519
I1
sS'YOL159C'
p2520
I2
sS'YJL026W'
p2521
I29
sS'YBR169C'
p2522
I3
sS'YKR084C'
p2523
I6
sS'YJR101W'
p2524
I4
sS'YBR263W'
p2525
I24
sS'YNL281W'
p2526
I27
sS'YBL001C'
p2527
I19
sS'YNR035C'
p2528
I14
sS'YDR019C'
p2529
I11
sS'YLL058W'
p2530
I2
sS'YOR232W'
p2531
I22
sS'YJL085W'
p2532
I2
sS'YDL209C'
p2533
I1
sS'YPR174C'
p2534
I2
sS'YLR064W'
p2535
I5
sS'YEL055C'
p2536
I9
sS'YER119C'
p2537
I2
sS'YDR477W'
p2538
I6
sS'YGR058W'
p2539
I1
sS'YGL129C'
p2540
I3
sS'YMR196W'
p2541
I2
sS'YBR053C'
p2542
I4
sS'YMR161W'
p2543
I5
sS'YKL045W'
p2544
I2
sS'YNL207W'
p2545
I5
sS'YDR428C'
p2546
I3
sS'YJL181W'
p2547
I1
sS'YOR210W'
p2548
I26
sS'YBL034C'
p2549
I2
sS'YMR252C'
p2550
I2
sS'YIL157C'
p2551
I5
sS'YOL008W'
p2552
I2
sS'YER077C'
p2553
I1
sS'YGL246C'
p2554
I3
sS'YCR054C'
p2555
I1
sS'YDR045C'
p2556
I5
sS'YPL232W'
p2557
I9
sS'YKR083C'
p2558
I2
sS'YMR209C'
p2559
I3
sS'YEL017W'
p2560
I4
sS'YGR252W'
p2561
I3
sS'YJR010CA'
p2562
I5
sS'YER128W'
p2563
I1
sS'YJR123W'
p2564
I455
sS'YIL125W'
p2565
I9
sS'YDL078C'
p2566
I11
sS'YGR003W'
p2567
I2
sS'YDR517W'
p2568
I7
sS'YGR074W'
p2569
I5
sS'YOR256C'
p2570
I2
sS'YPR011C'
p2571
I2
sS'YKR057W'
p2572
I154
sS'YLL061W'
p2573
I3
sS'YDR110W'
p2574
I2
sS'YLR061W'
p2575
I276
sS'YKL214C'
p2576
I5
sS'YOL088C'
p2577
I6
sS'YHL040C'
p2578
I4
sS'YOR361C'
p2579
I20
sS'YOR221C'
p2580
I3
sS'YGL113W'
p2581
I1
sS'YKR095W'
p2582
I6
sS'YOR258W'
p2583
I1
sS'YPL214C'
p2584
I1
sS'YGR029W'
p2585
I4
sS'YBR061C'
p2586
I4
sS'YOR334W'
p2587
I1
sS'YOL064C'
p2588
I6
sS'YLR154C'
p2589
I7
sS'YBL023C'
p2590
I3
sS'YNR010W'
p2591
I2
sS'YOR274W'
p2592
I1
sS'YML058WA'
p2593
I1
sS'YOR329C'
p2594
I2
sS'YDR435C'
p2595
I2
sS'YER151C'
p2596
I6
sS'YIL098C'
p2597
I2
sS'YPL209C'
p2598
I0
sS'YLL027W'
p2599
I4
sS'YDR365C'
p2600
I9
sS'YDL171C'
p2601
I17
sS'YOR382W'
p2602
I20
sS'YOR253W'
p2603
I11
sS'YNL267W'
p2604
I3
sS'YHL006C'
p2605
I1
sS'YGR198W'
p2606
I4
sS'YDR258C'
p2607
I6
sS'YGR147C'
p2608
I6
sS'YAR007C'
p2609
I5
sS'YPL254W'
p2610
I3
sS'YGR010W'
p2611
I2
sS'YML064C'
p2612
I2
sS'YKR091W'
p2613
I0
sS'YER055C'
p2614
I36
sS'YOR124C'
p2615
I5
sS'YCR016W'
p2616
I4
sS'YLL012W'
p2617
I2
sS'YCR076C'
p2618
I2
sS'YLR438W'
p2619
I18
sS'YDL234C'
p2620
I1
sS'YOR296W'
p2621
I1
sS'YJR010W'
p2622
I1
sS'YML031W'
p2623
I5
sS'YJL044C'
p2624
I3
sS'YMR154C'
p2625
I1
sS'YCR094W'
p2626
I4
sS'YBR085W'
p2627
I1
sS'YMR036C'
p2628
I1
sS'YPR164W'
p2629
I3
sS'YGL085W'
p2630
I1
sS'YGL131C'
p2631
I1
sS'YGR218W'
p2632
I13
sS'YEL060C'
p2633
I6
sS'YKR049C'
p2634
I4
sS'YPR179C'
p2635
I1
sS'YHR195W'
p2636
I2
sS'YGR267C'
p2637
I12
sS'YDL149W'
p2638
I0
sS'YDL125C'
p2639
I29
sS'YPR006C'
p2640
I1
sS'YMR114C'
p2641
I0
sS'YPR066W'
p2642
I0
sS'YGL022W'
p2643
I19
sS'YHL038C'
p2644
I1
sS'YML079W'
p2645
I9
sS'YDR073W'
p2646
I4
sS'YKL017C'
p2647
I1
sS'YMR049C'
p2648
I8
sS'YDR229W'
p2649
I2
sS'YOR166C'
p2650
I2
sS'YPR124W'
p2651
I25
sS'YLL029W'
p2652
I7
sS'YDL181W'
p2653
I3
sS'YLR127C'
p2654
I1
sS'YNL232W'
p2655
I5
sS'YGL254W'
p2656
I1
sS'YER017C'
p2657
I5
sS'YBR022W'
p2658
I3
sS'YMR214W'
p2659
I6
sS'YCR030C'
p2660
I3
sS'YNR066C'
p2661
I0
sS'YLR438CA'
p2662
I5
sS'YKR063C'
p2663
I1
sS'YDR500C'
p2664
I193
sS'YGR063C'
p2665
I8
sS'YMR176W'
p2666
I2
sS'YCL063W'
p2667
I2
sS'YER048C'
p2668
I9
sS'YPR020W'
p2669
I5
sS'YML048W'
p2670
I17
sS'YKL085W'
p2671
I10
sS'YLR027C'
p2672
I34
sS'YDR107C'
p2673
I2
sS'YDL132W'
p2674
I6
sS'YBL064C'
p2675
I8
sS'YIL014CA'
p2676
I1
sS'YIL045W'
p2677
I0
sS'YOR148C'
p2678
I3
sS'YPL243W'
p2679
I8
sS'YGL126W'
p2680
I4
sS'YDL025C'
p2681
I2
sS'YLR147C'
p2682
I3
sS'YER063W'
p2683
I8
sS'YMR270C'
p2684
I3
sS'YLR293C'
p2685
I103
sS'YLR228C'
p2686
I2
sS'YBR058CA'
p2687
I12
sS'YJR053W'
p2688
I1
sS'YFL029C'
p2689
I1
sS'YJL171C'
p2690
I9
sS'YBL091C'
p2691
I12
sS'YMR237W'
p2692
I8
sS'YMR063W'
p2693
I1
sS'YKL021C'
p2694
I4
sS'YKL012W'
p2695
I2
sS'YNL242W'
p2696
I1
sS'YDL167C'
p2697
I5
sS'YPR133C'
p2698
I6
sS'YJR094WA'
p2699
I223
sS'YKL069W'
p2700
I6
sS'YNL123W'
p2701
I7
sS'YMR003W'
p2702
I1
sS'YPL037C'
p2703
I104
sS'YPL177C'
p2704
I6
sS'YPL179W'
p2705
I5
sS'YDL031W'
p2706
I7
sS'YLR373C'
p2707
I2
sS'YOR111W'
p2708
I1
sS'YFL016C'
p2709
I5
sS'YDR323C'
p2710
I1
sS'YJL162C'
p2711
I1
sS'YKL198C'
p2712
I2
sS'YLR260W'
p2713
I2
sS'YDL241W'
p2714
I2
sS'YPL117C'
p2715
I12
sS'YPR109W'
p2716
I2
sS'YNL041C'
p2717
I3
sS'YKR001C'
p2718
I15
sS'YGR227W'
p2719
I3
sS'YJL100W'
p2720
I1
sS'YKR054C'
p2721
I3
sS'YMR001C'
p2722
I4
sS'YPL221W'
p2723
I5
sS'YPR199C'
p2724
I2
sS'YDR346C'
p2725
I15
sS'YBL082C'
p2726
I3
sS'YDL081C'
p2727
I264
sS'YDR206W'
p2728
I4
sS'YLR149C'
p2729
I0
sS'YMR138W'
p2730
I1
sS'YKL032C'
p2731
I4
sS'YHL030W'
p2732
I7
sS'YGL013C'
p2733
I3
sS'YLR191W'
p2734
I2
sS'YFL018C'
p2735
I21
sS'YOR093C'
p2736
I2
sS'YJL139C'
p2737
I1
sS'YGR207C'
p2738
I8
sS'YDR212W'
p2739
I23
sS'YLR456W'
p2740
I1
sS'YHR080C'
p2741
I2
sS'YNL052W'
p2742
I7
sS'YPL097W'
p2743
I1
sS'YDL207W'
p2744
I2
sS'YCL058WA'
p2745
I1
sS'YDR334W'
p2746
I3
sS'YOR227W'
p2747
I2
sS'YPL015C'
p2748
I5
sS'YLR211C'
p2749
I1
sS'YGL213C'
p2750
I4
sS'YDR231C'
p2751
I3
sS'YMR038C'
p2752
I14
sS'YGL251C'
p2753
I0
sS'YNL304W'
p2754
I1
sS'YJL066C'
p2755
I2
sS'YDR506C'
p2756
I1
sS'YHR182W'
p2757
I1
sS'YNL321W'
p2758
I3
sS'YNR029C'
p2759
I2
sS'YDL153C'
p2760
I4
sS'YEL029C'
p2761
I2
sS'YGR091W'
p2762
I1
sS'YDL232W'
p2763
I13
sS'YDL130WA'
p2764
I4
sS'YHR001W'
p2765
I5
sS'YKL135C'
p2766
I4
sS'YGR223C'
p2767
I2
sS'YJL010C'
p2768
I5
sS'YLR146WA'
p2769
I4
sS'YOL105C'
p2770
I0
sS'YPL119C'
p2771
I0
sS'YBR196C'
p2772
I163
sS'YLR242C'
p2773
I1
sS'YOR342C'
p2774
I4
sS'YJR148W'
p2775
I37
sS'YBR253W'
p2776
I5
sS'YIL042C'
p2777
I1
sS'YGL045W'
p2778
I0
sS'YJL006C'
p2779
I2
sS'YIL111W'
p2780
I7
sS'YIL159W'
p2781
I1
sS'YHR186C'
p2782
I3
sS'YBR153W'
p2783
I1
sS'YMR195W'
p2784
I4
sS'YOR073W'
p2785
I2
sS'YOL087C'
p2786
I2
sS'YJL004C'
p2787
I5
sS'YJR106W'
p2788
I1
sS'YJL084C'
p2789
I1
sS'YHR154W'
p2790
I3
sS'YOR008C'
p2791
I5
sS'YNL024CA'
p2792
I7
sS'YHR199CA'
p2793
I2
sS'YDR291W'
p2794
I2
sS'YCR051W'
p2795
I10
sS'YBR262C'
p2796
I6
sS'YMR304W'
p2797
I4
sS'YGL050W'
p2798
I3
sS'YKL010C'
p2799
I4
sS'YJR138W'
p2800
I2
sS'YPL255W'
p2801
I1
sS'YMR289W'
p2802
I3
sS'YOL012C'
p2803
I15
sS'YPL168W'
p2804
I1
sS'YBR023C'
p2805
I5
sS'YAL015C'
p2806
I1
sS'YFL036W'
p2807
I3
sS'YGR177C'
p2808
I3
sS'YJR133W'
p2809
I5
sS'YPL077C'
p2810
I0
sS'YJR022W'
p2811
I1
sS'YLR273C'
p2812
I0
sS'YML068W'
p2813
I1
sS'YGR203W'
p2814
I3
sS'YIL051C'
p2815
I91
sS'YPL057C'
p2816
I4
sS'YCR004C'
p2817
I18
sS'YDR356W'
p2818
I2
sS'YPL151C'
p2819
I2
sS'YKL007W'
p2820
I9
sS'YNL169C'
p2821
I4
sS'YFR034C'
p2822
I5
sS'YKL185W'
p2823
I4
sS'YGL091C'
p2824
I2
sS'YCL038C'
p2825
I1
sS'YLR180W'
p2826
I48
sS'YDR460W'
p2827
I2
sS'YOL025W'
p2828
I1
sS'YLR364W'
p2829
I2
sS'YKL058W'
p2830
I9
sS'YCR088W'
p2831
I17
sS'YNL112W'
p2832
I17
sS'YJR124C'
p2833
I4
sS'YOR120W'
p2834
I1
sS'YHL047C'
p2835
I3
sS'YOR360C'
p2836
I3
sS'YOR335C'
p2837
I38
sS'YHL018W'
p2838
I1
sS'YOL089C'
p2839
I1
sS'YDR416W'
p2840
I1
sS'YNL182C'
p2841
I4
sS'YHR023W'
p2842
I4
sS'YOL065C'
p2843
I1
sS'YMR181C'
p2844
I1
sS'YER051W'
p2845
I1
sS'YBL022C'
p2846
I11
sS'YPL215W'
p2847
I4
sS'YOL130W'
p2848
I4
sS'YLL050C'
p2849
I93
sS'YGR013W'
p2850
I1
sS'YHR057C'
p2851
I4
sS'YOR095C'
p2852
I8
sS'YEL038W'
p2853
I6
sS'YCL014W'
p2854
I3
sS'YOR377W'
p2855
I2
sS'YLL026W'
p2856
I24
sS'YCL002C'
p2857
I3
sS'YGL108C'
p2858
I3
sS'YPL040C'
p2859
I1
sS'YLR051C'
p2860
I5
sS'YDR388W'
p2861
I16
sS'YGR199W'
p2862
I3
sS'YLR289W'
p2863
I1
sS'YPL208W'
p2864
I3
sS'YLR306W'
p2865
I1
sS'YOL147C'
p2866
I3
sS'YNL280C'
p2867
I10
sS'YDR007W'
p2868
I5
sS'YGL083W'
p2869
I1
sS'YGR222W'
p2870
I3
sS'YGR122W'
p2871
I2
sS'YGL220W'
p2872
I11
sS'YPR089W'
p2873
I3
sS'YBR233W'
p2874
I1
sS'YPL122C'
p2875
I3
sS'YNL032W'
p2876
I3
sS'YOR328W'
p2877
I0
sS'YGR082W'
p2878
I11
sS'YDL115C'
p2879
I1
sS'YKL113C'
p2880
I5
sS'YDL086W'
p2881
I10
sS'YHR012W'
p2882
I6
sS'YDR436W'
p2883
I1
sS'YHL027W'
p2884
I3
sS'YKL116C'
p2885
I2
sS'YHL011C'
p2886
I15
sS'YOR319W'
p2887
I2
sS'YGR119C'
p2888
I6
sS'YGR035C'
p2889
I4
sS'YDR440W'
p2890
I2
sS'YOL127W'
p2891
I490
sS'YMR228W'
p2892
I2
sS'YLR326W'
p2893
I1
sS'YNL224C'
p2894
I2
sS'YAL020C'
p2895
I1
sS'YBR275C'
p2896
I2
sS'YDR539W'
p2897
I4
sS'YCR075WA'
p2898
I4
sS'YBL013W'
p2899
I0
sS'YDR304C'
p2900
I25
sS'YDL189W'
p2901
I4
sS'YBR025C'
p2902
I63
sS'YMR177W'
p2903
I1
sS'YLL028W'
p2904
I4
sS'YOR187W'
p2905
I19
sS'YDR437W'
p2906
I1
sS'YER016W'
p2907
I5
sS'YDR501W'
p2908
I0
sS'YGR286C'
p2909
I3
sS'YCR037C'
p2910
I2
sS'YMR044W'
p2911
I2
sS'YMR217W'
p2912
I46
sS'YNL211C'
p2913
I2
sS'YOR239W'
p2914
I8
sS'YER170W'
p2915
I1
sS'YHR003C'
p2916
I4
sS'YCR086W'
p2917
I1
sS'YKL222C'
p2918
I0
sS'YPR056W'
p2919
I2
sS'YDR494W'
p2920
I3
sS'YLR026C'
p2921
I3
sS'YKR086W'
p2922
I1
sS'YGL026C'
p2923
I23
sS'YHR094C'
p2924
I11
sS'YHR008C'
p2925
I16
sS'YMR277W'
p2926
I4
sS'YPL242C'
p2927
I3
sS'YML049C'
p2928
I3
sS'YBR067C'
p2929
I15
sS'YLR387C'
p2930
I5
sS'YCR068W'
p2931
I2
sS'YLL004W'
p2932
I1
sS'YER049W'
p2933
I10
sS'YGL125W'
p2934
I2
sS'YDL033C'
p2935
I1
sS'YOL144W'
p2936
I1
sS'YMR239C'
p2937
I2
sS'YLR028C'
p2938
I14
sS'YER136W'
p2939
I16
sS'YGL247W'
p2940
I2
sS'YER116C'
p2941
I1
sS'YML012W'
p2942
I33
sS'YOL009C'
p2943
I0
sS'YDR028C'
p2944
I7
sS'YML050W'
p2945
I0
sS'YOR217W'
p2946
I5
sS'YBL035C'
p2947
I2
sS'YPL010W'
p2948
I21
sS'YCR057C'
p2949
I7
sS'YNL206C'
p2950
I4
sS'YHR105W'
p2951
I0
sS'YLR060W'
p2952
I28
sS'YDR516C'
p2953
I7
sS'YOR179C'
p2954
I2
sS'YPL233W'
p2955
I3
sS'YIL063C'
p2956
I6
sS'YPR140W'
p2957
I2
sS'YGR251W'
p2958
I2
sS'YLR105C'
p2959
I1
sS'YPR047W'
p2960
I1
sS'YEL020WA'
p2961
I8
sS'YNL045W'
p2962
I6
sS'YLR353W'
p2963
I1
sS'YBR049C'
p2964
I6
sS'YDR044W'
p2965
I6
sS'YOR193W'
p2966
I1
sS'YKR080W'
p2967
I11
sS'YDL104C'
p2968
I0
sS'YNL010W'
p2969
I39
sS'YKL078W'
p2970
I2
sS'YAL027W'
p2971
I1
sS'YLR078C'
p2972
I5
sS'YDR354W'
p2973
I5
sS'YJR032W'
p2974
I4
sS'YIR037W'
p2975
I13
sS'YDR071C'
p2976
I20
sS'YDR162C'
p2977
I1
sS'YMR134W'
p2978
I2
sS'YGL012W'
p2979
I26
sS'YBR137W'
p2980
I5
sS'YPL066W'
p2981
I3
sS'YOL057W'
p2982
I5
sS'YOR076C'
p2983
I2
sS'YKL160W'
p2984
I21
sS'YMR073C'
p2985
I3
sS'YFR004W'
p2986
I12
sS'YDR353W'
p2987
I36
sS'YMR139W'
p2988
I2
sS'YJL001W'
p2989
I18
sS'YDL080C'
p2990
I1
sS'YJL049W'
p2991
I1
sS'YHR183W'
p2992
I63
sS'YDR017C'
p2993
I3
sS'YOR129C'
p2994
I1
sS'YDR213W'
p2995
I2
sS'YKL068WA'
p2996
I5
sS'YML085C'
p2997
I27
sS'YPR167C'
p2998
I1
sS'YNL053W'
p2999
I2
sS'YDL206W'
p3000
I0
sS'YHR060W'
p3001
I4
sS'YER094C'
p3002
I18
sS'YML069W'
p3003
I8
sS'YIL010W'
p3004
I6
sS'YIL022W'
p3005
I7
sS'YNL322C'
p3006
I14
sS'YKR037C'
p3007
I2
sS'YNL024C'
p3008
I0
sS'YKL119C'
p3009
I3
sS'YLR212C'
p3010
I3
sS'YGR214W'
p3011
I174
sS'YCR075C'
p3012
I2
sS'YER101C'
p3013
I1
sS'YMR155W'
p3014
I1
sS'YKR079C'
p3015
I3
sS'YNL248C'
p3016
I10
sS'YNL197C'
p3017
I3
sS'YLR086W'
p3018
I3
sS'YMR055C'
p3019
I1
sS'YLR439W'
p3020
I2
sS'YOR025W'
p3021
I4
sS'YML030W'
p3022
I4
sS'YCL051W'
p3023
I1
sS'YML065W'
p3024
I2
sS'YCR097W'
p3025
I9
sS'YER001W'
p3026
I5
sS'YKR072C'
p3027
I4
sS'YPR165W'
p3028
I37
sS'YJL047C'
p3029
I1
sS'YMR313C'
p3030
I2
sS'YBL074C'
p3031
I2
sS'YDR275W'
p3032
I2
sS'YGL023C'
p3033
I3
sS'YHR049W'
p3034
I8
sS'YJR082C'
p3035
I4
sS'YEL061C'
p3036
I2
sS'YBR007C'
p3037
I1
sS'YMR115W'
p3038
I3
sS'YDL126C'
p3039
I53
sS'YML128C'
p3040
I1
sS'YHR194W'
p3041
I1
sS'YGR288W'
p3042
I0
sS'YOR295W'
p3043
I1
sS'YOR340C'
p3044
I10
sS'YMR260C'
p3045
I64
sS'YLR102C'
p3046
I1
sS'YOR161C'
p3047
I2
sS'YML078W'
p3048
I22
sS'YLR142W'
p3049
I0
sS'YOR158W'
p3050
I3
sS'YPR178W'
p3051
I1
sS'YDR181C'
p3052
I1
sS'YIR018W'
p3053
I3
sS'YPL074W'
p3054
I1
sS'YIL129C'
p3055
I4
sS'YBR281C'
p3056
I3
sS'YKL046C'
p3057
I6
sS'YBR145W'
p3058
I1
sS'YDR339C'
p3059
I6
sS'YOR151C'
p3060
I17
sS'YDR307W'
p3061
I2
sS'YFL037W'
p3062
I33
sS'YJR132W'
p3063
I5
sS'YOR075W'
p3064
I2
sS'YPL169C'
p3065
I4
sS'YHR161C'
p3066
I2
sS'YBR243C'
p3067
I5
sS'YNL199C'
p3068
I3
sS'YDL224C'
p3069
I3
sS'YLR181C'
p3070
I3
sS'YLR225C'
p3071
I3
sS'YNL134C'
p3072
I7
sS'YGL207W'
p3073
I13
sS'YGL090W'
p3074
I1
sS'YNL111C'
p3075
I12
sS'YPL058C'
p3076
I3
sS'YLR454W'
p3077
I4
sS'YGR134W'
p3078
I2
sS'YBL056W'
p3079
I15
sS'YLR270W'
p3080
I5
sS'YNR011C'
p3081
I2
sS'YOL103W'
p3082
I6
sS'YHR071W'
p3083
I7
sS'YGR169C'
p3084
I1
sS'YLR309C'
p3085
I3
sS'YBR069C'
p3086
I18
sS'YPR086W'
p3087
I6
sS'YKL086W'
p3088
I0
sS'YGL256W'
p3089
I3
sS'YIL068C'
p3090
I3
sS'YMR060C'
p3091
I2
sS'YNL189W'
p3092
I18
sS'YDR153C'
p3093
I3
sS'YJL065C'
p3094
I4
sS'YLR459W'
p3095
I3
sS'YDR320CA'
p3096
I8
sS'YGR120C'
p3097
I2
sS'YJR003C'
p3098
I2
sS'YNR034W'
p3099
I1
sS'YJL170C'
p3100
I1
sS'YDL144C'
p3101
I5
sS'YFL028C'
p3102
I3
sS'YJR078W'
p3103
I0
sS'YNL144C'
p3104
I0
sS'YLR080W'
p3105
I0
sS'YLR262CA'
p3106
I41
sS'YKR020W'
p3107
I2
sS'YMR053C'
p3108
I0
sS'YDR371W'
p3109
I2
sS'YDR456W'
p3110
I4
sS'YDR308C'
p3111
I5
sS'YLR372W'
p3112
I24
sS'YDL140C'
p3113
I19
sS'YNL062C'
p3114
I5
sS'YMR295C'
p3115
I19
sS'YER083C'
p3116
I7
sS'YHR050W'
p3117
I3
sS'YPL176C'
p3118
I3
sS'YDR324C'
p3119
I5
sS'YLR389C'
p3120
I5
sS'YJL072C'
p3121
I2
sS'YDR374WA'
p3122
I5
sS'YHR172W'
p3123
I2
sS'YOR112W'
p3124
I2
sS'YGR157W'
p3125
I24
sS'YDL168W'
p3126
I7
sS'YDR262W'
p3127
I5
sS'YIL134W'
p3128
I1
sS'YJL163C'
p3129
I0
sS'YNL175C'
p3130
I10
sS'YGR173W'
p3131
I8
sS'YDL240W'
p3132
I2
sS'YBR234C'
p3133
I12
sS'YOR061W'
p3134
I7
sS'YOR356W'
p3135
I5
sS'YFR013W'
p3136
I3
sS'YBR261C'
p3137
I8
sS'YPR088C'
p3138
I13
sS'YNL326C'
p3139
I2
sS'YHR013C'
p3140
I11
sS'YHR072W'
p3141
I4
sS'YGR083C'
p3142
I7
sS'YOL040C'
p3143
I353
sS'YER184C'
p3144
I0
sS'YCL035C'
p3145
I17
sS'YHL026C'
p3146
I1
sS'YOL146W'
p3147
I2
sS'YGL221C'
p3148
I10
sS'YHR144C'
p3149
I3
sS'YDR006C'
p3150
I2
sS'YGR034W'
p3151
I234
sS'YBR229C'
p3152
I5
sS'YMR100W'
p3153
I2
sS'YDR190C'
p3154
I12
sS'YNL290W'
p3155
I5
sS'YBL010C'
p3156
I1
sS'YJR100C'
p3157
I2
sS'YDR139C'
p3158
I10
sS'YGR123C'
p3159
I8
sS'YJR147W'
p3160
I5
sS'YMR314W'
p3161
I19
sS'YJL025W'
p3162
I1
sS'YAL021C'
p3163
I6
sS'YNL247W'
p3164
I16
sS'YOR035C'
p3165
I2
sS'YHR128W'
p3166
I25
sS'YDR538W'
p3167
I2
sS'YOR316C'
p3168
I4
sS'YMR184W'
p3169
I4
sS'YBR123C'
p3170
I2
sS'YIL112W'
p3171
I2
sS'YPL118W'
p3172
I7
sS'YLR241W'
p3173
I4
sS'YGR090W'
p3174
I8
sS'YDL233W'
p3175
I1
sS'YML121W'
p3176
I3
sS'YMR204C'
p3177
I1
sS'YPL001W'
p3178
I2
sS'YNR028W'
p3179
I4
sS'YDR470C'
p3180
I2
sS'YIL034C'
p3181
I7
sS'YIL043C'
p3182
I28
sS'YHR153C'
p3183
I0
sS'YDR386W'
p3184
I0
sS'YKL048C'
p3185
I1
sS'YKR089C'
p3186
I4
sS'YBR152W'
p3187
I1
sS'YJL087C'
p3188
I2
sS'YLR347C'
p3189
I11
sS'YKL181W'
p3190
I20
sS'YDR292C'
p3191
I6
sS'YHR206W'
p3192
I3
sS'YPL143W'
p3193
I240
sS'YBL014C'
p3194
I2
sS'YNL137C'
p3195
I4
sS'YDR306C'
p3196
I2
sS'YNR060W'
p3197
I0
sS'YCL028W'
p3198
I10
sS'YML120C'
p3199
I2
sS'YGL174W'
p3200
I1
sS'YHR106W'
p3201
I2
sS'YOR216C'
p3202
I4
sS'YGL094C'
p3203
I3
sS'YNL164C'
p3204
I1
sS'YHR208W'
p3205
I46
sS'YPR057W'
p3206
I2
sS'YDL065C'
p3207
I3
sS'YGL244W'
p3208
I4
sS'YDL156W'
p3209
I1
sS'YGL035C'
p3210
I3
sS'YBL036C'
p3211
I8
sS'YOR249C'
p3212
I1
sS'YGR183C'
p3213
I7
sS'YBR080C'
p3214
I7
sS'YPR191W'
p3215
I8
sS'YJL020C'
p3216
I6
sS'YER137C'
p3217
I1
sS'YDL030W'
p3218
I1
sS'YNR033W'
p3219
I3
sS'YDR027C'
p3220
I2
sS'YHL039W'
p3221
I4
sS'YBR170C'
p3222
I4
sS'YER071C'
p3223
I3
sS'YNL272C'
p3224
I4
sS'YMR238W'
p3225
I5
sS'YPR073C'
p3226
I10
sS'YKR081C'
p3227
I10
sS'YPL263C'
p3228
I7
sS'YGR001C'
p3229
I10
sS'YLR446W'
p3230
I0
sS'YOR140W'
p3231
I1
sS'YLR067C'
p3232
I1
sS'YOL013C'
p3233
I2
sS'YJL183W'
p3234
I11
sS'YPL218W'
p3235
I39
sS'YKL128C'
p3236
I9
sS'YGR250C'
p3237
I2
sS'YDR047W'
p3238
I6
sS'YHR209W'
p3239
I0
sS'YOR201C'
p3240
I3
sS'YOR276W'
p3241
I38
sS'YMR309C'
p3242
I22
sS'YGL178W'
p3243
I2
sS'YOR089C'
p3244
I5
sS'YIL065C'
p3245
I4
sS'YKL189W'
p3246
I1
sS'YMR167W'
p3247
I1
sS'YBR071W'
p3248
I3
sS'YHR119W'
p3249
I3
sS'YHL019C'
p3250
I1
sS'YBR166C'
p3251
I3
sS'YJL166W'
p3252
I11
sS'YMR180C'
p3253
I1
sS'YNL258C'
p3254
I3
sS'YPL234C'
p3255
I26
sS'YOR336W'
p3256
I3
sS'YDL123W'
p3257
I1
sS'YOR209C'
p3258
I13
sS'YKL216W'
p3259
I30
sS'YGR012W'
p3260
I4
sS'YBL021C'
p3261
I2
sS'YHL004W'
p3262
I5
sS'YGR124W'
p3263
I50
sS'YJL205C'
p3264
I5
sS'YLR007W'
p3265
I2
sS'YDL147W'
p3266
I15
sS'YOR147W'
p3267
I2
sS'YML102W'
p3268
I2
sS'YER157W'
p3269
I3
sS'YOR370C'
p3270
I8
sS'YGR270W'
p3271
I5
sS'YNL261W'
p3272
I2
sS'YDR389W'
p3273
I4
sS'YBR141C'
p3274
I1
sS'YMR054W'
p3275
I5
sS'YDR065W'
p3276
I1
sS'YML001W'
p3277
I13
sS'YDL027C'
p3278
I1
sS'YER053C'
p3279
I2
sS'YOR126C'
p3280
I2
sS'YPL051W'
p3281
I2
sS'YDL217C'
p3282
I3
sS'YLL014W'
p3283
I13
sS'YJL046W'
p3284
I2
sS'YGR047C'
p3285
I2
sS'YCR021C'
p3286
I0
sS'YDR049W'
p3287
I2
sS'YJL148W'
p3288
I9
sS'YKR014C'
p3289
I8
sS'YMR251WA'
p3290
I56
sS'YKR078W'
p3291
I1
sS'YPR079W'
p3292
I2
sS'YGL008C'
p3293
I375
sS'YOR191W'
p3294
I3
sS'YLR412W'
p3295
I3
sS'YER002W'
p3296
I4
sS'YCR018C'
p3297
I3
sS'YDL127W'
p3298
I2
sS'YPR122W'
p3299
I2
sS'YHR048W'
p3300
I0
sS'YPR008W'
p3301
I2
sS'YML020W'
p3302
I1
sS'YGL020C'
p3303
I5
sS'YGR206W'
p3304
I3
sS'YLR103C'
p3305
I1
sS'YDR266C'
p3306
I4
sS'YOR294W'
p3307
I11
sS'YEL062W'
p3308
I1
sS'YMR261C'
p3309
I7
sS'YMR112C'
p3310
I3
sS'YDR100W'
p3311
I7
sS'YPR031W'
p3312
I1
sS'YBR006W'
p3313
I1
sS'YLR038C'
p3314
I7
sS'YPR085C'
p3315
I1
sS'YNL212W'
p3316
I4
sS'YCR036W'
p3317
I5
sS'YER015W'
p3318
I0
sS'YMR216C'
p3319
I6
sS'YML006C'
p3320
I1
sS'YPR046W'
p3321
I1
sS'YHR004C'
p3322
I1
sS'YBR024W'
p3323
I1
sS'YDR173C'
p3324
I2
sS'YDR502C'
p3325
I24
sS'YOR238W'
p3326
I2
sS'YLR401C'
p3327
I4
sS'YER171W'
p3328
I3
sS'YDL047W'
p3329
I5
sS'YGR247W'
p3330
I2
sS'YDR101C'
p3331
I8
sS'YHR079C'
p3332
I2
sS'YPR026W'
p3333
I1
sS'YML046W'
p3334
I3
sS'YGL124C'
p3335
I1
sS'YDR454C'
p3336
I37
sS'YLR070C'
p3337
I0
sS'YDL130W'
p3338
I247
sS'YMR276W'
p3339
I20
sS'YMR149W'
p3340
I13
sS'YLR165C'
p3341
I0
sS'YLR025W'
p3342
I4
sS'YER139C'
p3343
I1
sS'YPR170WB'
p3344
I29
sS'YPL245W'
p3345
I2
sS'YBR066C'
p3346
I3
sS'YLR138W'
p3347
I5
sS'YLR016C'
p3348
I2
sS'YDR341C'
p3349
I28
sS'YKL027W'
p3350
I3
sS'YJL058C'
p3351
I0
sS'YBR079C'
p3352
I22
sS'YFL039C'
p3353
I184
sS'YDR449C'
p3354
I5
sS'YHR199C'
p3355
I6
sS'YDR152W'
p3356
I8
sS'YDL090C'
p3357
I2
sS'YBR214W'
p3358
I2
sS'YFL054C'
p3359
I0
sS'YMR255W'
p3360
I4
sS'YJL128C'
p3361
I4
sS'YJR002W'
p3362
I6
sS'YDL145C'
p3363
I24
sS'YBL097W'
p3364
I1
sS'YKL127W'
p3365
I11
sS'YDR309C'
p3366
I4
sS'YNL061W'
p3367
I11
sS'YKR021W'
p3368
I1
sS'YDR398W'
p3369
I5
sS'YNL234W'
p3370
I0
sS'YFL014W'
p3371
I3
sS'YDR325W'
p3372
I2
sS'YKL056C'
p3373
I319
sS'YJL073W'
p3374
I2
sS'YLR371W'
p3375
I3
sS'YDR261C'
p3376
I6
sS'YMR005W'
p3377
I3
sS'YDR370C'
p3378
I2
sS'YJL146W'
p3379
I1
sS'YFL034CA'
p3380
I22
sS'YLR262C'
p3381
I6
sS'YOR207C'
p3382
I7
sS'YOR113W'
p3383
I1
sS'YDR087C'
p3384
I6
sS'YMR294W'
p3385
I1
sS'YPR135W'
p3386
I2
sS'YBR081C'
p3387
I3
sS'YPL175W'
p3388
I1
sS'YNR008W'
p3389
I3
sS'YLR092W'
p3390
I0
sS'YLR193C'
p3391
I3
sS'YDR072C'
p3392
I4
sS'YER044C'
p3393
I6
sS'YMR072W'
p3394
I21
sS'YMR197C'
p3395
I5
sS'YLR248W'
p3396
I7
sS'YOR283W'
p3397
I7
sS'YJL102W'
p3398
I0
sS'YJL141C'
p3399
I2
sS'YKL105C'
p3400
I1
sS'YMR160W'
p3401
I1
sS'YLR009W'
p3402
I13
sS'YNL181W'
p3403
I4
sS'YDL087C'
p3404
I1
sS'YKR056W'
p3405
I3
sS'YKL150W'
p3406
I7
sS'YMR225C'
p3407
I5
sS'YHL023C'
p3408
I2
sS'YIR036C'
p3409
I3
sS'YKL129C'
p3410
I3
sS'YDR163W'
p3411
I1
sS'YMR123W'
p3412
I12
sS'YDR238C'
p3413
I17
sS'YOR173W'
p3414
I1
sS'YHR184W'
p3415
I0
sS'YNL323W'
p3416
I6
sS'YOR128C'
p3417
I8
sS'YPL026C'
p3418
I2
sS'YLR220W'
p3419
I4
sS'YDR243C'
p3420
I1
sS'YLR172C'
p3421
I17
sS'YPL091W'
p3422
I12
sS'YIL030C'
p3423
I7
sS'YPL017C'
p3424
I0
sS'YPR168W'
p3425
I2
sS'YJL048C'
p3426
I1
sS'YPR113W'
p3427
I24
sS'YLR213C'
p3428
I0
sS'YNL050C'
p3429
I2
sS'YKR036C'
p3430
I2
sS'YBR251W'
p3431
I3
sS'YKL041W'
p3432
I1
sS'YIL113W'
p3433
I0
sS'YMR099C'
p3434
I19
sS'YMR234W'
p3435
I2
sS'YIR008C'
p3436
I3
sS'YLR240W'
p3437
I2
sS'YOL107W'
p3438
I2
sS'YBR085CA'
p3439
I14
sS'YIL040W'
p3440
I4
sS'YDR471W'
p3441
I121
sS'YGR135W'
p3442
I24
sS'YPL217C'
p3443
I6
sS'YGL219C'
p3444
I3
sS'YOR040W'
p3445
I1
sS'YAL051W'
p3446
I2
sS'YDR036C'
p3447
I4
sS'YHR114W'
p3448
I3
sS'YGL080W'
p3449
I4
sS'YPL140C'
p3450
I1
sS'YLR449W'
p3451
I15
sS'YNL136W'
p3452
I1
sS'YNL156C'
p3453
I4
sS'YDR293C'
p3454
I9
sS'YHR031C'
p3455
I1
sS'YBR155W'
p3456
I4
sS'YJR080C'
p3457
I3
sS'YNR038W'
p3458
I4
sS'YMR094W'
p3459
I1
sS'YNL080C'
p3460
I4
sS'YGL140C'
p3461
I5
sS'YPL161C'
p3462
I1
sS'YLR195C'
p3463
I7
sS'YBL024W'
p3464
I12
sS'YOR071C'
p3465
I2
sS'YLR346C'
p3466
I2
sS'YNR063W'
p3467
I0
sS'YOL067C'
p3468
I3
sS'YKL194C'
p3469
I1
sS'YPL075W'
p3470
I4
sS'YAL017W'
p3471
I3
sS'YJR024C'
p3472
I9
sS'YFL038C'
p3473
I35
sS'YBR242W'
p3474
I3
sS'YLR083C'
p3475
I11
sS'YNL029C'
p3476
I1
sS'YBR142W'
p3477
I5
sS'YOR231W'
p3478
I2
sS'YNL077W'
p3479
I1
sS'YHR166C'
p3480
I1
sS'YGR175C'
p3481
I31
sS'YJR131W'
p3482
I3
sS'YDR127W'
p3483
I14
sS'YIR017C'
p3484
I1
sS'YNL158W'
p3485
I2
sS'YER076C'
p3486
I1
sS'YNL127W'
p3487
I2
sS'YBR108W'
p3488
I1
sS'YJR137C'
p3489
I5
sS'YNR012W'
p3490
I2
sS'YGL097W'
p3491
I9
sS'YBR028C'
p3492
I3
sS'YBR109C'
p3493
I28
sS'YJL151C'
p3494
I20
sS'YLR224W'
p3495
I4
sS'YMR189W'
p3496
I12
sS'YLR271W'
p3497
I1
sS'YPL153C'
p3498
I1
sS'YDR367W'
p3499
I6
sS'YJR126C'
p3500
I4
sS'YKL001C'
p3501
I5
sS'YBR173C'
p3502
I8
sS'YGR264C'
p3503
I28
sS'YIL064W'
p3504
I5
sS'YOR261C'
p3505
I18
sS'YLR367W'
p3506
I57
sS'YHR045W'
p3507
I3
sS'YIL066C'
p3508
I0
sS'YGL253W'
p3509
I118
sS'YBR276C'
p3510
I4
sS'YHL032C'
p3511
I2
sS'YMR308C'
p3512
I15
sS'YGL250W'
p3513
I0
sS'YGL162W'
p3514
I1
sS'YOL152W'
p3515
I2
sS'YGR187C'
p3516
I4
sS'YNR041C'
p3517
I2
sS'YDR444W'
p3518
I2
sS'YGR127W'
p3519
I1
sS'YDR414C'
p3520
I2
sS'YNL259C'
p3521
I11
sS'YOR337W'
p3522
I1
sS'YMR010W'
p3523
I5
sS'YKL219W'
p3524
I2
sS'YOR097C'
p3525
I2
sS'YCR024CB'
p3526
I71
sS'YHR118C'
p3527
I1
sS'YPR094W'
p3528
I3
sS'YMR034C'
p3529
I0
sS'YNL099C'
p3530
I5
sS'YGR048W'
p3531
I3
sS'YJR015W'
p3532
I9
sS'YGR024C'
p3533
I6
sS'YOL023W'
p3534
I1
sS'YPL253C'
p3535
I1
sS'YMR222C'
p3536
I3
sS'YHR051W'
p3537
I9
sS'YHL003C'
p3538
I9
sS'YER154W'
p3539
I5
sS'YOR371C'
p3540
I2
sS'YBR208C'
p3541
I3
sS'YEL036C'
p3542
I5
sS'YBR260C'
p3543
I3
sS'YHR010W'
p3544
I270
sS'YCL034W'
p3545
I6
sS'YJR104C'
p3546
I126
sS'YGR197C'
p3547
I1
sS'YPL124W'
p3548
I1
sS'YIL024C'
p3549
I1
sS'YLR056W'
p3550
I44
sS'YLR304C'
p3551
I35
sS'YOR357C'
p3552
I6
sS'YNL069C'
p3553
I322
sS'YIL071C'
p3554
I1
sS'YNL286W'
p3555
I2
sS'YDR001C'
p3556
I6
sS'YIL162W'
p3557
I5
sS'YNR061C'
p3558
I7
sS'YGR080W'
p3559
I3
sS'YOR037W'
p3560
I1
sS'YBL011W'
p3561
I6
sS'YBR195C'
p3562
I1
sS'YDR183W'
p3563
I2
sS'YGL222C'
p3564
I2
sS'YDR138W'
p3565
I2
sS'YHR129C'
p3566
I1
sS'YOR317W'
p3567
I9
sS'YEL016C'
p3568
I2
sS'YGR033C'
p3569
I6
sS'YJL110C'
p3570
I2
sS'YGL049C'
p3571
I5
sS'YML130C'
p3572
I7
sS'YOL078W'
p3573
I1
sS'YLR328W'
p3574
I5
sS'YPL271W'
p3575
I19
sS'YNL246W'
p3576
I4
sS'YNL291C'
p3577
I3
sS'YGR046W'
p3578
I2
sS'YPR068C'
p3579
I0
sS'YDR384C'
p3580
I8
sS'YLR039C'
p3581
I2
sS'YNL097C'
p3582
I2
sS'YOL017W'
p3583
I1
sS'YJL206C'
p3584
I0
sS'YDR481C'
p3585
I18
sS'YER014W'
p3586
I2
sS'YMR171C'
p3587
I3
sS'YPR041W'
p3588
I21
sS'YER172C'
p3589
I3
sS'YCR019W'
p3590
I1
sS'YNL180C'
p3591
I5
sS'YMR211W'
p3592
I1
sS'YNL213C'
p3593
I2
sS'YOR185C'
p3594
I5
sS'YOR244W'
p3595
I2
sS'YEL003W'
p3596
I13
sS'YDR503C'
p3597
I2
sS'YGL037C'
p3598
I22
sS'YBR058C'
p3599
I4
sS'YPL244C'
p3600
I4
sS'YDR492W'
p3601
I2
sS'YLR024C'
p3602
I2
sS'YLR411W'
p3603
I0
sS'YLR071C'
p3604
I4
sS'YGR240C'
p3605
I75
sS'YEL058W'
p3606
I9
sS'YMR259C'
p3607
I3
sS'YKL024C'
p3608
I18
sS'YMR148W'
p3609
I2
sS'YDL199C'
p3610
I0
sS'YHL007C'
p3611
I4
sS'YOR145C'
p3612
I11
sS'YPR052C'
p3613
I35
sS'YPR025C'
p3614
I2
sS'YCR067C'
p3615
I4
sS'YBR087W'
p3616
I4
sS'YLR006C'
p3617
I2
sS'YDR330W'
p3618
I2
sS'YER149C'
p3619
I3
sS'YBL037W'
p3620
I2
sS'YER114C'
p3621
I4
sS'YOR375C'
p3622
I37
sS'YPR190C'
p3623
I4
sS'YOR215C'
p3624
I4
sS'YOR306C'
p3625
I2
sS'YHR107C'
p3626
I8
sS'YAR002W'
p3627
I4
sS'YHR127W'
p3628
I4
sS'YOR153W'
p3629
I105
sS'YGL175C'
p3630
I1
sS'YOR262W'
p3631
I2
sS'YDL048C'
p3632
I0
sS'YDL064W'
p3633
I12
sS'YEL056W'
p3634
I4
sS'YMR257C'
p3635
I1
sS'YDR026C'
p3636
I2
sS'YMR272C'
p3637
I6
sS'YLR209C'
p3638
I4
sS'YLR066W'
p3639
I10
sS'YBR047W'
p3640
I1
sS'YDR514C'
p3641
I1
sS'YDL103C'
p3642
I6
sS'YDL113C'
p3643
I2
sS'YMR125W'
p3644
I9
sS'YOR202W'
p3645
I7
sS'YDR033W'
p3646
I79
sS'YLL062C'
p3647
I1
sS'YMR286W'
p3648
I6
sS'YHL014C'
p3649
I1
sS'YJR008W'
p3650
I0
sS'YPL219W'
p3651
I1
sS'YPL262W'
p3652
I14
sS'YGR006W'
p3653
I1
sS'YMR002W'
p3654
I27
sS'YGR079W'
p3655
I3
sS'YDL119C'
p3656
I1
sS'YJL003W'
p3657
I3
sS'YPL020C'
p3658
I2
sS'YBL069W'
p3659
I3
sS'YER045C'
p3660
I0
sS'YKL151C'
p3661
I3
sS'YMR028W'
p3662
I1
sS'YNL040W'
p3663
I3
sS'YOR284W'
p3664
I1
sS'YKL104C'
p3665
I15
sS'YOR163W'
p3666
I7
sS'YLR422W'
p3667
I2
sS'YMR288W'
p3668
I2
sS'YLR093C'
p3669
I6
sS'YNR075W'
p3670
I1
sS'YJL103C'
p3671
I0
sS'YKR051W'
p3672
I1
sS'YNL042W'
p3673
I1
sS'YJR030C'
p3674
I2
sS'YNL063W'
p3675
I1
sS'YKR093W'
p3676
I15
sS'YNL308C'
p3677
I6
sS'YMR030W'
p3678
I0
sS'YPR074C'
p3679
I72
sS'YOR022C'
p3680
I1
sS'YOR198C'
p3681
I31
sS'YHR058C'
p3682
I2
sS'YER074WA'
p3683
I10
sS'YJR049C'
p3684
I4
sS'YPR112C'
p3685
I6
sS'YHR038W'
p3686
I1
sS'YMR287C'
p3687
I1
sS'YKR019C'
p3688
I1
sS'YOR324C'
p3689
I2
sS'YPR169W'
p3690
I5
sS'YLR175W'
p3691
I35
sS'YBL040C'
p3692
I8
sS'YGR279C'
p3693
I48
sS'YOR172W'
p3694
I1
sS'YML114C'
p3695
I2
sS'YDR064W'
p3696
I344
sS'YMR275C'
p3697
I3
sS'YGL240W'
p3698
I1
sS'YCR073C'
p3699
I0
sS'YML067C'
p3700
I8
sS'YER052C'
p3701
I9
sS'YNL260C'
p3702
I2
sS'YOL098C'
p3703
I8
sS'YMR202W'
p3704
I35
sS'YJL074C'
p3705
I3
sS'YER003C'
p3706
I21
sS'YHR104W'
p3707
I8
sS'YPL115C'
p3708
I3
sS'YKR077W'
p3709
I0
sS'YNL006W'
p3710
I4
sS'YOR058C'
p3711
I2
sS'YCL057W'
p3712
I10
sS'YKR017C'
p3713
I1
sS'YLR413W'
p3714
I21
sS'YBR072W'
p3715
I4
sS'YBR005W'
p3716
I1
sS'YBR029C'
p3717
I6
sS'YMR262W'
p3718
I2
sS'YDR273W'
p3719
I0
sS'YPR063C'
p3720
I11
sS'YLR153C'
p3721
I25
sS'YEL063C'
p3722
I6
sS'YBL076C'
p3723
I54
sS'YMR113W'
p3724
I2
sS'YFR006W'
p3725
I7
sS'YGL134W'
p3726
I1
sS'YNL021W'
p3727
I3
sS'YLR128W'
p3728
I1
sS'YKR068C'
p3729
I6
sS'YOR099W'
p3730
I18
sS'YML021C'
p3731
I3
sS'YGL021W'
p3732
I3
sS'YPR032W'
p3733
I2
sS'YER158C'
p3734
I0
sS'YDL173W'
p3735
I7
sS'YNL245C'
p3736
I1
sS'YBR143C'
p3737
I34
sS'YDR086C'
p3738
I62
sS'YMR006C'
p3739
I6
sS'YOR346W'
p3740
I3
sS'YJR130C'
p3741
I1
sS'YPL072W'
p3742
I1
sS'YAL016W'
p3743
I10
sS'YLL015W'
p3744
I3
sS'YHR167W'
p3745
I1
sS'YJL134W'
p3746
I3
sS'YJR006W'
p3747
I2
sS'YKL146W'
p3748
I3
sS'YDR171W'
p3749
I3
sS'YML051W'
p3750
I5
sS'YJR039W'
p3751
I0
sS'YKL080W'
p3752
I32
sS'YPL152W'
p3753
I2
sS'YML023C'
p3754
I1
sS'YLR183C'
p3755
I3
sS'YKL186C'
p3756
I6
sS'YPL064C'
p3757
I3
sS'YHR070W'
p3758
I2
sS'YNR013C'
p3759
I5
sS'YMR311C'
p3760
I5
sS'YHR073W'
p3761
I4
sS'YIL146C'
p3762
I1
sS'YBR172C'
p3763
I4
sS'YIR022W'
p3764
I7
sS'YJL172W'
p3765
I15
sS'YKL019W'
p3766
I5
sS'YBL078C'
p3767
I2
sS'YLR173W'
p3768
I1
sS'YNL222W'
p3769
I3
sS'YGR095C'
p3770
I4
sS'YMR163C'
p3771
I1
sS'YPL086C'
p3772
I6
sS'YPR010CA'
p3773
I5
sS'YFR039C'
p3774
I3
sS'YKR042W'
p3775
I62
sS'YGR208W'
p3776
I8
sS'YPL092W'
p3777
I4
sS'YER007CA'
p3778
I16
sS'YPL029W'
p3779
I1
sS'YBR236C'
p3780
I4
sS'YDL091C'
p3781
I1
sS'YDL142C'
p3782
I1
sS'YJL088W'
p3783
I0
sS'YMR066W'
p3784
I1
sS'YHR198C'
p3785
I1
sS'YMR019W'
p3786
I1
sS'YGL196W'
p3787
I3
sS'YMR023C'
p3788
I0
sS'YJL129C'
p3789
I3
sS'YGR041W'
p3790
I4
sS'YHR158C'
p3791
I3
sS'YJL209W'
p3792
I2
sS'YDR264C'
p3793
I11
sS'YKL039W'
p3794
I10
sS'YCL037C'
p3795
I20
sS'YKL064W'
p3796
I3
sS'YLR265C'
p3797
I1
sS'YKR022C'
p3798
I2
sS'YNL035C'
p3799
I4
sS'YMR026C'
p3800
I2
sS'YPL174C'
p3801
I1
sS'YOL052CA'
p3802
I1
sS'YPL061W'
p3803
I134
sS'YLR370C'
p3804
I8
sS'YNL177C'
p3805
I5
sS'YKL162C'
p3806
I0
sS'YOR114W'
p3807
I0
sS'YMR297W'
p3808
I28
sS'YPR134W'
p3809
I1
sS'YLR250W'
p3810
I9
sS'YAL034C'
p3811
I1
sS'YKL122C'
p3812
I7
sS'YOR070C'
p3813
I1
sS'YAL043C'
p3814
I3
sS'YOL093W'
p3815
I2
sS'YIL078W'
p3816
I61
sS'YOL042W'
p3817
I2
sS'YDR054C'
p3818
I7
sS'YHR146W'
p3819
I11
sS'YPL125W'
p3820
I3
sS'YIL070C'
p3821
I6
sS'YCL049C'
p3822
I1
sS'YHL020C'
p3823
I3
sS'YIL009W'
p3824
I5
sS'YDR289C'
p3825
I2
sS'YFR042W'
p3826
I3
sS'YHR076W'
p3827
I4
sS'YOR066W'
p3828
I1
sS'YOR063W'
p3829
I491
sS'YOL140W'
p3830
I2
sS'YJL039C'
p3831
I6
sS'YOR036W'
p3832
I1
sS'YBL016W'
p3833
I3
sS'YML131W'
p3834
I2
sS'YGR032W'
p3835
I2
sS'YDL107W'
p3836
I1
sS'YLR170C'
p3837
I4
sS'YGL040C'
p3838
I11
sS'YNL292W'
p3839
I3
sS'YLR305C'
p3840
I6
sS'YIL137C'
p3841
I5
sS'YBR194W'
p3842
I2
sS'YGR179C'
p3843
I1
sS'YOR354C'
p3844
I4
sS'YOL108C'
p3845
I1
sS'YJL092W'
p3846
I2
sS'YIL039W'
p3847
I8
sS'YMR316W'
p3848
I1
sS'YER070W'
p3849
I24
sS'YIL038C'
p3850
I5
sS'YGR027C'
p3851
I374
sS'YNL148C'
p3852
I1
sS'YIL138C'
p3853
I14
sS'YDR066C'
p3854
I0
sS'YJR127C'
p3855
I2
sS'YGL223C'
p3856
I2
sS'YIL143C'
p3857
I3
sS'YGR092W'
p3858
I3
sS'YKR030W'
p3859
I3
sS'YNL102W'
p3860
I4
sS'YKL002W'
p3861
I5
sS'YDR328C'
p3862
I14
sS'YLR247C'
p3863
I3
sS'YOR038C'
p3864
I1
sS'YOR014W'
p3865
I7
sS'YOR057W'
p3866
I4
sS'YIR009W'
p3867
I2
sS'YDR513W'
p3868
I14
sS'YLR390W'
p3869
I3
sS'YAL041W'
p3870
I3
sS'YLR345W'
p3871
I2
sS'YKL073W'
p3872
I6
sS'YGR103W'
p3873
I19
sS'YNL130C'
p3874
I10
sS'YPL141C'
p3875
I2
sS'YHR151C'
p3876
I2
sS'YDR311W'
p3877
I2
sS'YIL041W'
p3878
I23
sS'YDR472W'
p3879
I2
sS'YGR057C'
p3880
I1
sS'YNL155W'
p3881
I7
sS'YNL100W'
p3882
I3
sS'YPR171W'
p3883
I2
sS'YBR154C'
p3884
I16
sS'YOR292C'
p3885
I1
sS'YGL150C'
p3886
I5
sS'YGL143C'
p3887
I1
sS'YLR001C'
p3888
I2
sS'YLR126C'
p3889
I4
sS'YMR318C'
p3890
I22
sS'YGR181W'
p3891
I11
sS'YBR062C'
p3892
I3
sS'YHR108W'
p3893
I12
sS'YGR125W'
p3894
I3
sS'YDL067C'
p3895
I14
sS'YLR109W'
p3896
I357
sS'YGL176C'
p3897
I1
sS'YHR009C'
p3898
I9
sS'YDR135C'
p3899
I10
sS'YAR003W'
p3900
I2
sS'YBL030C'
p3901
I32
sS'YMR256C'
p3902
I7
sS'YPL229W'
p3903
I0
sS'YMR236W'
p3904
I10
sS'YOR127W'
p3905
I2
sS'YER148W'
p3906
I14
sS'YGL242C'
p3907
I7
sS'YHL015W'
p3908
I301
sS'YEL048C'
p3909
I3
sS'YOR303W'
p3910
I6
sS'YIL087C'
p3911
I1
sS'YER048WA'
p3912
I12
sS'YLL054C'
p3913
I1
sS'YLR443W'
p3914
I2
sS'YDR235W'
p3915
I2
sS'YDR313C'
p3916
I2
sS'YNR024W'
p3917
I2
sS'YMR192W'
p3918
I2
sS'YNL218W'
p3919
I1
sS'YOR104W'
p3920
I1
sS'YML074C'
p3921
I22
sS'YOR141C'
p3922
I3
sS'YER073W'
p3923
I14
sS'YER038C'
p3924
I1
sS'YLL038C'
p3925
I2
sS'YBR046C'
p3926
I3
sS'YOR056C'
p3927
I5
sS'YDR013W'
p3928
I3
sS'YDR003W'
p3929
I3
sS'YPR125W'
p3930
I3
sS'YNR040W'
p3931
I2
sS'YOR086C'
p3932
I10
sS'YIL067C'
p3933
I1
sS'YNL051W'
p3934
I2
sS'YOR270C'
p3935
I29
sS'YHR020W'
p3936
I36
sS'YLL006W'
p3937
I3
sS'YGL252C'
p3938
I5
sS'YOL033W'
p3939
I1
sS'YBR201W'
p3940
I2
sS'YBL004W'
p3941
I10
sS'YLL043W'
p3942
I5
sS'YDR415C'
p3943
I2
sS'YGL161C'
p3944
I6
sS'YER182W'
p3945
I2
sS'YIR026C'
p3946
I4
sS'YOL133W'
p3947
I7
sS'YBR037C'
p3948
I2
sS'YGL179C'
p3949
I1
sS'YGL058W'
p3950
I9
sS'YAL023C'
p3951
I23
sS'YPR009W'
p3952
I2
sS'YLR139C'
p3953
I0
sS'YNL263C'
p3954
I7
sS'YML027W'
p3955
I2
sS'YKR099W'
p3956
I2
sS'YOR096W'
p3957
I249
sS'YPR115W'
p3958
I3
sS'YDR128W'
p3959
I2
sS'YGR132C'
p3960
I13
sS'YLR410W'
p3961
I10
sS'YDR228C'
p3962
I2
sS'YER004W'
p3963
I10
sS'YOR144C'
p3964
I1
sS'YER028C'
p3965
I1
sS'YMR052W'
p3966
I1
sS'YCR072C'
p3967
I4
sS'YKR016W'
p3968
I3
sS'YMR158W'
p3969
I4
sS'YLR114C'
p3970
I4
sS'YJL161W'
p3971
I0
sS'YLL036C'
p3972
I3
sS'YCR023C'
p3973
I2
sS'YDR519W'
p3974
I11
sS'YGR278W'
p3975
I1
sS'YDL029W'
p3976
I19
sS'YKR076W'
p3977
I1
sS'YDR069C'
p3978
I1
sS'YBL057C'
p3979
I7
sS'YFR037C'
p3980
I9
sS'YER082C'
p3981
I5
sS'YBR073W'
p3982
I5
sS'YLR034C'
p3983
I7
sS'YMR122WA'
p3984
I61
sS'YDR419W'
p3985
I1
sS'YOR042W'
p3986
I7
sS'YEL064C'
p3987
I1
sS'YMR263W'
p3988
I3
sS'YDR270W'
p3989
I2
sS'YLR152C'
p3990
I1
sS'YBR004C'
p3991
I2
sS'YDL121C'
p3992
I11
sS'YMR299C'
p3993
I1
sS'YPR033C'
p3994
I26
sS'YBR211C'
p3995
I1
sS'YPL134C'
p3996
I1
sS'YGR230W'
p3997
I1
sS'YBL079W'
p3998
I7
sS'YPR120C'
p3999
I5
sS'YPR062W'
p4000
I14
sS'YBL041W'
p4001
I20
sS'YMR097C'
p4002
I2
sS'YDR528W'
p4003
I2
sS'YDL058W'
p4004
I6
sS'YPR065W'
p4005
I3
sS'YGR232W'
p4006
I7
sS'YLR399C'
p4007
I11
sS'YMR172W'
p4008
I1
sS'YNL214W'
p4009
I1
sS'YDL185W'
p4010
I75
sS'YLR403W'
p4011
I4
sS'YBR268W'
p4012
I6
sS'YPR180W'
p4013
I3
sS'YEL013W'
p4014
I11
sS'YDL007W'
p4015
I13
sS'YPR083W'
p4016
I1
sS'YNL094W'
p4017
I3
sS'YPR040W'
p4018
I2
sS'YKL047W'
p4019
I2
sS'YDR480W'
p4020
I1
sS'YML004C'
p4021
I14
sS'YMR210W'
p4022
I1
sS'YBR138C'
p4023
I1
sS'YBR256C'
p4024
I8
sS'YOR289W'
p4025
I1
sS'YPL227C'
p4026
I7
sS'YLR023C'
p4027
I3
sS'YMR024W'
p4028
I3
sS'YLL009C'
p4029
I10
sS'YBR059C'
p4030
I5
sS'YML019W'
p4031
I5
sS'YPR024W'
p4032
I9
sS'YDR493W'
p4033
I2
sS'YMR129W'
p4034
I5
sS'YLR163C'
p4035
I5
sS'YGR172C'
p4036
I5
sS'YPL247C'
p4037
I1
sS'YMR258C'
p4038
I3
sS'YJL207C'
p4039
I4
sS'YBR060C'
p4040
I2
sS'YDR103W'
p4041
I2
sS'YLR072W'
p4042
I2
sS'YER060W'
p4043
I2
sS'YPL159C'
p4044
I2
sS'YOR181W'
p4045
I2
sS'YIR023W'
p4046
I2
sS'YOL109W'
p4047
I211
sS'YDL092W'
p4048
I9
sS'YKR043C'
p4049
I15
sS'YPL084W'
p4050
I4
sS'YLR166C'
p4051
I3
sS'YMR067C'
p4052
I2
sS'YJL011C'
p4053
I4
sS'YDL143W'
p4054
I20
sS'YKL138C'
p4055
I6
sS'YDL208W'
p4056
I27
sS'YNL056W'
p4057
I5
sS'YPL093W'
p4058
I19
sS'YPL028W'
p4059
I39
sS'YFL001W'
p4060
I3
sS'YKL025C'
p4061
I3
sS'YIL135C'
p4062
I2
sS'YGL206C'
p4063
I28
sS'YPL188W'
p4064
I2
sS'YMR027W'
p4065
I9
sS'YPL173W'
p4066
I2
sS'YNL132W'
p4067
I10
sS'YKL125W'
p4068
I3
sS'YLR264W'
p4069
I125
sS'YKL170W'
p4070
I4
sS'YKR023W'
p4071
I1
sS'YNL036W'
p4072
I11
sS'YOR115C'
p4073
I3
sS'YKL038W'
p4074
I2
sS'YPR157W'
p4075
I0
sS'YJR025C'
p4076
I8
sS'YMR296C'
p4077
I10
sS'YDR267C'
p4078
I2
sS'YLR286C'
p4079
I64
sS'YGR246C'
p4080
I2
sS'YJL208C'
p4081
I3
sS'YLR384C'
p4082
I12
sS'YPL060W'
p4083
I1
sS'YOR304CA'
p4084
I3
sS'YPR019W'
p4085
I4
sS'YML099C'
p4086
I1
sS'YOR162C'
p4087
I1
sS'YLR421C'
p4088
I13
sS'YMR145C'
p4089
I11
sS'YDR161W'
p4090
I7
sS'YMR110C'
p4091
I3
sS'YDR376W'
p4092
I3
sS'YAR002CA'
p4093
I22
sS'YJR064W'
p4094
I26
sS'YMR098C'
p4095
I2
sS'YDR496C'
p4096
I8
sS'YOR285W'
p4097
I24
sS'YHR077C'
p4098
I3
sS'YJL002C'
p4099
I18
sS'YML022W'
p4100
I27
sS'YGL081W'
p4101
I0
sS'YNL159C'
p4102
I2
sS'YER046W'
p4103
I1
sS'YKL096WA'
p4104
I154
sS'YLR288C'
p4105
I1
sS'YPR159W'
p4106
I10
sS'YIR030C'
p4107
I1
sS'YDR074W'
p4108
I8
sS'YKR050W'
p4109
I2
sS'YAL035W'
p4110
I28
sS'YHR059W'
p4111
I3
sS'YFL017WA'
p4112
I6
sS'YPR075C'
p4113
I5
sS'YBR013C'
p4114
I2
sS'YGL137W'
p4115
I22
sS'YDR375C'
p4116
I2
sS'YML053C'
p4117
I2
sS'YPL011C'
p4118
I2
sS'YGL017W'
p4119
I1
sS'YKR018C'
p4120
I11
sS'YNL309W'
p4121
I1
sS'YLL033W'
p4122
I1
sS'YDL150W'
p4123
I4
sS'YOR171C'
p4124
I4
sS'YPR111W'
p4125
I1
sS'YHR084W'
p4126
I3
sS'YNL038W'
p4127
I3
sS'YKL003C'
p4128
I6
sS'YAL053W'
p4129
I4
sS'YNL149C'
p4130
I21
sS'YGL095C'
p4131
I3
sS'YOL007C'
p4132
I4
sS'YBR188C'
p4133
I2
sS'YCR024CA'
p4134
I156
sS'YIL139C'
p4135
I1
sS'YLR246W'
p4136
I1
sS'YJR119C'
p4137
I0
sS'YJR120W'
p4138
I5
sS'YIL079C'
p4139
I3
sS'YLR199C'
p4140
I3
sS'YGR133W'
p4141
I1
sS'YIL142W'
p4142
I20
sS'YFR025C'
p4143
I5
sS'YIR006C'
p4144
I10
sS'YOR017W'
p4145
I2
sS'YMR199W'
p4146
I3
sS'YJL140W'
p4147
I11
sS'YDR473C'
p4148
I1
sS'YCR028CA'
p4149
I22
sS'YNL009W'
p4150
I0
sS'YLR393W'
p4151
I1
sS'YHR002W'
p4152
I1
sS'YPL146C'
p4153
I4
sS'YKL072W'
p4154
I1
sS'YPL139C'
p4155
I1
sS'YNL138W'
p4156
I18
sS'YNL154C'
p4157
I10
sS'YPR098C'
p4158
I5
sS'YNL001W'
p4159
I4
sS'YNR009W'
p4160
I2
sS'YJL080C'
p4161
I28
sS'YIL046W'
p4162
I2
sS'YGR174C'
p4163
I2
sS'YGL142C'
p4164
I2
sS'YJR068W'
p4165
I5
sS'YNL101W'
p4166
I3
sS'YHR150W'
p4167
I1
sS'YJR086W'
p4168
I7
sS'YDR081C'
p4169
I2
sS'YJL137C'
p4170
I1
sS'YDR383C'
p4171
I1
sS'YNL176C'
p4172
I2
sS'YDL072C'
p4173
I15
sS'YBR139W'
p4174
I6
sS'YBR233WA'
p4175
I3
sS'YKL149C'
p4176
I1
sS'YIR015W'
p4177
I1
sS'YJR150C'
p4178
I0
sS'YBR189W'
p4179
I310
sS'YGL202W'
p4180
I26
sS'YMR061W'
p4181
I4
sS'YHR085W'
p4182
I2
sS'YHR188C'
p4183
I7
sS'YBR052C'
p4184
I13
sS'YER122C'
p4185
I12
sS'YFL023W'
p4186
I2
sS'YLR360W'
p4187
I2
sS'YHR164C'
p4188
I1
sS'YNL116W'
p4189
I2
sS'YDR092W'
p4190
I9
sS'YBR216C'
p4191
I2
sS'YPL108W'
p4192
I1
sS'YDR361C'
p4193
I8
sS'YPL164C'
p4194
I1
sS'YBR171W'
p4195
I10
sS'YNL005C'
p4196
I5
sS'YER173W'
p4197
I1
sS'YNL088W'
p4198
I7
sS'YMR274C'
p4199
I1
sS'YLR226W'
p4200
I1
sS'YNL070W'
p4201
I15
sS'YCR043C'
p4202
I10
sS'YDR482C'
p4203
I2
sS'YGR153W'
p4204
I0
sS'YOL032W'
p4205
I1
sS'YML063W'
p4206
I302
sS'YGR271CA'
p4207
I3
sS'YHR027C'
p4208
I20
sS'YMR185W'
p4209
I1
sS'YBR082C'
p4210
I35
sS'YFR007W'
p4211
I1
sS'YNL293W'
p4212
I1
sS'YKR090W'
p4213
I2
sS'YLR333C'
p4214
I156
sS'YKL084W'
p4215
I4
sS'YOL075C'
p4216
I1
sS'YOR273C'
p4217
I2
sS'YBR200W'
p4218
I3
sS'YDR240C'
p4219
I1
sS'YAR028W'
p4220
I2
sS'YBR239C'
p4221
I1
sS'YML107C'
p4222
I1
sS'YDR034C'
p4223
I2
sS'YGL077C'
p4224
I9
sS'YGR168C'
p4225
I1
sS'YDL193W'
p4226
I5
sS'YOR131C'
p4227
I3
sS'YKR098C'
p4228
I1
sS'YOL069W'
p4229
I2
sS'YPR072W'
p4230
I7
sS'YDR412W'
p4231
I4
sS'YGL160W'
p4232
I2
sS'YOL011W'
p4233
I2
sS'YNL133C'
p4234
I1
sS'YLR359W'
p4235
I25
sS'YOR091W'
p4236
I10
sS'YKR101W'
p4237
I1
sS'YGR026W'
p4238
I11
sS'YNL129W'
p4239
I3
sS'YML125C'
p4240
I17
sS'YAL040C'
p4241
I2
sS'YGL071W'
p4242
I3
sS'YDR288W'
p4243
I2
sS'YGL208W'
p4244
I1
sS'YNL233W'
p4245
I2
sS'YNL284C'
p4246
I5
sS'YFR041C'
p4247
I3
sS'YLR363WA'
p4248
I4
sS'YOR355W'
p4249
I10
sS'YOR028C'
p4250
I1
sS'YPL111W'
p4251
I14
sS'YPL106C'
p4252
I109
sS'YGR031W'
p4253
I2
sS'YOL143C'
p4254
I25
sS'YIL006W'
p4255
I0
sS'YOL043C'
p4256
I1
sS'YOR308C'
p4257
I1
sS'YBR237W'
p4258
I1
sS'YIL026C'
p4259
I2
sS'YGL151W'
p4260
I3
sS'YBR197C'
p4261
I2
sS'YCL057CA'
p4262
I12
sS'YHR147C'
p4263
I5
sS'YJR091C'
p4264
I4
sS'YOR080W'
p4265
I1
sS'YJL204C'
p4266
I1
sS'YOL020W'
p4267
I6
sS'YJL093C'
p4268
I2
sS'YPL126W'
p4269
I8
sS'YBR086C'
p4270
I12
sS'YNL244C'
p4271
I60
sS'YNR027W'
p4272
I2
sS'YMR117C'
p4273
I1
sS'YAL024C'
p4274
I1
sS'YJR125C'
p4275
I5
sS'YJR142W'
p4276
I3
sS'YFL026W'
p4277
I33
sS'YER115C'
p4278
I2
sS'YJL197W'
p4279
I3
sS'YMR213W'
p4280
I1
sS'YPL199C'
p4281
I9
sS'YOR251C'
p4282
I5
sS'YPL071C'
p4283
I2
sS'YCL008C'
p4284
I2
sS'YEL006W'
p4285
I3
sS'YOL141W'
p4286
I1
sS'YNL095C'
p4287
I1
sS'YNL215W'
p4288
I1
sS'YDR529C'
p4289
I13
sS'YGR044C'
p4290
I6
sS'YER103W'
p4291
I1
sS'YGR076C'
p4292
I2
sS'YEL012W'
p4293
I2
sS'YMR223W'
p4294
I2
sS'YDL006W'
p4295
I3
sS'YFR032CA'
p4296
I303
sS'YJL012C'
p4297
I41
sS'YPR043W'
p4298
I329
sS'YDR382W'
p4299
I329
sS'YDR524CB'
p4300
I292
sS'YDR483W'
p4301
I20
sS'YLL008W'
p4302
I7
sS'YOR219C'
p4303
I2
sS'YDR505C'
p4304
I4
sS'YKL206C'
p4305
I4
sS'YER061C'
p4306
I2
sS'YLR135W'
p4307
I1
sS'YMR300C'
p4308
I11
sS'YLR022C'
p4309
I6
sS'YGR068C'
p4310
I1
sS'YDL237W'
p4311
I7
sS'YPL246C'
p4312
I8
sS'YLR257W'
p4313
I13
sS'YPL226W'
p4314
I18
sS'YDR397C'
p4315
I9
sS'YLR073C'
p4316
I5
sS'YLR375W'
p4317
I4
sS'YGL039W'
p4318
I7
sS'YNR004W'
p4319
I1
sS'YER183C'
p4320
I5
sS'YML018C'
p4321
I5
sS'YEL001C'
p4322
I19
sS'YHR090C'
p4323
I2
sS'YOL021C'
p4324
I6
sS'YHR030C'
p4325
I5
sS'YDR443C'
p4326
I2
sS'YBR295W'
p4327
I1
sS'YMR235C'
p4328
I18
sS'YHR109W'
p4329
I0
sS'YKL018W'
p4330
I2
sS'YIL011W'
p4331
I0
sS'YEL034W'
p4332
I284
sS'YOR039W'
p4333
I8
sS'YNR050C'
p4334
I10
sS'YLR019W'
p4335
I4
sS'YHR082C'
p4336
I6
sS'YKR100C'
p4337
I4
sS'YKL208W'
p4338
I1
sS'YJL079C'
p4339
I3
sS'YDR391C'
p4340
I2
sS'YGR180C'
p4341
I48
sS'YOR260W'
p4342
I10
sS'YPL260W'
p4343
I6
sS'YIL084C'
p4344
I1
sS'YAL003W'
p4345
I322
sS'YPR144C'
p4346
I4
sS'YOR362C'
p4347
I17
sS'YKR095WA'
p4348
I7
sS'YOR302W'
p4349
I3
sS'YNL271C'
p4350
I5
sS'YCR048W'
p4351
I5
sS'YLR419W'
p4352
I3
sS'YGL048C'
p4353
I15
sS'YOR083W'
p4354
I1
sS'YOR228C'
p4355
I1
sS'YMR193W'
p4356
I2
sS'YCR053W'
p4357
I35
sS'YOR380W'
p4358
I0
sS'YPR143W'
p4359
I5
sS'YMR111C'
p4360
I1
sS'YDR129C'
p4361
I19
sS'YGL019W'
p4362
I8
sS'YLR091W'
p4363
I1
sS'YNL330C'
p4364
I5
sS'YER047C'
p4365
I1
sS'YOR138C'
p4366
I2
sS'YKL008C'
p4367
I9
sS'YPR029C'
p4368
I5
sS'YMR144W'
p4369
I2
sS'YCR066W'
p4370
I0
sS'YBR105C'
p4371
I2
sS'YJL034W'
p4372
I58
sS'YLR420W'
p4373
I13
sS'YJR067C'
p4374
I2
sS'YOR252W'
p4375
I4
sS'YPR158W'
p4376
I3
sS'YBR091C'
p4377
I4
sS'YDR075W'
p4378
I2
sS'YLR177W'
p4379
I2
sS'YFL048C'
p4380
I10
sS'YLR117C'
p4381
I2
sS'YGR220C'
p4382
I5
sS'YBR014C'
p4383
I6
sS'YML052W'
p4384
I14
sS'YPL012W'
p4385
I9
sS'YLR299W'
p4386
I1
sS'YOR176W'
p4387
I7
sS'YHR187W'
p4388
I2
sS'YOR109W'
p4389
I6
sS'YNL172W'
p4390
I1
sS'YGR275W'
p4391
I5
sS'YMR071C'
p4392
I7
sS'YOR286W'
p4393
I9
sS'YBL089W'
p4394
I1
sS'YPR110C'
p4395
I22
sS'YGL016W'
p4396
I5
sS'YDL216C'
p4397
I0
sS'YPL059W'
p4398
I11
sS'YMR120C'
p4399
I18
sS'YBL046W'
p4400
I1
sS'YOR143C'
p4401
I2
sS'YER029C'
p4402
I3
sS'YDR119W'
p4403
I8
sS'YGR102C'
p4404
I3
sS'YKL141W'
p4405
I8
sS'YER005W'
p4406
I3
sS'YGL116W'
p4407
I2
sS'YKR075C'
p4408
I1
sS'YPL034W'
p4409
I2
sS'YDL105W'
p4410
I1
sS'YDL028C'
p4411
I2
sS'YJL023C'
p4412
I1
sS'YER050C'
p4413
I6
sS'YCR008W'
p4414
I7
sS'YBL104C'
p4415
I2
sS'YMR102C'
p4416
I2
sS'YMR200W'
p4417
I8
sS'YER093C'
p4418
I1
sS'YLR119W'
p4419
I1
sS'YDR175C'
p4420
I3
sS'YLR082C'
p4421
I1
sS'YMR229C'
p4422
I23
sS'YPR034W'
p4423
I5
sS'YMR159C'
p4424
I0
sS'YOR189W'
p4425
I5
sS'YFL042C'
p4426
I2
sS'YOR154W'
p4427
I1
sS'YGR233C'
p4428
I6
sS'YMR264W'
p4429
I9
sS'YGL136C'
p4430
I1
sS'YPR018W'
p4431
I1
sS'YGL139W'
p4432
I4
sS'YLR065C'
p4433
I6
sS'YPR061C'
p4434
I0
sS'YOR280C'
p4435
I3
sS'YMR086W'
p4436
I3
sS'YGR007W'
p4437
I6
sS'YNL315C'
p4438
I4
sS'YER018C'
p4439
I2
sS'YOR299W'
p4440
I3
sS'YDR224C'
p4441
I63
sS'YJR045C'
p4442
I87
sS'YHR189W'
p4443
I1
sS'YLR385C'
p4444
I1
sS'YDL002C'
p4445
I3
sS'YOR020WA'
p4446
I4
sS'YMR004W'
p4447
I3
sS'YMR008C'
p4448
I3
sS'YJL136C'
p4449
I210
sS'YPL116W'
p4450
I3
sS'YDR140W'
p4451
I4
sS'YJL117W'
p4452
I19
sS'YJL076W'
p4453
I10
sS'YKL062W'
p4454
I1
sS'YLR238W'
p4455
I1
sS'YDR080W'
p4456
I1
sS'YLR218C'
p4457
I1
sS'YHR016C'
p4458
I3
sS'YBR114W'
p4459
I1
sS'YNL054W'
p4460
I2
sS'YNR043W'
p4461
I16
sS'YHR165C'
p4462
I5
sS'YJL218W'
p4463
I1
sS'YNL075W'
p4464
I5
sS'YKL028W'
p4465
I5
sS'YLR222C'
p4466
I6
sS'YLR221C'
p4467
I7
sS'YDR093W'
p4468
I6
sS'YMR282C'
p4469
I2
sS'YIL109C'
p4470
I13
sS'YHR046C'
p4471
I2
sS'YMR016C'
p4472
I2
sS'YIR014W'
p4473
I0
sS'YPL070W'
p4474
I1
sS'YLR361C'
p4475
I2
sS'YOR085W'
p4476
I9
sS'YDR362C'
p4477
I2
sS'YGL159W'
p4478
I2
sS'YKL053CA'
p4479
I6
sS'YPL109C'
p4480
I1
sS'YOL101C'
p4481
I1
sS'YJL156C'
p4482
I2
sS'YNL253W'
p4483
I2
sS'YNL115C'
p4484
I2
sS'YNL071W'
p4485
I34
sS'YOR094W'
p4486
I2
sS'YMR064W'
p4487
I2
sS'YKL166C'
p4488
I3
sS'YMR088C'
p4489
I3
sS'YGR211W'
p4490
I11
sS'YJL174W'
p4491
I12
sS'YDL093W'
p4492
I3
sS'YJL069C'
p4493
I4
sS'YFL017C'
p4494
I5
sS'YPR155C'
p4495
I1
sS'YLR168C'
p4496
I3
sS'YLR298C'
p4497
I2
sS'YFL027C'
p4498
I1
sS'YPL078C'
p4499
I14
sS'YJL118W'
p4500
I1
sS'YIR002C'
p4501
I2
sS'YHR042W'
p4502
I15
sS'YHR179W'
p4503
I55
sS'YPR137W'
p4504
I5
sS'YJL016W'
p4505
I2
sS'YGL001C'
p4506
I11
sS'YJR058C'
p4507
I4
sS'YDR464W'
p4508
I2
sS'YKL144C'
p4509
I4
sS'YMR291W'
p4510
I4
sS'YER087W'
p4511
I1
sS'YNR034WA'
p4512
I0
sS'YDR359C'
p4513
I3
sS'YKL124W'
p4514
I1
sS'YLR267W'
p4515
I0
sS'YNL026W'
p4516
I3
sS'YDL219W'
p4517
I8
sS'YPL038W'
p4518
I3
sS'YDR363WA'
p4519
I21
sS'YOR136W'
p4520
I25
sS'YPL204W'
p4521
I6
sS'YGL194C'
p4522
I2
sS'YPL172C'
p4523
I1
sS'YJL056C'
p4524
I1
sS'YKL091C'
p4525
I1
sS'YOR116C'
p4526
I9
sS'YGL195W'
p4527
I24
sS'YLR207W'
p4528
I3
sS'YNL037C'
p4529
I17
sS'YFL013C'
p4530
I2
sS'YPL063W'
p4531
I11
sS'YKL140W'
p4532
I3
sS'YFR040W'
p4533
I4
sS'YPL107W'
p4534
I1
sS'YIL107C'
p4535
I1
sS'YOL142W'
p4536
I6
sS'YLL018CA'
p4537
I2
sS'YGL209W'
p4538
I2
sS'YNL229C'
p4539
I4
sS'YOR326W'
p4540
I14
sS'YDR405W'
p4541
I2
sS'YIL007C'
p4542
I2
sS'YHR047C'
p4543
I12
sS'YGR055W'
p4544
I15
sS'YCL031C'
p4545
I8
sS'YIL027C'
p4546
I8
sS'YKR025W'
p4547
I4
sS'YPL127C'
p4548
I10
sS'YIL009CA'
p4549
I2
sS'YNL243W'
p4550
I10
sS'YGR152C'
p4551
I3
sS'YNL025C'
p4552
I1
sS'YJL090C'
p4553
I1
sS'YJR061W'
p4554
I0
sS'YNR026C'
p4555
I3
sS'YHL044W'
p4556
I0
sS'YPL144W'
p4557
I4
sS'YHR140W'
p4558
I0
sS'YDR002W'
p4559
I61
sS'YJR092W'
p4560
I5
sS'YOR311C'
p4561
I5
sS'YGR030C'
p4562
I3
sS'YAL025C'
p4563
I4
sS'YOR034C'
p4564
I2
sS'YDR046C'
p4565
I8
sS'YDR305C'
p4566
I3
sS'YBR126C'
p4567
I14
sS'YOL164W'
p4568
I0
sS'YNL039W'
p4569
I2
sS'YHR068W'
p4570
I30
sS'YGR149W'
p4571
I1
sS'YJL057C'
p4572
I1
sS'YJL177W'
p4573
I121
sS'YGR130C'
p4574
I6
sS'YOR368W'
p4575
I1
sS'YPL041C'
p4576
I1
sS'YJR118C'
p4577
I5
sS'YOR016C'
p4578
I5
sS'YJR121W'
p4579
I44
sS'YGR165W'
p4580
I3
sS'YBR238C'
p4581
I2
sS'YOR344C'
p4582
I4
sS'YER166W'
p4583
I6
sS'YNL139C'
p4584
I4
sS'YBR254C'
p4585
I4
sS'YOR234C'
p4586
I108
sS'YIL047C'
p4587
I7
sS'YLR245C'
p4588
I3
sS'YKL193C'
p4589
I3
sS'YNL153C'
p4590
I10
sS'YNL320W'
p4591
I2
sS'YJL083W'
p4592
I1
sS'YCL056C'
p4593
I1
sS'YGR101W'
p4594
I2
sS'YLR310C'
p4595
I4
sS'YOR060C'
p4596
I2
sS'YLR287C'
p4597
I5
sS'YPL138C'
p4598
I2
sS'YMR224C'
p4599
I1
sS'YER155C'
p4600
I10
sS'YKL075C'
p4601
I1
sS'YNL287W'
p4602
I18
sS'YLR392C'
p4603
I1
sS'YDL235C'
p4604
I11
sS'YPL147W'
p4605
I0
sS'YOR125C'
p4606
I3
sS'YOL077C'
p4607
I15
sS'YDR137W'
p4608
I2
sS'YDR497C'
p4609
I16
sS'YDR085C'
p4610
I0
sS'YKL209C'
p4611
I11
sS'YBR084W'
p4612
I18
sS'YLR003C'
p4613
I5
sS'YGR049W'
p4614
I2
sS'YLR441C'
p4615
I208
sS'YLL011W'
p4616
I5
sS'YCL011C'
p4617
I12
sS'YNR051C'
p4618
I8
sS'YCR017C'
p4619
I9
sS'YJR085C'
p4620
I17
sS'YHL002W'
p4621
I3
sS'YNL081C'
p4622
I7
sS'YCL016C'
p4623
I1
sS'YER180CA'
p4624
I3
sS'YPL267W'
p4625
I2
sS'YOR229W'
p4626
I2
sS'YDR338C'
p4627
I1
sS'YPR198W'
p4628
I2
sS'YEL024W'
p4629
I4
sS'YHL017W'
p4630
I4
sS'YOR383C'
p4631
I24
sS'YOR194C'
p4632
I4
sS'YOR305W'
p4633
I3
sS'YLR378C'
p4634
I24
sS'YMR190C'
p4635
I2
sS'YPL123C'
p4636
I1
sS'YGR005C'
p4637
I4
sS'YBL032W'
p4638
I13
sS'YML111W'
p4639
I3
sS'YLR325C'
p4640
I284
sS'YHL034C'
p4641
I32
sS'YHR032W'
p4642
I4
sS'YCR052W'
p4643
I6
sS'YNL294C'
p4644
I2
sS'YLR332W'
p4645
I4
sS'YKL067W'
p4646
I22
sS'YBR272C'
p4647
I2
sS'YLR327C'
p4648
I3
sS'YDR298C'
p4649
I12
sS'YDR011W'
p4650
I17
sS'YIL061C'
p4651
I1
sS'YBL009W'
p4652
I2
sS'YOR272W'
p4653
I7
sS'YNR046W'
p4654
I9
sS'YOL059W'
p4655
I13
sS'YPR097W'
p4656
I4
sS'YBR287W'
p4657
I7
sS'YML100W'
p4658
I8
sS'YGL068W'
p4659
I12
sS'YOL151W'
p4660
I7
sS'YHR131C'
p4661
I2
sS'YKL213C'
p4662
I4
sS'YHR026W'
p4663
I24
sS'YNL002C'
p4664
I13
sS'YOR275C'
p4665
I3
sS'YOL039W'
p4666
I284
sS'YOR026W'
p4667
I2
sS'YOR358W'
p4668
I1
sS'YCL032W'
p4669
I1
sS'YNL238W'
p4670
I4
sS'YBR271W'
p4671
I2
sS'YNL254C'
p4672
I1
sS'YJL198W'
p4673
I4
sS'YPL207W'
p4674
I6
sS'YDR197W'
p4675
I1
sS'YPL250C'
p4676
I3
sS'YNL289W'
p4677
I4
sS'YOL135C'
p4678
I1
sS'YOR323C'
p4679
I21
sS'YLL041C'
p4680
I3
sS'YML106W'
p4681
I39
sS'YKR074W'
p4682
I9
sS'YCL054W'
p4683
I6
sS'YOR195W'
p4684
I2
sS'YPR070W'
p4685
I2
sS'YLR118C'
p4686
I7
sS'YER006W'
p4687
I13
sS'YLR084C'
p4688
I4
sS'YKL106W'
p4689
I5
sS'YMR201C'
p4690
I1
sS'YMR105C'
p4691
I4
sS'YPR051W'
p4692
I5
sS'YLR069C'
p4693
I3
sS'YML042W'
p4694
I0
sS'YOR142W'
p4695
I13
sS'YOR196C'
p4696
I3
sS'YKR060W'
p4697
I3
sS'YPL228W'
p4698
I3
sS'YOL110W'
p4699
I1
sS'YKR048C'
p4700
I19
sS'YGL119W'
p4701
I2
sS'YLR150W'
p4702
I191
sS'YLR036C'
p4703
I2
sS'YEL046C'
p4704
I31
sS'YBL055C'
p4705
I3
sS'YPR035W'
p4706
I46
sS'YOR188W'
p4707
I3
sS'YNL314W'
p4708
I1
sS'YLL018C'
p4709
I37
sS'YOL114C'
p4710
I0
sS'YDR227W'
p4711
I1
sS'YPR060C'
p4712
I6
sS'YML008C'
p4713
I35
sS'YPL013C'
p4714
I5
sS'YDL054C'
p4715
I1
sS'YMR037C'
p4716
I2
sS'YCL061C'
p4717
I2
sS'YDR174W'
p4718
I19
sS'YOR160W'
p4719
I2
sS'YMR265C'
p4720
I1
sS'YML073C'
p4721
I216
sS'YMR087W'
p4722
I1
sS'YOR157C'
p4723
I18
sS'YOR155C'
p4724
I3
sS'YNL236W'
p4725
I3
sS'YOR250C'
p4726
I2
sS'YOR205C'
p4727
I1
sS'YBR230WA'
p4728
I1
sS'YBR044C'
p4729
I1
sS'YGR221C'
p4730
I1
sS'YJR105W'
p4731
I45
sS'YCL009C'
p4732
I35
sS'YLL022C'
p4733
I3
sS'YER159C'
p4734
I5
sS'YDL005C'
p4735
I3
sS'YGL212W'
p4736
I1
sS'YHR113W'
p4737
I5
sS'YMR212C'
p4738
I5
sS'YNL237W'
p4739
I0
sS'YNL313C'
p4740
I5
sS'YPR182W'
p4741
I7
sS'YJL196C'
p4742
I14
sS'YDR247W'
p4743
I1
sS'YNL092W'
p4744
I0
sS'YGL054C'
p4745
I22
sS'YNL055C'
p4746
I63
sS'YGL025C'
p4747
I1
sS'YNL230C'
p4748
I1
sS'YHR202W'
p4749
I0
sS'YOR054C'
p4750
I1
sS'YLR058C'
p4751
I58
sS'YOR247W'
p4752
I22
sS'YNL068C'
p4753
I2
sS'YGR243W'
p4754
I0
sS'YDR058C'
p4755
I1
sS'YGL038C'
p4756
I3
sS'YLR074C'
p4757
I7
sS'YNL216W'
p4758
I5
sS'YMR203W'
p4759
I18
sS'YLR405W'
p4760
I2
sS'YGL133W'
p4761
I2
sS'YPL225W'
p4762
I33
sS'YPL270W'
p4763
I4
sS'YHR091C'
p4764
I1
sS'YDL012C'
p4765
I5
sS'YPL249C'
p4766
I2
sS'YJL024C'
p4767
I3
sS'YPR148C'
p4768
I9
sS'YKR024C'
p4769
I2
sS'YEL019C'
p4770
I0
sS'YBR015C'
p4771
I11
sS'YER031C'
p4772
I11
sS'YDL109C'
p4773
I0
sS'YMR089C'
p4774
I7
sS'YGL187C'
p4775
I5
sS'YIR021W'
p4776
I2
sS'YDL066W'
p4777
I26
sS'YLL013C'
p4778
I5
sS'YLR430W'
p4779
I4
sS'YOR108W'
p4780
I11
sS'YDR466W'
p4781
I2
sS'YJL068C'
p4782
I6
sS'YKL112W'
p4783
I6
sS'YKR041W'
p4784
I0
sS'YOR237W'
p4785
I0
sS'YKL108W'
p4786
I1
sS'YBL058W'
p4787
I12
sS'YDR156W'
p4788
I7
sS'YMR130W'
p4789
I3
sS'YER086W'
p4790
I14
sS'YML095C'
p4791
I0
sS'YOR117W'
p4792
I15
sS'YOR137C'
p4793
I1
sS'YNL049C'
p4794
I4
sS'YMR025W'
p4795
I1
sS'YKL172W'
p4796
I11
sS'YPR172W'
p4797
I5
sS'YMR290C'
p4798
I12
sS'YLR423C'
p4799
I0
sS'YDL141W'
p4800
I4
sS'YDR205W'
p4801
I2
sS'YJR059W'
p4802
I5
sS'YPR100W'
p4803
I7
sS'YLR266C'
p4804
I1
sS'YLR206W'
p4805
I6
sS'YPR139C'
p4806
I4
sS'YLR284C'
p4807
I0
sS'YDR358W'
p4808
I1
sS'YDR076W'
p4809
I1
sS'YFR028C'
p4810
I5
sS'YKL101W'
p4811
I4
sS'YPR028W'
p4812
I36
sS'YNL185C'
p4813
I6
sS'YLR096W'
p4814
I3
sS'YJL059W'
p4815
I1
sS'YJL035C'
p4816
I1
sS'YPR133WA'
p4817
I25
sS'YKR052C'
p4818
I3
sS'YMR047C'
p4819
I5
sS'YMR147W'
p4820
I1
sS'YPR107C'
p4821
I2
sS'YLR427W'
p4822
I2
sS'YCR089W'
p4823
I0
sS'YOR287C'
p4824
I2
sS'YBL088C'
p4825
I1
sS'YPR117W'
p4826
I1
sS'YHR086W'
p4827
I3
sS'YGR274C'
p4828
I2
sS'YIL021W'
p4829
I8
sS'YNL163C'
p4830
I4
sS'YBL059CA'
p4831
I6
sS'YML088W'
p4832
I2
sS'YGR078C'
p4833
I8
sS'YPR175W'
p4834
I1
sS'YHL031C'
p4835
I3
sS'YLR116W'
p4836
I2
sS'YER008C'
p4837
I3
sS'YJL081C'
p4838
I5
sS'YMR127C'
p4839
I1
sS'YDL225W'
p4840
I4
sS'YLR440C'
p4841
I2
sS'YHR083W'
p4842
I6
sS'YDL135C'
p4843
I11
sS'YHR072WA'
p4844
I36
sS'YLR192C'
p4845
I22
ssg2
(g4
S'h\x10\x00\x00\x00\x00\x00\x00'
tRp4846
g6
sg2
(g4
S'\x94\x11\x00\x00\x00\x00\x00\x00'
tRp4847
g6
sg2
(g4
S'\xf0\x00\x00\x00\x00\x00\x00\x00'
tRp4848
g6
sg2
(g4
S'\x08\x07\x00\x00\x00\x00\x00\x00'
tRp4849
g6
sg2
(g4
S'\x94\x02\x00\x00\x00\x00\x00\x00'
tRp4850
g6
sg2
(g4
S'4\x08\x00\x00\x00\x00\x00\x00'
tRp4851
g6
s.