(dp1
S'YIL140W'
p2
F1.1000000000000001
sS'YLR268W'
p3
F9.8000000000000007
sS'YOR011W'
p4
F0.57999999999999996
sS'YJL155C'
p5
F0.48999999999999999
sS'YLL062C'
p6
F0.56999999999999995
sS'YIR004W'
p7
F1.8100000000000001
sS'YAL008W'
p8
F3.2400000000000002
sS'YOR043W'
p9
F2.8700000000000001
sS'YMR111C'
p10
F0.82999999999999996
sS'YBR255W'
p11
F1.21
sS'YJL122W'
p12
F4.8300000000000001
sS'YDL214C'
p13
F0.13
sS'YIL034C'
p14
F4.29
sS'YGR148C'
p15
F48.390000000000001
sS'YJR122W'
p16
F0.28000000000000003
sS'YDR459C'
p17
F1.5
sS'YLR144C'
p18
F0.73999999999999999
sS'YNL003C'
p19
F1.78
sS'YJR084W'
p20
F0.69999999999999996
sS'YBR004C'
p21
F3.1499999999999999
sS'YLR313C'
p22
F0.23000000000000001
sS'YDL238C'
p23
F0.33000000000000002
sS'YJL082W'
p24
F1.3999999999999999
sS'YIL044C'
p25
F1.5800000000000001
sS'YLR197W'
p26
F18.32
sS'YPL191C'
p27
F0.27000000000000002
sS'YGL084C'
p28
F3.0800000000000001
sS'YDR312W'
p29
F0.52000000000000002
sS'YLR348C'
p30
F1.4399999999999999
sS'YBR248C'
p31
F2.9900000000000002
sS'YGL239C'
p32
F0.44
sS'YNL152W'
p33
F1.4099999999999999
sS'YLR382C'
p34
F0.56999999999999995
sS'YJL077C'
p35
F1.54
sS'YFL045C'
p36
F32.229999999999997
sS'YPL134C'
p37
F0.84999999999999998
sS'YDL170W'
p38
F0.26000000000000001
sS'YBR117C'
p39
F0.65000000000000002
sS'YMR085W'
p40
F0.47999999999999998
sS'YJR044C'
p41
F12.050000000000001
sS'YJR011C'
p42
F1.8700000000000001
sS'YKL048C'
p43
F0.27000000000000002
sS'YMR009W'
p44
F5.8399999999999999
sS'YOR123C'
p45
F1
sS'YJL179W'
p46
F2.8599999999999999
sS'YOR156C'
p47
F0.95999999999999996
sS'YKL183W'
p48
F2.5600000000000001
sS'YDR363W'
p49
F1.1299999999999999
sS'YFL021W'
p50
F1.1599999999999999
sS'YPL194W'
p51
F0.38
sS'YLR362W'
p52
F2.0299999999999998
sS'YKL126W'
p53
F4.1699999999999999
sS'YPR118W'
p54
F3.0699999999999998
sS'YMR283C'
p55
F1.01
sS'YPL024W'
p56
F1.6000000000000001
sS'YPL165C'
p57
F0.41999999999999998
sS'YDR090C'
p58
F2.3199999999999998
sS'YPR062W'
p59
F14.82
sS'YIL108W'
p60
F2.0699999999999998
sS'YPL166W'
p61
F0.47999999999999998
sS'YLR220W'
p62
F3.8900000000000001
sS'YPR039W'
p63
F0.17999999999999999
sS'YBR273C'
p64
F2.3100000000000001
sS'YHR025W'
p65
F21.890000000000001
sS'YHR009C'
p66
F24.550000000000001
sS'YAL026C'
p67
F1.3300000000000001
sS'YFR050C'
p68
F9.2699999999999996
sS'YOR147W'
p69
F1.27
sS'YBL008W'
p70
F0.27000000000000002
sS'YLR079W'
p71
F5.2000000000000002
sS'YLR447C'
p72
F35
sS'YGL237C'
p73
F1.3700000000000001
sS'YGR126W'
p74
F0.40000000000000002
sS'YNL303W'
p75
F0.14000000000000001
sS'YNL295W'
p76
F0.76000000000000001
sS'YDR016C'
p77
F3.3999999999999999
sS'YOL156W'
p78
F0.28000000000000003
sS'YAR019C'
p79
F1.1200000000000001
sS'YDR299W'
p80
F1.49
sS'YOL116W'
p81
F0.46000000000000002
sS'YPL090C'
p82
F100.73
sS'YBR182C'
p83
F1.1000000000000001
sS'YKL088W'
p84
F0.67000000000000004
sS'YDR196C'
p85
F9.0500000000000007
sS'YMR175W'
p86
F0.14999999999999999
sS'YBR202W'
p87
F0.92000000000000004
sS'YNL239W'
p88
F4.4299999999999997
sS'YDR410C'
p89
F2.7999999999999998
sS'YBR280C'
p90
F0.54000000000000004
sS'YGR020C'
p91
F22.43
sS'YNR045W'
p92
F2.29
sS'YPL143W'
p93
F111.77
sS'YML105C'
p94
F5.4400000000000004
sS'YLL040C'
p95
F0.38
sS'YIL091C'
p96
F0.34999999999999998
sS'YCL032W'
p97
F0.68000000000000005
sS'YML092C'
p98
F17.870000000000001
sS'YLR357W'
p99
F0.71999999999999997
sS'YLR244C'
p100
F11.51
sS'YAL046C'
p101
F13.33
sS'YDR198C'
p102
F0.54000000000000004
sS'YAL039C'
p103
F1.8500000000000001
sS'YNR018W'
p104
F5.46
sS'YFR047C'
p105
F5.2300000000000004
sS'YBR215W'
p106
F2.04
sS'YGL092W'
p107
F2.1499999999999999
sS'YLR403W'
p108
F1.01
sS'YBR159W'
p109
F8.4800000000000004
sS'YDR364C'
p110
F0.97999999999999998
sS'YML127W'
p111
F1.23
sS'YCL030C'
p112
F5.9199999999999999
sS'YHR078W'
p113
F1.04
sS'YOR046C'
p114
F4.5599999999999996
sS'YGR084C'
p115
F3.6600000000000001
sS'YHR077C'
p116
F0.68999999999999995
sS'YFR018C'
p117
F2.8999999999999999
sS'YCR002C'
p118
F3.02
sS'YNR060W'
p119
F0.92000000000000004
sS'YLR355C'
p120
F30.620000000000001
sS'YGL157W'
p121
F2.0800000000000001
sS'YLR233C'
p122
F0.28999999999999998
sS'YGR099W'
p123
F0.41999999999999998
sS'YBL015W'
p124
F0.93000000000000005
sS'YOL090W'
p125
F2.8900000000000001
sS'YLR300W'
p126
F13.65
sS'YNL145W'
p127
F0.16
sS'YBL003C'
p128
F43.939999999999998
sS'YJR140C'
p129
F0.47999999999999998
sS'YGR146C'
p130
F4.4500000000000002
sS'YOR033C'
p131
F1.1399999999999999
sS'YOR062C'
p132
F1.3500000000000001
sS'YBR191W'
p133
F101.53
sS'YMR164C'
p134
F0.71999999999999997
sS'YBR043C'
p135
F0.85999999999999999
sS'YPL067C'
p136
F2.96
sS'YGL100W'
p137
F4.7000000000000002
sS'YBR094W'
p138
F0.81000000000000005
sS'YHR112C'
p139
F2.7200000000000002
sS'YNR007C'
p140
F0.82999999999999996
sS'YDR035W'
p141
F3.8900000000000001
sS'YGL053W'
p142
F1.2
sS'YPL156C'
p143
F1.1100000000000001
sS'YDR485C'
p144
F0.5
sS'YGR077C'
p145
F2.25
sS'YJL195C'
p146
F0.53000000000000003
sS'YOR216C'
p147
F1.28
sS'YKR103W'
p148
F0.32000000000000001
sS'YLR069C'
p149
F0.60999999999999999
sS'YPL148C'
p150
F0.54000000000000004
sS'YBL042C'
p151
F3.27
sS'YNL093W'
p152
F0.55000000000000004
sS'YCR046C'
p153
F2.48
sS'YLR059C'
p154
F4.2199999999999998
sS'YOL001W'
p155
F0.79000000000000004
sS'YBR089W'
p156
F7.0700000000000003
sS'YLR075W'
p157
F104.84999999999999
sS'YDR059C'
p158
F1.6399999999999999
sS'YOL063C'
p159
F0.81000000000000005
sS'YOR240W'
p160
F1.1499999999999999
sS'YPL224C'
p161
F0.84999999999999998
sS'YLR137W'
p162
F0.41999999999999998
sS'YEL007W'
p163
F2.6400000000000001
sS'YNL217W'
p164
F7.9199999999999999
sS'YKL204W'
p165
F0.64000000000000001
sS'YER067W'
p166
F3.7799999999999998
sS'YDR040C'
p167
F0.46000000000000002
sS'YOR058C'
p168
F0.63
sS'YKR007W'
p169
F4.2699999999999996
sS'YDR531W'
p170
F2.8100000000000001
sS'YIL013C'
p171
F0.27000000000000002
sS'YMR233W'
p172
F1.21
sS'YPL206C'
p173
F2.5099999999999998
sS'YDL060W'
p174
F1.52
sS'YNL169C'
p175
F3.04
sS'YPR084W'
p176
F1.03
sS'YOR071C'
p177
F0.56999999999999995
sS'YDR393W'
p178
F1.3500000000000001
sS'YBR293W'
p179
F2.3900000000000001
sS'YIR022W'
p180
F6.1699999999999999
sS'YGL215W'
p181
F3.6899999999999999
sS'YNR052C'
p182
F1.8799999999999999
sS'YGL244W'
p183
F4.1600000000000001
sS'YHR032W'
p184
F3.2400000000000002
sS'YEL032W'
p185
F1.1499999999999999
sS'YOL076W'
p186
F1.74
sS'YER145C'
p187
F8.9199999999999999
sS'YER110C'
p188
F4.2599999999999998
sS'YNL080C'
p189
F1.8899999999999999
sS'YBL033C'
p190
F3.7000000000000002
sS'YIL169C'
p191
F1.5700000000000001
sS'YDR022C'
p192
F0.40000000000000002
sS'YPL266W'
p193
F2.8399999999999999
sS'YJL188C'
p194
F237.30000000000001
sS'YOR249C'
p195
F0.94999999999999996
sS'YLL057C'
p196
F0.26000000000000001
sS'YOR080W'
p197
F1.24
sS'YGL062W'
p198
F3.5299999999999998
sS'YER169W'
p199
F0.62
sS'YOL016C'
p200
F8.6699999999999999
sS'YIL082W'
p201
F1.3300000000000001
sS'YMR191W'
p202
F3.0699999999999998
sS'YEL025C'
p203
F0.41999999999999998
sS'YLR108C'
p204
F0.63
sS'YLR229C'
p205
F11.199999999999999
sS'YMR040W'
p206
F1.1100000000000001
sS'YPR176C'
p207
F2.9300000000000002
sS'YCL044C'
p208
F2.54
sS'YKR008W'
p209
F1.73
sS'YMR146C'
p210
F11
sS'YPR165W'
p211
F21.219999999999999
sS'YPR024W'
p212
F3.6400000000000001
sS'YDR226W'
p213
F28.030000000000001
sS'YMR266W'
p214
F3.73
sS'YKL100C'
p215
F1.79
sS'YKR064W'
p216
F0.40000000000000002
sS'YLR097C'
p217
F0.60999999999999999
sS'YCR060W'
p218
F9.0500000000000007
sS'YJL036W'
p219
F0.35999999999999999
sS'YER041W'
p220
F0.20999999999999999
sS'YGR277C'
p221
F4.4800000000000004
sS'YER009W'
p222
F22.73
sS'YBR036C'
p223
F5.5800000000000001
sS'YDL139C'
p224
F0.31
sS'YPR116W'
p225
F0.81000000000000005
sS'YOR288C'
p226
F1.47
sS'YGR193C'
p227
F3.79
sS'YLR163C'
p228
F1.9299999999999999
sS'YJR061W'
p229
F0.33000000000000002
sS'YNL288W'
p230
F1.8
sS'YML054C'
p231
F0.37
sS'YHR089C'
p232
F43.57
sS'YGL014W'
p233
F3.3300000000000001
sS'YMR168C'
p234
F0.34000000000000002
sS'YJR106W'
p235
F0.96999999999999997
sS'YLL035W'
p236
F0.78000000000000003
sS'YMR279C'
p237
F0.51000000000000001
sS'YOR245C'
p238
F1.1200000000000001
sS'YNL323W'
p239
F2.5099999999999998
sS'YER007W'
p240
F0.55000000000000004
sS'YGL114W'
p241
F0.71999999999999997
sS'YER027C'
p242
F2.8599999999999999
sS'YER167W'
p243
F1.4299999999999999
sS'YDL013W'
p244
F0.29999999999999999
sS'YPL228W'
p245
F0.91000000000000003
sS'YMR104C'
p246
F1.1699999999999999
sS'YGL044C'
p247
F1.79
sS'YGL169W'
p248
F0.94999999999999996
sS'YER107C'
p249
F1.1799999999999999
sS'YNR044W'
p250
F0.56999999999999995
sS'YDL195W'
p251
F4.7400000000000002
sS'YBR038W'
p252
F1.22
sS'YLR219W'
p253
F0.72999999999999998
sS'YDR117C'
p254
F2.9500000000000002
sS'YCR026C'
p255
F1.45
sS'YBL052C'
p256
F0.93999999999999995
sS'YNL103W'
p257
F1.3899999999999999
sS'YGR259C'
p258
F3.29
sS'YEL047C'
p259
F2.46
sS'YPR036W'
p260
F18.66
sS'YIL026C'
p261
F0.47999999999999998
sS'YLL019C'
p262
F1.3200000000000001
sS'YOR208W'
p263
F1.78
sS'YDR068W'
p264
F0.81999999999999995
sS'YDL055C'
p265
F67.329999999999998
sS'YBR009C'
p266
F47.920000000000002
sS'YEL043W'
p267
F2.5299999999999998
sS'YJL003W'
p268
F1.8500000000000001
sS'YML072C'
p269
F2.9900000000000002
sS'YHR052W'
p270
F3.48
sS'YDR142C'
p271
F0.72999999999999998
sS'YKR026C'
p272
F3.5899999999999999
sS'YFL044C'
p273
F1.6499999999999999
sS'YJR043C'
p274
F0.81000000000000005
sS'YPL263C'
p275
F3.9300000000000002
sS'YJR012C'
p276
F0.96999999999999997
sS'YJL130C'
p277
F12.470000000000001
sS'YJL078C'
p278
F7.1600000000000001
sS'YJR126C'
p279
F1.97
sS'YBL085W'
p280
F0.98999999999999999
sS'YKL173W'
p281
F0.54000000000000004
sS'YIR023W'
p282
F0.69999999999999996
sS'YGR200C'
p283
F1.75
sS'YBR116C'
p284
F0.31
sS'YKL031W'
p285
F0.34000000000000002
sS'YIL127C'
p286
F4.7000000000000002
sS'YDR082W'
p287
F0.40999999999999998
sS'YOR338W'
p288
F0.79000000000000004
sS'YLR369W'
p289
F1
sS'YJL119C'
p290
F1.1000000000000001
sS'YDR469W'
p291
F7.5499999999999998
sS'YDR445C'
p292
F0.17999999999999999
sS'YGR040W'
p293
F1.24
sS'YKL051W'
p294
F3.0899999999999999
sS'YLR294C'
p295
F6.5300000000000002
sS'YPL167C'
p296
F0.51000000000000001
sS'YLR223C'
p297
F3.5800000000000001
sS'YIR012W'
p298
F6.2999999999999998
sS'YLR363C'
p299
F3.1099999999999999
sS'YNR026C'
p300
F3.77
sS'YNR046W'
p301
F7.8200000000000003
sS'YPR038W'
p302
F1.8300000000000001
sS'YJL014W'
p303
F6.1900000000000004
sS'YDR219C'
p304
F1.6100000000000001
sS'YCR011C'
p305
F1.3100000000000001
sS'YML089C'
p306
F0.20000000000000001
sS'YLR431C'
p307
F0.48999999999999999
sS'YKR046C'
p308
F2.79
sS'YNL055C'
p309
F80.060000000000002
sS'YJR005W'
p310
F1.46
sS'YGR217W'
p311
F0.23000000000000001
sS'YNL072W'
p312
F1.0900000000000001
sS'YBL098W'
p313
F1.1599999999999999
sS'YDL095W'
p314
F22.109999999999999
sS'YMR030W'
p315
F1.1100000000000001
sS'YOR174W'
p316
F1.1699999999999999
sS'YFL002C'
p317
F2.5299999999999998
sS'YGL181W'
p318
F1.6299999999999999
sS'YHR206W'
p319
F3.1299999999999999
sS'YDR047W'
p320
F3.04
sS'YKR039W'
p321
F0.39000000000000001
sS'YPL087W'
p322
F3.73
sS'YCR084C'
p323
F7.9400000000000004
sS'YDR302W'
p324
F1.9199999999999999
sS'YGL003C'
p325
F0.68999999999999995
sS'YJL054W'
p326
F0.93999999999999995
sS'YOR118W'
p327
F0.64000000000000001
sS'YDR268W'
p328
F1.76
sS'YGL192W'
p329
F1.5700000000000001
sS'YPL170W'
p330
F3.1800000000000002
sS'YPR001W'
p331
F0.44
sS'YFL059W'
p332
F0.34000000000000002
sS'YKR006C'
p333
F1.8100000000000001
sS'YDL117W'
p334
F3.6699999999999999
sS'YMR131C'
p335
F5.8799999999999999
sS'YDR204W'
p336
F1.5
sS'YDR251W'
p337
F2.4700000000000002
sS'YMR293C'
p338
F0.5
sS'YER089C'
p339
F6.2999999999999998
sS'YJL214W'
p340
F0.20999999999999999
sS'YIL005W'
p341
F1.8999999999999999
sS'YIL105C'
p342
F0.41999999999999998
sS'YNL137C'
p343
F0.97999999999999998
sS'YNL119W'
p344
F0.80000000000000004
sS'YNR006W'
p345
F1.0700000000000001
sS'YML126C'
p346
F8.0600000000000005
sS'YAL047C'
p347
F1.1599999999999999
sS'YIL150C'
p348
F1.0900000000000001
sS'YJL208C'
p349
F6.1900000000000004
sS'YDR285W'
p350
F0.14999999999999999
sS'YNL064C'
p351
F13.58
sS'YGR158C'
p352
F2.0800000000000001
sS'YJR152W'
p353
F0.54000000000000004
sS'YKL077W'
p354
F13.48
sS'YFR046C'
p355
F0.54000000000000004
sS'YBR212W'
p356
F3.4300000000000002
sS'YJR109C'
p357
F1.1899999999999999
sS'YLR254C'
p358
F1.48
sS'YGR085C'
p359
F75.790000000000006
sS'YBR158W'
p360
F5.4800000000000004
sS'YHL014C'
p361
F0.32000000000000001
sS'YLR101C'
p362
F8.4900000000000002
sS'YIL058W'
p363
F0.40999999999999998
sS'YOR110W'
p364
F1.79
sS'YMR285C'
p365
F1.54
sS'YGR145W'
p366
F0.77000000000000002
sS'YLR354C'
p367
F64.459999999999994
sS'YGR110W'
p368
F0.31
sS'YIL065C'
p369
F3.2799999999999998
sS'YBR258C'
p370
F1.7
sS'YLR457C'
p371
F0.62
sS'YLR301W'
p372
F8.3300000000000001
sS'YFR019W'
p373
F0.31
sS'YJL070C'
p374
F0.28999999999999998
sS'YGR098C'
p375
F0.51000000000000001
sS'YBR223C'
p376
F0.75
sS'YOR264W'
p377
F3.8100000000000001
sS'YGL154C'
p378
F0.68999999999999995
sS'YPL178W'
p379
F4.6900000000000004
sS'YDR091C'
p380
F4.04
sS'YJL123C'
p381
F2.8399999999999999
sS'YHR066W'
p382
F2.0600000000000001
sS'YPL047W'
p383
F3.0800000000000001
sS'YAL009W'
p384
F1.6799999999999999
sS'YAL065C'
p385
F0.23000000000000001
sS'YIL147C'
p386
F0.46000000000000002
sS'YNL039W'
p387
F1.47
sS'YBR129C'
p388
F2.1299999999999999
sS'YDL160C'
p389
F6.7300000000000004
sS'YPR138C'
p390
F2.3399999999999999
sS'YDL215C'
p391
F0.68999999999999995
sS'YGR167W'
p392
F4.6900000000000004
sS'YJL059W'
p393
F0.75
sS'YFR026C'
p394
F0.37
sS'YNL183C'
p395
F0.85999999999999999
sS'YPL097W'
p396
F0.85999999999999999
sS'YDR315C'
p397
F0.78000000000000003
sS'YBR134W'
p398
F0.41999999999999998
sS'YNL002C'
p399
F6.0899999999999999
sS'YDL239C'
p400
F0.29999999999999999
sS'YNL104C'
p401
F4.7400000000000002
sS'YKL071W'
p402
F0.62
sS'YKL017C'
p403
F0.32000000000000001
sS'YDR450W'
p404
F169.63
sS'YLR230W'
p405
F10.91
sS'YPL190C'
p406
F3.9100000000000001
sS'YKL191W'
p407
F3.9300000000000002
sS'YGL214W'
p408
F2.4700000000000002
sS'YIL045W'
p409
F2.2400000000000002
sS'YPL201C'
p410
F0.20000000000000001
sS'YHR120W'
p411
F0.59999999999999998
sS'YGR018C'
p412
F3.3500000000000001
sS'YMR232W'
p413
F0.10000000000000001
sS'YNL083W'
p414
F1.1399999999999999
sS'YPR147C'
p415
F2.8900000000000001
sS'YBL018C'
p416
F3.7000000000000002
sS'YOR267C'
p417
F3.2400000000000002
sS'YOR357C'
p418
F3.23
sS'YOL137W'
p419
F0.63
sS'YDR530C'
p420
F0.88
sS'YDR131C'
p421
F0.20999999999999999
sS'YHR033W'
p422
F0.90000000000000002
sS'YEL031W'
p423
F5.2300000000000004
sS'YNR053C'
p424
F3.3999999999999999
sS'YDL063C'
p425
F0.71999999999999997
sS'YER144C'
p426
F1.96
sS'YOR367W'
p427
F2.3399999999999999
sS'YCR052W'
p428
F2.98
sS'YOR385W'
p429
F15.93
sS'YGR185C'
p430
F7.2599999999999998
sS'YMR238W'
p431
F12.65
sS'YER168C'
p432
F1.6299999999999999
sS'YPL265W'
p433
F1.05
sS'YIL083C'
p434
F2.1000000000000001
sS'YMR202W'
p435
F19.09
sS'YOR081C'
p436
F1.2
sS'YGR050C'
p437
F0.68000000000000005
sS'YDR392W'
p438
F0.90000000000000002
sS'YBR290W'
p439
F1.8500000000000001
sS'YLR180W'
p440
F23.73
sS'YNL274C'
p441
F2.1800000000000002
sS'YNR075W'
p442
F0.77000000000000002
sS'YML113W'
p443
F3.1800000000000002
sS'YDR021W'
p444
F1.02
sS'YGL063W'
p445
F0.83999999999999997
sS'YPL212C'
p446
F3.0600000000000001
sS'YMR005W'
p447
F2.9700000000000002
sS'YMR296C'
p448
F12.48
sS'YIL018W'
p449
F114.47
sS'YCL020W'
p450
F0.79000000000000004
sS'YGL173C'
p451
F2.46
sS'YLR446W'
p452
F0.55000000000000004
sS'YGL149W'
p453
F0.41999999999999998
sS'YPR095C'
p454
F1.0800000000000001
sS'YFR051C'
p455
F6.8200000000000003
sS'YHR024C'
p456
F2.5499999999999998
sS'YHL037C'
p457
F0.41999999999999998
sS'YAL027W'
p458
F1.1599999999999999
sS'YMR194W'
p459
F123.33
sS'YGL236C'
p460
F1.3400000000000001
sS'YGR129W'
p461
F0.87
sS'YFR004W'
p462
F15.130000000000001
sS'YHR133C'
p463
F4.7199999999999998
sS'YDR541C'
p464
F0.78000000000000003
sS'YMR303C'
p465
F1.25
sS'YOL037C'
p466
F2.0800000000000001
sS'YNL241C'
p467
F6.0700000000000003
sS'YJL075C'
p468
F4.9699999999999998
sS'YOR086C'
p469
F1.74
sS'YGR021W'
p470
F0.70999999999999996
sS'YBR283C'
p471
F14.800000000000001
sS'YIL090W'
p472
F3.3700000000000001
sS'YBR205W'
p473
F3.46
sS'YOR321W'
p474
F0.93000000000000005
sS'YML104C'
p475
F1.9199999999999999
sS'YBR183W'
p476
F0.65000000000000002
sS'YDL004W'
p477
F12.039999999999999
sS'YGL256W'
p478
F1.26
sS'YDR195W'
p479
F1.1399999999999999
sS'YOR319W'
p480
F1.2
sS'YPL019C'
p481
F4.71
sS'YNR069C'
p482
F0.16
sS'YNL256W'
p483
F1.1200000000000001
sS'YOL058W'
p484
F1.74
sS'YMR278W'
p485
F0.78000000000000003
sS'YER184C'
p486
F0.71999999999999997
sS'YER106W'
p487
F0.089999999999999997
sS'YMR107W'
p488
F0.14999999999999999
sS'YMR207C'
p489
F1.1599999999999999
sS'YML015C'
p490
F1.22
sS'YCR007C'
p491
F0.31
sS'YDR540C'
p492
F1.27
sS'YEL004W'
p493
F1.1399999999999999
sS'YER166W'
p494
F0.54000000000000004
sS'YDL014W'
p495
F27.52
sS'YOR351C'
p496
F0.59999999999999998
sS'YBR056W'
p497
F1.6799999999999999
sS'YLL032C'
p498
F0.31
sS'YJL020C'
p499
F1.4099999999999999
sS'YDL194W'
p500
F0.35999999999999999
sS'YER079W'
p501
F0.54000000000000004
sS'YBL107C'
p502
F0.69999999999999996
sS'YER024W'
p503
F0.34000000000000002
sS'YDR116C'
p504
F2.6600000000000001
sS'YGR258C'
p505
F0.55000000000000004
sS'YLR325C'
p506
F216.59999999999999
sS'YPL234C'
p507
F20.93
sS'YDL056W'
p508
F0.65000000000000002
sS'YJL129C'
p509
F0.68999999999999995
sS'YKL117W'
p510
F12.82
sS'YMR178W'
p511
F3.1299999999999999
sS'YPR017C'
p512
F3.2599999999999998
sS'YNL299W'
p513
F0.65000000000000002
sS'YOL129W'
p514
F6.5899999999999999
sS'YEL044W'
p515
F1.97
sS'YMR247C'
p516
F1.6200000000000001
sS'YPR037C'
p517
F2.1299999999999999
sS'YML071C'
p518
F0.69999999999999996
sS'YHR130C'
p519
F0.53000000000000003
sS'YEL068C'
p520
F4.04
sS'YDR176W'
p521
F0.42999999999999999
sS'YMR189W'
p522
F2.52
sS'YDR122W'
p523
F2.3700000000000001
sS'YBR042C'
p524
F2.5899999999999999
sS'YOL062C'
p525
F3.0099999999999998
sS'YDR381W'
p526
F14.789999999999999
sS'YGL103W'
p527
F205.86000000000001
sS'YDR484W'
p528
F0.37
sS'YJL194W'
p529
F0.47999999999999998
sS'YGL052W'
p530
F0.41999999999999998
sS'YOR370C'
p531
F1.8600000000000001
sS'YBR095C'
p532
F0.56999999999999995
sS'YJL018W'
p533
F1.22
sS'YHR111W'
p534
F1.3100000000000001
sS'YBL045C'
p535
F5.3899999999999997
sS'YGL071W'
p536
F0.66000000000000003
sS'YDR524C'
p537
F2.1099999999999999
sS'YGR043C'
p538
F0.85999999999999999
sS'YOR224C'
p539
F12.91
sS'YDL070W'
p540
F5.1600000000000001
sS'YNL193W'
p541
F0.47999999999999998
sS'YCR047C'
p542
F2.7400000000000002
sS'YMR187C'
p543
F0.41999999999999998
sS'YPL223C'
p544
F0.10000000000000001
sS'YER064C'
p545
F2.6200000000000001
sS'YDR389W'
p546
F1.95
sS'YOL002C'
p547
F3.9100000000000001
sS'YDL038C'
p548
F4.75
sS'YLL021W'
p549
F1.3400000000000001
sS'YPL269W'
p550
F0.34000000000000002
sS'YBR088C'
p551
F7.4199999999999999
sS'YBR055C'
p552
F0.37
sS'YOR175C'
p553
F2.1600000000000001
sS'YER033C'
p554
F0.5
sS'YNL329C'
p555
F0.54000000000000004
sS'YFL005W'
p556
F11.34
sS'YCR010C'
p557
F0.20000000000000001
sS'YKL110C'
p558
F0.87
sS'YMR014W'
p559
F2.1200000000000001
sS'YOR078W'
p560
F4.8099999999999996
sS'YGR056W'
p561
F0.40999999999999998
sS'YML057W'
p562
F5.0300000000000002
sS'YDR178W'
p563
F11.029999999999999
sS'YMR245W'
p564
F1.74
sS'YLR432W'
p565
F16.579999999999998
sS'YLR288C'
p566
F1.1599999999999999
sS'YJR004C'
p567
F2.21
sS'YGL180W'
p568
F0.23000000000000001
sS'YJL115W'
p569
F1.3100000000000001
sS'YGL004C'
p570
F1.2
sS'YNR032W'
p571
F1.6200000000000001
sS'YKL158W'
p572
F1.1000000000000001
sS'YIR030C'
p573
F0.47999999999999998
sS'YLR055C'
p574
F1.23
sS'YDL096C'
p575
F1.3700000000000001
sS'YPR102C'
p576
F184.93000000000001
sS'YLR030W'
p577
F0.54000000000000004
sS'YHR193C'
p578
F44.310000000000002
sS'YOR135C'
p579
F6.1900000000000004
sS'YBL099W'
p580
F14.26
sS'YMR132C'
p581
F1.8600000000000001
sS'YPL064C'
p582
F0.70999999999999996
sS'YJR035W'
p583
F0.53000000000000003
sS'YPL095C'
p584
F1.0600000000000001
sS'YDL116W'
p585
F0.84999999999999998
sS'YPL184C'
p586
F2.5800000000000001
sS'YGL027C'
p587
F1.73
sS'YDR203W'
p588
F0.20999999999999999
sS'YMR042W'
p589
F1.4099999999999999
sS'YLR297W'
p590
F2.2000000000000002
sS'YLL003W'
p591
F0.84999999999999998
sS'YJL037W'
p592
F0.10000000000000001
sS'YDR054C'
p593
F2.0099999999999998
sS'YNL196C'
p594
F0.31
sS'YLR409C'
p595
F1.8200000000000001
sS'YBR008C'
p596
F1.73
sS'YLR081W'
p597
F0.23999999999999999
sS'YCL045C'
p598
F3.3999999999999999
sS'YPL088W'
p599
F2.6299999999999999
sS'YJL046W'
p600
F0.66000000000000003
sS'YMR041C'
p601
F0.68999999999999995
sS'YDR221W'
p602
F0.70999999999999996
sS'YMR267W'
p603
F1.3100000000000001
sS'YLR109W'
p604
F155.34999999999999
sS'YMR096W'
p605
F0.52000000000000002
sS'YKL103C'
p606
F1.3799999999999999
sS'YCR061W'
p607
F1.6599999999999999
sS'YPL042C'
p608
F1.5
sS'YMR078C'
p609
F0.73999999999999999
sS'YNL200C'
p610
F1.3300000000000001
sS'YBR037C'
p611
F0.89000000000000001
sS'YDR232W'
p612
F10.01
sS'YDR245W'
p613
F5.5199999999999996
sS'YHR088W'
p614
F5.0800000000000001
sS'YGR276C'
p615
F1.8400000000000001
sS'YBR017C'
p616
F1.6599999999999999
sS'YML037C'
p617
F0.33000000000000002
sS'YDL138W'
p618
F0.51000000000000001
sS'YOR056C'
p619
F2.3399999999999999
sS'YLR141W'
p620
F0.51000000000000001
sS'YPR162C'
p621
F0.55000000000000004
sS'YDL089W'
p622
F0.55000000000000004
sS'YLR178C'
p623
F1.55
sS'YHR175W'
p624
F5.0499999999999998
sS'YGR166W'
p625
F0.28000000000000003
sS'YKL050C'
p626
F0.13
sS'YGR096W'
p627
F0.90000000000000002
sS'YOR013W'
p628
F1.8799999999999999
sS'YDL212W'
p629
F34.289999999999999
sS'YMR298W'
p630
F2.7599999999999998
sS'YNL161W'
p631
F1.21
sS'YGR184C'
p632
F0.77000000000000002
sS'YDR096W'
p633
F0.84999999999999998
sS'YJL120W'
p634
F0.27000000000000002
sS'YPR111W'
p635
F0.88
sS'YHR065C'
p636
F3.0299999999999998
sS'YPL046C'
p637
F1.3400000000000001
sS'YGL099W'
p638
F3.8599999999999999
sS'YMR251W'
p639
F0.37
sS'YFL030W'
p640
F0.48999999999999999
sS'YIL119C'
p641
F1.04
sS'YLR315W'
p642
F0.35999999999999999
sS'YNL150W'
p643
F26.02
sS'YNL105W'
p644
F0.16
sS'YNL005C'
p645
F1.6100000000000001
sS'YNR005C'
p646
F0.34000000000000002
sS'YDR314C'
p647
F0.20999999999999999
sS'YIL054W'
p648
F0.26000000000000001
sS'YLR231C'
p649
F1.5600000000000001
sS'YOR349W'
p650
F0.26000000000000001
sS'YLR379W'
p651
F10.880000000000001
sS'YPR105C'
p652
F2
sS'YFR021W'
p653
F1.1399999999999999
sS'YKL098W'
p654
F1.29
sS'YJR139C'
p655
F21.77
sS'YKL016C'
p656
F13.44
sS'YBR133C'
p657
F0.81999999999999995
sS'YGL017W'
p658
F0.79000000000000004
sS'YBR162C'
p659
F26.559999999999999
sS'YIL004C'
p660
F1.9099999999999999
sS'YJL007C'
p661
F0.23000000000000001
sS'YPR129W'
p662
F3.8700000000000001
sS'YKL174C'
p663
F0.90000000000000002
sS'YJR013W'
p664
F0.79000000000000004
sS'YJL133W'
p665
F3.0600000000000001
sS'YGR260W'
p666
F3.5499999999999998
sS'YKR094C'
p667
F81.900000000000006
sS'YDR143C'
p668
F2.9100000000000001
sS'YDL176W'
p669
F0.23000000000000001
sS'YBR111C'
p670
F6.9000000000000004
sS'YKL121W'
p671
F0.26000000000000001
sS'YMR108W'
p672
F5.4900000000000002
sS'YPL215W'
p673
F1.3700000000000001
sS'YKR027W'
p674
F1.3500000000000001
sS'YFL047W'
p675
F0.83999999999999997
sS'YGR201C'
p676
F0.17999999999999999
sS'YPR122W'
p677
F0.28999999999999998
sS'YKL034W'
p678
F0.75
sS'YNL172W'
p679
F0.84999999999999998
sS'YJR042W'
p680
F1.1200000000000001
sS'YNL058C'
p681
F5.2999999999999998
sS'YMR012W'
p682
F2.27
sS'YER093C'
p683
F1.55
sS'YMR098C'
p684
F1.3100000000000001
sS'YGR100W'
p685
F0.40000000000000002
sS'YLR133W'
p686
F0.90000000000000002
sS'YNL023C'
p687
F0.57999999999999996
sS'YDR349C'
p688
F4.9900000000000002
sS'YIR011C'
p689
F4.4000000000000004
sS'YDR214W'
p690
F3.8100000000000001
sS'YIL126W'
p691
F0.95999999999999996
sS'YOL020W'
p692
F6.2699999999999996
sS'YHR186C'
p693
F0.60999999999999999
sS'YFL027C'
p694
F0.60999999999999999
sS'YDR468C'
p695
F2.1800000000000002
sS'YDR332W'
p696
F0.31
sS'YOR064C'
p697
F0.80000000000000004
sS'YPR008W'
p698
F0.71999999999999997
sS'YGL235W'
p699
F1.5
sS'YJL147C'
p700
F0.37
sS'YFR003C'
p701
F7
sS'YNL297C'
p702
F0.70999999999999996
sS'YOL081W'
p703
F1.4299999999999999
sS'YIL033C'
p704
F2.4399999999999999
sS'YOR368W'
p705
F0.58999999999999997
sS'YGR128C'
p706
F2.54
sS'YOR002W'
p707
F3.6699999999999999
sS'YOR031W'
p708
F1.76
sS'YNR041C'
p709
F2.4500000000000002
sS'YPL162C'
p710
F5.4800000000000004
sS'YIL048W'
p711
F0.53000000000000003
sS'YAL028W'
p712
F0.19
sS'YOL056W'
p713
F1.8100000000000001
sS'YPR092W'
p714
F1.8300000000000001
sS'YOR075W'
p715
F0.58999999999999997
sS'YFR052W'
p716
F5.6100000000000003
sS'YBR282W'
p717
F7.9699999999999998
sS'YOR079C'
p718
F1.2
sS'YIL024C'
p719
F0.78000000000000003
sS'YHR132C'
p720
F3.3300000000000001
sS'YGR088W'
p721
F0.12
sS'YLR103C'
p722
F0.23999999999999999
sS'YLR188W'
p723
F1.71
sS'YGL073W'
p724
F18.460000000000001
sS'YDR194C'
p725
F3.2999999999999998
sS'YNL243W'
p726
F4.7300000000000004
sS'YDR014W'
p727
F1.26
sS'YNL257C'
p728
F0.51000000000000001
sS'YBR180W'
p729
F0.14999999999999999
sS'YGL259W'
p730
F0.34000000000000002
sS'YIL093C'
p731
F1.0700000000000001
sS'YBR204C'
p732
F1.25
sS'YJR115W'
p733
F0.83999999999999997
sS'YDR466W'
p734
F0.51000000000000001
sS'YLR397C'
p735
F1.22
sS'YJL210W'
p736
F2.46
sS'YIL168W'
p737
F0.29999999999999999
sS'YIL151C'
p738
F1.1100000000000001
sS'YIL002C'
p739
F0.60999999999999999
sS'YGL086W'
p740
F1
sS'YGR159C'
p741
F16.710000000000001
sS'YDL223C'
p742
F0.31
sS'YAL044C'
p743
F27.969999999999999
sS'YBR213W'
p744
F0.83999999999999997
sS'YJL116C'
p745
F0.44
sS'YGL089C'
p746
F14.029999999999999
sS'YPR081C'
p747
F0.23999999999999999
sS'YBR124W'
p748
F0.22
sS'YNR023W'
p749
F0.27000000000000002
sS'YOL096C'
p750
F0.93000000000000005
sS'YGL228W'
p751
F2.6499999999999999
sS'YDR284C'
p752
F1.9199999999999999
sS'YAL004W'
p753
F25.77
sS'YJL097W'
p754
F5.8600000000000003
sS'YBR259W'
p755
F1.2
sS'YPR136C'
p756
F1.3200000000000001
sS'YNL242W'
p757
F0.25
sS'YGL155W'
p758
F0.97999999999999998
sS'YOR007C'
p759
F17.109999999999999
sS'YDR406W'
p760
F2.3399999999999999
sS'YBR193C'
p761
F1.26
sS'YJR101W'
p762
F4.6299999999999999
sS'YJR120W'
p763
F0.23999999999999999
sS'YPR163C'
p764
F39.740000000000002
sS'YBR222C'
p765
F8.6699999999999999
sS'YLR131C'
p766
F0.28999999999999998
sS'YPR101W'
p767
F1.8
sS'YNL091W'
p768
F1.1299999999999999
sS'YDL040C'
p769
F5.9199999999999999
sS'YPL128C'
p770
F1.53
sS'YMR226C'
p771
F8.3399999999999999
sS'YGR133W'
p772
F1.04
sS'YBL044W'
p773
F0.20000000000000001
sS'YHL012W'
p774
F0.28999999999999998
sS'YDL015C'
p775
F4.9800000000000004
sS'YDR123C'
p776
F0.28000000000000003
sS'YBR041W'
p777
F2.8199999999999998
sS'YDR430C'
p778
F1.7
sS'YGL102C'
p779
F118.19
sS'YDR487C'
p780
F19.93
sS'YOL118C'
p781
F0.070000000000000007
sS'YGR015C'
p782
F2.3900000000000001
sS'YOR242C'
p783
F0.25
sS'YPL078C'
p784
F11.869999999999999
sS'YER065C'
p785
F0.44
sS'YCR036W'
p786
F3.0499999999999998
sS'YLR077W'
p787
F0.81000000000000005
sS'YCR044C'
p788
F5.8099999999999996
sS'YLL020C'
p789
F2.1499999999999999
sS'YDR037W'
p790
F38.270000000000003
sS'YGL051W'
p791
F0.63
sS'YER178W'
p792
F18.300000000000001
sS'YLR057W'
p793
F0.46000000000000002
sS'YOL003C'
p794
F0.77000000000000002
sS'YJL091C'
p795
F0.78000000000000003
sS'YLR320W'
p796
F0.27000000000000002
sS'YJL140W'
p797
F7.0599999999999996
sS'YPR135W'
p798
F0.46000000000000002
sS'YAR008W'
p799
F0.55000000000000004
sS'YHR121W'
p800
F4.5999999999999996
sS'YMR231W'
p801
F1.0900000000000001
sS'YOL070C'
p802
F1.8500000000000001
sS'YOL138C'
p803
F1.8
sS'YDL062W'
p804
F1.04
sS'YPR185W'
p805
F0.47999999999999998
sS'YLR312C'
p806
F0.16
sS'YLR452C'
p807
F2.1800000000000002
sS'YER147C'
p808
F0.62
sS'YMR166C'
p809
F0.48999999999999999
sS'YIL015W'
p810
F0.39000000000000001
sS'YEL030W'
p811
F0.78000000000000003
sS'YOR129C'
p812
F0.32000000000000001
sS'YBR291C'
p813
F3.21
sS'YOL038W'
p814
F12.84
sS'YNL275W'
p815
F0.25
sS'YAR015W'
p816
F3.9700000000000002
sS'YPR046W'
p817
F0.92000000000000004
sS'YML114C'
p818
F2.8700000000000001
sS'YNR021W'
p819
F11.720000000000001
sS'YGR053C'
p820
F0.23000000000000001
sS'YJL093C'
p821
F1.99
sS'YOR320C'
p822
F1.78
sS'YNR001C'
p823
F5.9400000000000004
sS'YNL082W'
p824
F0.38
sS'YLL051C'
p825
F1.55
sS'YDR427W'
p826
F10.43
sS'YKL072W'
p827
F0.51000000000000001
sS'YOR279C'
p828
F1.0700000000000001
sS'YGR008C'
p829
F7.7300000000000004
sS'YGL060W'
p830
F0.93000000000000005
sS'YNL311C'
p831
F1.8999999999999999
sS'YCR062W'
p832
F2.3700000000000001
sS'YLL002W'
p833
F0.52000000000000002
sS'YJL030W'
p834
F3.1800000000000002
sS'YLR424W'
p835
F0.41999999999999998
sS'YLR408C'
p836
F0.65000000000000002
sS'YGL123W'
p837
F192.91
sS'YKR066C'
p838
F17.879999999999999
sS'YDR079W'
p839
F1.8799999999999999
sS'YGR248W'
p840
F0.79000000000000004
sS'YER043C'
p841
F34.57
sS'YBR074W'
p842
F0.48999999999999999
sS'YGR191W'
p843
F3.8799999999999999
sS'YBL061C'
p844
F1.1699999999999999
sS'YJR110W'
p845
F0.40000000000000002
sS'YPR054W'
p846
F1.1799999999999999
sS'YMR140W'
p847
F0.42999999999999999
sS'YLR095C'
p848
F3.0800000000000001
sS'YBR034C'
p849
F6.5999999999999996
sS'YML036W'
p850
F2.3900000000000001
sS'YPL054W'
p851
F0.32000000000000001
sS'YLR401C'
p852
F6.0899999999999999
sS'YDR244W'
p853
F0.73999999999999999
sS'YLR304C'
p854
F5.7699999999999996
sS'YKL018W'
p855
F2
sS'YDL088C'
p856
F0.71999999999999997
sS'YDL137W'
p857
F29.129999999999999
sS'YGR007W'
p858
F3.2400000000000002
sS'YJR063W'
p859
F4.0999999999999996
sS'YBR018C'
p860
F0.14999999999999999
sS'YML013W'
p861
F1.73
sS'YLR142W'
p862
F0.68000000000000005
sS'YDR233C'
p863
F14.630000000000001
sS'YJL184W'
p864
F11.029999999999999
sS'YER025W'
p865
F22.039999999999999
sS'YDR527W'
p866
F1.3799999999999999
sS'YNL036W'
p867
F5.6900000000000004
sS'YCR059C'
p868
F4.6500000000000004
sS'YML041C'
p869
F0.5
sS'YER078C'
p870
F1.2
sS'YER130C'
p871
F4.0700000000000003
sS'YDR428C'
p872
F1.0800000000000001
sS'YGR071C'
p873
F0.39000000000000001
sS'YCR106W'
p874
F0.20000000000000001
sS'YMR204C'
p875
F0.37
sS'YCL059C'
p876
F4.6200000000000001
sS'YML014W'
p877
F2.5600000000000001
sS'YKR071C'
p878
F2.7200000000000002
sS'YGL261C'
p879
F0.26000000000000001
sS'YDR489W'
p880
F0.89000000000000001
sS'YGR196C'
p881
F0.70999999999999996
sS'YNL101W'
p882
F1.6599999999999999
sS'YMR091C'
p883
F2.4500000000000002
sS'YPR049C'
p884
F0.33000000000000002
sS'YDL057W'
p885
F0.46000000000000002
sS'YGR257C'
p886
F2.6099999999999999
sS'YNL070W'
p887
F24.289999999999999
sS'YHR150W'
p888
F0.29999999999999999
sS'YPL235W'
p889
F3.21
sS'YDL008W'
p890
F2.3500000000000001
sS'YBL050W'
p891
F8.8399999999999999
sS'YJR086W'
p892
F8.5999999999999996
sS'YGR280C'
p893
F7.7400000000000002
sS'YGR237C'
p894
F0.91000000000000003
sS'YEL069C'
p895
F0.28999999999999998
sS'YDL159W'
p896
F1.29
sS'YJR014W'
p897
F13.56
sS'YJL132W'
p898
F0.81000000000000005
sS'YGL190C'
p899
F1.4299999999999999
sS'YDR144C'
p900
F2.8799999999999999
sS'YPL018W'
p901
F0.5
sS'YGL018C'
p902
F0.46000000000000002
sS'YMR075W'
p903
F0.84999999999999998
sS'YPL185W'
p904
F0.34000000000000002
sS'YGR202C'
p905
F1.3500000000000001
sS'YJR041C'
p906
F1.6899999999999999
sS'YDL248W'
p907
F0.59999999999999998
sS'YKR028W'
p908
F2.8300000000000001
sS'YFL046W'
p909
F1.27
sS'YDR379W'
p910
F0.34000000000000002
sS'YMR179W'
p911
F0.60999999999999999
sS'YLR381W'
p912
F1.22
sS'YKL037W'
p913
F0.20000000000000001
sS'YNL176C'
p914
F2.46
sS'YHR169W'
p915
F1.3
sS'YDL175C'
p916
F0.42999999999999999
sS'YOR109W'
p917
F0.63
sS'YKL137W'
p918
F6.1699999999999999
sS'YDR447C'
p919
F273.33999999999997
sS'YGL009C'
p920
F1.49
sS'YKL168C'
p921
F0.34999999999999998
sS'YDL200C'
p922
F1.46
sS'YDL102W'
p923
F0.35999999999999999
sS'YLR237W'
p924
F2.1699999999999999
sS'YJR009C'
p925
F63.219999999999999
sS'YER092W'
p926
F2.7400000000000002
sS'YIL121W'
p927
F2.5899999999999999
sS'YLR214W'
p928
F5.2800000000000002
sS'YMR323W'
p929
F0.46000000000000002
sS'YIR010W'
p930
F1.7
sS'YDR331W'
p931
F1.77
sS'YJL114W'
p932
F0.14999999999999999
sS'YJL127C'
p933
F0.38
sS'YOR391C'
p934
F0.14999999999999999
sS'YGL183C'
p935
F0.13
sS'YER139C'
p936
F0.56000000000000005
sS'YDL128W'
p937
F3.2200000000000002
sS'YLR433C'
p938
F0.81000000000000005
sS'YIR015W'
p939
F0.92000000000000004
sS'YJL041W'
p940
F2.3599999999999999
sS'YER032W'
p941
F1.1100000000000001
sS'YJR070C'
p942
F14.210000000000001
sS'YMR033W'
p943
F1.6100000000000001
sS'YDL097C'
p944
F19.219999999999999
sS'YPR003C'
p945
F0.56999999999999995
sS'YGL005C'
p946
F1.22
sS'YGR262C'
p947
F2.9500000000000002
sS'YPL160W'
p948
F8.8900000000000006
sS'YHR043C'
p949
F2.1499999999999999
sS'YDL111C'
p950
F2.5899999999999999
sS'YMR133W'
p951
F0.58999999999999997
sS'YPR152C'
p952
F0.88
sS'YJL052W'
p953
F5.3099999999999996
sS'YMR029C'
p954
F1.77
sS'YLR104W'
p955
F6.9800000000000004
sS'YKL159C'
p956
F3.3500000000000001
sS'YGR215W'
p957
F9.8000000000000007
sS'YDR253C'
p958
F0.20000000000000001
sS'YDR507C'
p959
F0.83999999999999997
sS'YML096W'
p960
F0.88
sS'YHR192W'
p961
F3.8799999999999999
sS'YCR082W'
p962
F10.48
sS'YDR300C'
p963
F2.2599999999999998
sS'YJL158C'
p964
F41.469999999999999
sS'YGL087C'
p965
F6.0499999999999998
sS'YPL052W'
p966
F2.9100000000000001
sS'YIL003W'
p967
F0.92000000000000004
sS'YBR245C'
p968
F0.91000000000000003
sS'YPL155C'
p969
F0.28999999999999998
sS'YBR163W'
p970
F0.70999999999999996
sS'YJL216C'
p971
F0.23000000000000001
sS'YLR276C'
p972
F4.1799999999999997
sS'YKL186C'
p973
F2.54
sS'YKL079W'
p974
F0.75
sS'YBR210W'
p975
F3.8300000000000001
sS'YPL103C'
p976
F3.04
sS'YIL103W'
p977
F1.6899999999999999
sS'YBR269C'
p978
F5.5499999999999998
sS'YDR283C'
p979
F0.40000000000000002
sS'YJR096W'
p980
F1.71
sS'YNL037C'
p981
F3.6600000000000001
sS'YLR398C'
p982
F0.51000000000000001
sS'YBR192W'
p983
F0.91000000000000003
sS'YNL140C'
p984
F1.1899999999999999
sS'YJR116W'
p985
F1.1599999999999999
sS'YKL027W'
p986
F1.6499999999999999
sS'YGR143W'
p987
F1.6899999999999999
sS'YGR112W'
p988
F0.97999999999999998
sS'YOR049C'
p989
F0.39000000000000001
sS'YLR256W'
p990
F3.23
sS'YGL229C'
p991
F0.34000000000000002
sS'YLR056W'
p992
F13.27
sS'YDR409W'
p993
F0.42999999999999999
sS'YLR356W'
p994
F1.6100000000000001
sS'YBR221C'
p995
F16.620000000000001
sS'YAL005C'
p996
F27.079999999999998
sS'YJL094C'
p997
F0.79000000000000004
sS'YGR074W'
p998
F4.6299999999999999
sS'YGL098W'
p999
F0.80000000000000004
sS'YJR056C'
p1000
F1.29
sS'YDR097C'
p1001
F0.28999999999999998
sS'YLR404W'
p1002
F1.05
sS'YLR234W'
p1003
F0.62
sS'YGR161C'
p1004
F1.4199999999999999
sS'YDL162C'
p1005
F0.14999999999999999
sS'YIR001C'
p1006
F1.3500000000000001
sS'YPL069C'
p1007
F1.48
sS'YBR103W'
p1008
F0.56000000000000005
sS'YIL132C'
p1009
F0.48999999999999999
sS'YIL145C'
p1010
F4.8399999999999999
sS'YGL216W'
p1011
F0.70999999999999996
sS'YDR317W'
p1012
F0.16
sS'YFL031W'
p1013
F47.990000000000002
sS'YPL032C'
p1014
F2.1800000000000002
sS'YHR064C'
p1015
F25.43
sS'YKL015W'
p1016
F0.38
sS'YKL179C'
p1017
F0.68999999999999995
sS'YOR073W'
p1018
F0.73999999999999999
sS'YMR020W'
p1019
F2.5299999999999998
sS'YJL145W'
p1020
F2.29
sS'YIR007W'
p1021
F0.45000000000000001
sS'YJL201W'
p1022
F0.69999999999999996
sS'YLR314C'
p1023
F2.8999999999999999
sS'YLR153C'
p1024
F11.539999999999999
sS'YFR020W'
p1025
F1.48
sS'YNL126W'
p1026
F0.33000000000000002
sS'YBR132C'
p1027
F0.37
sS'YPR114W'
p1028
F13.1
sS'YLR249W'
p1029
F130.19
sS'YIR025W'
p1030
F0.64000000000000001
sS'YKR053C'
p1031
F1.48
sS'YOR378W'
p1032
F0.35999999999999999
sS'YGL158W'
p1033
F0.16
sS'YFR015C'
p1034
F0.53000000000000003
sS'YKL175W'
p1035
F4.4699999999999998
sS'YOR265W'
p1036
F2.6200000000000001
sS'YOL139C'
p1037
F26.420000000000002
sS'YIL092W'
p1038
F0.60999999999999999
sS'YPR133C'
p1039
F4.0499999999999998
sS'YOL073C'
p1040
F0.94999999999999996
sS'YLR321C'
p1041
F2.1099999999999999
sS'YOR266W'
p1042
F0.55000000000000004
sS'YPL203W'
p1043
F2.0299999999999998
sS'YNR055C'
p1044
F2.0600000000000001
sS'YHR035W'
p1045
F0.19
sS'YMR211W'
p1046
F0.64000000000000001
sS'YGR052W'
p1047
F0.52000000000000002
sS'YDR184C'
p1048
F2.9700000000000002
sS'YNR011C'
p1049
F0.59999999999999998
sS'YJR161C'
p1050
F0.46999999999999997
sS'YNL167C'
p1051
F0.69999999999999996
sS'YKL210W'
p1052
F8.8699999999999992
sS'YOR365C'
p1053
F0.26000000000000001
sS'YNR002C'
p1054
F0.46999999999999997
sS'YLR426W'
p1055
F1.8400000000000001
sS'YGL061C'
p1056
F0.63
sS'YDR394W'
p1057
F6.1100000000000003
sS'YKR102W'
p1058
F0.28000000000000003
sS'YPL210C'
p1059
F1.48
sS'YOR330C'
p1060
F1.79
sS'YAR014C'
p1061
F0.68000000000000005
sS'YOR087W'
p1062
F0.53000000000000003
sS'YLR186W'
p1063
F8.0600000000000005
sS'YKL127W'
p1064
F4.3399999999999999
sS'YHR159W'
p1065
F0.37
sS'YPR093C'
p1066
F1.8400000000000001
sS'YJL089W'
p1067
F0.20999999999999999
sS'YOL082W'
p1068
F1.6499999999999999
sS'YAL029C'
p1069
F1.8500000000000001
sS'YKL112W'
p1070
F1.02
sS'YOR148C'
p1071
F2.27
sS'YNL108C'
p1072
F3.9300000000000002
sS'YFR053C'
p1073
F2.4900000000000002
sS'YIL049W'
p1074
F1.0800000000000001
sS'YMR301C'
p1075
F0.76000000000000001
sS'YGL171W'
p1076
F1.1100000000000001
sS'YDR294C'
p1077
F2.6099999999999999
sS'YGR271W'
p1078
F0.94999999999999996
sS'YFR002W'
p1079
F1.1200000000000001
sS'YBR267W'
p1080
F4.1100000000000003
sS'YDR015C'
p1081
F0.20000000000000001
sS'YJL217W'
p1082
F10.640000000000001
sS'YLR296W'
p1083
F0.23999999999999999
sS'YPR194C'
p1084
F0.26000000000000001
sS'YGR089W'
p1085
F1.01
sS'YBR181C'
p1086
F98.840000000000003
sS'YHL028W'
p1087
F0.77000000000000002
sS'YGR154C'
p1088
F0.5
sS'YNL124W'
p1089
F0.65000000000000002
sS'YJL073W'
p1090
F0.63
sS'YBL005W'
p1091
F1.01
sS'YGL072C'
p1092
F0.35999999999999999
sS'YNL048W'
p1093
F1.1200000000000001
sS'YOR389W'
p1094
F0.20999999999999999
sS'YDL196W'
p1095
F0.19
sS'YLR130C'
p1096
F3.5
sS'YER022W'
p1097
F0.78000000000000003
sS'YBR057C'
p1098
F1.26
sS'YNR059W'
p1099
F0.94999999999999996
sS'YDR041W'
p1100
F1.9199999999999999
sS'YER186C'
p1101
F1.3500000000000001
sS'YMR165C'
p1102
F0.68000000000000005
sS'YKR070W'
p1103
F1.55
sS'YGL262W'
p1104
F0.62
sS'YNL059C'
p1105
F2.4100000000000001
sS'YMR205C'
p1106
F21.41
sS'YNL203C'
p1107
F0.94999999999999996
sS'YCR005C'
p1108
F2.0800000000000001
sS'YCR105W'
p1109
F0.23999999999999999
sS'YJL185C'
p1110
F0.54000000000000004
sS'YNL192W'
p1111
F3.6499999999999999
sS'YER164W'
p1112
F0.60999999999999999
sS'YFL026W'
p1113
F0.13
sS'YNL237W'
p1114
F0.54000000000000004
sS'YML017W'
p1115
F0.63
sS'YIL016W'
p1116
F6.8799999999999999
sS'YNL324W'
p1117
F0.71999999999999997
sS'YPL236C'
p1118
F1.4099999999999999
sS'YOR274W'
p1119
F1.3100000000000001
sS'YDR114C'
p1120
F0.050000000000000003
sS'YPR033C'
p1121
F0.20999999999999999
sS'YBL051C'
p1122
F2.5
sS'YGR281W'
p1123
F1.4199999999999999
sS'YMR213W'
p1124
F0.5
sS'YLR089C'
p1125
F2.8900000000000001
sS'YPR160W'
p1126
F0.56999999999999995
sS'YPL161C'
p1127
F0.95999999999999996
sS'YMR081C'
p1128
F1.4199999999999999
sS'YPR015C'
p1129
F0.29999999999999999
sS'YMR022W'
p1130
F7.4299999999999997
sS'YDR488C'
p1131
F0.46000000000000002
sS'YDL050C'
p1132
F8.6300000000000008
sS'YLR154C'
p1133
F1.9399999999999999
sS'YOL021C'
p1134
F2.1299999999999999
sS'YGR256W'
p1135
F0.23999999999999999
sS'YEL042W'
p1136
F3.4100000000000001
sS'YBL027W'
p1137
F90.269999999999996
sS'YHL013C'
p1138
F1.8700000000000001
sS'YOL060C'
p1139
F1.71
sS'YGR009C'
p1140
F1.3300000000000001
sS'YNL208W'
p1141
F19.829999999999998
sS'YMR185W'
p1142
F0.75
sS'YOR186W'
p1143
F0.12
sS'YGL105W'
p1144
F23.739999999999998
sS'YBR097W'
p1145
F0.54000000000000004
sS'YDL076C'
p1146
F1.1299999999999999
sS'YOR137C'
p1147
F0.70999999999999996
sS'YDR120C'
p1148
F1.5700000000000001
sS'YER126C'
p1149
F6.2300000000000004
sS'YMR227C'
p1150
F0.57999999999999996
sS'YPR186C'
p1151
F0.17000000000000001
sS'YOR113W'
p1152
F0.33000000000000002
sS'YDR486C'
p1153
F2.21
sS'YLR465C'
p1154
F0.32000000000000001
sS'YJL192C'
p1155
F5.6299999999999999
sS'YHR117W'
p1156
F5.0300000000000002
sS'YBR040W'
p1157
F0.080000000000000002
sS'YDR030C'
p1158
F0.42999999999999999
sS'YGR254W'
p1159
F27.600000000000001
sS'YOR238W'
p1160
F0.83999999999999997
sS'YNL325C'
p1161
F0.28000000000000003
sS'YOR376W'
p1162
F0.14000000000000001
sS'YBL047C'
p1163
F6.5999999999999996
sS'YEL051W'
p1164
F10.27
sS'YCR045C'
p1165
F0.93000000000000005
sS'YLL023C'
p1166
F2.5800000000000001
sS'YOL004W'
p1167
F0.80000000000000004
sS'YPL209C'
p1168
F0.46999999999999997
sS'YGR014W'
p1169
F3.3900000000000001
sS'YOR005C'
p1170
F0.38
sS'YGL050W'
p1171
F1.1499999999999999
sS'YER179W'
p1172
F0.70999999999999996
sS'YDL036C'
p1173
F0.65000000000000002
sS'YMR150C'
p1174
F2.02
sS'YNR065C'
p1175
F0.48999999999999999
sS'YJL113W'
p1176
F0.20000000000000001
sS'YML056C'
p1177
F18.43
sS'YML059C'
p1178
F0.90000000000000002
sS'YDL129W'
p1179
F1.9099999999999999
sS'YKL116C'
p1180
F0.73999999999999999
sS'YKR045C'
p1181
F1.24
sS'YLR388W'
p1182
F230.31
sS'YGL182C'
p1183
F0.10000000000000001
sS'YGR238C'
p1184
F0.34999999999999998
sS'YCR012W'
p1185
F176.71000000000001
sS'YGL026C'
p1186
F7.9199999999999999
sS'YDR254W'
p1187
F0.39000000000000001
sS'YPR128C'
p1188
F2.1299999999999999
sS'YGR263C'
p1189
F0.63
sS'YKL156W'
p1190
F38.32
sS'YPL084W'
p1191
F0.68000000000000005
sS'YNL010W'
p1192
F27.82
sS'YDL110C'
p1193
F2.4900000000000002
sS'YMR134W'
p1194
F2.1400000000000001
sS'YDR301W'
p1195
F0.5
sS'YJL053W'
p1196
F1.5
sS'YPR104C'
p1197
F0.28000000000000003
sS'YMR069W'
p1198
F0.32000000000000001
sS'YPL129W'
p1199
F5.1900000000000004
sS'YGR214W'
p1200
F100.45
sS'YPR002W'
p1201
F0.20000000000000001
sS'YGL006W'
p1202
F1.03
sS'YKR005C'
p1203
F0.32000000000000001
sS'YKL145W'
p1204
F5.9400000000000004
sS'YKR067W'
p1205
F0.95999999999999996
sS'YNL310C'
p1206
F1.53
sS'YML028W'
p1207
F240.44
sS'YLL001W'
p1208
F0.81999999999999995
sS'YDR052C'
p1209
F1.1200000000000001
sS'YNL189W'
p1210
F2.1099999999999999
sS'YMR043W'
p1211
F1.4299999999999999
sS'YPR173C'
p1212
F2.1899999999999999
sS'YCL047C'
p1213
F1.1699999999999999
sS'YJL031C'
p1214
F1.03
sS'YML077W'
p1215
F4.6799999999999997
sS'YBR075W'
p1216
F1.8300000000000001
sS'YER068W'
p1217
F2.1499999999999999
sS'YER013W'
p1218
F1.2
sS'YDR223W'
p1219
F0.25
sS'YGL122C'
p1220
F3.79
sS'YDL021W'
p1221
F0.16
sS'YLR143W'
p1222
F0.40999999999999998
sS'YJL008C'
p1223
F12.58
sS'YEL073C'
p1224
F0.27000000000000002
sS'YML060W'
p1225
F1.5800000000000001
sS'YJR062C'
p1226
F0.93000000000000005
sS'YGR054W'
p1227
F7.4299999999999997
sS'YBR035C'
p1228
F2.77
sS'YDR230W'
p1229
F3.3900000000000001
sS'YBL060W'
p1230
F0.53000000000000003
sS'YML035C'
p1231
F3.3199999999999998
sS'YNL277W'
p1232
F0.39000000000000001
sS'YHL039W'
p1233
F1.55
sS'YDL136W'
p1234
F78.650000000000006
sS'YBR019C'
p1235
F0.41999999999999998
sS'YPR171W'
p1236
F1.6000000000000001
sS'YKL056C'
p1237
F377.17000000000002
sS'YGL008C'
p1238
F31.52
sS'YHR177W'
p1239
F0.39000000000000001
sS'YKL009W'
p1240
F14.300000000000001
sS'YIL144W'
p1241
F0.35999999999999999
sS'YFL052W'
p1242
F0.12
sS'YOR332W'
p1243
F31.030000000000001
sS'YKR056W'
p1244
F2.1099999999999999
sS'YJR057W'
p1245
F1.99
sS'YDR094W'
p1246
F5.1900000000000004
sS'YKR098C'
p1247
F0.44
sS'YJL126W'
p1248
F0.73999999999999999
sS'YKL150W'
p1249
F5.4100000000000001
sS'YBR100W'
p1250
F0.53000000000000003
sS'YHR063C'
p1251
F1.8899999999999999
sS'YJL200C'
p1252
F2.6299999999999999
sS'YBR148W'
p1253
F0.28999999999999998
sS'YGL211W'
p1254
F1.2
sS'YDR316W'
p1255
F0.46000000000000002
sS'YMR093W'
p1256
F2.8900000000000001
sS'YPL033C'
p1257
F0.13
sS'YLR317W'
p1258
F1.0600000000000001
sS'YCL052C'
p1259
F1.97
sS'YLR377C'
p1260
F0.31
sS'YNL107W'
p1261
F1.47
sS'YNR003C'
p1262
F1.9199999999999999
sS'YBL063W'
p1263
F0.33000000000000002
sS'YDL210W'
p1264
F0.20999999999999999
sS'YDR376W'
p1265
F1.3
sS'YAL059W'
p1266
F8.1400000000000006
sS'YKL194C'
p1267
F0.78000000000000003
sS'YFR023W'
p1268
F0.16
sS'YNL127W'
p1269
F0.57999999999999996
sS'YJR137C'
p1270
F0.68000000000000005
sS'YKL014C'
p1271
F1.53
sS'YGL160W'
p1272
F1.1100000000000001
sS'YNR036C'
p1273
F9.7200000000000006
sS'YPL216W'
p1274
F0.42999999999999999
sS'YJR040W'
p1275
F1.1499999999999999
sS'YPR119W'
p1276
F0.58999999999999997
sS'YJR015W'
p1277
F8.0099999999999998
sS'YLR207W'
p1278
F1.4099999999999999
sS'YGR203W'
p1279
F1.8999999999999999
sS'YOL122C'
p1280
F2.1099999999999999
sS'YOL148C'
p1281
F1.6799999999999999
sS'YBL086C'
p1282
F0.73999999999999999
sS'YNL069C'
p1283
F148.16
sS'YKR029C'
p1284
F0.40000000000000002
sS'YIR027C'
p1285
F0.17000000000000001
sS'YDR249C'
p1286
F0.60999999999999999
sS'YJR039W'
p1287
F0.12
sS'YDL158C'
p1288
F3.7400000000000002
sS'YML088W'
p1289
F3.2400000000000002
sS'YOR296W'
p1290
F0.75
sS'YJL168C'
p1291
F0.42999999999999999
sS'YDR145W'
p1292
F1.74
sS'YFL009W'
p1293
F0.78000000000000003
sS'YDL174C'
p1294
F2.8599999999999999
sS'YER091C'
p1295
F3.6200000000000001
sS'YIR024C'
p1296
F1.0600000000000001
sS'YDL103C'
p1297
F3.7599999999999998
sS'YLR303W'
p1298
F5.1900000000000004
sS'YJR008W'
p1299
F0.34999999999999998
sS'YDL203C'
p1300
F1.47
sS'YBR011C'
p1301
F27.18
sS'YML031W'
p1302
F4.1200000000000001
sS'YLR215C'
p1303
F0.63
sS'YLR439W'
p1304
F2.1000000000000001
sS'YMR287C'
p1305
F0.38
sS'YJL199C'
p1306
F0.68000000000000005
sS'YDR216W'
p1307
F0.28000000000000003
sS'YIL120W'
p1308
F0.45000000000000001
sS'YNL021W'
p1309
F0.68000000000000005
sS'YKR012C'
p1310
F0.91000000000000003
sS'YNL236W'
p1311
F0.75
sS'YOL054W'
p1312
F1.96
sS'YPR090W'
p1313
F0.93999999999999995
sS'YNL109W'
p1314
F5.1200000000000001
sS'YAR031W'
p1315
F0.54000000000000004
sS'YPL131W'
p1316
F127.11
sS'YIL115C'
p1317
F0.5
sS'YPL007C'
p1318
F1.0700000000000001
sS'YGL233W'
p1319
F0.47999999999999998
sS'YCL027W'
p1320
F0.28999999999999998
sS'YHR158C'
p1321
F0.55000000000000004
sS'YMR235C'
p1322
F6.46
sS'YOL053W'
p1323
F0.84999999999999998
sS'YHR029C'
p1324
F2.3599999999999999
sS'YIL031W'
p1325
F0.57999999999999996
sS'YDR295C'
p1326
F0.37
sS'YAL033W'
p1327
F3.4900000000000002
sS'YLR203C'
p1328
F2.6499999999999999
sS'YGR155W'
p1329
F44.009999999999998
sS'YMR300C'
p1330
F6.1799999999999997
sS'YBR284W'
p1331
F0.28999999999999998
sS'YMR195W'
p1332
F2.5600000000000001
sS'YDR108W'
p1333
F0.75
sS'YNR049C'
p1334
F2.5099999999999998
sS'YDR192C'
p1335
F1.1399999999999999
sS'YOL112W'
p1336
F0.37
sS'YKR004C'
p1337
F0.46999999999999997
sS'YML109W'
p1338
F1.3600000000000001
sS'YLR342W'
p1339
F40.439999999999998
sS'YOL083W'
p1340
F0.27000000000000002
sS'YLR335W'
p1341
F5.8099999999999996
sS'YNL251C'
p1342
F1.9199999999999999
sS'YJR102C'
p1343
F0.64000000000000001
sS'YPL089C'
p1344
F9.3000000000000007
sS'YHR134W'
p1345
F1.1799999999999999
sS'YBL028C'
p1346
F7.3700000000000001
sS'YBL004W'
p1347
F1.6399999999999999
sS'YBR186W'
p1348
F0.20999999999999999
sS'YBR164C'
p1349
F4.2300000000000004
sS'YIL153W'
p1350
F1.96
sS'YIL164C'
p1351
F0.75
sS'YJR088C'
p1352
F3.1800000000000002
sS'YIR029W'
p1353
F0.44
sS'YHR074W'
p1354
F4.04
sS'YDR464W'
p1355
F0.47999999999999998
sS'YLR368W'
p1356
F0.54000000000000004
sS'YBR268W'
p1357
F3.9100000000000001
sS'YFR030W'
p1358
F1.6599999999999999
sS'YKL089W'
p1359
F0.76000000000000001
sS'YBR131W'
p1360
F0.38
sS'YJR093C'
p1361
F1.24
sS'YLR277C'
p1362
F0.55000000000000004
sS'YAL011W'
p1363
F0.59999999999999998
sS'YGR173W'
p1364
F5.4100000000000001
sS'YIL055C'
p1365
F0.66000000000000003
sS'YPL053C'
p1366
F3.21
sS'YBR179C'
p1367
F0.29999999999999999
sS'YDR282C'
p1368
F0.29999999999999999
sS'YDR009W'
p1369
F0.27000000000000002
sS'YJR097W'
p1370
F0.95999999999999996
sS'YOL094C'
p1371
F3.02
sS'YAL002W'
p1372
F0.79000000000000004
sS'YJL095W'
p1373
F0.41999999999999998
sS'YHR018C'
p1374
F2.0699999999999998
sS'YBR126C'
p1375
F3.9399999999999999
sS'YOL149W'
p1376
F2.4700000000000002
sS'YLR257W'
p1377
F11.02
sS'YGL202W'
p1378
F7.9500000000000002
sS'YPL106C'
p1379
F33.119999999999997
sS'YLR173W'
p1380
F0.44
sS'YJR128W'
p1381
F0.37
sS'YNL141W'
p1382
F16.34
sS'YKR090W'
p1383
F1.02
sS'YMR220W'
p1384
F3.7999999999999998
sS'YPR187W'
p1385
F34.270000000000003
sS'YKL032C'
p1386
F3.1099999999999999
sS'YEL018W'
p1387
F1.29
sS'YER125W'
p1388
F1.7
sS'YDR432W'
p1389
F13.66
sS'YGR195W'
p1390
F4.79
sS'YLR302C'
p1391
F0.32000000000000001
sS'YDL077C'
p1392
F0.20000000000000001
sS'YOR222W'
p1393
F1.6599999999999999
sS'YEL021W'
p1394
F7.5999999999999996
sS'YCL006C'
p1395
F0.22
sS'YER152C'
p1396
F2.6699999999999999
sS'YHR116W'
p1397
F1.1200000000000001
sS'YLL046C'
p1398
F0.080000000000000002
sS'YDR523C'
p1399
F0.17000000000000001
sS'YPL275W'
p1400
F0.25
sS'YMR114C'
p1401
F0.34999999999999998
sS'YDR402C'
p1402
F0.17999999999999999
sS'YJL191W'
p1403
F51.770000000000003
sS'YBL046W'
p1404
F0.82999999999999996
sS'YGR017W'
p1405
F4.4500000000000002
sS'YMR079W'
p1406
F11.09
sS'YOR213C'
p1407
F1.6000000000000001
sS'YOR039W'
p1408
F3.9100000000000001
sS'YEL050C'
p1409
F2.3199999999999998
sS'YFR016C'
p1410
F1.0600000000000001
sS'YHR016C'
p1411
F1.5900000000000001
sS'YLR322W'
p1412
F1.1499999999999999
sS'YLR442C'
p1413
F0.58999999999999997
sS'YGR172C'
p1414
F8.8699999999999992
sS'YGR109C'
p1415
F0.20000000000000001
sS'YOR379C'
p1416
F0.40000000000000002
sS'YGL224C'
p1417
F1.9099999999999999
sS'YIL017C'
p1418
F0.42999999999999999
sS'YNL268W'
p1419
F4.0300000000000002
sS'YDR535C'
p1420
F0.34999999999999998
sS'YLR396C'
p1421
F0.92000000000000004
sS'YOL123W'
p1422
F7.3300000000000001
sS'YDR132C'
p1423
F0.46999999999999997
sS'YML116W'
p1424
F1.1100000000000001
sS'YMR126C'
p1425
F1.0900000000000001
sS'YGR055W'
p1426
F4.0599999999999996
sS'YNR056C'
p1427
F0.35999999999999999
sS'YDR185C'
p1428
F1.6100000000000001
sS'YOR070C'
p1429
F0.34999999999999998
sS'YOR364W'
p1430
F0.34000000000000002
sS'YOR386W'
p1431
F0.65000000000000002
sS'YAR042W'
p1432
F0.56999999999999995
sS'YOR166C'
p1433
F0.65000000000000002
sS'YHR207C'
p1434
F1.6399999999999999
sS'YPR198W'
p1435
F2.3100000000000001
sS'YGR039W'
p1436
F0.41999999999999998
sS'YEL049W'
p1437
F0.23000000000000001
sS'YMR313C'
p1438
F0.75
sS'YLL053C'
p1439
F6.9800000000000004
sS'YDR425W'
p1440
F0.94999999999999996
sS'YNL220W'
p1441
F4.3499999999999996
sS'YBL007C'
p1442
F1.9299999999999999
sS'YOR331C'
p1443
F32.259999999999998
sS'YGR060W'
p1444
F45.68
sS'YNL210W'
p1445
F0.46999999999999997
sS'YML076C'
p1446
F0.48999999999999999
sS'YKR060W'
p1447
F1.3600000000000001
sS'YCL048W'
p1448
F0.10000000000000001
sS'YJL032W'
p1449
F0.96999999999999997
sS'YNL313C'
p1450
F1.77
sS'YHR094C'
p1451
F7.9000000000000004
sS'YMR142C'
p1452
F153.09
sS'YML043C'
p1453
F1.04
sS'YGL031C'
p1454
F113.29000000000001
sS'YCR033W'
p1455
F1.97
sS'YGL121C'
p1456
F0.37
sS'YER012W'
p1457
F9.7699999999999996
sS'YDR104C'
p1458
F0.23999999999999999
sS'YDR222W'
p1459
F0.81999999999999995
sS'YDR053W'
p1460
F1.1599999999999999
sS'YBL067C'
p1461
F2.5800000000000001
sS'YLR168C'
p1462
F1.6899999999999999
sS'YDL019C'
p1463
F0.52000000000000002
sS'YLR196W'
p1464
F4.0899999999999999
sS'YML034W'
p1465
F0.23999999999999999
sS'YDL135C'
p1466
F2.8799999999999999
sS'YPR023C'
p1467
F1.6399999999999999
sS'YOR035C'
p1468
F0.59999999999999998
sS'YCR093W'
p1469
F2.1800000000000002
sS'YMR011W'
p1470
F39.920000000000002
sS'YIR039C'
p1471
F0.83999999999999997
sS'YEL072W'
p1472
F0.39000000000000001
sS'YMR273C'
p1473
F0.56999999999999995
sS'YIL152W'
p1474
F1.1499999999999999
sS'YGR273C'
p1475
F0.16
sS'YDL020C'
p1476
F5.9500000000000002
sS'YOL084W'
p1477
F0.45000000000000001
sS'YDR168W'
p1478
F3.3100000000000001
sS'YPL072W'
p1479
F0.29999999999999999
sS'YML061C'
p1480
F0.65000000000000002
sS'YBR050C'
p1481
F0.34999999999999998
sS'YGL080W'
p1482
F5.0499999999999998
sS'YOL013C'
p1483
F1.5
sS'YNL202W'
p1484
F0.90000000000000002
sS'YDL191W'
p1485
F104.05
sS'YER163C'
p1486
F2.2000000000000002
sS'YPL268W'
p1487
F0.32000000000000001
sS'YGR295C'
p1488
F10.619999999999999
sS'YBR069C'
p1489
F16.600000000000001
sS'YML016C'
p1490
F2.1099999999999999
sS'YGL040C'
p1491
F2.9700000000000002
sS'YKR084C'
p1492
F2.3999999999999999
sS'YDL017W'
p1493
F0.22
sS'YDR512C'
p1494
F0.28999999999999998
sS'YDR113C'
p1495
F1.1299999999999999
sS'YKR073C'
p1496
F0.14000000000000001
sS'YOR021C'
p1497
F6.0199999999999996
sS'YDR058C'
p1498
F0.71999999999999997
sS'YLR088W'
p1499
F1.02
sS'YBR021W'
p1500
F0.45000000000000001
sS'YOR060C'
p1501
F0.53000000000000003
sS'YGR255C'
p1502
F1.3100000000000001
sS'YNL156C'
p1503
F3.0699999999999998
sS'YDL051W'
p1504
F9.5199999999999996
sS'YGL263W'
p1505
F0.22
sS'YMR242C'
p1506
F122.79000000000001
sS'YER185W'
p1507
F0.53000000000000003
sS'YCR030C'
p1508
F3.5800000000000001
sS'YOR061W'
p1509
F2.25
sS'YMR077C'
p1510
F0.27000000000000002
sS'YPL183C'
p1511
F0.75
sS'YDR166C'
p1512
F1.3600000000000001
sS'YKR088C'
p1513
F2.4700000000000002
sS'YOR345C'
p1514
F0.39000000000000001
sS'YNL068C'
p1515
F0.66000000000000003
sS'YPL186C'
p1516
F0.33000000000000002
sS'YGR204W'
p1517
F8.5399999999999991
sS'YMR198W'
p1518
F0.32000000000000001
sS'YJR080C'
p1519
F3.6600000000000001
sS'YJL005W'
p1520
F1.1000000000000001
sS'YDR146C'
p1521
F1.21
sS'YHR056C'
p1522
F1.1899999999999999
sS'YBR112C'
p1523
F2.1400000000000001
sS'YPL158C'
p1524
F1.8799999999999999
sS'YJL105W'
p1525
F0.22
sS'YBL081W'
p1526
F6.1699999999999999
sS'YDR248C'
p1527
F1.6200000000000001
sS'YJR016C'
p1528
F13.140000000000001
sS'YFL040W'
p1529
F0.10000000000000001
sS'YDL202W'
p1530
F1.95
sS'YDL100C'
p1531
F11.52
sS'YFL008W'
p1532
F0.40999999999999998
sS'YOR251C'
p1533
F3.0699999999999998
sS'YJL061W'
p1534
F0.46000000000000002
sS'YML083C'
p1535
F0.23999999999999999
sS'YMR206W'
p1536
F0.17000000000000001
sS'YLR216C'
p1537
F8.8100000000000005
sS'YMR017W'
p1538
F0.089999999999999997
sS'YDR217C'
p1539
F1.55
sS'YKL131W'
p1540
F0.45000000000000001
sS'YDR441C'
p1541
F4.1100000000000003
sS'YGL140C'
p1542
F0.63
sS'YJL021C'
p1543
F1.73
sS'YLR290C'
p1544
F1.55
sS'YER090W'
p1545
F6.0499999999999998
sS'YIL123W'
p1546
F16.989999999999998
sS'YJL086C'
p1547
F0.12
sS'YMR246W'
p1548
F12.31
sS'YMR035W'
p1549
F4.04
sS'YDR231C'
p1550
F3.4100000000000001
sS'YOR291W'
p1551
F1
sS'YJL112W'
p1552
F0.83999999999999997
sS'YCR015C'
p1553
F0.66000000000000003
sS'YNL035C'
p1554
F1.0800000000000001
sS'YKR011C'
p1555
F0.82999999999999996
sS'YPR018W'
p1556
F0.58999999999999997
sS'YDR159W'
p1557
F0.28000000000000003
sS'YNL095C'
p1558
F0.93000000000000005
sS'YGL185C'
p1559
F0.32000000000000001
sS'YDR062W'
p1560
F9.5199999999999996
sS'YBL070C'
p1561
F1.4099999999999999
sS'YML123C'
p1562
F32.5
sS'YJL043W'
p1563
F0.25
sS'YER034W'
p1564
F1.1200000000000001
sS'YJR076C'
p1565
F3.0899999999999999
sS'YHR190W'
p1566
F8.1600000000000001
sS'YLR106C'
p1567
F1.6699999999999999
sS'YKL157W'
p1568
F1.46
sS'YKR002W'
p1569
F0.68000000000000005
sS'YBR003W'
p1570
F1.05
sS'YDR200C'
p1571
F0.32000000000000001
sS'YPL050C'
p1572
F1.96
sS'YDR255C'
p1573
F0.63
sS'YDR279W'
p1574
F0.69999999999999996
sS'YDL113C'
p1575
F0.60999999999999999
sS'YPL083C'
p1576
F0.39000000000000001
sS'YNL011C'
p1577
F0.67000000000000004
sS'YDR357C'
p1578
F8.4299999999999997
sS'YDL099W'
p1579
F1.8200000000000001
sS'YLR201C'
p1580
F5.6200000000000001
sS'YML090W'
p1581
F0.46999999999999997
sS'YBR130C'
p1582
F0.48999999999999999
sS'YJR021C'
p1583
F1.22
sS'YLR274W'
p1584
F3.0699999999999998
sS'YBR247C'
p1585
F1.9099999999999999
sS'YDL006W'
p1586
F0.91000000000000003
sS'YDR463W'
p1587
F0.80000000000000004
sS'YIL001W'
p1588
F0.26000000000000001
sS'YAL010C'
p1589
F0.85999999999999999
sS'YIL154C'
p1590
F1.29
sS'YER123W'
p1591
F0.5
sS'YHR174W'
p1592
F260.62
sS'YIL101C'
p1593
F0.58999999999999997
sS'YBR165W'
p1594
F0.78000000000000003
sS'YHR097C'
p1595
F2.2999999999999998
sS'YGR170W'
p1596
F0.68000000000000005
sS'YHR075C'
p1597
F0.26000000000000001
sS'YOR282W'
p1598
F0.33000000000000002
sS'YNL142W'
p1599
F0.34000000000000002
sS'YMR250W'
p1600
F2.5099999999999998
sS'YFR031C'
p1601
F0.38
sS'YEL067C'
p1602
F0.25
sS'YHR019C'
p1603
F11.51
sS'YJR129C'
p1604
F1.0800000000000001
sS'YGL203C'
p1605
F0.88
sS'YNL053W'
p1606
F0.94999999999999996
sS'YIL149C'
p1607
F0.59999999999999998
sS'YDR008C'
p1608
F8.5099999999999998
sS'YPL101W'
p1609
F1.25
sS'YGR138C'
p1610
F11.289999999999999
sS'YPL075W'
p1611
F1.72
sS'YLR258W'
p1612
F0.90000000000000002
sS'YBR178W'
p1613
F0.11
sS'YNR015W'
p1614
F1.05
sS'YBR127C'
p1615
F38.93
sS'YOL098C'
p1616
F0.96999999999999997
sS'YOR047C'
p1617
F1.01
sS'YMR253C'
p1618
F0.32000000000000001
sS'YFL024C'
p1619
F0.54000000000000004
sS'YAL061W'
p1620
F0.70999999999999996
sS'YHR176W'
p1621
F0.38
sS'YGL126W'
p1622
F4.3300000000000001
sS'YKL022C'
p1623
F1.4299999999999999
sS'YIL130W'
p1624
F0.94999999999999996
sS'YOR012W'
p1625
F1.6399999999999999
sS'YBL092W'
p1626
F324.77999999999997
sS'YFL053W'
p1627
F0.12
sS'YDR368W'
p1628
F7.5899999999999999
sS'YBR101C'
p1629
F4.6399999999999997
sS'YLR147C'
p1630
F3.7200000000000002
sS'YDL164C'
p1631
F5.2400000000000002
sS'YJR050W'
p1632
F0.56999999999999995
sS'YDR177W'
p1633
F3.6000000000000001
sS'YJR018W'
p1634
F0.13
sS'YDL211C'
p1635
F1.24
sS'YDR375C'
p1636
F0.78000000000000003
sS'YHR062C'
p1637
F2.4900000000000002
sS'YIL014W'
p1638
F0.5
sS'YGL210W'
p1639
F1.52
sS'YNL179C'
p1640
F0.52000000000000002
sS'YPR110C'
p1641
F6
sS'YDR088C'
p1642
F0.60999999999999999
sS'YDR320C'
p1643
F1.3300000000000001
sS'YKL042W'
p1644
F0.38
sS'YLR376C'
p1645
F0.46000000000000002
sS'YLR281C'
p1646
F0.62
sS'YNL066W'
p1647
F9.9399999999999995
sS'YPL112C'
p1648
F2.52
sS'YPL030W'
p1649
F1.1399999999999999
sS'YAL058W'
p1650
F1.02
sS'YDR452W'
p1651
F2.8700000000000001
sS'YLR316C'
p1652
F1.3999999999999999
sS'YKL101W'
p1653
F3.9199999999999999
sS'YFL033C'
p1654
F1.3200000000000001
sS'YKL095W'
p1655
F0.25
sS'YGL225W'
p1656
F28.23
sS'YHR037W'
p1657
F3.3199999999999998
sS'YLR451W'
p1658
F0.42999999999999999
sS'YFR017C'
p1659
F1.3200000000000001
sS'YAR023C'
p1660
F0.77000000000000002
sS'YPL240C'
p1661
F3.8100000000000001
sS'YOL100W'
p1662
F1.1599999999999999
sS'YHR017W'
p1663
F0.63
sS'YBR209W'
p1664
F0.23999999999999999
sS'YOR325W'
p1665
F0.64000000000000001
sS'YDR534C'
p1666
F3.7200000000000002
sS'YMR310C'
p1667
F2.8999999999999999
sS'YLR323C'
p1668
F1.4199999999999999
sS'YOL028C'
p1669
F0.42999999999999999
sS'YNR057C'
p1670
F0.26000000000000001
sS'YDR186C'
p1671
F1.49
sS'YBL038W'
p1672
F2.4300000000000002
sS'YML117W'
p1673
F1.9099999999999999
sS'YGL067W'
p1674
F1.96
sS'YCL010C'
p1675
F1.3700000000000001
sS'YHL042W'
p1676
F0.25
sS'YNL278W'
p1677
F2.3199999999999998
sS'YIR003W'
p1678
F0.98999999999999999
sS'YOR069W'
p1679
F0.81999999999999995
sS'YGR038W'
p1680
F3.0299999999999998
sS'YKR001C'
p1681
F10.42
sS'YER140W'
p1682
F0.56999999999999995
sS'YOR363C'
p1683
F0.26000000000000001
sS'YDR396W'
p1684
F4.8799999999999999
sS'YPR055W'
p1685
F0.56000000000000005
sS'YLR318W'
p1686
F0.25
sS'YBR278W'
p1687
F0.90000000000000002
sS'YFR055W'
p1688
F2.8399999999999999
sS'YHR157W'
p1689
F0.20999999999999999
sS'YOR051C'
p1690
F4.2400000000000002
sS'YOR273C'
p1691
F3.3900000000000001
sS'YGL232W'
p1692
F1.76
sS'YPR091C'
p1693
F1.3200000000000001
sS'YGR141W'
p1694
F0.93000000000000005
sS'YAR030C'
p1695
F0.48999999999999999
sS'YDR474C'
p1696
F0.76000000000000001
sS'YIL030C'
p1697
F1.1599999999999999
sS'YIL116W'
p1698
F3.3700000000000001
sS'YPL238C'
p1699
F47.840000000000003
sS'YGR094W'
p1700
F13.859999999999999
sS'YPR050C'
p1701
F3.6099999999999999
sS'YLR334C'
p1702
F0.13
sS'YDR191W'
p1703
F0.81000000000000005
sS'YJR103W'
p1704
F2.6499999999999999
sS'YML084W'
p1705
F0.12
sS'YHR028C'
p1706
F3.27
sS'YGR156W'
p1707
F0.52000000000000002
sS'YOR381W'
p1708
F0.27000000000000002
sS'YFR048W'
p1709
F2.6899999999999999
sS'YBR287W'
p1710
F6.7699999999999996
sS'YCL024W'
p1711
F0.28999999999999998
sS'YMR307W'
p1712
F47.990000000000002
sS'YPL271W'
p1713
F12.640000000000001
sS'YAL032C'
p1714
F0.96999999999999997
sS'YGL145W'
p1715
F1.3100000000000001
sS'YGL112C'
p1716
F1.49
sS'YHR137W'
p1717
F1.8600000000000001
sS'YNL160W'
p1718
F2.8599999999999999
sS'YNL283C'
p1719
F3.27
sS'YKL021C'
p1720
F1.52
sS'YGL248W'
p1721
F1
sS'YKL197C'
p1722
F0.56999999999999995
sS'YOL006C'
p1723
F0.59999999999999998
sS'YCR003W'
p1724
F0.80000000000000004
sS'YLR132C'
p1725
F0.59999999999999998
sS'YER020W'
p1726
F4.2199999999999998
sS'YML011C'
p1727
F2.1499999999999999
sS'YNL201C'
p1728
F0.92000000000000004
sS'YBR068C'
p1729
F16.289999999999999
sS'YMR210W'
p1730
F1.22
sS'YHR102W'
p1731
F1.2
sS'YGL041C'
p1732
F1.3700000000000001
sS'YER075C'
p1733
F4.25
sS'YJL187C'
p1734
F1.29
sS'YEL008W'
p1735
F0.28999999999999998
sS'YEL015W'
p1736
F0.89000000000000001
sS'YBL103C'
p1737
F1.02
sS'YEL040W'
p1738
F8.9399999999999995
sS'YKR085C'
p1739
F2.5299999999999998
sS'YPR131C'
p1740
F1.71
sS'YPL045W'
p1741
F0.16
sS'YLR418C'
p1742
F2.8700000000000001
sS'YPL085W'
p1743
F0.83999999999999997
sS'YPR013C'
p1744
F0.83999999999999997
sS'YGL177W'
p1745
F0.14999999999999999
sS'YLR063W'
p1746
F0.40999999999999998
sS'YER059W'
p1747
F1
sS'YMR243C'
p1748
F8.0299999999999994
sS'YPL230W'
p1749
F0.23000000000000001
sS'YGL111W'
p1750
F1.4299999999999999
sS'YLR271W'
p1751
F1.4399999999999999
sS'YBR289W'
p1752
F0.78000000000000003
sS'YHR139C'
p1753
F0.22
sS'YOR132W'
p1754
F1.02
sS'YKR093W'
p1755
F9.5299999999999994
sS'YPL048W'
p1756
F6.0800000000000001
sS'YOL066C'
p1757
F0.73999999999999999
sS'YDR126W'
p1758
F0.47999999999999998
sS'YDR263C'
p1759
F0.31
sS'YLR414C'
p1760
F15.74
sS'YKL212W'
p1761
F3.0800000000000001
sS'YJL071W'
p1762
F0.39000000000000001
sS'YGL167C'
p1763
F2.1600000000000001
sS'YHR115C'
p1764
F1.01
sS'YOR223W'
p1765
F0.71999999999999997
sS'YER124C'
p1766
F2.0499999999999998
sS'YPL188W'
p1767
F1.76
sS'YPR188C'
p1768
F7.2400000000000002
sS'YIL053W'
p1769
F42.899999999999999
sS'YDL074C'
p1770
F1.28
sS'YER153C'
p1771
F0.83999999999999997
sS'YJL190C'
p1772
F78.560000000000002
sS'YLR278C'
p1773
F0.75
sS'YGL107C'
p1774
F0.80000000000000004
sS'YOR269W'
p1775
F0.41999999999999998
sS'YPL256C'
p1776
F1.3100000000000001
sS'YDR520C'
p1777
F0.26000000000000001
sS'YDR433W'
p1778
F65.140000000000001
sS'YLL049W'
p1779
F11.300000000000001
sS'YMR221C'
p1780
F2.5299999999999998
sS'YLR366W'
p1781
F0.11
sS'YDL069C'
p1782
F0.58999999999999997
sS'YGR016W'
p1783
F0.44
sS'YEL053C'
p1784
F0.54000000000000004
sS'YMR280C'
p1785
F0.20000000000000001
sS'YPR166C'
p1786
F9.6500000000000004
sS'YJL042W'
p1787
F2.1499999999999999
sS'YER037W'
p1788
F0.94999999999999996
sS'YER057C'
p1789
F18.309999999999999
sS'YCR092C'
p1790
F0.32000000000000001
sS'YMR156C'
p1791
F0.91000000000000003
sS'YDR333C'
p1792
F0.56999999999999995
sS'YJL111W'
p1793
F8.2799999999999994
sS'YCR014C'
p1794
F0.29999999999999999
sS'YIL066C'
p1795
F0.27000000000000002
sS'YGL024W'
p1796
F0.81999999999999995
sS'YKR010C'
p1797
F0.46000000000000002
sS'YGL184C'
p1798
F0.14999999999999999
sS'YLR085C'
p1799
F1.05
sS'YMR058W'
p1800
F13.15
sS'YDR061W'
p1801
F0.46000000000000002
sS'YKR100C'
p1802
F1.0700000000000001
sS'YOR290C'
p1803
F0.29999999999999999
sS'YKL114C'
p1804
F3.5
sS'YBL071C'
p1805
F6.1500000000000004
sS'YML093W'
p1806
F1.0700000000000001
sS'YHR197W'
p1807
F0.51000000000000001
sS'YCR081W'
p1808
F0.26000000000000001
sS'YCL017C'
p1809
F5.9299999999999997
sS'YPR106W'
p1810
F1.73
sS'YOR198C'
p1811
F17.149999999999999
sS'YKL109W'
p1812
F4.0700000000000003
sS'YGR261C'
p1813
F1.74
sS'YKR003W'
p1814
F1.4299999999999999
sS'YDR158W'
p1815
F10.630000000000001
sS'YOR111W'
p1816
F1.7
sS'YMR116C'
p1817
F331.30000000000001
sS'YPL004C'
p1818
F23.829999999999998
sS'YOR164C'
p1819
F8.5600000000000005
sS'YLR107W'
p1820
F0.81999999999999995
sS'YMR073C'
p1821
F0.95999999999999996
sS'YPL082C'
p1822
F2.3700000000000001
sS'YNL144C'
p1823
F0.38
sS'YNL302C'
p1824
F175.09999999999999
sS'YGR283C'
p1825
F3.4300000000000002
sS'YDL052C'
p1826
F4.9500000000000002
sS'YER175C'
p1827
F0.57999999999999996
sS'YKL135C'
p1828
F1.3400000000000001
sS'YIL084C'
p1829
F0.55000000000000004
sS'YLR429W'
p1830
F3.3900000000000001
sS'YDL183C'
p1831
F0.25
sS'YMR218C'
p1832
F0.83999999999999997
sS'YDR050C'
p1833
F183.33000000000001
sS'YGR061C'
p1834
F5.5099999999999998
sS'YLL007C'
p1835
F1.05
sS'YCR032W'
p1836
F2.1099999999999999
sS'YNL312W'
p1837
F7.54
sS'YMR118C'
p1838
F0.52000000000000002
sS'YDR105C'
p1839
F2.77
sS'YLR441C'
p1840
F51.140000000000001
sS'YOR271C'
p1841
F7.5
sS'YBL066C'
p1842
F0.63
sS'YGL120C'
p1843
F8.1500000000000004
sS'YLR145W'
p1844
F1.48
sS'YDR169C'
p1845
F1.0600000000000001
sS'YLR098C'
p1846
F0.34000000000000002
sS'YML033W'
p1847
F1.73
sS'YNL073W'
p1848
F1.8
sS'YMR090W'
p1849
F1.21
sS'YDL134C'
p1850
F5.5599999999999996
sS'YEL071W'
p1851
F5.04
sS'YMR272C'
p1852
F4.5099999999999998
sS'YBR098W'
p1853
F0.58999999999999997
sS'YML062C'
p1854
F0.66000000000000003
sS'YBR033W'
p1855
F0.46000000000000002
sS'YPR108W'
p1856
F6.75
sS'YNL041C'
p1857
F0.77000000000000002
sS'YFL050C'
p1858
F0.38
sS'YDR369C'
p1859
F0.17999999999999999
sS'YKL132C'
p1860
F0.40000000000000002
sS'YBL093C'
p1861
F1.71
sS'YAL062W'
p1862
F0.48999999999999999
sS'YLR453C'
p1863
F0.34000000000000002
sS'YGR162W'
p1864
F9.6099999999999994
sS'YDL165W'
p1865
F9.7400000000000002
sS'YGR227W'
p1866
F1.4199999999999999
sS'YDR258C'
p1867
F1.78
sS'YDR032C'
p1868
F17.899999999999999
sS'YOR076C'
p1869
F0.32000000000000001
sS'YDR179C'
p1870
F1.73
sS'YLR253W'
p1871
F2.71
sS'YKL023W'
p1872
F1.5900000000000001
sS'YPR199C'
p1873
F1.9399999999999999
sS'YJR051W'
p1874
F3.3199999999999998
sS'YKL094W'
p1875
F2.8599999999999999
sS'YNL022C'
p1876
F1.4199999999999999
sS'YDR261C'
p1877
F2.3900000000000001
sS'YIL131C'
p1878
F0.62
sS'YKL143W'
p1879
F1.0800000000000001
sS'YBR146W'
p1880
F1.98
sS'YOR270C'
p1881
F13
sS'YDR318W'
p1882
F1.3200000000000001
sS'YFL034W'
p1883
F0.53000000000000003
sS'YPL031C'
p1884
F4.2800000000000002
sS'YHR061C'
p1885
F0.60999999999999999
sS'YDR453C'
p1886
F0.64000000000000001
sS'YER080W'
p1887
F1.49
sS'YJL164C'
p1888
F1.6499999999999999
sS'YNL125C'
p1889
F1.1799999999999999
sS'YNL065W'
p1890
F0.81000000000000005
sS'YJR019C'
p1891
F0.85999999999999999
sS'YNL030W'
p1892
F118.43000000000001
sS'YJR135C'
p1893
F0.68999999999999995
sS'YDR321W'
p1894
F22.620000000000001
sS'YGL213C'
p1895
F6.3499999999999996
sS'YDR147W'
p1896
F0.70999999999999996
sS'YKL030W'
p1897
F2.8900000000000001
sS'YMR031C'
p1898
F0.62
sS'YBL080C'
p1899
F0.33000000000000002
sS'YGR205W'
p1900
F0.78000000000000003
sS'YDR356W'
p1901
F0.37
sS'YDR167W'
p1902
F3.0800000000000001
sS'YDL083C'
p1903
F116.58
sS'YJL051W'
p1904
F0.51000000000000001
sS'YFL043C'
p1905
F1.22
sS'YJR017C'
p1906
F3.3300000000000001
sS'YPL180W'
p1907
F0.51000000000000001
sS'YHR057C'
p1908
F2.4300000000000002
sS'YCR053W'
p1909
F13.49
sS'YJL106W'
p1910
F0.39000000000000001
sS'YLR217W'
p1911
F1.6200000000000001
sS'YKR032W'
p1912
F0.10000000000000001
sS'YNL027W'
p1913
F1.99
sS'YPL022W'
p1914
F3.25
sS'YDL101C'
p1915
F0.68999999999999995
sS'YDL205C'
p1916
F3.04
sS'YNL084C'
p1917
F7.7800000000000002
sS'YML080W'
p1918
F0.56000000000000005
sS'YNL116W'
p1919
F0.53000000000000003
sS'YHR180W'
p1920
F0.37
sS'YMR027W'
p1921
F3.3900000000000001
sS'YLR291C'
p1922
F3.1000000000000001
sS'YPR140W'
p1923
F0.53000000000000003
sS'YGR048W'
p1924
F2.1499999999999999
sS'YDL230W'
p1925
F2.6899999999999999
sS'YGR115C'
p1926
F0.80000000000000004
sS'YJR113C'
p1927
F2.4900000000000002
sS'YBR279W'
p1928
F1.49
sS'YAR033W'
p1929
F0.84999999999999998
sS'YLR149C'
p1930
F0.27000000000000002
sS'YIL117C'
p1931
F6.2000000000000002
sS'YAL055W'
p1932
F1.1200000000000001
sS'YIR026C'
p1933
F1.8400000000000001
sS'YOR340C'
p1934
F2.5899999999999999
sS'YGR140W'
p1935
F0.5
sS'YJL176C'
p1936
F0.60999999999999999
sS'YLR416C'
p1937
F0.29999999999999999
sS'YOL158C'
p1938
F8.6799999999999997
sS'YFR056C'
p1939
F0.27000000000000002
sS'YHR156C'
p1940
F0.42999999999999999
sS'YBR151W'
p1941
F3.7200000000000002
sS'YCL025C'
p1942
F1.3200000000000001
sS'YNR034W'
p1943
F1.02
sS'YPR006C'
p1944
F3.25
sS'YGR157W'
p1945
F4.29
sS'YDR018C'
p1946
F0.45000000000000001
sS'YNL282W'
p1947
F1.6100000000000001
sS'YBR286W'
p1948
F15.23
sS'YJR045C'
p1949
F9.9499999999999993
sS'YGL144C'
p1950
F0.37
sS'YBR168W'
p1951
F1.03
sS'YDR297W'
p1952
F10.08
sS'YAL031C'
p1953
F0.82999999999999996
sS'YML070W'
p1954
F2.0800000000000001
sS'YLR340W'
p1955
F276.94999999999999
sS'YMR306W'
p1956
F0.28000000000000003
sS'YGR108W'
p1957
F2.1299999999999999
sS'YBR231C'
p1958
F0.63
sS'YBR246W'
p1959
F2.7400000000000002
sS'YPL110C'
p1960
F0.72999999999999998
sS'YPL150W'
p1961
F0.40000000000000002
sS'YOR004W'
p1962
F4.5499999999999998
sS'YCL012W'
p1963
F0.93000000000000005
sS'YDR212W'
p1964
F4.9299999999999997
sS'YBR166C'
p1965
F1.51
sS'YDR462W'
p1966
F4.54
sS'YKL043W'
p1967
F9.6300000000000008
sS'YIL155C'
p1968
F0.92000000000000004
sS'YGR171C'
p1969
F0.48999999999999999
sS'YDL227C'
p1970
F0.38
sS'YPL065W'
p1971
F2.4700000000000002
sS'YAL048C'
p1972
F0.20999999999999999
sS'YJL211C'
p1973
F2.3100000000000001
sS'YAL013W'
p1974
F1.3400000000000001
sS'YPR085C'
p1975
F0.56000000000000005
sS'YLR353W'
p1976
F0.88
sS'YPL009C'
p1977
F1.6899999999999999
sS'YIL148W'
p1978
F117.68000000000001
sS'YGL200C'
p1979
F18.460000000000001
sS'YOR019W'
p1980
F0.46999999999999997
sS'YLR259C'
p1981
F24.539999999999999
sS'YNL052W'
p1982
F10.83
sS'YMR034C'
p1983
F1.25
sS'YFR036W'
p1984
F2.6200000000000001
sS'YPL157W'
p1985
F1.1699999999999999
sS'YKL005C'
p1986
F0.73999999999999999
sS'YBR120C'
p1987
F1.01
sS'YOR179C'
p1988
F1.1499999999999999
sS'YKL215C'
p1989
F0.67000000000000004
sS'YGL166W'
p1990
F1.97
sS'YCR066W'
p1991
F0.84999999999999998
sS'YKL178C'
p1992
F4.7199999999999998
sS'YEL023C'
p1993
F0.23000000000000001
sS'YMR241W'
p1994
F16.870000000000001
sS'YOL067C'
p1995
F1.04
sS'YGL079W'
p1996
F3.0299999999999998
sS'YDR127W'
p1997
F2.6499999999999999
sS'YNL279W'
p1998
F0.90000000000000002
sS'YBR288C'
p1999
F3.4900000000000002
sS'YOR220W'
p2000
F14.619999999999999
sS'YJR067C'
p2001
F1.8300000000000001
sS'YOR259C'
p2002
F2.29
sS'YGR197C'
p2003
F1.02
sS'YPR158W'
p2004
F1.4099999999999999
sS'YIL099W'
p2005
F0.16
sS'YLL024C'
p2006
F158.11000000000001
sS'YDR434W'
p2007
F2.8599999999999999
sS'YMR129W'
p2008
F0.63
sS'YOL027C'
p2009
F2.48
sS'YPL277C'
p2010
F0.32000000000000001
sS'YOR211C'
p2011
F0.93000000000000005
sS'YDR033W'
p2012
F23.73
sS'YPL120W'
p2013
F0.39000000000000001
sS'YIL075C'
p2014
F10.6
sS'YOL145C'
p2015
F0.96999999999999997
sS'YOR134W'
p2016
F0.35999999999999999
sS'YGL226W'
p2017
F1.54
sS'YIL019W'
p2018
F1.71
sS'YJL099W'
p2019
F0.34000000000000002
sS'YGL188C'
p2020
F13.15
sS'YIL020C'
p2021
F2.96
sS'YLR177W'
p2022
F0.82999999999999996
sS'YOR353C'
p2023
F0.17999999999999999
sS'YNR074C'
p2024
F2.3399999999999999
sS'YOR099W'
p2025
F6.5199999999999996
sS'YOR014W'
p2026
F1.55
sS'YPR154W'
p2027
F5.3399999999999999
sS'YHL025W'
p2028
F4.04
sS'YOL029C'
p2029
F0.97999999999999998
sS'YIL097W'
p2030
F0.45000000000000001
sS'YFR010W'
p2031
F2.2599999999999998
sS'YHL009C'
p2032
F1.8899999999999999
sS'YHL021C'
p2033
F2.7799999999999998
sS'YJL109C'
p2034
F1.79
sS'YDR537C'
p2035
F1.5
sS'YML118W'
p2036
F0.28000000000000003
sS'YHR205W'
p2037
F1.3
sS'YGR037C'
p2038
F39.960000000000001
sS'YDR187C'
p2039
F6.8799999999999999
sS'YOR236W'
p2040
F3.8399999999999999
sS'YOL121C'
p2041
F142.49000000000001
sS'YBL039C'
p2042
F11.1
sS'YGR188C'
p2043
F0.16
sS'YOR067C'
p2044
F2.1499999999999999
sS'YNR058W'
p2045
F0.40000000000000002
sS'YER143W'
p2046
F1.46
sS'YNL045W'
p2047
F1.9199999999999999
sS'YHL046C'
p2048
F0.14999999999999999
sS'YPR082C'
p2049
F1.3799999999999999
sS'YGL064C'
p2050
F0.41999999999999998
sS'YOR030W'
p2051
F0.98999999999999999
sS'YGR284C'
p2052
F3.3999999999999999
sS'YDL053C'
p2053
F3.3799999999999999
sS'YNR063W'
p2054
F0.29999999999999999
sS'YIL071C'
p2055
F0.34000000000000002
sS'YGL033W'
p2056
F0.25
sS'YPL218W'
p2057
F20.170000000000002
sS'YCR031C'
p2058
F327.70999999999998
sS'YNL286W'
p2059
F0.56999999999999995
sS'YMR119W'
p2060
F2.5899999999999999
sS'YPR069C'
p2061
F16.449999999999999
sS'YLL006W'
p2062
F1.9299999999999999
sS'YMR215W'
p2063
F7.8700000000000001
sS'YDR051C'
p2064
F1.3700000000000001
sS'YGR062C'
p2065
F1.25
sS'YER010C'
p2066
F1.6599999999999999
sS'YER176W'
p2067
F1.75
sS'YPL279C'
p2068
F1.4099999999999999
sS'YML003W'
p2069
F0.20999999999999999
sS'YDL180W'
p2070
F0.52000000000000002
sS'YGL127C'
p2071
F2.0099999999999998
sS'YLR336C'
p2072
F1.01
sS'YKL220C'
p2073
F0.14999999999999999
sS'YDL232W'
p2074
F9.7400000000000002
sS'YNL117W'
p2075
F0.20999999999999999
sS'YJL019W'
p2076
F0.80000000000000004
sS'YDL022W'
p2077
F4.1600000000000001
sS'YPR021C'
p2078
F2.52
sS'YGR244C'
p2079
F3.23
sS'YOR286W'
p2080
F7.0700000000000003
sS'YMR271C'
p2081
F0.27000000000000002
sS'YDR496C'
p2082
F2.5600000000000001
sS'YLR099C'
p2083
F3.25
sS'YOR149C'
p2084
F1.53
sS'YOR074C'
p2085
F1.03
sS'YBL065W'
p2086
F0.17999999999999999
sS'YML032C'
p2087
F0.84999999999999998
sS'YLR146C'
p2088
F1.3500000000000001
sS'YDR240C'
p2089
F0.65000000000000002
sS'YGR059W'
p2090
F0.17000000000000001
sS'YHR135C'
p2091
F3.0099999999999998
sS'YDR429C'
p2092
F19.41
sS'YHR079C'
p2093
F0.34999999999999998
sS'YGL249W'
p2094
F0.29999999999999999
sS'YER118C'
p2095
F1.8200000000000001
sS'YML010W'
p2096
F0.70999999999999996
sS'YDL193W'
p2097
F3.8799999999999999
sS'YCR102C'
p2098
F0.91000000000000003
sS'YER021W'
p2099
F4.4500000000000002
sS'YMR208W'
p2100
F2.2599999999999998
sS'YER134C'
p2101
F2.3599999999999999
sS'YEL052W'
p2102
F2.7000000000000002
sS'YMR162C'
p2103
F1.5
sS'YMR055C'
p2104
F0.67000000000000004
sS'YEL009C'
p2105
F41.439999999999998
sS'YER161C'
p2106
F1.74
sS'YBR083W'
p2107
F1.1200000000000001
sS'YHR103W'
p2108
F1.79
sS'YKR106W'
p2109
F0.51000000000000001
sS'YOR001W'
p2110
F2.8500000000000001
sS'YNL047C'
p2111
F0.82999999999999996
sS'YDR498C'
p2112
F0.96999999999999997
sS'YFL013C'
p2113
F0.64000000000000001
sS'YPL099C'
p2114
F1.5900000000000001
sS'YGR002C'
p2115
F1.8200000000000001
sS'YEL041W'
p2116
F0.089999999999999997
sS'YER129W'
p2117
F0.60999999999999999
sS'YLR349W'
p2118
F1.8500000000000001
sS'YDR111C'
p2119
F1.01
sS'YLR062C'
p2120
F107.11
sS'YGR253C'
p2121
F13.41
sS'YDR510W'
p2122
F13.44
sS'YKR082W'
p2123
F1.6799999999999999
sS'YLR228C'
p2124
F0.72999999999999998
sS'YEL014C'
p2125
F0.20000000000000001
sS'YDR467C'
p2126
F0.75
sS'YBR023C'
p2127
F1.8300000000000001
sS'YPR045C'
p2128
F1.97
sS'YER058W'
p2129
F2.2000000000000002
sS'YPL231W'
p2130
F3.75
sS'YLR148W'
p2131
F0.97999999999999998
sS'YDR164C'
p2132
F0.70999999999999996
sS'YDL082W'
p2133
F34.170000000000002
sS'YKL155C'
p2134
F1.1499999999999999
sS'YPL133C'
p2135
F0.53000000000000003
sS'YJR069C'
p2136
F4.5999999999999996
sS'YKL033W'
p2137
F0.98999999999999999
sS'YDR119W'
p2138
F1.5600000000000001
sS'YNL226W'
p2139
F0.46999999999999997
sS'YKR055W'
p2140
F1.47
sS'YFL042C'
p2141
F0.84999999999999998
sS'YDR351W'
p2142
F0.52000000000000002
sS'YJL107C'
p2143
F0.93999999999999995
sS'YBL083C'
p2144
F5.2699999999999996
sS'YMR188C'
p2145
F1.47
sS'YDR148C'
p2146
F6.4900000000000002
sS'YJR034W'
p2147
F0.71999999999999997
sS'YLR121C'
p2148
F12.109999999999999
sS'YLR210W'
p2149
F0.56999999999999995
sS'YDR490C'
p2150
F0.12
sS'YPL096W'
p2151
F1.1000000000000001
sS'YDL204W'
p2152
F0.34000000000000002
sS'YDL106C'
p2153
F0.66000000000000003
sS'YIL042C'
p2154
F0.60999999999999999
sS'YDR335W'
p2155
F0.41999999999999998
sS'YKR061W'
p2156
F0.97999999999999998
sS'YJL067W'
p2157
F1.23
sS'YNR070W'
p2158
F0.29999999999999999
sS'YDR446W'
p2159
F0.17999999999999999
sS'YHR081W'
p2160
F2.6000000000000001
sS'YGR206W'
p2161
F5.3300000000000001
sS'YGL189C'
p2162
F162.49000000000001
sS'YML081W'
p2163
F0.77000000000000002
sS'YHR181W'
p2164
F10.02
sS'YNL320W'
p2165
F1.3899999999999999
sS'YDR443C'
p2166
F0.48999999999999999
sS'YDR211W'
p2167
F1.51
sS'YCR095C'
p2168
F0.77000000000000002
sS'YMR128W'
p2169
F0.5
sS'YDR265W'
p2170
F0.98999999999999999
sS'YCR077C'
p2171
F3.2200000000000002
sS'YML130C'
p2172
F2.5499999999999998
sS'YJL029C'
p2173
F4.0099999999999998
sS'YER056C'
p2174
F13.35
sS'YGL130W'
p2175
F1.8
sS'YMR157C'
p2176
F1.8200000000000001
sS'YJL033W'
p2177
F1.29
sS'YER036C'
p2178
F19.859999999999999
sS'YLR417W'
p2179
F0.82999999999999996
sS'YNL306W'
p2180
F11.369999999999999
sS'YML075C'
p2181
F3.6200000000000001
sS'YCR017C'
p2182
F1.3700000000000001
sS'YDR237W'
p2183
F2
sS'YDR060W'
p2184
F4.6900000000000004
sS'YMR080C'
p2185
F0.56999999999999995
sS'YGL187C'
p2186
F6.5599999999999996
sS'YJL023C'
p2187
F0.70999999999999996
sS'YBR001C'
p2188
F1.53
sS'YNL246W'
p2189
F6.6799999999999997
sS'YPL003W'
p2190
F0.40999999999999998
sS'YGL025C'
p2191
F0.67000000000000004
sS'YHR196W'
p2192
F2.79
sS'YHR040W'
p2193
F0.66000000000000003
sS'YMR048W'
p2194
F0.98999999999999999
sS'YDR277C'
p2195
F1.3899999999999999
sS'YJR094C'
p2196
F0.60999999999999999
sS'YNL113W'
p2197
F6.2400000000000002
sS'YML025C'
p2198
F1.6299999999999999
sS'YDL124W'
p2199
F14.890000000000001
sS'YPR107C'
p2200
F0.69999999999999996
sS'YJR074W'
p2201
F2.98
sS'YNL291C'
p2202
F0.70999999999999996
sS'YGR266W'
p2203
F1.0800000000000001
sS'YIR028W'
p2204
F0.46000000000000002
sS'YJL167W'
p2205
F16.43
sS'YPL076W'
p2206
F0.97999999999999998
sS'YAL012W'
p2207
F17.670000000000002
sS'YHR163W'
p2208
F15.94
sS'YGR176W'
p2209
F1.74
sS'YJR134C'
p2210
F0.72999999999999998
sS'YKL011C'
p2211
F0.37
sS'YOR243C'
p2212
F1.46
sS'YBR167C'
p2213
F1.8799999999999999
sS'YIL156W'
p2214
F0.71999999999999997
sS'YMR276W'
p2215
F16.629999999999999
sS'YBR241C'
p2216
F0.56999999999999995
sS'YML002W'
p2217
F0.17000000000000001
sS'YPL196W'
p2218
F1.6899999999999999
sS'YHR100C'
p2219
F3.1299999999999999
sS'YLL011W'
p2220
F1.5
sS'YDL226C'
p2221
F3.9300000000000002
sS'YNR017W'
p2222
F8.3699999999999992
sS'YNL168C'
p2223
F4.46
sS'YFR037C'
p2224
F4.7300000000000004
sS'YCL039W'
p2225
F0.78000000000000003
sS'YAL049C'
p2226
F7.0800000000000001
sS'YJL212C'
p2227
F2.21
sS'YGR136W'
p2228
F6.1699999999999999
sS'YNL097C'
p2229
F0.52000000000000002
sS'YOR008C'
p2230
F2.6400000000000001
sS'YOR153W'
p2231
F12.32
sS'YIL056W'
p2232
F7.8700000000000001
sS'YMR124W'
p2233
F0.95999999999999996
sS'YGL047W'
p2234
F2.3900000000000001
sS'YKL084W'
p2235
F2.1699999999999999
sS'YDR099W'
p2236
F11.119999999999999
sS'YBR121C'
p2237
F8.7400000000000002
sS'YDL146W'
p2238
F0.69999999999999996
sS'YKL133C'
p2239
F0.53000000000000003
sS'YJR052W'
p2240
F0.73999999999999999
sS'YKL188C'
p2241
F0.17000000000000001
sS'YMR062C'
p2242
F1.1000000000000001
sS'YMR015C'
p2243
F1.8600000000000001
sS'YMR161W'
p2244
F1.54
sS'YKL020C'
p2245
F2.9700000000000002
sS'YNL218W'
p2246
F0.37
sS'YFL051C'
p2247
F0.11
sS'YHR170W'
p2248
F5.0099999999999998
sS'YJL125C'
p2249
F1.73
sS'YOR380W'
p2250
F0.32000000000000001
sS'YBL090W'
p2251
F4.75
sS'YDR259C'
p2252
F0.94999999999999996
sS'YHR049W'
p2253
F18.18
sS'YKL068W'
p2254
F1.05
sS'YOR032C'
p2255
F1.04
sS'YKL093W'
p2256
F0.93999999999999995
sS'YOR027W'
p2257
F19.460000000000001
sS'YDL166C'
p2258
F10.06
sS'YPL114W'
p2259
F1.1599999999999999
sS'YNR039C'
p2260
F4.4000000000000004
sS'YKL142W'
p2261
F14.369999999999999
sS'YBR147W'
p2262
F0.34000000000000002
sS'YGL212W'
p2263
F1.01
sS'YNL031C'
p2264
F65.469999999999999
sS'YNL122C'
p2265
F3.7400000000000002
sS'YER081W'
p2266
F1.01
sS'YIL136W'
p2267
F1.1599999999999999
sS'YLR374C'
p2268
F0.5
sS'YHL010C'
p2269
F0.44
sS'YKL019W'
p2270
F2.2599999999999998
sS'YPR041W'
p2271
F5.46
sS'YGR233C'
p2272
F2.7200000000000002
sS'YDR322W'
p2273
F1.26
sS'YNL008C'
p2274
F0.70999999999999996
sS'YDR004W'
p2275
F0.56999999999999995
sS'YIL096C'
p2276
F1.0900000000000001
sS'YOL046C'
p2277
F0.41999999999999998
sS'YFR011C'
p2278
F3.2000000000000002
sS'YIL074C'
p2279
F2.7200000000000002
sS'YMR312W'
p2280
F2.8100000000000001
sS'YPL121C'
p2281
F0.089999999999999997
sS'YHL008C'
p2282
F1.55
sS'YIL021W'
p2283
F3.2400000000000002
sS'YHR039C'
p2284
F5.2699999999999996
sS'YER131W'
p2285
F152.05000000000001
sS'YGL178W'
p2286
F1.05
sS'YNL249C'
p2287
F1.4299999999999999
sS'YER142C'
p2288
F0.53000000000000003
sS'YML119W'
p2289
F1.0900000000000001
sS'YBL012C'
p2290
F0.25
sS'YBR070C'
p2291
F2.3100000000000001
sS'YPL176C'
p2292
F0.80000000000000004
sS'YDR536W'
p2293
F0.27000000000000002
sS'YLR084C'
p2294
F0.60999999999999999
sS'YGL065C'
p2295
F3.6800000000000002
sS'YKR087C'
p2296
F2.0099999999999998
sS'YDR180W'
p2297
F0.32000000000000001
sS'YOR052C'
p2298
F7.0599999999999996
sS'YHR099W'
p2299
F0.79000000000000004
sS'YLR243W'
p2300
F1.6100000000000001
sS'YAL001C'
p2301
F1.47
sS'YIR005W'
p2302
F0.5
sS'YAL054C'
p2303
F0.28000000000000003
sS'YOL051W'
p2304
F0.71999999999999997
sS'YMR135C'
p2305
F0.47999999999999998
sS'YFR057W'
p2306
F0.27000000000000002
sS'YHR155W'
p2307
F0.25
sS'YDR476C'
p2308
F5.04
sS'YOL102C'
p2309
F3.1400000000000001
sS'YDL231C'
p2310
F0.41999999999999998
sS'YBR225W'
p2311
F0.81000000000000005
sS'YIL110W'
p2312
F1.4399999999999999
sS'YMR086W'
p2313
F1.49
sS'YOR343C'
p2314
F1.9099999999999999
sS'YCL058C'
p2315
F7.8899999999999997
sS'YIL158W'
p2316
F2.1200000000000001
sS'YJR054W'
p2317
F1.0900000000000001
sS'YJR083C'
p2318
F3.73
sS'YGR066C'
p2319
F0.14000000000000001
sS'YLR378C'
p2320
F59.600000000000001
sS'YAL030W'
p2321
F7.2999999999999998
sS'YGL147C'
p2322
F98.439999999999998
sS'YBR263W'
p2323
F12.23
sS'YOL086C'
p2324
F305.86000000000001
sS'YBL001C'
p2325
F5.4900000000000002
sS'YBR185C'
p2326
F0.87
sS'YDR019C'
p2327
F4.4400000000000004
sS'YBR150C'
p2328
F0.40000000000000002
sS'YGR150C'
p2329
F0.67000000000000004
sS'YLR341W'
p2330
F0.25
sS'YPR174C'
p2331
F0.94999999999999996
sS'YIR042C'
p2332
F0.89000000000000001
sS'YLR438W'
p2333
F5.4199999999999999
sS'YGR058W'
p2334
F1.54
sS'YPR193C'
p2335
F0.20999999999999999
sS'YMR196W'
p2336
F0.31
sS'YKR105C'
p2337
F0.26000000000000001
sS'YNL207W'
p2338
F1.55
sS'YDR499W'
p2339
F1.7
sS'YLR029C'
p2340
F129.88999999999999
sS'YBR082C'
p2341
F10.289999999999999
sS'YOR210W'
p2342
F14.1
sS'YER135C'
p2343
F0.13
sS'YBL034C'
p2344
F0.32000000000000001
sS'YCR101C'
p2345
F0.20999999999999999
sS'YOL008W'
p2346
F2.3799999999999999
sS'YER077C'
p2347
F0.47999999999999998
sS'YLR031W'
p2348
F0.46999999999999997
sS'YCR054C'
p2349
F0.88
sS'YHR092C'
p2350
F2.6499999999999999
sS'YPL232W'
p2351
F10.029999999999999
sS'YKR083C'
p2352
F0.93999999999999995
sS'YMR209C'
p2353
F2.6899999999999999
sS'YEL017W'
p2354
F1.47
sS'YGR252W'
p2355
F1.6899999999999999
sS'YDL003W'
p2356
F0.85999999999999999
sS'YER128W'
p2357
F0.45000000000000001
sS'YMR013C'
p2358
F0.95999999999999996
sS'YGR003W'
p2359
F0.76000000000000001
sS'YDR517W'
p2360
F2.8599999999999999
sS'YGL043W'
p2361
F1.3799999999999999
sS'YOR256C'
p2362
F2.4399999999999999
sS'YPR011C'
p2363
F2.02
sS'YOR059C'
p2364
F0.53000000000000003
sS'YDR110W'
p2365
F0.45000000000000001
sS'YLR061W'
p2366
F104.93000000000001
sS'YDR419W'
p2367
F0.62
sS'YOR361C'
p2368
F5.5800000000000001
sS'YGL113W'
p2369
F0.46000000000000002
sS'YKR095W'
p2370
F0.62
sS'YMR223W'
p2371
F1.3400000000000001
sS'YPL214C'
p2372
F1.8799999999999999
sS'YGR029W'
p2373
F2.0699999999999998
sS'YDL199C'
p2374
F0.26000000000000001
sS'YGL165C'
p2375
F2.4300000000000002
sS'YOR334W'
p2376
F0.46000000000000002
sS'YLR193C'
p2377
F1.72
sS'YBL023C'
p2378
F2.2400000000000002
sS'YML067C'
p2379
F6.7300000000000004
sS'YGL078C'
p2380
F2.1099999999999999
sS'YOR041C'
p2381
F2.4100000000000001
sS'YDR435C'
p2382
F3.4900000000000002
sS'YOL024W'
p2383
F0.23000000000000001
sS'YLR005W'
p2384
F0.83999999999999997
sS'YOR253W'
p2385
F5.3700000000000001
sS'YDR124W'
p2386
F0.28000000000000003
sS'YNL267W'
p2387
F0.58999999999999997
sS'YHL006C'
p2388
F1.3799999999999999
sS'YGR198W'
p2389
F1.3500000000000001
sS'YKL189W'
p2390
F0.41999999999999998
sS'YAR007C'
p2391
F2.2599999999999998
sS'YPL254W'
p2392
F0.57999999999999996
sS'YGR010W'
p2393
F1.3400000000000001
sS'YML064C'
p2394
F3.46
sS'YEL020C'
p2395
F0.56999999999999995
sS'YER055C'
p2396
F25.140000000000001
sS'YNL307C'
p2397
F14.33
sS'YFL063W'
p2398
F0.88
sS'YCR016W'
p2399
F1.4099999999999999
sS'YLL012W'
p2400
F0.56999999999999995
sS'YCR076C'
p2401
F1.1499999999999999
sS'YDR067C'
p2402
F0.89000000000000001
sS'YIL166C'
p2403
F0.28999999999999998
sS'YMR056C'
p2404
F0.82999999999999996
sS'YHR167W'
p2405
F0.44
sS'YLR087C'
p2406
F0.68000000000000005
sS'YJL044C'
p2407
F2.1800000000000002
sS'YJL028W'
p2408
F0.070000000000000007
sS'YMR154C'
p2409
F0.78000000000000003
sS'YCR094W'
p2410
F2.0299999999999998
sS'YMR036C'
p2411
F0.55000000000000004
sS'YDR234W'
p2412
F7.4299999999999997
sS'YGL085W'
p2413
F0.40999999999999998
sS'YER039C'
p2414
F0.39000000000000001
sS'YGL131C'
p2415
F0.78000000000000003
sS'YGR218W'
p2416
F3.1699999999999999
sS'YEL060C'
p2417
F9.7100000000000009
sS'YPL145C'
p2418
F10.1
sS'YPR179C'
p2419
F0.37
sS'YGR267C'
p2420
F8.1300000000000008
sS'YDL149W'
p2421
F0.16
sS'YBL073W'
p2422
F0.13
sS'YML026C'
p2423
F188.25
sS'YPL002C'
p2424
F0.58999999999999997
sS'YGL022W'
p2425
F5.7400000000000002
sS'YML079W'
p2426
F2.6699999999999999
sS'YJL153C'
p2427
F0.39000000000000001
sS'YMR049C'
p2428
F3.4199999999999999
sS'YDR229W'
p2429
F1.02
sS'YJR075W'
p2430
F6.04
sS'YPR124W'
p2431
F8.8399999999999999
sS'YJL213W'
p2432
F1.3500000000000001
sS'YLL029W'
p2433
F1.54
sS'YNL151C'
p2434
F1.73
sS'YPR068C'
p2435
F0.52000000000000002
sS'YOR102W'
p2436
F6.6500000000000004
sS'YPR190C'
p2437
F0.63
sS'YER017C'
p2438
F2.6000000000000001
sS'YBR022W'
p2439
F1.78
sS'YMR214W'
p2440
F2.1400000000000001
sS'YBR079C'
p2441
F5.0899999999999999
sS'YNR066C'
p2442
F0.40999999999999998
sS'YKR063C'
p2443
F0.53000000000000003
sS'YDR500C'
p2444
F137.97
sS'YGR063C'
p2445
F20.91
sS'YMR176W'
p2446
F0.34999999999999998
sS'YCL063W'
p2447
F0.91000000000000003
sS'YER048C'
p2448
F3.0499999999999998
sS'YEL019C'
p2449
F0.32000000000000001
sS'YML048W'
p2450
F14.02
sS'YBR064W'
p2451
F0.57999999999999996
sS'YLR027C'
p2452
F9.6400000000000006
sS'YDR107C'
p2453
F1.02
sS'YLL005C'
p2454
F0.62
sS'YDL132W'
p2455
F0.97999999999999998
sS'YEL077C'
p2456
F0.46000000000000002
sS'YBL064C'
p2457
F6.8099999999999996
sS'YGR245C'
p2458
F2.0299999999999998
sS'YOR350C'
p2459
F0.22
sS'YNL009W'
p2460
F0.22
sS'YPL119C'
p2461
F0.19
sS'YKL221W'
p2462
F0.23000000000000001
sS'YPL243W'
p2463
F1.1100000000000001
sS'YDR497C'
p2464
F11.08
sS'YDL025C'
p2465
F0.19
sS'YGR229C'
p2466
F4.5800000000000001
sS'YMR270C'
p2467
F2.1200000000000001
sS'YNR043W'
p2468
F10.800000000000001
sS'YDL147W'
p2469
F2.73
sS'YPR065W'
p2470
F2.4900000000000002
sS'YFL029C'
p2471
F0.90000000000000002
sS'YBL091C'
p2472
F2.6699999999999999
sS'YOR262W'
p2473
F1.6499999999999999
sS'YMR063W'
p2474
F0.69999999999999996
sS'YIR002C'
p2475
F0.53000000000000003
sS'YKL012W'
p2476
F1.76
sS'YDL167C'
p2477
F0.87
sS'YER082C'
p2478
F3.3999999999999999
sS'YIL137C'
p2479
F1.0700000000000001
sS'YKL069W'
p2480
F1.23
sS'YHR173C'
p2481
F0.91000000000000003
sS'YMR003W'
p2482
F0.83999999999999997
sS'YDR372C'
p2483
F2.9700000000000002
sS'YBR119W'
p2484
F0.56000000000000005
sS'YEL056W'
p2485
F1.4299999999999999
sS'YLR373C'
p2486
F0.91000000000000003
sS'YKL092C'
p2487
F0.22
sS'YDR451C'
p2488
F1.04
sS'YJL162C'
p2489
F0.17000000000000001
sS'YLR260W'
p2490
F1.7
sS'YDR085C'
p2491
F0.88
sS'YNL032W'
p2492
F2.8199999999999998
sS'YPR109W'
p2493
F1.73
sS'YKL152C'
p2494
F147.02000000000001
sS'YDR522C'
p2495
F0.26000000000000001
sS'YDR350C'
p2496
F1.02
sS'YJL100W'
p2497
F1.26
sS'YKR054C'
p2498
F0.28999999999999998
sS'YMR001C'
p2499
F1.48
sS'YJL006C'
p2500
F0.83999999999999997
sS'YPR074C'
p2501
F22.120000000000001
sS'YIR034C'
p2502
F3.3199999999999998
sS'YDR165W'
p2503
F4.2300000000000004
sS'YGL013C'
p2504
F0.78000000000000003
sS'YLR191W'
p2505
F1.3100000000000001
sS'YFL018C'
p2506
F10.18
sS'YJR068W'
p2507
F2.98
sS'YJL139C'
p2508
F0.67000000000000004
sS'YGR207C'
p2509
F1.9199999999999999
sS'YER095W'
p2510
F2.9399999999999999
sS'YLR456W'
p2511
F0.60999999999999999
sS'YMR084W'
p2512
F0.51000000000000001
sS'YHR080C'
p2513
F0.47999999999999998
sS'YML086C'
p2514
F2.6000000000000001
sS'YKR030W'
p2515
F7.5300000000000002
sS'YDL207W'
p2516
F2.27
sS'YPL027W'
p2517
F0.040000000000000001
sS'YDR442W'
p2518
F1.54
sS'YLR211C'
p2519
F0.28999999999999998
sS'YLR375W'
p2520
F8.1799999999999997
sS'YPR142C'
p2521
F0.16
sS'YDR514C'
p2522
F0.66000000000000003
sS'YJL066C'
p2523
F0.89000000000000001
sS'YLR054C'
p2524
F1.24
sS'YNR029C'
p2525
F1.6699999999999999
sS'YGR091W'
p2526
F0.89000000000000001
sS'YBR122C'
p2527
F3.29
sS'YHR001W'
p2528
F1.6399999999999999
sS'YDR477W'
p2529
F3.27
sS'YOR042W'
p2530
F2.48
sS'YLR242C'
p2531
F1.22
sS'YMR088C'
p2532
F1.71
sS'YJR148W'
p2533
F18.02
sS'YBR253W'
p2534
F1.8400000000000001
sS'YFR029W'
p2535
F1.4399999999999999
sS'YBR224W'
p2536
F0.12
sS'YIL035C'
p2537
F2.1499999999999999
sS'YIL111W'
p2538
F2.6099999999999999
sS'YIL159W'
p2539
F0.5
sS'YPL142C'
p2540
F119.38
sS'YBR153W'
p2541
F0.81000000000000005
sS'YJR082C'
p2542
F3.0899999999999999
sS'YLR346C'
p2543
F1.24
sS'YNL134C'
p2544
F6.21
sS'YAL037W'
p2545
F0.19
sS'YJL084C'
p2546
F0.97999999999999998
sS'YHR154W'
p2547
F0.57999999999999996
sS'YOL007C'
p2548
F2.4100000000000001
sS'YGL146C'
p2549
F0.17999999999999999
sS'YDR291W'
p2550
F0.75
sS'YCR051W'
p2551
F13.23
sS'YBR262C'
p2552
F2.9700000000000002
sS'YMR304W'
p2553
F0.42999999999999999
sS'YKL010C'
p2554
F0.41999999999999998
sS'YPL255W'
p2555
F0.59999999999999998
sS'YMR289W'
p2556
F1.5800000000000001
sS'YOL012C'
p2557
F12.390000000000001
sS'YPL168W'
p2558
F2.5299999999999998
sS'YOR128C'
p2559
F2.3399999999999999
sS'YAL015C'
p2560
F0.71999999999999997
sS'YGR177C'
p2561
F1.52
sS'YDL209C'
p2562
F0.88
sS'YIR019C'
p2563
F0.16
sS'YPL077C'
p2564
F0.40999999999999998
sS'YMR239C'
p2565
F0.78000000000000003
sS'YIL157C'
p2566
F2.4199999999999999
sS'YLR273C'
p2567
F0.26000000000000001
sS'YIL051C'
p2568
F74.620000000000005
sS'YPL057C'
p2569
F5.4100000000000001
sS'YPL262W'
p2570
F3.27
sS'YNR010W'
p2571
F1.71
sS'YDR365C'
p2572
F1.52
sS'YPL151C'
p2573
F0.91000000000000003
sS'YKL007W'
p2574
F4.2000000000000002
sS'YLR308W'
p2575
F0.17000000000000001
sS'YIR020C'
p2576
F0.35999999999999999
sS'YFR034C'
p2577
F2.9300000000000002
sS'YGL206C'
p2578
F2.52
sS'YGL091C'
p2579
F1.8600000000000001
sS'YHR070W'
p2580
F1.23
sS'YDR460W'
p2581
F1.1499999999999999
sS'YLR460C'
p2582
F1.99
sS'YLR364W'
p2583
F2.6099999999999999
sS'YPR087W'
p2584
F5.1200000000000001
sS'YKL085W'
p2585
F10.890000000000001
sS'YJR124C'
p2586
F3.3300000000000001
sS'YHL047C'
p2587
F1.21
sS'YOR360C'
p2588
F1.6399999999999999
sS'YOR335C'
p2589
F3.1499999999999999
sS'YHL018W'
p2590
F0.72999999999999998
sS'YGL129C'
p2591
F2.6299999999999999
sS'YLL026W'
p2592
F4.5700000000000003
sS'YHR023W'
p2593
F0.45000000000000001
sS'YOL065C'
p2594
F1.0600000000000001
sS'YGL251C'
p2595
F0.53000000000000003
sS'YKL217W'
p2596
F0.23000000000000001
sS'YBL022C'
p2597
F0.98999999999999999
sS'YGL164C'
p2598
F0.62
sS'YER156C'
p2599
F7.6900000000000004
sS'YDR125C'
p2600
F1.76
sS'YGR013W'
p2601
F0.64000000000000001
sS'YJR037W'
p2602
F0.17999999999999999
sS'YML103C'
p2603
F1.0900000000000001
sS'YEL038W'
p2604
F5.5199999999999996
sS'YCL014W'
p2605
F0.17000000000000001
sS'YJL016W'
p2606
F0.93999999999999995
sS'YGL172W'
p2607
F3.6800000000000002
sS'YGL108C'
p2608
F1.26
sS'YDR421W'
p2609
F0.93999999999999995
sS'YPL040C'
p2610
F0.22
sS'YKL151C'
p2611
F2.0899999999999999
sS'YNL266W'
p2612
F1.6399999999999999
sS'YDR388W'
p2613
F3.79
sS'YMR028W'
p2614
F0.41999999999999998
sS'YLR004C'
p2615
F0.33000000000000002
sS'YLR306W'
p2616
F1.4099999999999999
sS'YFR012W'
p2617
F0.34999999999999998
sS'YNL280C'
p2618
F6.1500000000000004
sS'YPR201W'
p2619
F0.27000000000000002
sS'YIL160C'
p2620
F0.32000000000000001
sS'YOR284W'
p2621
F0.54000000000000004
sS'YGL220W'
p2622
F19.539999999999999
sS'YPL211W'
p2623
F10.32
sS'YPR089W'
p2624
F0.82999999999999996
sS'YBR233W'
p2625
F2.02
sS'YPL122C'
p2626
F1.5700000000000001
sS'YOL047C'
p2627
F0.48999999999999999
sS'YGR082W'
p2628
F6.79
sS'YMR291W'
p2629
F1.0700000000000001
sS'YKL113C'
p2630
F6.3499999999999996
sS'YKL104C'
p2631
F2.8900000000000001
sS'YHR012W'
p2632
F3.0699999999999998
sS'YIL022W'
p2633
F1.75
sS'YPL189W'
p2634
F0.23000000000000001
sS'YNL248C'
p2635
F7.1500000000000004
sS'YHL011C'
p2636
F5.2300000000000004
sS'YLR285W'
p2637
F12.390000000000001
sS'YGR119C'
p2638
F1.98
sS'YGR131W'
p2639
F0.28999999999999998
sS'YOR088W'
p2640
F1.3700000000000001
sS'YLR326W'
p2641
F1.1100000000000001
sS'YGL179C'
p2642
F1.04
sS'YBR275C'
p2643
F0.52000000000000002
sS'YDR539W'
p2644
F0.92000000000000004
sS'YPL208W'
p2645
F0.94999999999999996
sS'YBR025C'
p2646
F25.239999999999998
sS'YMR177W'
p2647
F0.40999999999999998
sS'YDL186W'
p2648
F0.40999999999999998
sS'YER016W'
p2649
F1.6499999999999999
sS'YOR292C'
p2650
F2.2799999999999998
sS'YGR064W'
p2651
F19.289999999999999
sS'YOL147C'
p2652
F4.1699999999999999
sS'YGR286C'
p2653
F1.51
sS'YOR100C'
p2654
F0.26000000000000001
sS'YCR037C'
p2655
F1.28
sS'YMR044W'
p2656
F0.48999999999999999
sS'YJL103C'
p2657
F0.29999999999999999
sS'YOR239W'
p2658
F8.9399999999999995
sS'YMR039C'
p2659
F4.9199999999999999
sS'YER170W'
p2660
F1.3899999999999999
sS'YPR031W'
p2661
F0.39000000000000001
sS'YKL222C'
p2662
F0.28000000000000003
sS'YNL158W'
p2663
F1.46
sS'YLR026C'
p2664
F0.69999999999999996
sS'YKR086W'
p2665
F0.90000000000000002
sS'YKR051W'
p2666
F0.68000000000000005
sS'YDL131W'
p2667
F17.77
sS'YMR277W'
p2668
F2.96
sS'YPL242C'
p2669
F0.84999999999999998
sS'YMR095C'
p2670
F0.28999999999999998
sS'YKR036C'
p2671
F0.5
sS'YOL092W'
p2672
F3.5299999999999998
sS'YCR068W'
p2673
F0.40999999999999998
sS'YLL004W'
p2674
F0.45000000000000001
sS'YER049W'
p2675
F2.0899999999999999
sS'YGL125W'
p2676
F1.1499999999999999
sS'YML009C'
p2677
F4.8899999999999997
sS'YPR172W'
p2678
F2.8799999999999999
sS'YKR104W'
p2679
F0.38
sS'YDL033C'
p2680
F0.65000000000000002
sS'YGL068W'
p2681
F9.6699999999999999
sS'YNR072W'
p2682
F0.25
sS'YER136W'
p2683
F3.73
sS'YGL247W'
p2684
F1.29
sS'YER116C'
p2685
F1.8500000000000001
sS'YML012W'
p2686
F14.210000000000001
sS'YOL009C'
p2687
F0.71999999999999997
sS'YCR100C'
p2688
F0.26000000000000001
sS'YML050W'
p2689
F0.22
sS'YPR057W'
p2690
F0.96999999999999997
sS'YBL035C'
p2691
F0.35999999999999999
sS'YPL010W'
p2692
F5.0099999999999998
sS'YCL073C'
p2693
F0.050000000000000003
sS'YLL059C'
p2694
F0.32000000000000001
sS'YMR197C'
p2695
F4.1299999999999999
sS'YAR071W'
p2696
F5.9500000000000002
sS'YLR060W'
p2697
F9.2899999999999991
sS'YDR516C'
p2698
F2.3500000000000001
sS'YER076C'
p2699
F2.0299999999999998
sS'YOR255W'
p2700
F0.11
sS'YOR063W'
p2701
F142.43000000000001
sS'YGR251W'
p2702
F1.27
sS'YLL060C'
p2703
F2.5099999999999998
sS'YPR047W'
p2704
F0.53000000000000003
sS'YML091C'
p2705
F0.40000000000000002
sS'YBR049C'
p2706
F1.45
sS'YDR044W'
p2707
F3.3700000000000001
sS'YOR188W'
p2708
F0.46999999999999997
sS'YKR080W'
p2709
F2.6600000000000001
sS'YEL016C'
p2710
F1.02
sS'YDL002C'
p2711
F1.28
sS'YPR148C'
p2712
F1.4299999999999999
sS'YDR354W'
p2713
F1.4299999999999999
sS'YJR032W'
p2714
F1.3799999999999999
sS'YGR224W'
p2715
F0.28999999999999998
sS'YDR071C'
p2716
F7.04
sS'YDR162C'
p2717
F2.0600000000000001
sS'YGL012W'
p2718
F7.6399999999999997
sS'YPL066W'
p2719
F2.0099999999999998
sS'YOR093C'
p2720
F0.27000000000000002
sS'YOL057W'
p2721
F2.3399999999999999
sS'YJL101C'
p2722
F2.5099999999999998
sS'YBL069W'
p2723
F1.5
sS'YKL153W'
p2724
F297.08999999999997
sS'YDR353W'
p2725
F21.859999999999999
sS'YMR139W'
p2726
F0.96999999999999997
sS'YJL001W'
p2727
F10.039999999999999
sS'YDL080C'
p2728
F0.71999999999999997
sS'YJL049W'
p2729
F0.52000000000000002
sS'YHR183W'
p2730
F20.68
sS'YDR017C'
p2731
F1.3100000000000001
sS'YCR099C'
p2732
F0.33000000000000002
sS'YDR213W'
p2733
F1.0800000000000001
sS'YML085C'
p2734
F14.300000000000001
sS'YOL080C'
p2735
F2.6800000000000002
sS'YPR167C'
p2736
F0.59999999999999998
sS'YML087C'
p2737
F0.46999999999999997
sS'YHR060W'
p2738
F2.0800000000000001
sS'YBR010W'
p2739
F37.810000000000002
sS'YER094C'
p2740
F18.73
sS'YML069W'
p2741
F2.0299999999999998
sS'YOR369C'
p2742
F244.65000000000001
sS'YDL104C'
p2743
F1.0900000000000001
sS'YGR208W'
p2744
F2.3999999999999999
sS'YNL024C'
p2745
F0.93999999999999995
sS'YPL044C'
p2746
F1.49
sS'YKL119C'
p2747
F5.9199999999999999
sS'YLR212C'
p2748
F2.3399999999999999
sS'YHR042W'
p2749
F10.94
sS'YPR078C'
p2750
F0.69999999999999996
sS'YCR075C'
p2751
F1.02
sS'YER101C'
p2752
F0.71999999999999997
sS'YMR155W'
p2753
F1.29
sS'YDR171W'
p2754
F3.3500000000000001
sS'YLR086W'
p2755
F1.1599999999999999
sS'YGR105W'
p2756
F29.420000000000002
sS'YDR066C'
p2757
F0.53000000000000003
sS'YCR020C'
p2758
F0.76000000000000001
sS'YER054C'
p2759
F0.40999999999999998
sS'YGL132W'
p2760
F0.58999999999999997
sS'YKR015C'
p2761
F0.40999999999999998
sS'YLR151C'
p2762
F0.80000000000000004
sS'YOR025W'
p2763
F0.83999999999999997
sS'YML030W'
p2764
F2.1699999999999999
sS'YCL051W'
p2765
F0.57999999999999996
sS'YML065W'
p2766
F0.32000000000000001
sS'YOR190W'
p2767
F0.27000000000000002
sS'YOL133W'
p2768
F6.9800000000000004
sS'YOR127W'
p2769
F0.79000000000000004
sS'YER001W'
p2770
F1.3500000000000001
sS'YDR235W'
p2771
F1.5800000000000001
sS'YER038C'
p2772
F0.63
sS'YBL074C'
p2773
F0.26000000000000001
sS'YDR275W'
p2774
F0.68000000000000005
sS'YBL058W'
p2775
F3.8599999999999999
sS'YEL061C'
p2776
F0.34999999999999998
sS'YBR007C'
p2777
F0.28999999999999998
sS'YLR175W'
p2778
F30.73
sS'YDL126C'
p2779
F21.149999999999999
sS'YML128C'
p2780
F0.47999999999999998
sS'YHR194W'
p2781
F0.39000000000000001
sS'YOR295W'
p2782
F0.56000000000000005
sS'YGR264C'
p2783
F10.039999999999999
sS'YNL110C'
p2784
F4.8399999999999999
sS'YML078W'
p2785
F7.3499999999999996
sS'YNL319W'
p2786
F0.17000000000000001
sS'YPR178W'
p2787
F0.28999999999999998
sS'YDL208W'
p2788
F29.050000000000001
sS'YIR018W'
p2789
F0.64000000000000001
sS'YPL105C'
p2790
F2.1000000000000001
sS'YOR055W'
p2791
F0.66000000000000003
sS'YKL046C'
p2792
F5.1699999999999999
sS'YBR145W'
p2793
F0.79000000000000004
sS'YDR339C'
p2794
F6.3700000000000001
sS'YAL014C'
p2795
F3.3100000000000001
sS'YMR019W'
p2796
F0.34999999999999998
sS'YFL037W'
p2797
F10.19
sS'YIL027C'
p2798
F9.9299999999999997
sS'YPL169C'
p2799
F1.4399999999999999
sS'YHR161C'
p2800
F0.96999999999999997
sS'YBR243C'
p2801
F3.7200000000000002
sS'YNL199C'
p2802
F0.67000000000000004
sS'YDR366C'
p2803
F0.22
sS'YJL152W'
p2804
F19.32
sS'YLR225C'
p2805
F5.0300000000000002
sS'YGL207W'
p2806
F3.8799999999999999
sS'YGL090W'
p2807
F0.56999999999999995
sS'YPL058C'
p2808
F1.78
sS'YLR454W'
p2809
F0.45000000000000001
sS'YGR134W'
p2810
F0.73999999999999999
sS'YPL100W'
p2811
F0.77000000000000002
sS'YNL182C'
p2812
F0.87
sS'YGL070C'
p2813
F2.6099999999999999
sS'YGR097W'
p2814
F0.80000000000000004
sS'YHR071W'
p2815
F3.77
sS'YGR169C'
p2816
F0.42999999999999999
sS'YLR309C'
p2817
F1.27
sS'YLR365W'
p2818
F0.42999999999999999
sS'YPR086W'
p2819
F2.7599999999999998
sS'YKL086W'
p2820
F1.5700000000000001
sS'YMR186W'
p2821
F77.469999999999999
sS'YIL068C'
p2822
F0.41999999999999998
sS'YMR060C'
p2823
F0.94999999999999996
sS'YDR153C'
p2824
F4.04
sS'YJL065C'
p2825
F3.1000000000000001
sS'YPL127C'
p2826
F8.6699999999999999
sS'YBL096C'
p2827
F0.57999999999999996
sS'YFL057C'
p2828
F1.8700000000000001
sS'YJR003C'
p2829
F0.93000000000000005
sS'YKL026C'
p2830
F0.82999999999999996
sS'YDL144C'
p2831
F3.6299999999999999
sS'YFL028C'
p2832
F1.78
sS'YJR078W'
p2833
F0.52000000000000002
sS'YBR105C'
p2834
F1.3799999999999999
sS'YMR016C'
p2835
F2.4199999999999999
sS'YKR020W'
p2836
F1.6799999999999999
sS'YMR053C'
p2837
F0.44
sS'YDR371W'
p2838
F0.55000000000000004
sS'YDR456W'
p2839
F4.5800000000000001
sS'YKL066W'
p2840
F0.28999999999999998
sS'YNL062C'
p2841
F1.5600000000000001
sS'YPL116W'
p2842
F1.52
sS'YHR050W'
p2843
F8.6300000000000008
sS'YOR066W'
p2844
F0.59999999999999998
sS'YDR324C'
p2845
F0.87
sS'YLR389C'
p2846
F2.75
sS'YJL072C'
p2847
F1.3799999999999999
sS'YHR172W'
p2848
F0.22
sS'YOR112W'
p2849
F0.44
sS'YDR262W'
p2850
F4.6699999999999999
sS'YIL134W'
p2851
F0.5
sS'YJL163C'
p2852
F0.40999999999999998
sS'YNL175C'
p2853
F5.4800000000000004
sS'YKL091C'
p2854
F1.0900000000000001
sS'YDR084C'
p2855
F3.9100000000000001
sS'YDR401W'
p2856
F0.16
sS'YIL163C'
p2857
F1.0600000000000001
sS'YLR307W'
p2858
F0.13
sS'YOR356W'
p2859
F0.88
sS'YNL195C'
p2860
F0.16
sS'YBR261C'
p2861
F4.1100000000000003
sS'YAR027W'
p2862
F3.1000000000000001
sS'YNL326C'
p2863
F1.1100000000000001
sS'YHR013C'
p2864
F3.8999999999999999
sS'YGR083C'
p2865
F2.52
sS'YGR072W'
p2866
F0.83999999999999997
sS'YCL035C'
p2867
F23.440000000000001
sS'YHL026C'
p2868
F0.76000000000000001
sS'YNR073C'
p2869
F0.28999999999999998
sS'YHR144C'
p2870
F1.1899999999999999
sS'YIL072W'
p2871
F0.26000000000000001
sS'YGR034W'
p2872
F140.38
sS'YBR229C'
p2873
F2.9700000000000002
sS'YMR100W'
p2874
F0.40000000000000002
sS'YDR190C'
p2875
F6.4800000000000004
sS'YNL290W'
p2876
F6.7800000000000002
sS'YBL010C'
p2877
F0.33000000000000002
sS'YGL152C'
p2878
F1.21
sS'YJR100C'
p2879
F0.44
sS'YMR314W'
p2880
F8.4100000000000001
sS'YKR017C'
p2881
F0.57999999999999996
sS'YAL021C'
p2882
F1.5600000000000001
sS'YNL247W'
p2883
F6.0599999999999996
sS'YHR140W'
p2884
F0.33000000000000002
sS'YDR538W'
p2885
F1.46
sS'YOR316C'
p2886
F1.1599999999999999
sS'YCL011C'
p2887
F6.5800000000000001
sS'YBR298C'
p2888
F1.02
sS'YOR121C'
p2889
F1.54
sS'YBR123C'
p2890
F1.1699999999999999
sS'YIL112W'
p2891
F0.69999999999999996
sS'YPL118W'
p2892
F2.1200000000000001
sS'YML049C'
p2893
F0.88
sS'YLR241W'
p2894
F3.5800000000000001
sS'YGR090W'
p2895
F1.0900000000000001
sS'YDL233W'
p2896
F1.3799999999999999
sS'YFR028C'
p2897
F1.8
sS'YNR047W'
p2898
F2.2000000000000002
sS'YOL104C'
p2899
F0.23000000000000001
sS'YNR028W'
p2900
F2.0800000000000001
sS'YDR470C'
p2901
F1.0900000000000001
sS'YAL056W'
p2902
F0.91000000000000003
sS'YBR250W'
p2903
F0.20999999999999999
sS'YIL043C'
p2904
F12.98
sS'YHR153C'
p2905
F0.28000000000000003
sS'YDR438W'
p2906
F0.71999999999999997
sS'YGL141W'
p2907
F0.75
sS'YKR089C'
p2908
F0.75
sS'YJL087C'
p2909
F0.41999999999999998
sS'YLR347C'
p2910
F2.96
sS'YDR292C'
p2911
F0.83999999999999997
sS'YJR107W'
p2912
F0.89000000000000001
sS'YNL157W'
p2913
F6.3099999999999996
sS'YKR072C'
p2914
F1.74
sS'YBR218C'
p2915
F5.3700000000000001
sS'YAL036C'
p2916
F8.3000000000000007
sS'YCL028W'
p2917
F5.54
sS'YML120C'
p2918
F1.23
sS'YHR106W'
p2919
F1.8400000000000001
sS'YLR172C'
p2920
F4.6299999999999999
sS'YHR126C'
p2921
F0.10000000000000001
sS'YNL164C'
p2922
F0.93999999999999995
sS'YHR208W'
p2923
F10.81
sS'YNL211C'
p2924
F1.4299999999999999
sS'YDL065C'
p2925
F1.96
sS'YEL057C'
p2926
F0.47999999999999998
sS'YDL156W'
p2927
F0.48999999999999999
sS'YPR170C'
p2928
F0.41999999999999998
sS'YMR167W'
p2929
F1.2
sS'YBL036C'
p2930
F3.6600000000000001
sS'YMR320W'
p2931
F0.81999999999999995
sS'YBR080C'
p2932
F3
sS'YPR191W'
p2933
F4.6299999999999999
sS'YER137C'
p2934
F0.75
sS'YNR033W'
p2935
F0.91000000000000003
sS'YGL069C'
p2936
F10.17
sS'YDL049C'
p2937
F0.5
sS'YNL272C'
p2938
F0.92000000000000004
sS'YBR048W'
p2939
F93.530000000000001
sS'YNL205C'
p2940
F0.17000000000000001
sS'YKL218C'
p2941
F0.85999999999999999
sS'YEL011W'
p2942
F0.96999999999999997
sS'YDL001W'
p2943
F0.46000000000000002
sS'YBR039W'
p2944
F8.2200000000000006
sS'YLR067C'
p2945
F0.31
sS'YDR391C'
p2946
F1.79
sS'YJL183W'
p2947
F3.6400000000000001
sS'YLL063C'
p2948
F0.37
sS'YKL128C'
p2949
F4.9699999999999998
sS'YGR250C'
p2950
F0.56000000000000005
sS'YDR515W'
p2951
F1.4099999999999999
sS'YEL028W'
p2952
F0.46999999999999997
sS'YOR254C'
p2953
F3.4900000000000002
sS'YOR201C'
p2954
F1.0900000000000001
sS'YOR276W'
p2955
F10.48
sS'YMR309C'
p2956
F3.5099999999999998
sS'YGL250W'
p2957
F1.6699999999999999
sS'YOR089C'
p2958
F6.1299999999999999
sS'YMR023C'
p2959
F0.29999999999999999
sS'YHR022C'
p2960
F0.83999999999999997
sS'YOL031C'
p2961
F1.49
sS'YHR119W'
p2962
F0.65000000000000002
sS'YHL019C'
p2963
F1.3999999999999999
sS'YHR076W'
p2964
F0.57999999999999996
sS'YLR166C'
p2965
F0.82999999999999996
sS'YGL163C'
p2966
F0.62
sS'YIR035C'
p2967
F5.5
sS'YKL216W'
p2968
F4.9199999999999999
sS'YDR417C'
p2969
F111.37
sS'YML021C'
p2970
F1.49
sS'YGR012W'
p2971
F1.01
sS'YBL021C'
p2972
F1.96
sS'YHL004W'
p2973
F3.5299999999999998
sS'YLL045C'
p2974
F83.010000000000005
sS'YNL098C'
p2975
F5.5899999999999999
sS'YLR139C'
p2976
F0.77000000000000002
sS'YKR097W'
p2977
F0.11
sS'YML102W'
p2978
F0.91000000000000003
sS'YPL154C'
p2979
F15.710000000000001
sS'YMR115W'
p2980
F1.48
sS'YOL022C'
p2981
F3.27
sS'YCR090C'
p2982
F2.29
sS'YEL037C'
p2983
F13.970000000000001
sS'YDR437W'
p2984
F0.64000000000000001
sS'YMR054W'
p2985
F2.5899999999999999
sS'YDR065W'
p2986
F1.6200000000000001
sS'YDL027C'
p2987
F0.55000000000000004
sS'YER053C'
p2988
F1.04
sS'YNL305C'
p2989
F5.3799999999999999
sS'YJR121W'
p2990
F64.640000000000001
sS'YLL014W'
p2991
F5.2599999999999998
sS'YCL050C'
p2992
F33.140000000000001
sS'YML066C'
p2993
F0.58999999999999997
sS'YCR021C'
p2994
F3.1200000000000001
sS'YDR049W'
p2995
F0.28000000000000003
sS'YJL148W'
p2996
F15.25
sS'YPL153C'
p2997
F0.26000000000000001
sS'YER100W'
p2998
F3.7400000000000002
sS'YKR078W'
p2999
F0.28000000000000003
sS'YPR079W'
p3000
F0.41999999999999998
sS'YOR191W'
p3001
F0.44
sS'YIL057C'
p3002
F0.22
sS'YER002W'
p3003
F4.0899999999999999
sS'YDR170C'
p3004
F0.77000000000000002
sS'YDL127W'
p3005
F0.48999999999999999
sS'YBL075C'
p3006
F0.55000000000000004
sS'YDR272W'
p3007
F2.6000000000000001
sS'YJR117W'
p3008
F4.5499999999999998
sS'YHR048W'
p3009
F0.60999999999999999
sS'YNL318C'
p3010
F0.11
sS'YML020W'
p3011
F0.96999999999999997
sS'YGL020C'
p3012
F6.1200000000000001
sS'YGL133W'
p3013
F0.57999999999999996
sS'YEL062W'
p3014
F0.22
sS'YMR261C'
p3015
F3.7999999999999998
sS'YHR202W'
p3016
F0.28999999999999998
sS'YPR064W'
p3017
F0.22
sS'YJL039C'
p3018
F1.05
sS'YBR006W'
p3019
F1.02
sS'YOR336W'
p3020
F0.60999999999999999
sS'YOR038C'
p3021
F0.64000000000000001
sS'YLR187W'
p3022
F0.5
sS'YNL212W'
p3023
F28.109999999999999
sS'YDR387C'
p3024
F1.0600000000000001
sS'YDR038C'
p3025
F0.78000000000000003
sS'YGR287C'
p3026
F0.20999999999999999
sS'YER015W'
p3027
F0.26000000000000001
sS'YMR216C'
p3028
F4.2400000000000002
sS'YMR170C'
p3029
F0.85999999999999999
sS'YCL061C'
p3030
F1.01
sS'YDR439W'
p3031
F0.65000000000000002
sS'YBR024W'
p3032
F0.77000000000000002
sS'YOL044W'
p3033
F0.78000000000000003
sS'YDR502C'
p3034
F6.3399999999999999
sS'YGR065C'
p3035
F0.71999999999999997
sS'YER062C'
p3036
F16.57
sS'YLR125W'
p3037
F0.68999999999999995
sS'YDL047W'
p3038
F2.1000000000000001
sS'YDR101C'
p3039
F7.29
sS'YPR026W'
p3040
F0.10000000000000001
sS'YML046W'
p3041
F0.78000000000000003
sS'YGL124C'
p3042
F0.62
sS'YOR146W'
p3043
F17.469999999999999
sS'YLR070C'
p3044
F0.28999999999999998
sS'YLL031C'
p3045
F1.1000000000000001
sS'YMR149W'
p3046
F5.3499999999999996
sS'YLR025W'
p3047
F3.6699999999999999
sS'YCR069W'
p3048
F4.54
sS'YOL030W'
p3049
F7.79
sS'YPL245W'
p3050
F3.3100000000000001
sS'YMR094W'
p3051
F0.12
sS'YLR138W'
p3052
F1.1299999999999999
sS'YJL013C'
p3053
F0.34999999999999998
sS'YJL173C'
p3054
F12.65
sS'YPL068C'
p3055
F1.24
sS'YPR169W'
p3056
F4.21
sS'YHR199C'
p3057
F3.7799999999999998
sS'YDR152W'
p3058
F4.25
sS'YDL090C'
p3059
F0.75
sS'YFL054C'
p3060
F0.59999999999999998
sS'YMR061W'
p3061
F0.88
sS'YJL128C'
p3062
F0.55000000000000004
sS'YJR002W'
p3063
F2.79
sS'YDL145C'
p3064
F7.4800000000000004
sS'YBL097W'
p3065
F0.059999999999999998
sS'YIL076W'
p3066
F0.48999999999999999
sS'YNL061W'
p3067
F2.5699999999999998
sS'YKR021W'
p3068
F0.70999999999999996
sS'YDR398W'
p3069
F2.5299999999999998
sS'YHR209W'
p3070
F2.4399999999999999
sS'YNL018C'
p3071
F0.29999999999999999
sS'YDR457W'
p3072
F1.1000000000000001
sS'YLR386W'
p3073
F0.58999999999999997
sS'YIL135C'
p3074
F0.56000000000000005
sS'YNL174W'
p3075
F9.9900000000000002
sS'YLR185W'
p3076
F120.13
sS'YKL090W'
p3077
F0.27000000000000002
sS'YDL169C'
p3078
F0.34000000000000002
sS'YDR370C'
p3079
F1
sS'YLR262C'
p3080
F1.8999999999999999
sS'YOR207C'
p3081
F2.1699999999999999
sS'YNL121C'
p3082
F3.3500000000000001
sS'YDR087C'
p3083
F4.2800000000000002
sS'YMR294W'
p3084
F0.53000000000000003
sS'YER084W'
p3085
F0.12
sS'YBR081C'
p3086
F0.23000000000000001
sS'YPL138C'
p3087
F0.84999999999999998
sS'YKL141W'
p3088
F9.9800000000000004
sS'YDR072C'
p3089
F2.8999999999999999
sS'YER044C'
p3090
F7.3899999999999997
sS'YMR072W'
p3091
F13.31
sS'YLR248W'
p3092
F2.3100000000000001
sS'YOR283W'
p3093
F5.5099999999999998
sS'YJL102W'
p3094
F0.59999999999999998
sS'YKL105C'
p3095
F0.55000000000000004
sS'YNL043C'
p3096
F18.550000000000001
sS'YMR160W'
p3097
F0.23999999999999999
sS'YKL075C'
p3098
F0.38
sS'YNL181W'
p3099
F3.3900000000000001
sS'YBL068W'
p3100
F8.25
sS'YGL011C'
p3101
F8.6400000000000006
sS'YNR019W'
p3102
F2
sS'YDR352W'
p3103
F1.02
sS'YKL129C'
p3104
F0.5
sS'YDR163W'
p3105
F1.29
sS'YML051W'
p3106
F1.6799999999999999
sS'YDR238C'
p3107
F2.6600000000000001
sS'YHR184W'
p3108
F0.10000000000000001
sS'YDL105W'
p3109
F0.45000000000000001
sS'YCR098C'
p3110
F0.42999999999999999
sS'YPL026C'
p3111
F1.4299999999999999
sS'YHR082C'
p3112
F1.02
sS'YPL091W'
p3113
F5.25
sS'YML068W'
p3114
F0.71999999999999997
sS'YPL017C'
p3115
F0.34000000000000002
sS'YPR168W'
p3116
F0.91000000000000003
sS'YJL048C'
p3117
F0.78000000000000003
sS'YPR113W'
p3118
F7.1799999999999997
sS'YJR150C'
p3119
F0.31
sS'YNL085W'
p3120
F1.7
sS'YMR290C'
p3121
F11.59
sS'YKL041W'
p3122
F1.21
sS'YIL113W'
p3123
F0.68000000000000005
sS'YJL110C'
p3124
F0.80000000000000004
sS'YIR008C'
p3125
F1.6499999999999999
sS'YLR240W'
p3126
F1.1799999999999999
sS'YGR093W'
p3127
F1.0900000000000001
sS'YDR471W'
p3128
F56.899999999999999
sS'YPL217C'
p3129
F3.1099999999999999
sS'YKL144C'
p3130
F1.8700000000000001
sS'YGL219C'
p3131
F1.4199999999999999
sS'YOR040W'
p3132
F0.92000000000000004
sS'YGL096W'
p3133
F0.62
sS'YAL051W'
p3134
F0.73999999999999999
sS'YDR036C'
p3135
F3.1099999999999999
sS'YHR114W'
p3136
F0.78000000000000003
sS'YAL019W'
p3137
F2.1699999999999999
sS'YLR344W'
p3138
F118.14
sS'YNL206C'
p3139
F1.3300000000000001
sS'YLR449W'
p3140
F6.5700000000000003
sS'YNL136W'
p3141
F1.25
sS'YKL049C'
p3142
F1.0800000000000001
sS'YDR293C'
p3143
F3.4100000000000001
sS'YBR155W'
p3144
F4.6799999999999997
sS'YBL002W'
p3145
F33.240000000000002
sS'YNR038W'
p3146
F3.4100000000000001
sS'YBR219C'
p3147
F1.8100000000000001
sS'YDR479C'
p3148
F0.28999999999999998
sS'YCL029C'
p3149
F0.88
sS'YHR152W'
p3150
F1.4099999999999999
sS'YBR188C'
p3151
F1.6000000000000001
sS'YNL316C'
p3152
F0.67000000000000004
sS'YPR189W'
p3153
F1.21
sS'YLR239C'
p3154
F1.1399999999999999
sS'YKL147C'
p3155
F0.17000000000000001
sS'YGR028W'
p3156
F1.1699999999999999
sS'YAL017W'
p3157
F0.37
sS'YJR024C'
p3158
F7.2199999999999998
sS'YFL038C'
p3159
F9.9800000000000004
sS'YBR242W'
p3160
F1.53
sS'YNL029C'
p3161
F0.47999999999999998
sS'YBR142W'
p3162
F1.1399999999999999
sS'YOR231W'
p3163
F1.29
sS'YIL037C'
p3164
F0.23000000000000001
sS'YNR013C'
p3165
F5.6200000000000001
sS'YHR166C'
p3166
F0.40000000000000002
sS'YGR175C'
p3167
F6.8799999999999999
sS'YJR131W'
p3168
F2.3700000000000001
sS'YIR017C'
p3169
F0.28999999999999998
sS'YDR338C'
p3170
F0.47999999999999998
sS'YIL128W'
p3171
F0.35999999999999999
sS'YKL187C'
p3172
F0.53000000000000003
sS'YBR108W'
p3173
F0.93999999999999995
sS'YNR012W'
p3174
F0.93000000000000005
sS'YGL097W'
p3175
F3.3599999999999999
sS'YJL151C'
p3176
F22.289999999999999
sS'YLR224W'
p3177
F4.04
sS'YKL087C'
p3178
F1.1899999999999999
sS'YNL076W'
p3179
F0.84999999999999998
sS'YHR072W'
p3180
F1.9399999999999999
sS'YGR168C'
p3181
F1.71
sS'YBR173C'
p3182
F7.9699999999999998
sS'YIL064W'
p3183
F6.5800000000000001
sS'YOR261C'
p3184
F5.4199999999999999
sS'YHR045W'
p3185
F1.6499999999999999
sS'YHR021C'
p3186
F214.81
sS'YGL253W'
p3187
F60.670000000000002
sS'YPR004C'
p3188
F2.71
sS'YHL032C'
p3189
F1.46
sS'YJL010C'
p3190
F1.1799999999999999
sS'YGL162W'
p3191
F0.90000000000000002
sS'YOL152W'
p3192
F1.79
sS'YGR187C'
p3193
F2.9500000000000002
sS'YMR183C'
p3194
F5.1900000000000004
sS'YOL059W'
p3195
F4.2800000000000002
sS'YDR414C'
p3196
F2.98
sS'YNL259C'
p3197
F10.49
sS'YOR337W'
p3198
F0.29999999999999999
sS'YMR010W'
p3199
F0.96999999999999997
sS'YLL044W'
p3200
F94.75
sS'YOR097C'
p3201
F1.2
sS'YOL132W'
p3202
F1.9399999999999999
sS'YPR094W'
p3203
F2.1400000000000001
sS'YJL143W'
p3204
F13.609999999999999
sS'YNL099C'
p3205
F3.2999999999999998
sS'YGL059W'
p3206
F0.48999999999999999
sS'YMR074C'
p3207
F20.18
sS'YKR092C'
p3208
F6.6399999999999997
sS'YPL253C'
p3209
F0.22
sS'YBL020W'
p3210
F1.5600000000000001
sS'YNL120C'
p3211
F0.75
sS'YHL003C'
p3212
F20.84
sS'YER154W'
p3213
F3
sS'YDR390C'
p3214
F1.79
sS'YHR010W'
p3215
F227.05000000000001
sS'YDR400W'
p3216
F3.0899999999999999
sS'YJR104C'
p3217
F93.079999999999998
sS'YLL048C'
p3218
F4.5300000000000002
sS'YFR043C'
p3219
F1.1000000000000001
sS'YAL042W'
p3220
F6.9500000000000002
sS'YHR204W'
p3221
F0.98999999999999999
sS'YAL035W'
p3222
F4.2199999999999998
sS'YOL041C'
p3223
F2.2799999999999998
sS'YGR153W'
p3224
F0.34999999999999998
sS'YFR038W'
p3225
F0.32000000000000001
sS'YBR235W'
p3226
F2.1400000000000001
sS'YIL162W'
p3227
F1.1599999999999999
sS'YOR206W'
p3228
F7.7199999999999998
sS'YGR080W'
p3229
F1.0800000000000001
sS'YOR037W'
p3230
F0.62
sS'YBL011W'
p3231
F6.6900000000000004
sS'YBR195C'
p3232
F0.89000000000000001
sS'YDR183W'
p3233
F1.21
sS'YIL039W'
p3234
F4.8300000000000001
sS'YDR138W'
p3235
F0.92000000000000004
sS'YHR129C'
p3236
F0.91000000000000003
sS'YBR299W'
p3237
F0.28000000000000003
sS'YGR033C'
p3238
F24.440000000000001
sS'YAL022C'
p3239
F2.2599999999999998
sS'YJR144W'
p3240
F4.0099999999999998
sS'YOL078W'
p3241
F0.39000000000000001
sS'YBR228W'
p3242
F0.63
sS'YGL153W'
p3243
F0.88
sS'YKL036C'
p3244
F0.14999999999999999
sS'YGR046W'
p3245
F1.1799999999999999
sS'YDR384C'
p3246
F8.8399999999999999
sS'YML007W'
p3247
F2.6200000000000001
sS'YJL206C'
p3248
F0.52000000000000002
sS'YDR481C'
p3249
F7.5300000000000002
sS'YER014W'
p3250
F0.46999999999999997
sS'YBR027C'
p3251
F0.27000000000000002
sS'YIL085C'
p3252
F1.79
sS'YMR171C'
p3253
F3.3700000000000001
sS'YGL057C'
p3254
F0.93000000000000005
sS'YER172C'
p3255
F2.6200000000000001
sS'YCR042C'
p3256
F1.48
sS'YNL213C'
p3257
F0.72999999999999998
sS'YCR035C'
p3258
F2.54
sS'YLR105C'
p3259
F0.87
sS'YOR244W'
p3260
F1.3999999999999999
sS'YDL046W'
p3261
F27.960000000000001
sS'YLR162W'
p3262
F0.17000000000000001
sS'YDR503C'
p3263
F1.3700000000000001
sS'YGL037C'
p3264
F16.579999999999998
sS'YBR058C'
p3265
F2.3300000000000001
sS'YPL244C'
p3266
F3.9399999999999999
sS'YDR102C'
p3267
F0.12
sS'YLR071C'
p3268
F0.53000000000000003
sS'YGR240C'
p3269
F23.719999999999999
sS'YEL058W'
p3270
F3.7200000000000002
sS'YMR259C'
p3271
F0.41999999999999998
sS'YKL024C'
p3272
F4.46
sS'YBR061C'
p3273
F1.6499999999999999
sS'YHL007C'
p3274
F0.90000000000000002
sS'YOR145C'
p3275
F6.54
sS'YPL043W'
p3276
F1.3200000000000001
sS'YER181C'
p3277
F0.080000000000000002
sS'YMR121C'
p3278
F2.3500000000000001
sS'YPR025C'
p3279
F0.68000000000000005
sS'YML047C'
p3280
F1.3999999999999999
sS'YCL019W'
p3281
F0.58999999999999997
sS'YBR297W'
p3282
F0.31
sS'YBR087W'
p3283
F1.3400000000000001
sS'YLR006C'
p3284
F1.05
sS'YDR330W'
p3285
F1.0600000000000001
sS'YER149C'
p3286
F0.57999999999999996
sS'YOR375C'
p3287
F17
sS'YPR146C'
p3288
F1.02
sS'YOR215C'
p3289
F1.9299999999999999
sS'YHR107C'
p3290
F3.1600000000000001
sS'YAR002W'
p3291
F1.95
sS'YHR127W'
p3292
F2.6699999999999999
sS'YGL175C'
p3293
F0.44
sS'YMR237W'
p3294
F9.25
sS'YDL064W'
p3295
F4.4800000000000004
sS'YDL031W'
p3296
F4.6100000000000003
sS'YMR257C'
p3297
F0.14999999999999999
sS'YDR026C'
p3298
F1.22
sS'YAR073W'
p3299
F0.78000000000000003
sS'YLR066W'
p3300
F6.9500000000000002
sS'YBR047W'
p3301
F0.32000000000000001
sS'YDR046C'
p3302
F3.3900000000000001
sS'YEL029C'
p3303
F1.1499999999999999
sS'YMR228W'
p3304
F1.4199999999999999
sS'YMR125W'
p3305
F2.2999999999999998
sS'YMR092C'
p3306
F3.9100000000000001
sS'YEL010W'
p3307
F0.44
sS'YGL245W'
p3308
F23.219999999999999
sS'YGR107W'
p3309
F0.17000000000000001
sS'YNL273W'
p3310
F1.3100000000000001
sS'YCL075W'
p3311
F0.25
sS'YOR140W'
p3312
F1.53
sS'YER070W'
p3313
F3.3399999999999999
sS'YPL219W'
p3314
F0.59999999999999998
sS'YNL106C'
p3315
F0.5
sS'YGR006W'
p3316
F0.33000000000000002
sS'YMR002W'
p3317
F29.91
sS'YDL119C'
p3318
F0.28999999999999998
sS'YDR160W'
p3319
F0.81000000000000005
sS'YDR264C'
p3320
F2.5499999999999998
sS'YCR064C'
p3321
F0.13
sS'YKR057W'
p3322
F112.09999999999999
sS'YER045C'
p3323
F0.79000000000000004
sS'YKL039W'
p3324
F4.4100000000000001
sS'YLR289W'
p3325
F0.17999999999999999
sS'YNL040W'
p3326
F2.5600000000000001
sS'YGR222W'
p3327
F1.3100000000000001
sS'YDL086W'
p3328
F6.2199999999999998
sS'YCL040W'
p3329
F5.04
sS'YLR422W'
p3330
F1.8200000000000001
sS'YPR115W'
p3331
F0.34999999999999998
sS'YNL260C'
p3332
F0.29999999999999999
sS'YIR031C'
p3333
F0.39000000000000001
sS'YDR073W'
p3334
F2.7400000000000002
sS'YJR065C'
p3335
F7.9699999999999998
sS'YJR030C'
p3336
F0.66000000000000003
sS'YNL308C'
p3337
F3.3900000000000001
sS'YGR216C'
p3338
F0.65000000000000002
sS'YOL064C'
p3339
F4.3499999999999996
sS'YOR022C'
p3340
F0.77000000000000002
sS'YHR058C'
p3341
F0.81999999999999995
sS'YDR239C'
p3342
F0.40000000000000002
sS'YJR049C'
p3343
F1.22
sS'YPR112C'
p3344
F2.1699999999999999
sS'YGL010W'
p3345
F1.04
sS'YIL036W'
p3346
F1.4099999999999999
sS'YOR324C'
p3347
F1.26
sS'YMR026C'
p3348
F1.1599999999999999
sS'YDR242W'
p3349
F0.59999999999999998
sS'YHR085W'
p3350
F1.5900000000000001
sS'YOR172W'
p3351
F0.75
sS'YHR149C'
p3352
F0.68999999999999995
sS'YDR064W'
p3353
F160.19
sS'YMR275C'
p3354
F0.84999999999999998
sS'YDR048C'
p3355
F0.16
sS'YLR324W'
p3356
F0.82999999999999996
sS'YCR022C'
p3357
F0.19
sS'YER052C'
p3358
F5.5199999999999996
sS'YML097C'
p3359
F5.6399999999999997
sS'YLR080W'
p3360
F0.28000000000000003
sS'YGR186W'
p3361
F2.21
sS'YPL061W'
p3362
F27.920000000000002
sS'YJL138C'
p3363
F57.030000000000001
sS'YER003C'
p3364
F6
sS'YER103W'
p3365
F0.52000000000000002
sS'YPL115C'
p3366
F0.80000000000000004
sS'YKR077W'
p3367
F0.85999999999999999
sS'YFL060C'
p3368
F0.51000000000000001
sS'YDR173C'
p3369
F0.53000000000000003
sS'YGL254W'
p3370
F0.76000000000000001
sS'YCL057W'
p3371
F4.1600000000000001
sS'YJL025W'
p3372
F0.57999999999999996
sS'YLR413W'
p3373
F5.5099999999999998
sS'YBR029C'
p3374
F1.6000000000000001
sS'YMR262W'
p3375
F0.46999999999999997
sS'YJL165C'
p3376
F2.3100000000000001
sS'YGR231C'
p3377
F9.5299999999999994
sS'YEL063C'
p3378
F3.3300000000000001
sS'YBL076C'
p3379
F10.130000000000001
sS'YMR113W'
p3380
F0.94999999999999996
sS'YPR097W'
p3381
F0.81000000000000005
sS'YGL134W'
p3382
F0.97999999999999998
sS'YMR297W'
p3383
F6.5999999999999996
sS'YLR128W'
p3384
F0.46000000000000002
sS'YKR068C'
p3385
F1.72
sS'YLR387C'
p3386
F2.2000000000000002
sS'YGL021W'
p3387
F0.46000000000000002
sS'YPR032W'
p3388
F0.46000000000000002
sS'YDL173W'
p3389
F2.9300000000000002
sS'YBR143C'
p3390
F7.3300000000000001
sS'YJR047C'
p3391
F3.6099999999999999
sS'YOR346W'
p3392
F1.4199999999999999
sS'YPL093W'
p3393
F5.0599999999999996
sS'YJR130C'
p3394
F0.93999999999999995
sS'YML023C'
p3395
F0.93000000000000005
sS'YAL016W'
p3396
F3.7200000000000002
sS'YFL039C'
p3397
F139.59
sS'YJL161W'
p3398
F0.52000000000000002
sS'YDR449C'
p3399
F2.3599999999999999
sS'YCL049C'
p3400
F1.21
sS'YML122C'
p3401
F0.27000000000000002
sS'YKL080W'
p3402
F14.460000000000001
sS'YPL152W'
p3403
F1.0800000000000001
sS'YLR183C'
p3404
F0.34999999999999998
sS'YGL205W'
p3405
F0.27000000000000002
sS'YAL069W'
p3406
F0.54000000000000004
sS'YNL077W'
p3407
F0.72999999999999998
sS'YBR109C'
p3408
F19.239999999999998
sS'YBR172C'
p3409
F3.29
sS'YDR346C'
p3410
F3.9700000000000002
sS'YJL172W'
p3411
F4.5800000000000001
sS'YDR151C'
p3412
F1.0800000000000001
sS'YOL125W'
p3413
F0.75
sS'YFL055W'
p3414
F0.39000000000000001
sS'YNL222W'
p3415
F1.8500000000000001
sS'YGR095C'
p3416
F1.77
sS'YMR163C'
p3417
F0.28000000000000003
sS'YML115C'
p3418
F1.3999999999999999
sS'YNL051W'
p3419
F0.27000000000000002
sS'YGR213C'
p3420
F2.2000000000000002
sS'YDL091C'
p3421
F0.88
sS'YDL142C'
p3422
F3.7799999999999998
sS'YJL088W'
p3423
F0.65000000000000002
sS'YMR066W'
p3424
F0.25
sS'YHR198C'
p3425
F1.3500000000000001
sS'YJR001W'
p3426
F6.3600000000000003
sS'YGL196W'
p3427
F2.3900000000000001
sS'YNL019C'
p3428
F0.65000000000000002
sS'YGL193C'
p3429
F2.73
sS'YDL242W'
p3430
F0.27000000000000002
sS'YLR209C'
p3431
F1.21
sS'YJL209W'
p3432
F0.64000000000000001
sS'YER085C'
p3433
F0.080000000000000002
sS'YDR306C'
p3434
F0.85999999999999999
sS'YKR022C'
p3435
F0.47999999999999998
sS'YIL025C'
p3436
F0.13
sS'YLR287C'
p3437
F1.95
sS'YPL016W'
p3438
F0.82999999999999996
sS'YJL074C'
p3439
F0.54000000000000004
sS'YLR370C'
p3440
F17.710000000000001
sS'YOR114W'
p3441
F0.38
sS'YDR326C'
p3442
F0.59999999999999998
sS'YJR105W'
p3443
F18.609999999999999
sS'YLR250W'
p3444
F8.1799999999999997
sS'YAL034C'
p3445
F2.6099999999999999
sS'YKL122C'
p3446
F21.579999999999998
sS'YHR011W'
p3447
F0.5
sS'YDR403W'
p3448
F0.31
sS'YIL165C'
p3449
F1.1299999999999999
sS'YIL078W'
p3450
F11.16
sS'YOL042W'
p3451
F1.3999999999999999
sS'YPL237W'
p3452
F32.509999999999998
sS'YFR039C'
p3453
F1.3899999999999999
sS'YBR236C'
p3454
F2.71
sS'YPL125W'
p3455
F0.60999999999999999
sS'YBR189W'
p3456
F88.040000000000006
sS'YCL037C'
p3457
F2.77
sS'YHL020C'
p3458
F2.4300000000000002
sS'YIL009W'
p3459
F1.73
sS'YFR042W'
p3460
F2.96
sS'YLR305C'
p3461
F1.3600000000000001
sS'YMR268C'
p3462
F0.77000000000000002
sS'YNL187W'
p3463
F1.04
sS'YGL223C'
p3464
F1.71
sS'YOR036W'
p3465
F3.5499999999999998
sS'YBL016W'
p3466
F1.52
sS'YML131W'
p3467
F1.4099999999999999
sS'YGR032W'
p3468
F1.02
sS'YGL150C'
p3469
F1.6399999999999999
sS'YGR125W'
p3470
F0.46999999999999997
sS'YJR145C'
p3471
F162.22999999999999
sS'YNL292W'
p3472
F3.0099999999999998
sS'YCR019W'
p3473
F0.89000000000000001
sS'YBR194W'
p3474
F1.5700000000000001
sS'YOR354C'
p3475
F0.93000000000000005
sS'YBR270C'
p3476
F0.84999999999999998
sS'YMR316W'
p3477
F4.9699999999999998
sS'YLR329W'
p3478
F0.46999999999999997
sS'YIL038C'
p3479
F1.6599999999999999
sS'YNL148C'
p3480
F0.76000000000000001
sS'YIL138C'
p3481
F2.1899999999999999
sS'YBL062W'
p3482
F4.4100000000000001
sS'YJR127C'
p3483
F1.4199999999999999
sS'YNL330C'
p3484
F1.97
sS'YNR071C'
p3485
F0.23999999999999999
sS'YJL027C'
p3486
F0.13
sS'YIL143C'
p3487
F0.98999999999999999
sS'YGR092W'
p3488
F0.45000000000000001
sS'YBR256C'
p3489
F3.2599999999999998
sS'YDR328C'
p3490
F9.3000000000000007
sS'YLR247C'
p3491
F0.35999999999999999
sS'YJR090C'
p3492
F1.73
sS'YKR065C'
p3493
F1.74
sS'YOR057W'
p3494
F2.3900000000000001
sS'YGL081W'
p3495
F0.54000000000000004
sS'YLR345W'
p3496
F1.03
sS'YKL073W'
p3497
F2.1299999999999999
sS'YLR448W'
p3498
F100.97
sS'YGR103W'
p3499
F13.09
sS'YPL141C'
p3500
F0.71999999999999997
sS'YHR151C'
p3501
F2.0800000000000001
sS'YDR311W'
p3502
F0.52000000000000002
sS'YIL041W'
p3503
F5.6399999999999997
sS'YGR178C'
p3504
F6.1600000000000001
sS'YGR057C'
p3505
F1.3799999999999999
sS'YNL155W'
p3506
F7.0199999999999996
sS'YNL100W'
p3507
F3.21
sS'YLR078C'
p3508
F10.31
sS'YBR154C'
p3509
F19.300000000000001
sS'YBR216C'
p3510
F0.65000000000000002
sS'YNL245C'
p3511
F1.7
sS'YGL143C'
p3512
F1.9299999999999999
sS'YLR001C'
p3513
F0.41999999999999998
sS'YLR126C'
p3514
F1.5600000000000001
sS'YMR318C'
p3515
F11.449999999999999
sS'YBR294W'
p3516
F0.38
sS'YHR108W'
p3517
F11.619999999999999
sS'YOR214C'
p3518
F0.33000000000000002
sS'YDL067C'
p3519
F16.57
sS'YGL176C'
p3520
F1.0600000000000001
sS'YBR086C'
p3521
F1.8200000000000001
sS'YDR135C'
p3522
F8.9299999999999997
sS'YAR003W'
p3523
F0.85999999999999999
sS'YHR124W'
p3524
F0.64000000000000001
sS'YBL030C'
p3525
F37.039999999999999
sS'YPL229W'
p3526
F0.5
sS'YER148W'
p3527
F13.07
sS'YGL242C'
p3528
F5.0199999999999996
sS'YNL270C'
p3529
F0.31
sS'YHL015W'
p3530
F191.06
sS'YMR240C'
p3531
F0.58999999999999997
sS'YOR303W'
p3532
F2.3300000000000001
sS'YIL087C'
p3533
F1.8700000000000001
sS'YLL054C'
p3534
F0.42999999999999999
sS'YLR443W'
p3535
F1.4399999999999999
sS'YLL013C'
p3536
F0.16
sS'YCR057C'
p3537
F3.9700000000000002
sS'YMR192W'
p3538
F1.5700000000000001
sS'YGR078C'
p3539
F4.25
sS'YCL074W'
p3540
F0.33000000000000002
sS'YOR141C'
p3541
F0.76000000000000001
sS'YMR229C'
p3542
F3.29
sS'YKR062W'
p3543
F2.6000000000000001
sS'YBR046C'
p3544
F1.3600000000000001
sS'YOL124C'
p3545
F3.8799999999999999
sS'YPR125W'
p3546
F4.5999999999999996
sS'YNR040W'
p3547
F0.94999999999999996
sS'YMR201C'
p3548
F0.56999999999999995
sS'YJL092W'
p3549
F0.68999999999999995
sS'YOR199W'
p3550
F0.14000000000000001
sS'YPL195W'
p3551
F4.8399999999999999
sS'YHR020W'
p3552
F11.15
sS'YOL068C'
p3553
F4.0700000000000003
sS'YIL089W'
p3554
F0.42999999999999999
sS'YOL033W'
p3555
F0.27000000000000002
sS'YBR238C'
p3556
F1.3100000000000001
sS'YDR415C'
p3557
F0.85999999999999999
sS'YGL161C'
p3558
F2.1400000000000001
sS'YPR051W'
p3559
F3.8399999999999999
sS'YER155C'
p3560
F0.65000000000000002
sS'YKL047W'
p3561
F0.68000000000000005
sS'YGL058W'
p3562
F3.1699999999999999
sS'YNL078W'
p3563
F3.9199999999999999
sS'YGL074C'
p3564
F0.22
sS'YPR009W'
p3565
F1.26
sS'YNL263C'
p3566
F5.1699999999999999
sS'YML027W'
p3567
F1.3200000000000001
sS'YKR099W'
p3568
F0.95999999999999996
sS'YML100W'
p3569
F1.8600000000000001
sS'YPL001W'
p3570
F0.79000000000000004
sS'YDR128W'
p3571
F0.90000000000000002
sS'YOR193W'
p3572
F1.97
sS'YER051W'
p3573
F0.38
sS'YER004W'
p3574
F8.6500000000000004
sS'YGL119W'
p3575
F0.72999999999999998
sS'YER028C'
p3576
F1.99
sS'YMR052W'
p3577
F0.56000000000000005
sS'YCR072C'
p3578
F1.6100000000000001
sS'YKR016W'
p3579
F1.29
sS'YMR158W'
p3580
F3.7999999999999998
sS'YLR114C'
p3581
F0.84999999999999998
sS'YHR044C'
p3582
F0.22
sS'YNL194C'
p3583
F0.35999999999999999
sS'YMR203W'
p3584
F14.619999999999999
sS'YLL036C'
p3585
F1.1599999999999999
sS'YCR023C'
p3586
F0.68000000000000005
sS'YDR519W'
p3587
F6.3899999999999997
sS'YGR278W'
p3588
F0.33000000000000002
sS'YER102W'
p3589
F64.859999999999999
sS'YKR076W'
p3590
F0.57999999999999996
sS'YBL057C'
p3591
F4.3099999999999996
sS'YBR073W'
p3592
F0.39000000000000001
sS'YLR083C'
p3593
F11.949999999999999
sS'YBR028C'
p3594
F1.0900000000000001
sS'YDR225W'
p3595
F40.950000000000003
sS'YLR152C'
p3596
F1.03
sS'YDR172W'
p3597
F22.34
sS'YLL016W'
p3598
F0.28999999999999998
sS'YDL121C'
p3599
F6.1500000000000004
sS'YBR078W'
p3600
F35.759999999999998
sS'YGR104C'
p3601
F1.45
sS'YLR136C'
p3602
F1.79
sS'YLR129W'
p3603
F4.0899999999999999
sS'YBL077W'
p3604
F6.0099999999999998
sS'YNL271C'
p3605
F1.8300000000000001
sS'YBL041W'
p3606
F14.65
sS'YMR097C'
p3607
F2.9900000000000002
sS'YDR528W'
p3608
F0.81999999999999995
sS'YDL058W'
p3609
F0.33000000000000002
sS'YLR102C'
p3610
F1.48
sS'YPR056W'
p3611
F0.84999999999999998
sS'YOR298W'
p3612
F0.65000000000000002
sS'YBR026C'
p3613
F1.9199999999999999
sS'YNL214W'
p3614
F0.71999999999999997
sS'YER060W'
p3615
F1.9099999999999999
sS'YBR091C'
p3616
F5.6100000000000003
sS'YPR180W'
p3617
F1.3700000000000001
sS'YEL013W'
p3618
F3.73
sS'YNL224C'
p3619
F0.54000000000000004
sS'YPR083W'
p3620
F0.10000000000000001
sS'YNL094W'
p3621
F2.9700000000000002
sS'YOR280C'
p3622
F1.3899999999999999
sS'YDR480W'
p3623
F0.40999999999999998
sS'YML004C'
p3624
F3.9500000000000002
sS'YCR043C'
p3625
F4.1699999999999999
sS'YDR504C'
p3626
F4.3700000000000001
sS'YGR067C'
p3627
F0.19
sS'YOR289W'
p3628
F1.0700000000000001
sS'YPL227C'
p3629
F3.3100000000000001
sS'YDL010W'
p3630
F2.4300000000000002
sS'YOR158W'
p3631
F1.76
sS'YBR059C'
p3632
F2.5099999999999998
sS'YJL146W'
p3633
F0.39000000000000001
sS'YDL045C'
p3634
F2.5899999999999999
sS'YGR241C'
p3635
F1.1100000000000001
sS'YPL247C'
p3636
F1.1599999999999999
sS'YMR258C'
p3637
F0.47999999999999998
sS'YPR071W'
p3638
F1.6899999999999999
sS'YDR103W'
p3639
F0.68000000000000005
sS'YLR072W'
p3640
F1.8799999999999999
sS'YER180C'
p3641
F3.9900000000000002
sS'YKL167C'
p3642
F3.8999999999999999
sS'YMR018W'
p3643
F0.089999999999999997
sS'YGR212W'
p3644
F1.1200000000000001
sS'YOR125C'
p3645
F3.2200000000000002
sS'YBL095W'
p3646
F0.84999999999999998
sS'YDL092W'
p3647
F3.5800000000000001
sS'YKR043C'
p3648
F12.9
sS'YHR096C'
p3649
F0.19
sS'YMR067C'
p3650
F2.2400000000000002
sS'YJL011C'
p3651
F1.8
sS'YDL143W'
p3652
F8.6300000000000008
sS'YKL138C'
p3653
F3.6299999999999999
sS'YGL088W'
p3654
F0.20999999999999999
sS'YBL079W'
p3655
F1.27
sS'YNL056W'
p3656
F1.8100000000000001
sS'YKR034W'
p3657
F0.17000000000000001
sS'YDR347W'
p3658
F8.1799999999999997
sS'YKL025C'
p3659
F1.54
sS'YER086W'
p3660
F14.449999999999999
sS'YGL197W'
p3661
F0.70999999999999996
sS'YPL173W'
p3662
F4.04
sS'YKL125W'
p3663
F0.78000000000000003
sS'YPL028W'
p3664
F50.609999999999999
sS'YKR023W'
p3665
F0.5
sS'YDL218W'
p3666
F0.27000000000000002
sS'YKL038W'
p3667
F0.46999999999999997
sS'YPR157W'
p3668
F0.23000000000000001
sS'YLR208W'
p3669
F30.039999999999999
sS'YDR267C'
p3670
F2.0600000000000001
sS'YLR286C'
p3671
F26.539999999999999
sS'YNL016W'
p3672
F6.9500000000000002
sS'YDR455C'
p3673
F0.45000000000000001
sS'YLR384C'
p3674
F5.21
sS'YDR307W'
p3675
F1.03
sS'YPL071C'
p3676
F2.25
sS'YPR019W'
p3677
F0.79000000000000004
sS'YOR162C'
p3678
F0.37
sS'YLR421C'
p3679
F9.3800000000000008
sS'YMR145C'
p3680
F4.6699999999999999
sS'YDR161W'
p3681
F1.6899999999999999
sS'YLR090W'
p3682
F1.54
sS'YBR102C'
p3683
F0.66000000000000003
sS'YGL128C'
p3684
F0.68999999999999995
sS'YOR285W'
p3685
F20.579999999999998
sS'YJL002C'
p3686
F6.71
sS'YML022W'
p3687
F43.240000000000002
sS'YCR065W'
p3688
F1.2
sS'YNL159C'
p3689
F2.1800000000000002
sS'YDL118W'
p3690
F0.31
sS'YJR031C'
p3691
F0.78000000000000003
sS'YPR159W'
p3692
F2.8300000000000001
sS'YGR223C'
p3693
F0.59999999999999998
sS'YKL107W'
p3694
F0.23000000000000001
sS'YKR050W'
p3695
F2.5899999999999999
sS'YHR059W'
p3696
F1.73
sS'YPL124W'
p3697
F0.37
sS'YMR087W'
p3698
F0.88
sS'YPL248C'
p3699
F0.60999999999999999
sS'YDL085W'
p3700
F0.14000000000000001
sS'YPL011C'
p3701
F0.79000000000000004
sS'YFL049W'
p3702
F0.68999999999999995
sS'YNL309W'
p3703
F0.63
sS'YOR171C'
p3704
F1.0900000000000001
sS'YDR241W'
p3705
F0.46000000000000002
sS'YHR084W'
p3706
F0.82999999999999996
sS'YNL038W'
p3707
F0.34000000000000002
sS'YKL003C'
p3708
F3.7599999999999998
sS'YAL053W'
p3709
F4.5099999999999998
sS'YNL149C'
p3710
F25.460000000000001
sS'YGL095C'
p3711
F0.95999999999999996
sS'YBR257W'
p3712
F1.6399999999999999
sS'YJR132W'
p3713
F32.759999999999998
sS'YGR246C'
p3714
F0.93000000000000005
sS'YJR119C'
p3715
F0.40000000000000002
sS'YOR205C'
p3716
F0.40999999999999998
sS'YDL216C'
p3717
F0.34999999999999998
sS'YIL079C'
p3718
F0.93000000000000005
sS'YLR199C'
p3719
F1.6299999999999999
sS'YDR329C'
p3720
F0.93999999999999995
sS'YIL142W'
p3721
F13.119999999999999
sS'YFR025C'
p3722
F1.3999999999999999
sS'YIR006C'
p3723
F2.4700000000000002
sS'YOR017W'
p3724
F1.54
sS'YBR137W'
p3725
F10.17
sS'YLR393W'
p3726
F0.77000000000000002
sS'YDR310C'
p3727
F0.35999999999999999
sS'YPL146C'
p3728
F4.0800000000000001
sS'YHL048W'
p3729
F0.44
sS'YNL154C'
p3730
F4.0499999999999998
sS'YNL001W'
p3731
F1.72
sS'YDL236W'
p3732
F8.4700000000000006
sS'YJL080C'
p3733
F14.68
sS'YIL046W'
p3734
F2.0099999999999998
sS'YGR174C'
p3735
F1.5700000000000001
sS'YGL142C'
p3736
F2.2799999999999998
sS'YFR009W'
p3737
F3
sS'YKR096W'
p3738
F0.54000000000000004
sS'YJR151C'
p3739
F0.17000000000000001
sS'YGR179C'
p3740
F0.29999999999999999
sS'YGR102C'
p3741
F2.02
sS'YDR081C'
p3742
F0.77000000000000002
sS'YJL137C'
p3743
F1.3500000000000001
sS'YCL009C'
p3744
F11.18
sS'YKL065C'
p3745
F9.7799999999999994
sS'YBR139W'
p3746
F1.25
sS'YKL149C'
p3747
F0.70999999999999996
sS'YBR140C'
p3748
F0.38
sS'YJR111C'
p3749
F0.60999999999999999
sS'YLR181C'
p3750
F1.8300000000000001
sS'YHR188C'
p3751
F3.0099999999999998
sS'YMR007W'
p3752
F0.39000000000000001
sS'YPL073C'
p3753
F0.79000000000000004
sS'YFL023W'
p3754
F0.56000000000000005
sS'YLR360W'
p3755
F0.68000000000000005
sS'YMR212C'
p3756
F1.3500000000000001
sS'YDR092W'
p3757
F4.5899999999999999
sS'YJR087W'
p3758
F4.1100000000000003
sS'YPL108W'
p3759
F0.66000000000000003
sS'YDR361C'
p3760
F6.2599999999999998
sS'YPL164C'
p3761
F0.40000000000000002
sS'YBR171W'
p3762
F3.8700000000000001
sS'YNL088W'
p3763
F1.8799999999999999
sS'YJL157C'
p3764
F2.2999999999999998
sS'YDL042C'
p3765
F0.70999999999999996
sS'YKL181W'
p3766
F12.359999999999999
sS'YNL336W'
p3767
F2.3599999999999999
sS'YBR093C'
p3768
F7.2400000000000002
sS'YLR445W'
p3769
F0.050000000000000003
sS'YOL032W'
p3770
F1.52
sS'YML063W'
p3771
F211.09
sS'YHR027C'
p3772
F4.5
sS'YJL144W'
p3773
F1.6799999999999999
sS'YPR139C'
p3774
F1.54
sS'YGL255W'
p3775
F3.0299999999999998
sS'YFR007W'
p3776
F0.53000000000000003
sS'YNL293W'
p3777
F0.34999999999999998
sS'YLR333C'
p3778
F100.09
sS'YNL026W'
p3779
F1.27
sS'YOL075C'
p3780
F0.57999999999999996
sS'YHL030W'
p3781
F3.1000000000000001
sS'YDR028C'
p3782
F1.71
sS'YBR200W'
p3783
F1.05
sS'YNL262W'
p3784
F1.24
sS'YAR028W'
p3785
F2.8799999999999999
sS'YBR239C'
p3786
F0.34999999999999998
sS'YML107C'
p3787
F0.57999999999999996
sS'YGL077C'
p3788
F4.6900000000000004
sS'YPL204W'
p3789
F1.97
sS'YNL133C'
p3790
F0.63
sS'YGR270W'
p3791
F1.3600000000000001
sS'YOL069W'
p3792
F0.44
sS'YKL184W'
p3793
F7.1699999999999999
sS'YDR129C'
p3794
F8.0600000000000005
sS'YOR352W'
p3795
F0.57999999999999996
sS'YOL134C'
p3796
F0.25
sS'YLR359W'
p3797
F5.7300000000000004
sS'YPL113C'
p3798
F0.52000000000000002
sS'YKR101W'
p3799
F0.57999999999999996
sS'YGR026W'
p3800
F6
sS'YNL129W'
p3801
F1.6200000000000001
sS'YML125C'
p3802
F10.119999999999999
sS'YLR251W'
p3803
F0.55000000000000004
sS'YDR288W'
p3804
F0.64000000000000001
sS'YCL036W'
p3805
F2.9300000000000002
sS'YFR041C'
p3806
F1.1000000000000001
sS'YIL050W'
p3807
F1.77
sS'YOR355W'
p3808
F1.8100000000000001
sS'YPR127W'
p3809
F0.94999999999999996
sS'YGR086C'
p3810
F11.720000000000001
sS'YPL111W'
p3811
F7.2199999999999998
sS'YOR077W'
p3812
F0.46999999999999997
sS'YKR031C'
p3813
F0.32000000000000001
sS'YIL006W'
p3814
F0.46000000000000002
sS'YOL043C'
p3815
F0.63
sS'YBR237W'
p3816
F0.28000000000000003
sS'YHL023C'
p3817
F1.4299999999999999
sS'YBR197C'
p3818
F1.8200000000000001
sS'YGL042C'
p3819
F3.6600000000000001
sS'YJR091C'
p3820
F1.3600000000000001
sS'YGR031W'
p3821
F0.69999999999999996
sS'YJL204C'
p3822
F1.1899999999999999
sS'YKL182W'
p3823
F11.76
sS'YBR271W'
p3824
F3.3700000000000001
sS'YLR399C'
p3825
F2.7200000000000002
sS'YDR003W'
p3826
F2.1099999999999999
sS'YNL244C'
p3827
F24
sS'YNR027W'
p3828
F3.3700000000000001
sS'YAL024C'
p3829
F0.23999999999999999
sS'YOR348C'
p3830
F0.12
sS'YJR142W'
p3831
F1.5900000000000001
sS'YMR317W'
p3832
F0.53000000000000003
sS'YLR458W'
p3833
F0.26000000000000001
sS'YJL197W'
p3834
F1.1599999999999999
sS'YER158C'
p3835
F1.05
sS'YGL055W'
p3836
F30.370000000000001
sS'YPR181C'
p3837
F6.4100000000000001
sS'YCL008C'
p3838
F1.0900000000000001
sS'YPL202C'
p3839
F1.23
sS'YBR092C'
p3840
F10.550000000000001
sS'YOR107W'
p3841
F2.1200000000000001
sS'YMR173W'
p3842
F2.8100000000000001
sS'YNL215W'
p3843
F0.79000000000000004
sS'YDR529C'
p3844
F14.51
sS'YGR044C'
p3845
F3.54
sS'YDL059C'
p3846
F1.1799999999999999
sS'YOR204W'
p3847
F25.530000000000001
sS'YEL012W'
p3848
F0.79000000000000004
sS'YBL040C'
p3849
F5.8200000000000003
sS'YBL113C'
p3850
F0.66000000000000003
sS'YJL012C'
p3851
F7.7699999999999996
sS'YDR483W'
p3852
F15.42
sS'YLL008W'
p3853
F3.0899999999999999
sS'YOR219C'
p3854
F1.1699999999999999
sS'YDR505C'
p3855
F1.27
sS'YML121W'
p3856
F1.3400000000000001
sS'YER061C'
p3857
F1.3700000000000001
sS'YLR135W'
p3858
F0.17999999999999999
sS'YGR068C'
p3859
F0.68999999999999995
sS'YOR390W'
p3860
F1.73
sS'YPL246C'
p3861
F7.2300000000000004
sS'YOR246C'
p3862
F6.5899999999999999
sS'YPL226W'
p3863
F12.9
sS'YLR405W'
p3864
F0.76000000000000001
sS'YER183C'
p3865
F2.2400000000000002
sS'YML018C'
p3866
F7.29
sS'YDL044C'
p3867
F0.62
sS'YDL011C'
p3868
F1.1200000000000001
sS'YDL066W'
p3869
F4.2599999999999998
sS'YHR030C'
p3870
F7.8899999999999997
sS'YPL259C'
p3871
F1.1000000000000001
sS'YKL076C'
p3872
F0.68000000000000005
sS'YBR295W'
p3873
F1.6599999999999999
sS'YBR085W'
p3874
F0.76000000000000001
sS'YHR109W'
p3875
F0.28999999999999998
sS'YBL031W'
p3876
F0.88
sS'YNR050C'
p3877
F4.4699999999999998
sS'YHR125W'
p3878
F0.089999999999999997
sS'YKL208W'
p3879
F0.76000000000000001
sS'YPL147W'
p3880
F0.17000000000000001
sS'YDR423C'
p3881
F1.24
sS'YGR180C'
p3882
F22.02
sS'YOR260W'
p3883
F2.8999999999999999
sS'YPR196W'
p3884
F0.37
sS'YPL260W'
p3885
F1.48
sS'YGR004W'
p3886
F0.94999999999999996
sS'YNR016C'
p3887
F3.0600000000000001
sS'YOL010W'
p3888
F2.6499999999999999
sS'YAR075W'
p3889
F0.14999999999999999
sS'YLR064W'
p3890
F2.29
sS'YLR419W'
p3891
F0.39000000000000001
sS'YGL048C'
p3892
F4.6600000000000001
sS'YHL016C'
p3893
F0.40999999999999998
sS'YNL034W'
p3894
F0.27000000000000002
sS'YOR228C'
p3895
F0.62
sS'YOR092W'
p3896
F1.6399999999999999
sS'YLL039C'
p3897
F7.3700000000000001
sS'YBR045C'
p3898
F0.14000000000000001
sS'YLL055W'
p3899
F0.5
sS'YKL106W'
p3900
F3.0699999999999998
sS'YOR272W'
p3901
F4.2599999999999998
sS'YGL019W'
p3902
F3.5
sS'YLR091W'
p3903
F1.9399999999999999
sS'YMR046C'
p3904
F2.4199999999999999
sS'YER047C'
p3905
F0.44
sS'YOR138C'
p3906
F1.3600000000000001
sS'YNR048W'
p3907
F1.79
sS'YCL042W'
p3908
F5.7999999999999998
sS'YLR420W'
p3909
F2.6000000000000001
sS'YCR088W'
p3910
F7.21
sS'YOR252W'
p3911
F3.1000000000000001
sS'YDR208W'
p3912
F0.58999999999999997
sS'YJL058C'
p3913
F0.46999999999999997
sS'YDR075W'
p3914
F0.91000000000000003
sS'YHR087W'
p3915
F3.4700000000000002
sS'YFL048C'
p3916
F3.1299999999999999
sS'YLR117C'
p3917
F1.0700000000000001
sS'YNR020C'
p3918
F3.02
sS'YGR220C'
p3919
F2.8900000000000001
sS'YML052W'
p3920
F4.9100000000000001
sS'YLR299W'
p3921
F0.72999999999999998
sS'YOR176W'
p3922
F3.6600000000000001
sS'YHR187W'
p3923
F2.1899999999999999
sS'YDL108W'
p3924
F0.93999999999999995
sS'YMR071C'
p3925
F6.5099999999999998
sS'YIR033W'
p3926
F1.2
sS'YNL254C'
p3927
F1.23
sS'YBL089W'
p3928
F1.1699999999999999
sS'YDL084W'
p3929
F25.579999999999998
sS'YPL080C'
p3930
F0.12
sS'YMR120C'
p3931
F7.1399999999999997
sS'YLL022C'
p3932
F1.23
sS'YOR143C'
p3933
F1.1200000000000001
sS'YER029C'
p3934
F2.4700000000000002
sS'YCL055W'
p3935
F1.03
sS'YLR411W'
p3936
F0.91000000000000003
sS'YBR063C'
p3937
F0.58999999999999997
sS'YNL033W'
p3938
F0.70999999999999996
sS'YER105C'
p3939
F2.25
sS'YKR075C'
p3940
F2.73
sS'YPL034W'
p3941
F1.01
sS'YBL054W'
p3942
F2.6899999999999999
sS'YDL028C'
p3943
F2.2799999999999998
sS'YCR024C'
p3944
F0.39000000000000001
sS'YER050C'
p3945
F9.1099999999999994
sS'YCR008W'
p3946
F3.2599999999999998
sS'YBL104C'
p3947
F0.58999999999999997
sS'YMR102C'
p3948
F1.02
sS'YCR071C'
p3949
F1.5800000000000001
sS'YOL025W'
p3950
F0.5
sS'YDR175C'
p3951
F0.71999999999999997
sS'YOR341W'
p3952
F5.6299999999999999
sS'YMR159C'
p3953
F0.28000000000000003
sS'YOR189W'
p3954
F1.5600000000000001
sS'YOR108W'
p3955
F2.54
sS'YDL122W'
p3956
F0.98999999999999999
sS'YMR264W'
p3957
F3.5899999999999999
sS'YGL136C'
p3958
F0.76000000000000001
sS'YDL188C'
p3959
F1.8700000000000001
sS'YPR061C'
p3960
F0.23000000000000001
sS'YGR226C'
p3961
F0.14999999999999999
sS'YGR268C'
p3962
F3.1400000000000001
sS'YDL037C'
p3963
F9.8200000000000003
sS'YNL315C'
p3964
F2.71
sS'YOR299W'
p3965
F1.9299999999999999
sS'YDR224C'
p3966
F73.980000000000004
sS'YDR420W'
p3967
F2.54
sS'YHR189W'
p3968
F0.87
sS'YLR385C'
p3969
F0.19
sS'YMR288W'
p3970
F0.59999999999999998
sS'YIL125W'
p3971
F3.2599999999999998
sS'YBR141C'
p3972
F1.28
sS'YIL170W'
p3973
F1.8400000000000001
sS'YHR036W'
p3974
F0.40999999999999998
sS'YKL148C'
p3975
F2.4300000000000002
sS'YDR140W'
p3976
F1.4199999999999999
sS'YJL117W'
p3977
F9.0099999999999998
sS'YDL171C'
p3978
F6.79
sS'YKL062W'
p3979
F0.44
sS'YLR238W'
p3980
F2.02
sS'YDR080W'
p3981
F0.28000000000000003
sS'YJR010W'
p3982
F1.3400000000000001
sS'YIL077C'
p3983
F1.0800000000000001
sS'YBR114W'
p3984
F0.47999999999999998
sS'YHR165C'
p3985
F0.71999999999999997
sS'YLR450W'
p3986
F1.5900000000000001
sS'YKL028W'
p3987
F1.25
sS'YLR222C'
p3988
F0.79000000000000004
sS'YLR221C'
p3989
F1.9399999999999999
sS'YIL109C'
p3990
F3.3700000000000001
sS'YHR046C'
p3991
F1.5900000000000001
sS'YIR014W'
p3992
F0.38
sS'YPL070W'
p3993
F0.69999999999999996
sS'YLR361C'
p3994
F1.3500000000000001
sS'YOR085W'
p3995
F4.6699999999999999
sS'YDR362C'
p3996
F0.39000000000000001
sS'YFL022C'
p3997
F24.789999999999999
sS'YPL109C'
p3998
F0.33000000000000002
sS'YJL156C'
p3999
F0.58999999999999997
sS'YNL253W'
p4000
F1.0800000000000001
sS'YKL082C'
p4001
F2.1000000000000001
sS'YNL071W'
p4002
F4.2699999999999996
sS'YLR283W'
p4003
F0.88
sS'YMR064W'
p4004
F0.59999999999999998
sS'YKL166C'
p4005
F2.5499999999999998
sS'YGL138C'
p4006
F0.16
sS'YPR141C'
p4007
F0.28999999999999998
sS'YDL093W'
p4008
F0.94999999999999996
sS'YJL069C'
p4009
F1.5800000000000001
sS'YLR298C'
p4010
F1.04
sS'YER098W'
p4011
F0.34999999999999998
sS'YHR047C'
p4012
F4.9699999999999998
sS'YOR232W'
p4013
F5.4500000000000002
sS'YJL118W'
p4014
F1.1699999999999999
sS'YPR132W'
p4015
F122.40000000000001
sS'YPR137W'
p4016
F0.93999999999999995
sS'YDR157W'
p4017
F0.28999999999999998
sS'YGL001C'
p4018
F4.25
sS'YDR444W'
p4019
F0.54000000000000004
sS'YDL115C'
p4020
F0.79000000000000004
sS'YER087W'
p4021
F0.31
sS'YDL140C'
p4022
F3.46
sS'YPR156C'
p4023
F1.72
sS'YDR359C'
p4024
F0.70999999999999996
sS'YKL124W'
p4025
F0.20999999999999999
sS'YDR304C'
p4026
F5.0599999999999996
sS'YML053C'
p4027
F2.3399999999999999
sS'YNL017C'
p4028
F0.23999999999999999
sS'YCR086W'
p4029
F1.0700000000000001
sS'YDR266C'
p4030
F1.3
sS'YDR206W'
p4031
F0.47999999999999998
sS'YJL056C'
p4032
F0.35999999999999999
sS'YLR263W'
p4033
F0.53000000000000003
sS'YOR116C'
p4034
F2.6400000000000001
sS'YMR025W'
p4035
F0.28000000000000003
sS'YKR024C'
p4036
F0.68000000000000005
sS'YIL095W'
p4037
F0.72999999999999998
sS'YDL240W'
p4038
F0.45000000000000001
sS'YPL063W'
p4039
F4.3899999999999997
sS'YKL140W'
p4040
F0.75
sS'YFR040W'
p4041
F1.0900000000000001
sS'YIL167W'
p4042
F0.23000000000000001
sS'YML124C'
p4043
F4.9000000000000004
sS'YIL107C'
p4044
F0.29999999999999999
sS'YOR029W'
p4045
F0.12
sS'YDR287W'
p4046
F1.1000000000000001
sS'YGL209W'
p4047
F2.5099999999999998
sS'YOR326W'
p4048
F1.7
sS'YDR405W'
p4049
F1.55
sS'YIL007C'
p4050
F0.76000000000000001
sS'YLR400W'
p4051
F8.0800000000000001
sS'YGR087C'
p4052
F0.14999999999999999
sS'YCL031C'
p4053
F1.77
sS'YAL041W'
p4054
F1.72
sS'YLR171W'
p4055
F0.12
sS'YGL156W'
p4056
F0.38
sS'YGR152C'
p4057
F1.55
sS'YJL090C'
p4058
F0.90000000000000002
sS'YJR143C'
p4059
F5.0800000000000001
sS'YBR196C'
p4060
F104.81999999999999
sS'YCR087W'
p4061
F4.8499999999999996
sS'YGR147C'
p4062
F2.52
sS'YJR092W'
p4063
F1.96
sS'YOR311C'
p4064
F7.2699999999999996
sS'YGR030C'
p4065
F0.79000000000000004
sS'YAL025C'
p4066
F5.9000000000000004
sS'YDL201W'
p4067
F1.3100000000000001
sS'YBL014C'
p4068
F0.54000000000000004
sS'YDL141W'
p4069
F1.1499999999999999
sS'YGL094C'
p4070
F0.35999999999999999
sS'YLR358C'
p4071
F1.3100000000000001
sS'YBR170C'
p4072
F0.55000000000000004
sS'YGR149W'
p4073
F1.22
sS'YJR059W'
p4074
F1.96
sS'YOR084W'
p4075
F0.59999999999999998
sS'YGR130C'
p4076
F1.02
sS'YPL041C'
p4077
F0.67000000000000004
sS'YJR118C'
p4078
F5.79
sS'YLR269C'
p4079
F0.34000000000000002
sS'YDL217C'
p4080
F1.9399999999999999
sS'YGR165W'
p4081
F2.8199999999999998
sS'YLL043W'
p4082
F2.0299999999999998
sS'YOR344C'
p4083
F3.2200000000000002
sS'YNL139C'
p4084
F0.13
sS'YFR024C'
p4085
F8.1199999999999992
sS'YOR234C'
p4086
F125.7
sS'YBR136W'
p4087
F0.63
sS'YKL193C'
p4088
F1.5900000000000001
sS'YGL083W'
p4089
F0.71999999999999997
sS'YGR101W'
p4090
F1.75
sS'YLR310C'
p4091
F0.71999999999999997
sS'YNR064C'
p4092
F0.37
sS'YDL237W'
p4093
F2.4100000000000001
sS'YMR224C'
p4094
F0.47999999999999998
sS'YJL141C'
p4095
F1.1000000000000001
sS'YBR249C'
p4096
F8.9199999999999999
sS'YNL287W'
p4097
F3.3500000000000001
sS'YLR392C'
p4098
F0.56000000000000005
sS'YNL102W'
p4099
F2.0699999999999998
sS'YIL023C'
p4100
F1.29
sS'YMR234W'
p4101
F0.70999999999999996
sS'YOL077C'
p4102
F16.300000000000001
sS'YDR137W'
p4103
F0.72999999999999998
sS'YKL209C'
p4104
F0.22
sS'YPR175W'
p4105
F0.58999999999999997
sS'YBR084W'
p4106
F0.76000000000000001
sS'YLR003C'
p4107
F5.0700000000000003
sS'YLR337C'
p4108
F4.5300000000000002
sS'YER113C'
p4109
F1.1200000000000001
sS'YDR397C'
p4110
F5.0499999999999998
sS'YNR051C'
p4111
F4.2000000000000002
sS'YGL170C'
p4112
F0.14000000000000001
sS'YJL045W'
p4113
F0.19
sS'YHL002W'
p4114
F2.3599999999999999
sS'YHR122W'
p4115
F5.2000000000000002
sS'YDR422C'
p4116
F2.8100000000000001
sS'YOR229W'
p4117
F2.4399999999999999
sS'YHL017W'
p4118
F1.96
sS'YLL056C'
p4119
F0.38
sS'YOL017W'
p4120
F0.070000000000000007
sS'YHL038C'
p4121
F0.67000000000000004
sS'YMR190C'
p4122
F0.56000000000000005
sS'YGR005C'
p4123
F0.83999999999999997
sS'YBL032W'
p4124
F8.5500000000000007
sS'YGL049C'
p4125
F1.75
sS'YDR023W'
p4126
F15.09
sS'YNR067C'
p4127
F2.1400000000000001
sS'YER141W'
p4128
F4.4800000000000004
sS'YGL240W'
p4129
F0.70999999999999996
sS'YCL076W'
p4130
F0.14999999999999999
sS'YNL209W'
p4131
F69.349999999999994
sS'YNL294C'
p4132
F0.80000000000000004
sS'YDR298C'
p4133
F20.210000000000001
sS'YDR011W'
p4134
F5.2300000000000004
sS'YBL009W'
p4135
F0.64000000000000001
sS'YDR182W'
p4136
F0.98999999999999999
sS'YCL043C'
p4137
F44.969999999999999
sS'YGR127W'
p4138
F2.5099999999999998
sS'YFR006W'
p4139
F4.2699999999999996
sS'YCL022C'
p4140
F0.89000000000000001
sS'YHL031C'
p4141
F2.5099999999999998
sS'YKL074C'
p4142
F0.88
sS'YOR095C'
p4143
F5.8499999999999996
sS'YOL151W'
p4144
F4.3099999999999996
sS'YHR131C'
p4145
F0.76000000000000001
sS'YKL213C'
p4146
F5.2000000000000002
sS'YHR026W'
p4147
F23.699999999999999
sS'YOR275C'
p4148
F0.84999999999999998
sS'YOR026W'
p4149
F0.76000000000000001
sS'YLR437C'
p4150
F5.8200000000000003
sS'YNL238W'
p4151
F0.95999999999999996
sS'YBR281C'
p4152
F1.8400000000000001
sS'YPL207W'
p4153
F1.3700000000000001
sS'YPL250C'
p4154
F2.54
sS'YNL289W'
p4155
F2.46
sS'YIL029C'
p4156
F1.1399999999999999
sS'YOL135C'
p4157
F2.2200000000000002
sS'YLL041C'
p4158
F2.3500000000000001
sS'YML106W'
p4159
F13.5
sS'YCR009C'
p4160
F7.2400000000000002
sS'YMR200W'
p4161
F3.1699999999999999
sS'YMR169C'
p4162
F0.51000000000000001
sS'YJL022W'
p4163
F0.35999999999999999
sS'YLR118C'
p4164
F3.5899999999999999
sS'YER006W'
p4165
F7.3300000000000001
sS'YGL117W'
p4166
F0.88
sS'YLR410W'
p4167
F3.3399999999999999
sS'YMR105C'
p4168
F0.52000000000000002
sS'YER182W'
p4169
F1.3700000000000001
sS'YLL034C'
p4170
F4.75
sS'YCR025C'
p4171
F0.25
sS'YML042W'
p4172
F0.13
sS'YBL105C'
p4173
F1.9099999999999999
sS'YOR196C'
p4174
F1.6000000000000001
sS'YDR069C'
p4175
F0.38
sS'YOL049W'
p4176
F9.2799999999999994
sS'YOL110W'
p4177
F2.7200000000000002
sS'YER104W'
p4178
F0.69999999999999996
sS'YGR232W'
p4179
F5.2800000000000002
sS'YBL055C'
p4180
F1.8300000000000001
sS'YPR035W'
p4181
F15.130000000000001
sS'YLR427W'
p4182
F0.67000000000000004
sS'YNL314W'
p4183
F0.69999999999999996
sS'YLL018C'
p4184
F16.670000000000002
sS'YDL123W'
p4185
F3.0800000000000001
sS'YDL054C'
p4186
F0.88
sS'YMR037C'
p4187
F1.05
sS'YNL115C'
p4188
F0.75
sS'YPR177C'
p4189
F0.47999999999999998
sS'YMR265C'
p4190
F0.79000000000000004
sS'YML073C'
p4191
F175.18000000000001
sS'YGL137W'
p4192
F2.4199999999999999
sS'YOR157C'
p4193
F14.34
sS'YLR455W'
p4194
F1.5700000000000001
sS'YGL101W'
p4195
F3.0099999999999998
sS'YOR250C'
p4196
F3.3300000000000001
sS'YCL056C'
p4197
F1.8700000000000001
sS'YNR030W'
p4198
F2.9700000000000002
sS'YBL043W'
p4199
F0.48999999999999999
sS'YOR287C'
p4200
F1.48
sS'YPR042C'
p4201
F0.69999999999999996
sS'YDR383C'
p4202
F1.6799999999999999
sS'YDL072C'
p4203
F24.02
sS'YER159C'
p4204
F4.0300000000000002
sS'YDL005C'
p4205
F1.04
sS'YER122C'
p4206
F3.5899999999999999
sS'YHR113W'
p4207
F2.3100000000000001
sS'YHL029C'
p4208
F0.75
sS'YGR070W'
p4209
F0.28999999999999998
sS'YDR482C'
p4210
F4.7800000000000002
sS'YJL196C'
p4211
F7.0300000000000002
sS'YPR117W'
p4212
F0.40999999999999998
sS'YDR034C'
p4213
F0.68000000000000005
sS'YGR045C'
p4214
F0.14999999999999999
sS'YNL012W'
p4215
F0.32000000000000001
sS'YOR054C'
p4216
F0.39000000000000001
sS'YLR058C'
p4217
F7.4699999999999998
sS'YLR134W'
p4218
F0.93999999999999995
sS'YEL006W'
p4219
F2.1200000000000001
sS'YDR506C'
p4220
F0.16
sS'YGL038C'
p4221
F0.82999999999999996
sS'YLR074C'
p4222
F6.54
sS'YCR041W'
p4223
F0.91000000000000003
sS'YNL216W'
p4224
F2.3199999999999998
sS'YKL207W'
p4225
F4.3899999999999997
sS'YER066W'
p4226
F0.41999999999999998
sS'YNL227C'
p4227
F0.41999999999999998
sS'YDL043C'
p4228
F0.69999999999999996
sS'YHR091C'
p4229
F3.27
sS'YPL249C'
p4230
F0.56000000000000005
sS'YDR218C'
p4231
F0.27000000000000002
sS'YER031C'
p4232
F4.71
sS'YDL109C'
p4233
F0.33000000000000002
sS'YJR006W'
p4234
F3.2599999999999998
sS'YDR345C'
p4235
F6.21
sS'YLR430W'
p4236
F0.44
sS'YDL182W'
p4237
F8.3300000000000001
sS'YGL139W'
p4238
F1.5900000000000001
sS'YJL068C'
p4239
F3.0899999999999999
sS'YBR065C'
p4240
F0.26000000000000001
sS'YDL094C'
p4241
F0.82999999999999996
sS'YNL054W'
p4242
F1.46
sS'YGR210C'
p4243
F2.6800000000000002
sS'YJL017W'
p4244
F0.56000000000000005
sS'YMR130W'
p4245
F3.9900000000000002
sS'YPR155C'
p4246
F0.70999999999999996
sS'YML095C'
p4247
F0.62
sS'YOR117W'
p4248
F11.130000000000001
sS'YJR066W'
p4249
F0.27000000000000002
sS'YGL195W'
p4250
F1.6299999999999999
sS'YKL123W'
p4251
F0.71999999999999997
sS'YKR025W'
p4252
F2.5299999999999998
sS'YDL114W'
p4253
F0.14000000000000001
sS'YLR423C'
p4254
F0.20999999999999999
sS'YDR305C'
p4255
F1.28
sS'YDR205W'
p4256
F1.1599999999999999
sS'YJL057C'
p4257
F0.63
sS'YJL108C'
p4258
F1.54
sS'YLR266C'
p4259
F0.16
sS'YER088C'
p4260
F3.8300000000000001
sS'YPL171C'
p4261
F0.19
sS'YDR358W'
p4262
F0.48999999999999999
sS'YDR076W'
p4263
F0.5
sS'YDR056C'
p4264
F9.9299999999999997
sS'YLR096W'
p4265
F1.1100000000000001
sS'YCR067C'
p4266
F2.6600000000000001
sS'YJL035C'
p4267
F0.71999999999999997
sS'YMR047C'
p4268
F2.2599999999999998
sS'YMR147W'
p4269
F1.3200000000000001
sS'YOR120W'
p4270
F0.81000000000000005
sS'YER040W'
p4271
F1
sS'YCR089W'
p4272
F0.82999999999999996
sS'YIR032C'
p4273
F0.56999999999999995
sS'YBL088C'
p4274
F1.3
sS'YDR247W'
p4275
F15.49
sS'YHR086W'
p4276
F0.69999999999999996
sS'YGR274C'
p4277
F0.67000000000000004
sS'YLR100W'
p4278
F11.130000000000001
sS'YNL163C'
p4279
F1.04
sS'YML055W'
p4280
F1.1000000000000001
sS'YPR077C'
p4281
F0.90000000000000002
sS'YGL015C'
p4282
F0.17999999999999999
sS'YEL064C'
p4283
F0.5
sS'YLR116W'
p4284
F1.73
sS'YMR127C'
p4285
F0.81999999999999995
sS'YLR440C'
p4286
F0.81999999999999995
sS'YHR083W'
p4287
F2.2000000000000002
sS'YMR184W'
p4288
F4.8099999999999996
s.