(dp1
S'YLR268W'
p2
I3
sS'YOR011W'
p3
I2
sS'YPR023C'
p4
I8
sS'YAL008W'
p5
I3
sS'YNR028W'
p6
I5
sS'YBR255W'
p7
I2
sS'YBR128C'
p8
I1
sS'YCR093W'
p9
I10
sS'YIL034C'
p10
I4
sS'YJR122W'
p11
I5
sS'YGR131W'
p12
I1
sS'YNL103W'
p13
I11
sS'YPL144W'
p14
I3
sS'YBR135W'
p15
I2
sS'YBR160W'
p16
I8
sS'YJL082W'
p17
I2
sS'YHR007C'
p18
I30
sS'YIR004W'
p19
I9
sS'YJL142C'
p20
I2
sS'YPL191C'
p21
I1
sS'YLR395C'
p22
I3
sS'YDR312W'
p23
I3
sS'YLR348C'
p24
I13
sS'YBR248C'
p25
I18
sS'YNR067C'
p26
I15
sS'YNL152W'
p27
I3
sS'YKL096W-A'
p28
I51
sS'YFL045C'
p29
I46
sS'YFL010C'
p30
I10
sS'YDR141C'
p31
I10
sS'YJL131C'
p32
I1
sS'YIL124W'
p33
I6
sS'YPL039W'
p34
I1
sS'YKL048C'
p35
I2
sS'YDR083W'
p36
I17
sS'YOR123C'
p37
I12
sS'YJL179W'
p38
I5
sS'YPL071C'
p39
I2
sS'YKL183W'
p40
I8
sS'YLR362W'
p41
I5
sS'YPL024W'
p42
I4
sS'YKL134C'
p43
I4
sS'YOR009W'
p44
I3
sS'YKL029C'
p45
I20
sS'YPL166W'
p46
I4
sS'YKL052C'
p47
I8
sS'YBR273C'
p48
I3
sS'YHR025W'
p49
I10
sS'YOR313C'
p50
I1
sS'YAL026C'
p51
I7
sS'YOL034W'
p52
I6
sS'YFL017W-A'
p53
I5
sS'YBL008W'
p54
I5
sS'YGL237C'
p55
I4
sS'YIL062C'
p56
I11
sS'YNL295W'
p57
I7
sS'YDR016C'
p58
I4
sS'YOL129W'
p59
I11
sS'YDR299W'
p60
I10
sS'YOL116W'
p61
I2
sS'YBR182C'
p62
I1
sS'YDR196C'
p63
I5
sS'YER023W'
p64
I38
sS'YNL255C'
p65
I38
sS'YNR032W'
p66
I2
sS'YNR045W'
p67
I3
sS'YML105C'
p68
I11
sS'YNL288W'
p69
I5
sS'YIL091C'
p70
I10
sS'YPL104W'
p71
I5
sS'YIL059C'
p72
I1
sS'YLR253W'
p73
I14
sS'YIL004C'
p74
I6
sS'YNR018W'
p75
I8
sS'YNL003C'
p76
I3
sS'YFR047C'
p77
I10
sS'YBR215W'
p78
I3
sS'YIL106W'
p79
I7
sS'YER087C-B'
p80
I12
sS'YML127W'
p81
I4
sS'YLR188W'
p82
I16
sS'YGR084C'
p83
I4
sS'YJR115W'
p84
I1
sS'YCR002C'
p85
I6
sS'YLR355C'
p86
I73
sS'YGL157W'
p87
I5
sS'YGR099W'
p88
I4
sS'YJR093C'
p89
I4
sS'YPR145C-A'
p90
I1
sS'YLR300W'
p91
I21
sS'YCL028W'
p92
I6
sS'YJR140C'
p93
I3
sS'YGR146C'
p94
I3
sS'YOR033C'
p95
I3
sS'YOR062C'
p96
I2
sS'YBR043C'
p97
I9
sS'YNL237W'
p98
I1
sS'YHR112C'
p99
I4
sS'YNR007C'
p100
I2
sS'YLR011W'
p101
I2
sS'YIL044C'
p102
I4
sS'YNL197C'
p103
I2
sS'YDL073W'
p104
I10
sS'YDL004W'
p105
I10
sS'YER121W'
p106
I1
sS'YCR046C'
p107
I4
sS'YLR059C'
p108
I6
sS'YDR507C'
p109
I11
sS'YDR379C-A'
p110
I1
sS'YEL007W'
p111
I6
sS'YKL204W'
p112
I10
sS'YOR266W'
p113
I4
sS'YDR320C-A'
p114
I2
sS'YDR421W'
p115
I2
sS'YGL171W'
p116
I13
sS'YGL215W'
p117
I12
sS'YGR019W'
p118
I2
sS'YMR194W'
p119
I34
sS'YNL080C'
p120
I5
sS'YOR382W'
p121
I8
sS'YDR022C'
p122
I1
sS'YPL266W'
p123
I19
sS'YOR080W'
p124
I4
sS'YGL062W'
p125
I13
sS'YNL229C'
p126
I6
sS'YER169W'
p127
I6
sS'YOL016C'
p128
I17
sS'YOR226C'
p129
I12
sS'YEL025C'
p130
I8
sS'YNL186W'
p131
I9
sS'YMR040W'
p132
I2
sS'YDR077W'
p133
I9
sS'YBL063W'
p134
I6
sS'YMR146C'
p135
I27
sS'YPR165W'
p136
I26
sS'YMR266W'
p137
I12
sS'YKR064W'
p138
I6
sS'YCR060W'
p139
I4
sS'YPL089C'
p140
I3
sS'YBR016W'
p141
I4
sS'YDL139C'
p142
I2
sS'YDR246W'
p143
I5
sS'YOR288C'
p144
I7
sS'YOR198C'
p145
I32
sS'YML054C'
p146
I1
sS'YHR089C'
p147
I35
sS'YMR168C'
p148
I4
sS'YLL035W'
p149
I4
sS'YER007W'
p150
I5
sS'YOR141C'
p151
I7
sS'YBL106C'
p152
I4
sS'YGL044C'
p153
I5
sS'YER107C'
p154
I4
sS'YBR038W'
p155
I5
sS'YJR011C'
p156
I4
sS'YDR117C'
p157
I8
sS'YEL047C'
p158
I5
sS'YPR016C'
p159
I16
sS'YOR208W'
p160
I1
sS'YDL055C'
p161
I99
sS'YML009C'
p162
I2
sS'YML072C'
p163
I23
sS'YDR142C'
p164
I5
sS'YFL044C'
p165
I5
sS'YKL019W'
p166
I6
sS'YJL130C'
p167
I25
sS'YJL078C'
p168
I5
sS'YNL173C'
p169
I5
sS'YBL085W'
p170
I9
sS'YGR200C'
p171
I20
sS'YIL127C'
p172
I11
sS'YDR082W'
p173
I4
sS'YDR348C'
p174
I6
sS'YKL182W'
p175
I65
sS'YKL165C-A'
p176
I1
sS'YDR333C'
p177
I15
sS'YKL018C-A'
p178
I3
sS'YKL051W'
p179
I2
sS'YLR294C'
p180
I7
sS'YPL167C'
p181
I2
sS'YLR223C'
p182
I22
sS'YJL178C'
p183
I10
sS'YLR363C'
p184
I3
sS'YJL046W'
p185
I4
sS'YIR013C'
p186
I2
sS'YDR179C'
p187
I3
sS'YLR431C'
p188
I2
sS'YKR046C'
p189
I2
sS'YGR204W'
p190
I32
sS'YJR005W'
p191
I5
sS'YBL098W'
p192
I6
sS'YDL095W'
p193
I34
sS'YER030W'
p194
I9
sS'YBR201C-A'
p195
I1
sS'YHR041C'
p196
I2
sS'YJR072C'
p197
I14
sS'YDR047W'
p198
I15
sS'YKR039W'
p199
I1
sS'YGR238C'
p200
I4
sS'YGL003C'
p201
I4
sS'YPL009C'
p202
I16
sS'YOR118W'
p203
I5
sS'YLR205C'
p204
I1
sS'YDR268W'
p205
I4
sS'YMR022W'
p206
I9
sS'YML094W'
p207
I2
sS'YKR006C'
p208
I4
sS'YDL117W'
p209
I8
sS'YMR131C'
p210
I31
sS'YMR293C'
p211
I2
sS'YPR138C'
p212
I6
sS'YIL005W'
p213
I10
sS'YIL105C'
p214
I8
sS'YDR146C'
p215
I14
sS'YNL119W'
p216
I4
sS'YML126C'
p217
I24
sS'YHR079C'
p218
I7
sS'YIL150C'
p219
I3
sS'YLR435W'
p220
I6
sS'YNR019W'
p221
I8
sS'YGR158C'
p222
I3
sS'YKL077W'
p223
I11
sS'YFR046C'
p224
I4
sS'YBR212W'
p225
I1
sS'YJR109C'
p226
I24
sS'YLR254C'
p227
I3
sS'YPL105C'
p228
I11
sS'YJR141W'
p229
I1
sS'YGR145W'
p230
I20
sS'YLR354C'
p231
I45
sS'YJR094C'
p232
I1
sS'YLR301W'
p233
I21
sS'YGR098C'
p234
I7
sS'YGL154C'
p235
I2
sS'YHR146W'
p236
I13
sS'YAL009W'
p237
I3
sS'YJR054W'
p238
I1
sS'YBR129C'
p239
I6
sS'YDL160C'
p240
I5
sS'YHR119W'
p241
I10
sS'YJR123W'
p242
I284
sS'YGR167W'
p243
I21
sS'YKL099C'
p244
I10
sS'YDR315C'
p245
I2
sS'YJL143W'
p246
I7
sS'YBR161W'
p247
I3
sS'YNL002C'
p248
I36
sS'YLR394W'
p249
I4
sS'YNL104C'
p250
I25
sS'YPL145C'
p251
I12
sS'YIL118W'
p252
I10
sS'YNL151C'
p253
I7
sS'YPL190C'
p254
I8
sS'YNR066C'
p255
I2
sS'YLR220W'
p256
I8
sS'YHR006W'
p257
I7
sS'YAL026C-A'
p258
I4
sS'YNL083W'
p259
I4
sS'YDR217C'
p260
I8
sS'YOR267C'
p261
I4
sS'YER093C-A'
p262
I3
sS'YOR367W'
p263
I8
sS'YOR385W'
p264
I2
sS'YGR185C'
p265
I42
sS'YJL189W'
p266
I111
sS'YER168C'
p267
I7
sS'YPL265W'
p268
I20
sS'YOR227W'
p269
I5
sS'YOR081C'
p270
I3
sS'YEL026W'
p271
I30
sS'YGR050C'
p272
I2
sS'YLL050C'
p273
I52
sS'YDR392W'
p274
I8
sS'YGL172W'
p275
I7
sS'YCR097W'
p276
I6
sS'YNL274C'
p277
I1
sS'YDR021W'
p278
I6
sS'YGL063W'
p279
I3
sS'YPL212C'
p280
I17
sS'YOR101W'
p281
I7
sS'YGR081C'
p282
I14
sS'YPR095C'
p283
I8
sS'YOR310C'
p284
I50
sS'YOR063W'
p285
I503
sS'YDR188W'
p286
I27
sS'YAL027W'
p287
I2
sS'YGL236C'
p288
I1
sS'YHR133C'
p289
I13
sS'YDR017C'
p290
I13
sS'YOL080C'
p291
I4
sS'YOL117W'
p292
I2
sS'YBR283C'
p293
I25
sS'YIL090W'
p294
I7
sS'YML104C'
p295
I11
sS'YNR033W'
p296
I12
sS'YNR044W'
p297
I1
sS'YDR195W'
p298
I7
sS'YOL048C'
p299
I1
sS'YNL256W'
p300
I9
sS'YGR126W'
p301
I1
sS'YGR072W'
p302
I6
sS'YPR094W'
p303
I2
sS'YCR007C'
p304
I2
sS'YDR540C'
p305
I2
sS'YEL004W'
p306
I3
sS'YPR057W'
p307
I7
sS'YLL032C'
p308
I4
sS'YJL020C'
p309
I4
sS'YBR039W'
p310
I13
sS'YDR116C'
p311
I3
sS'YGR258C'
p312
I10
sS'YPL234C'
p313
I12
sS'YDL056W'
p314
I4
sS'YOR209C'
p315
I25
sS'YKL117W'
p316
I36
sS'YPR017C'
p317
I3
sS'YPL119C-A'
p318
I1
sS'YEL044W'
p319
I4
sS'YML071C'
p320
I13
sS'YDR122W'
p321
I12
sS'YER120W'
p322
I32
sS'YBR042C'
p323
I4
sS'YOL062C'
p324
I11
sS'YNL234W'
p325
I3
sS'YJL194W'
p326
I2
sS'YOL015W'
p327
I2
sS'YHR111W'
p328
I6
sS'YGL071W'
p329
I5
sS'YPR170W-B'
p330
I10
sS'YDL070W'
p331
I20
sS'YPR170W-A'
p332
I3
sS'YCR047C'
p333
I5
sS'YMR187C'
p334
I2
sS'YEL037C'
p335
I14
sS'YOR241W'
p336
I13
sS'YBR202W'
p337
I6
sS'YLR056W'
p338
I37
sS'YKL205W'
p339
I20
sS'YKL110C'
p340
I6
sS'YPR040W'
p341
I6
sS'YHR040W'
p342
I7
sS'YML057W'
p343
I4
sS'YDR178W'
p344
I1
sS'YKR038C'
p345
I16
sS'YLR432W'
p346
I14
sS'YJR004C'
p347
I1
sS'YBR280C'
p348
I2
sS'YJL115W'
p349
I5
sS'YJR073C'
p350
I6
sS'YGL004C'
p351
I6
sS'YLR204W'
p352
I6
sS'YML097C'
p353
I2
sS'YKR007W'
p354
I1
sS'YHR193C'
p355
I65
sS'YMR292W'
p356
I3
sS'YBL099W'
p357
I37
sS'YMR132C'
p358
I3
sS'YPL008W'
p359
I6
sS'YOR126C'
p360
I3
sS'YDL116W'
p361
I13
sS'YGL193C'
p362
I2
sS'YOR119C'
p363
I5
sS'YLR409C'
p364
I18
sS'YNL187W'
p365
I3
sS'YCL045C'
p366
I14
sS'YPL088W'
p367
I2
sS'YKR065C'
p368
I6
sS'YMR041C'
p369
I1
sS'YLR078C'
p370
I13
sS'YMR267W'
p371
I6
sS'YDR078C'
p372
I3
sS'YMR109W'
p373
I7
sS'YDR232W'
p374
I6
sS'YDR245W'
p375
I14
sS'YHR088W'
p376
I12
sS'YGR276C'
p377
I11
sS'YBR017C'
p378
I13
sS'YER100W'
p379
I9
sS'YDL138W'
p380
I2
sS'YOR289W'
p381
I1
sS'YPR162C'
p382
I11
sS'YLR178C'
p383
I3
sS'YHR175W'
p384
I4
sS'YGR166W'
p385
I3
sS'YDL161W'
p386
I10
sS'YKL101W'
p387
I7
sS'YKL050C'
p388
I1
sS'YOR013W'
p389
I1
sS'YDL212W'
p390
I11
sS'YJR055W'
p391
I2
sS'YDR390C'
p392
I12
sS'YGL099W'
p393
I21
sS'YFL030W'
p394
I2
sS'YIL119C'
p395
I3
sS'YPL193W'
p396
I4
sS'YNL005C'
p397
I4
sS'YDR314C'
p398
I2
sS'YJL144W'
p399
I2
sS'YDR255C'
p400
I3
sS'YKL098W'
p401
I2
sS'YJR139C'
p402
I41
sS'YBR133C'
p403
I8
sS'YBR162C'
p404
I23
sS'YDR279W'
p405
I3
sS'YJL133W'
p406
I8
sS'YGR260W'
p407
I14
sS'YBL084C'
p408
I5
sS'YDR143C'
p409
I6
sS'YJL079C'
p410
I3
sS'YBR111C'
p411
I8
sS'YGL019W'
p412
I9
sS'YGR201C'
p413
I3
sS'YPR122W'
p414
I7
sS'YNL172W'
p415
I3
sS'YNL058C'
p416
I2
sS'YMR135C'
p417
I3
sS'YPL160W'
p418
I51
sS'YGR289C'
p419
I2
sS'YNL023C'
p420
I12
sS'YDR349C'
p421
I12
sS'YIR011C'
p422
I7
sS'YDR214W'
p423
I16
sS'YLR222C'
p424
I16
sS'YLR201C'
p425
I4
sS'YLR295C'
p426
I8
sS'YDR332W'
p427
I1
sS'YHR168W'
p428
I3
sS'YOR064C'
p429
I5
sS'YOL154W'
p430
I1
sS'YBR130C'
p431
I11
sS'YOR311C'
p432
I6
sS'YOL081W'
p433
I6
sS'YOL036W'
p434
I5
sS'YOR344C'
p435
I6
sS'YOR002W'
p436
I8
sS'YDR189W'
p437
I10
sS'YAL028W'
p438
I1
sS'YBR282W'
p439
I6
sS'YOR079C'
p440
I4
sS'YDR404C'
p441
I6
sS'YHR132C'
p442
I8
sS'YGL133W'
p443
I4
sS'YHR078W'
p444
I6
sS'YDR194C'
p445
I9
sS'YOL049W'
p446
I17
sS'YDR014W'
p447
I4
sS'YNL257C'
p448
I8
sS'YNR030W'
p449
I3
sS'YIL093C'
p450
I6
sS'YML007C-A'
p451
I1
sS'YKL076C'
p452
I2
sS'YDR466W'
p453
I3
sS'YLR397C'
p454
I14
sS'YJL210W'
p455
I2
sS'YFR045W'
p456
I5
sS'YIL104C'
p457
I7
sS'YIL151C'
p458
I5
sS'YIL002C'
p459
I8
sS'YGR159C'
p460
I32
sS'YBR213W'
p461
I2
sS'YLR398C'
p462
I15
sS'YNL118C'
p463
I12
sS'YPR031W'
p464
I6
sS'YGL228W'
p465
I13
sS'YJR117W'
p466
I13
sS'YGR144W'
p467
I1
sS'YGR111W'
p468
I6
sS'YGL155W'
p469
I4
sS'YOR007C'
p470
I41
sS'YIL030W-A'
p471
I1
sS'YLR357W'
p472
I8
sS'YER127W'
p473
I15
sS'YOL063C'
p474
I5
sS'YDR118W-A'
p475
I2
sS'YJL193W'
p476
I5
sS'YBL015W'
p477
I2
sS'YEL027W'
p478
I64
sS'YOL014W'
p479
I1
sS'YDR123C'
p480
I1
sS'YHR110W'
p481
I10
sS'YBR041W'
p482
I6
sS'YCR044C'
p483
I4
sS'YDL039C'
p484
I3
sS'YLR057W'
p485
I5
sS'YLR320W'
p486
I2
sS'YAR008W'
p487
I3
sS'YOR264W'
p488
I11
sS'YLR452C'
p489
I9
sS'YBL029C-A'
p490
I2
sS'YGR184C'
p491
I9
sS'YNL275W'
p492
I4
sS'YAR015W'
p493
I26
sS'YOR384W'
p494
I1
sS'YOR086C'
p495
I15
sS'YDR020C'
p496
I4
sS'YGR053C'
p497
I1
sS'YPL213W'
p498
I5
sS'YNL082W'
p499
I3
sS'YLL051C'
p500
I2
sS'YDR427W'
p501
I17
sS'YOR279C'
p502
I8
sS'YPL264C'
p503
I2
sS'YOR224C'
p504
I19
sS'YGL060W'
p505
I3
sS'YLR079W'
p506
I9
sS'YLR408C'
p507
I1
sS'YMR093W'
p508
I16
sS'YMR042W'
p509
I2
sS'YDR079W'
p510
I2
sS'YMR268C'
p511
I3
sS'YML070W'
p512
I9
sS'YGR191W'
p513
I7
sS'YBL061C'
p514
I13
sS'YAL003W'
p515
I108
sS'YMR140W'
p516
I3
sS'YHR175W-A'
p517
I2
sS'YPR072W'
p518
I14
sS'YMR108W'
p519
I41
sS'YLR401C'
p520
I18
sS'YDR244W'
p521
I5
sS'YDL137W'
p522
I14
sS'YNL302C'
p523
I48
sS'YDR233C'
p524
I16
sS'YEL005C'
p525
I2
sS'YDR527W'
p526
I5
sS'YKL146W'
p527
I3
sS'YOR242C'
p528
I1
sS'YCR059C'
p529
I3
sS'YGL053W'
p530
I1
sS'YCR004C'
p531
I16
sS'YDR115W'
p532
I4
sS'YMR166C'
p533
I3
sS'YGR071C'
p534
I4
sS'YCR106W'
p535
I6
sS'YML038C'
p536
I12
sS'YBR098W'
p537
I1
sS'YPR049C'
p538
I8
sS'YDL057W'
p539
I2
sS'YGR257C'
p540
I7
sS'YBR127C'
p541
I40
sS'YPL235W'
p542
I13
sS'YLR031W'
p543
I2
sS'YDL159W'
p544
I5
sS'YBL087C'
p545
I24
sS'YJL132W'
p546
I2
sS'YGL190C'
p547
I11
sS'YBR110W'
p548
I11
sS'YDR144C'
p549
I7
sS'YOR180C'
p550
I2
sS'YGL018C'
p551
I2
sS'YMR075W'
p552
I4
sS'YMR020W'
p553
I5
sS'YFL046W'
p554
I6
sS'YDR379W'
p555
I5
sS'YHR169W'
p556
I7
sS'YOR103C'
p557
I8
sS'YGR172C'
p558
I12
sS'YKL137W'
p559
I4
sS'YDR447C'
p560
I29
sS'YGL009C'
p561
I72
sS'YNL059C'
p562
I13
sS'YNL022C'
p563
I8
sS'YPR145W'
p564
I47
sS'YJL063C'
p565
I5
sS'YMR149W'
p566
I14
sS'YIR010W'
p567
I5
sS'YLR278C'
p568
I6
sS'YOR293W'
p569
I25
sS'YML056C'
p570
I51
sS'YKR044W'
p571
I2
sS'YER139C'
p572
I3
sS'YLR433C'
p573
I4
sS'YMR068W'
p574
I1
sS'YGR239C'
p575
I4
sS'YNL164C'
p576
I1
sS'YJL041W'
p577
I4
sS'YER032W'
p578
I5
sS'YJR070C'
p579
I14
sS'YDL097C'
p580
I21
sS'YGL005C'
p581
I3
sS'YHR043C'
p582
I2
sS'YDL111C'
p583
I7
sS'YLR049C'
p584
I9
sS'YPL007C'
p585
I5
sS'YDR495C'
p586
I5
sS'YLR203C'
p587
I7
sS'YKL159C'
p588
I2
sS'YKR004C'
p589
I2
sS'YDR059C'
p590
I1
sS'YML096W'
p591
I8
sS'YHR192W'
p592
I4
sS'YBR101C'
p593
I13
sS'YLR396C'
p594
I4
sS'YPL052W'
p595
I4
sS'YIL003W'
p596
I3
sS'YBR245C'
p597
I13
sS'YBR163W'
p598
I5
sS'YJL216C'
p599
I3
sS'YKL079W'
p600
I7
sS'YFR044C'
p601
I45
sS'YBR210W'
p602
I5
sS'YPL103C'
p603
I3
sS'YIL103W'
p604
I8
sS'YIL152W'
p605
I3
sS'YFR033C'
p606
I10
sS'YJR096W'
p607
I2
sS'YJR116W'
p608
I2
sS'YJL013C'
p609
I3
sS'YGR143W'
p610
I3
sS'YGR112W'
p611
I3
sS'YLR256W'
p612
I16
sS'YGL229C'
p613
I1
sS'YLR356W'
p614
I4
sS'YKL057C'
p615
I14
sS'YGL098W'
p616
I3
sS'YJR056C'
p617
I3
sS'YHR174W'
p618
I324
sS'YER067W'
p619
I1
sS'YOR012W'
p620
I1
sS'YGR161C'
p621
I4
sS'YLR192C'
p622
I21
sS'YPL069C'
p623
I3
sS'YDL213C'
p624
I19
sS'YKL195W'
p625
I14
sS'YLR378C'
p626
I9
sS'YDR317W'
p627
I1
sS'YFL031W'
p628
I22
sS'YDR478W'
p629
I2
sS'YJR138W'
p630
I3
sS'YKL179C'
p631
I18
sS'YJL145W'
p632
I9
sS'YBR132C'
p633
I1
sS'YPR114W'
p634
I8
sS'YNL106C'
p635
I2
sS'YNL004W'
p636
I6
sS'YOR378W'
p637
I1
sS'YFR015C'
p638
I2
sS'YCR020C-A'
p639
I6
sS'YOR265W'
p640
I5
sS'YIL092W'
p641
I4
sS'YPR133C'
p642
I14
sS'YLR321C'
p643
I7
sS'YMR233W'
p644
I2
sS'YPR199C'
p645
I5
sS'YLR376C'
p646
I1
sS'YGL216W'
p647
I4
sS'YGR052W'
p648
I1
sS'YCL012C'
p649
I3
sS'YOR278W'
p650
I1
sS'YNL085W'
p651
I22
sS'YGL061C'
p652
I2
sS'YDR394W'
p653
I19
sS'YPL210C'
p654
I13
sS'YOR330C'
p655
I6
sS'YAR014C'
p656
I14
sS'YLL052C'
p657
I1
sS'YOR087W'
p658
I5
sS'YDR151C'
p659
I5
sS'YGL234W'
p660
I46
sS'YOR347C'
p661
I2
sS'YPR093C'
p662
I3
sS'YBR126W-A'
p663
I8
sS'YOL082W'
p664
I5
sS'YAL029C'
p665
I15
sS'YKL013C'
p666
I7
sS'YOR030W'
p667
I2
sS'YOR065W'
p668
I2
sS'YGR186W'
p669
I20
sS'YDR294C'
p670
I14
sS'YBR267W'
p671
I7
sS'YNL250W'
p672
I6
sS'YFL014W'
p673
I1
sS'YOL115W'
p674
I7
sS'YDR457W'
p675
I18
sS'YNR031C'
p676
I7
sS'YNL131W'
p677
I11
sS'YEL020W-A'
p678
I4
sS'YJL073W'
p679
I3
sS'YBL005W'
p680
I3
sS'YOR078W'
p681
I14
sS'YOR243C'
p682
I15
sS'YKL067W'
p683
I14
sS'YDR041W'
p684
I1
sS'YGR070W'
p685
I5
sS'YMR165C'
p686
I3
sS'YCR005C'
p687
I27
sS'YBL101C'
p688
I4
sS'YPR055W'
p689
I6
sS'YIL016W'
p690
I8
sS'YLR032W'
p691
I6
sS'YLR089C'
p692
I13
sS'YDR488C'
p693
I2
sS'YLR154C'
p694
I2
sS'YEL042W'
p695
I24
sS'YPR048W'
p696
I7
sS'YBL027W'
p697
I70
sS'YOL060C'
p698
I4
sS'YNL208W'
p699
I10
sS'YNL232W'
p700
I8
sS'YLR014C'
p701
I5
sS'YDL076C'
p702
I4
sS'YDR120C'
p703
I11
sS'YER126C'
p704
I18
sS'YNL121C'
p705
I21
sS'YJL192C'
p706
I10
sS'YHR117W'
p707
I9
sS'YPL258C'
p708
I1
sS'YDR265W'
p709
I5
sS'YKL203C'
p710
I6
sS'YHR017W'
p711
I2
sS'YDL036C'
p712
I8
sS'YML059C'
p713
I5
sS'YKL116C'
p714
I5
sS'YKR045C'
p715
I4
sS'YIL014C-A'
p716
I2
sS'YOR292C'
p717
I4
sS'YER044C'
p718
I5
sS'YER035W'
p719
I1
sS'YPR128C'
p720
I5
sS'YLR105C'
p721
I4
sS'YML091C'
p722
I5
sS'YHR148W'
p723
I3
sS'YHR191C'
p724
I3
sS'YDL110C'
p725
I1
sS'YDL098C'
p726
I2
sS'YLR202C'
p727
I2
sS'YIR025W'
p728
I4
sS'YGL006W'
p729
I4
sS'YPL006W'
p730
I4
sS'YKR005C'
p731
I1
sS'YKR067W'
p732
I3
sS'YMR143W'
p733
I38
sS'YCR063W'
p734
I1
sS'YOR168W'
p735
I38
sS'YNL189W'
p736
I20
sS'YMR043W'
p737
I7
sS'YFR024C-A'
p738
I11
sS'YCL047C'
p739
I3
sS'YML077W'
p740
I4
sS'YER068W'
p741
I5
sS'YER013W'
p742
I8
sS'YMR269W'
p743
I4
sS'YKL053C-A'
p744
I1
sS'YGL122C'
p745
I14
sS'YJL008C'
p746
I28
sS'YDL018C'
p747
I6
sS'YOR120W'
p748
I4
sS'YMR191W'
p749
I3
sS'YPR073C'
p750
I7
sS'YER188W'
p751
I1
sS'YDR424C'
p752
I7
sS'YNL277W'
p753
I3
sS'YCR090C'
p754
I9
sS'YKL056C'
p755
I148
sS'YOR332W'
p756
I59
sS'YPL068C'
p757
I3
sS'YJR057W'
p758
I4
sS'YGL011C'
p759
I19
sS'YGL211W'
p760
I6
sS'YDR524C-B'
p761
I83
sS'YPL195W'
p762
I16
sS'YNL107W'
p763
I3
sS'YCL044C'
p764
I1
sS'YDR479C'
p765
I6
sS'YAL059W'
p766
I7
sS'YNL007C'
p767
I23
sS'YPL148C'
p768
I3
sS'YKL096W'
p769
I8
sS'YJR137C'
p770
I5
sS'YMR021C'
p771
I3
sS'YMR074C'
p772
I8
sS'YDR378C'
p773
I12
sS'YER140W'
p774
I4
sS'YBL086C'
p775
I3
sS'YNL069C'
p776
I104
sS'YJR039W'
p777
I4
sS'YDL158C'
p778
I5
sS'YFL041W'
p779
I4
sS'YJL168C'
p780
I12
sS'YDR145W'
p781
I13
sS'YFL009W'
p782
I7
sS'YDR330W'
p783
I6
sS'YPR146C'
p784
I1
sS'YJL062W'
p785
I5
sS'YNL325C'
p786
I8
sS'YLR297W'
p787
I1
sS'YOR128C'
p788
I14
sS'YLR363W-A'
p789
I4
sS'YDR057W'
p790
I1
sS'YDR216W'
p791
I3
sS'YIL120W'
p792
I2
sS'YKL130C'
p793
I6
sS'YPL162C'
p794
I3
sS'YOR346W'
p795
I9
sS'YAR031W'
p796
I2
sS'YGL233W'
p797
I11
sS'YLR172C'
p798
I24
sS'YGR113W'
p799
I6
sS'YLR319C'
p800
I8
sS'YMR235C'
p801
I28
sS'YOR341W'
p802
I40
sS'YHR029C'
p803
I10
sS'YGR209C'
p804
I21
sS'YDR295C'
p805
I10
sS'YAL033W'
p806
I7
sS'YNL130C'
p807
I11
sS'YNR036C'
p808
I6
sS'YNR049C'
p809
I6
sS'YDR192C'
p810
I4
sS'YOL112W'
p811
I7
sS'YML109W'
p812
I4
sS'YOL083W'
p813
I2
sS'YNL251C'
p814
I6
sS'YHR134W'
p815
I7
sS'YBL004W'
p816
I24
sS'YBR164C'
p817
I12
sS'YIL153W'
p818
I5
sS'YHR074W'
p819
I13
sS'YBR211C'
p820
I1
sS'YLR399C'
p821
I15
sS'YGR277C'
p822
I9
sS'YFR030W'
p823
I6
sS'YJL146W'
p824
I3
sS'YAL011W'
p825
I4
sS'YBR036C'
p826
I9
sS'YKL078W'
p827
I5
sS'YIL055C'
p828
I5
sS'YPL053C'
p829
I8
sS'YBR179C'
p830
I2
sS'YPL155C'
p831
I5
sS'YJR097W'
p832
I3
sS'YLR351C'
p833
I15
sS'YPR116W'
p834
I2
sS'YGR142W'
p835
I11
sS'YPL100W'
p836
I5
sS'YLR257W'
p837
I20
sS'YNR014W'
p838
I1
sS'YBL026W'
p839
I6
sS'YBR251W'
p840
I8
sS'YDR121W'
p841
I3
sS'YER125W'
p842
I8
sS'YNL233W'
p843
I6
sS'YPL211W'
p844
I13
sS'YDL077C'
p845
I5
sS'YOR222W'
p846
I5
sS'YOL061W'
p847
I15
sS'YER152C'
p848
I11
sS'YLR015W'
p849
I5
sS'YHR116W'
p850
I1
sS'YPL259C'
p851
I6
sS'YLR008C'
p852
I2
sS'YHR210C'
p853
I1
sS'YPR133W-A'
p854
I8
sS'YMR219W'
p855
I10
sS'YLR055C'
p856
I8
sS'YCR028C'
p857
I2
sS'YOR039W'
p858
I12
sS'YFR016C'
p859
I13
sS'YIL077C'
p860
I7
sS'YLR450W'
p861
I11
sS'YGR109C'
p862
I5
sS'YIL095W'
p863
I2
sS'YOR084W'
p864
I4
sS'YNL084C'
p865
I14
sS'YGR055W'
p866
I18
sS'YGR135W'
p867
I34
sS'YLR179C'
p868
I24
sS'YOR386W'
p869
I2
sS'YDR397C'
p870
I7
sS'YPR198W'
p871
I6
sS'YHL038C'
p872
I4
sS'YOR051C'
p873
I15
sS'YDR425W'
p874
I3
sS'YBR287W'
p875
I9
sS'YML076C'
p876
I2
sS'YER174C'
p877
I5
sS'YOR140W'
p878
I2
sS'YHR094C'
p879
I7
sS'YGL219C'
p880
I2
sS'YDL182W'
p881
I3
sS'YER069W'
p882
I5
sS'YGL121C'
p883
I1
sS'YER012W'
p884
I12
sS'YOR040W'
p885
I2
sS'YBL067C'
p886
I5
sS'YHR098C'
p887
I12
sS'YDL019C'
p888
I8
sS'YDL135C'
p889
I9
sS'YNL300W'
p890
I10
sS'YMR273C'
p891
I4
sS'YMR061W'
p892
I10
sS'YDR168W'
p893
I8
sS'YLR344W'
p894
I21
sS'YBR069C'
p895
I21
sS'YMR164C'
p896
I7
sS'YGR077C'
p897
I8
sS'YDR512C'
p898
I3
sS'YDR113C'
p899
I2
sS'YLL031C'
p900
I4
sS'YPR012W'
p901
I1
sS'YLR033W'
p902
I4
sS'YLR088W'
p903
I6
sS'YBR021W'
p904
I4
sS'YNL283C'
p905
I4
sS'YGR255C'
p906
I6
sS'YDL051W'
p907
I23
sS'YKL074C'
p908
I1
sS'YBL102W'
p909
I5
sS'YPL237W'
p910
I55
sS'YLR120C'
p911
I6
sS'YNL183C'
p912
I5
sS'YEL043W'
p913
I11
sS'YMR077C'
p914
I4
sS'YNL068C'
p915
I9
sS'YJR036C'
p916
I3
sS'YPR056W'
p917
I6
sS'YJR080C'
p918
I3
sS'YFR052C-A'
p919
I1
sS'YBR112C'
p920
I12
sS'YBL081W'
p921
I2
sS'YNL326C'
p922
I3
sS'YFL008W'
p923
I11
sS'YDR337W'
p924
I7
sS'YJL061W'
p925
I8
sS'YBR219C'
p926
I2
sS'YPR147C'
p927
I2
sS'YDR441C'
p928
I2
sS'YPL094C'
p929
I19
sS'YNL020C'
p930
I3
sS'YPL023C'
p931
I8
sS'YLR290C'
p932
I2
sS'YPL163C'
p933
I10
sS'YIL123W'
p934
I8
sS'YOL052C-A'
p935
I1
sS'YBL052C'
p936
I8
sS'YPR161C'
p937
I8
sS'YOR291W'
p938
I6
sS'YJL112W'
p939
I6
sS'YNL193W'
p940
I3
sS'YMR059W'
p941
I3
sS'YDR062W'
p942
I24
sS'YGL047W'
p943
I1
sS'YML058W'
p944
I17
sS'YBR188C'
p945
I2
sS'YER034W'
p946
I4
sS'YJR076C'
p947
I6
sS'YHR190W'
p948
I12
sS'YLR106C'
p949
I29
sS'YKL157W'
p950
I15
sS'YKR002W'
p951
I10
sS'YBR003W'
p952
I12
sS'YDR398W'
p953
I16
sS'YCR095W-A'
p954
I2
sS'YPR129W'
p955
I10
sS'YDL113C'
p956
I4
sS'YDL099W'
p957
I7
sS'YPL005W'
p958
I1
sS'YJL147C'
p959
I2
sS'YBR247C'
p960
I19
sS'YLR185W'
p961
I46
sS'YDR463W'
p962
I6
sS'YIL001W'
p963
I7
sS'YAL010C'
p964
I2
sS'YIL154C'
p965
I2
sS'YPL149W'
p966
I4
sS'YBR165W'
p967
I4
sS'YCR087C-A'
p968
I11
sS'YHR075C'
p969
I2
sS'YKL004W'
p970
I12
sS'YMR250W'
p971
I4
sS'YFR031C'
p972
I11
sS'YPL154C'
p973
I15
sS'YJR110W'
p974
I5
sS'YIL149C'
p975
I20
sS'YPL101W'
p976
I8
sS'YLR258W'
p977
I3
sS'YNR015W'
p978
I5
sS'YJR098C'
p979
I4
sS'YLR350W'
p980
I6
sS'YBL103C'
p981
I3
sS'YHR176W'
p982
I2
sS'YGR163W'
p983
I4
sS'YKL022C'
p984
I5
sS'YDL164C'
p985
I4
sS'YJR050W'
p986
I9
sS'YOR156C'
p987
I4
sS'YDL211C'
p988
I1
sS'YNL006W'
p989
I2
sS'YGL210W'
p990
I5
sS'YPR110C'
p991
I22
sS'YPL194W'
p992
I1
sS'YAL058W'
p993
I6
sS'YDR319C'
p994
I2
sS'YFL033C'
p995
I5
sS'YKL095W'
p996
I2
sS'YJR136C'
p997
I5
sS'YIL094C'
p998
I22
sS'YJL098W'
p999
I10
sS'YLR451W'
p1000
I10
sS'YFR017C'
p1001
I1
sS'YLR342W-A'
p1002
I3
sS'YML108W'
p1003
I2
sS'YIL076W'
p1004
I10
sS'YOL044W'
p1005
I2
sS'YMR310C'
p1006
I5
sS'YLR323C'
p1007
I2
sS'YBL038W'
p1008
I5
sS'YOR085W'
p1009
I4
sS'YGL067W'
p1010
I5
sS'YCL010C'
p1011
I3
sS'YGR189C'
p1012
I10
sS'YNL278W'
p1013
I1
sS'YKL047W'
p1014
I10
sS'YOR363C'
p1015
I3
sS'YNL087W'
p1016
I13
sS'YLR318W'
p1017
I2
sS'YBR278W'
p1018
I4
sS'YOR067C'
p1019
I4
sS'YNL024C-A'
p1020
I2
sS'YDR296W'
p1021
I5
sS'YGL232W'
p1022
I8
sS'YPR091C'
p1023
I5
sS'YGR141W'
p1024
I2
sS'YGR094W'
p1025
I67
sS'YDL122W'
p1026
I15
sS'YNR048W'
p1027
I2
sS'YDR191W'
p1028
I2
sS'YMR243C'
p1029
I19
sS'YHR028C'
p1030
I11
sS'YBR265W'
p1031
I4
sS'YBL007C'
p1032
I10
sS'YNR037C'
p1033
I4
sS'YOL113W'
p1034
I2
sS'YCL024W'
p1035
I3
sS'YAL032C'
p1036
I5
sS'YGL145W'
p1037
I7
sS'YHR137W'
p1038
I9
sS'YBR230C'
p1039
I2
sS'YNL252C'
p1040
I7
sS'YBR187W'
p1041
I27
sS'YMR198W'
p1042
I5
sS'YCR003W'
p1043
I3
sS'YMR316C-B'
p1044
I2
sS'YMR316C-A'
p1045
I1
sS'YOR020W-A'
p1046
I2
sS'YDR511W'
p1047
I3
sS'YMR163C'
p1048
I5
sS'YDL177C'
p1049
I2
sS'YBR068C'
p1050
I23
sS'YDR043C'
p1051
I7
sS'YGR076C'
p1052
I3
sS'YEL015W'
p1053
I17
sS'YGR254W'
p1054
I4
sS'YEL040W'
p1055
I23
sS'YBR020W'
p1056
I2
sS'YLR418C'
p1057
I8
sS'YPR013C'
p1058
I1
sS'YER042W'
p1059
I6
sS'YER059W'
p1060
I7
sS'YKL087C'
p1061
I5
sS'YPL153C'
p1062
I4
sS'YBL025W'
p1063
I1
sS'YOL066C'
p1064
I6
sS'YDR126W'
p1065
I1
sS'YGL167C'
p1066
I19
sS'YHR115C'
p1067
I6
sS'YOR223W'
p1068
I3
sS'YER124C'
p1069
I30
sS'YEL022W'
p1070
I15
sS'YHR072W'
p1071
I10
sS'YOL019W'
p1072
I2
sS'YER153C'
p1073
I1
sS'YJL190C'
p1074
I95
sS'YKL001C'
p1075
I6
sS'YLR052W'
p1076
I4
sS'YNL230C'
p1077
I1
sS'YPL256C'
p1078
I15
sS'YKL201C'
p1079
I1
sS'YLL049W'
p1080
I3
sS'YOL026C'
p1081
I3
sS'YDL069C'
p1082
I2
sS'YPL216W'
p1083
I2
sS'YPR166C'
p1084
I3
sS'YJL042W'
p1085
I8
sS'YER037W'
p1086
I2
sS'YNL301C'
p1087
I5
sS'YJL111W'
p1088
I25
sS'YHR021C'
p1089
I77
sS'YNL192W'
p1090
I18
sS'YLL010C'
p1091
I9
sS'YMR058W'
p1092
I28
sS'YLR436C'
p1093
I7
sS'YJR112W-A'
p1094
I2
sS'YOR290C'
p1095
I12
sS'YKL114C'
p1096
I6
sS'YML024W'
p1097
I31
sS'YML093W'
p1098
I20
sS'YJR077C'
p1099
I8
sS'YHR197W'
p1100
I10
sS'YDL112W'
p1101
I7
sS'YBR002C'
p1102
I8
sS'YDR276C'
p1103
I7
sS'YLR200W'
p1104
I10
sS'YKL154W'
p1105
I6
sS'YKR003W'
p1106
I5
sS'YDL074C'
p1107
I17
sS'YLR107W'
p1108
I6
sS'YLR121C'
p1109
I4
sS'YDL052C'
p1110
I14
sS'YER175C'
p1111
I1
sS'YIR012W'
p1112
I16
sS'YML075C'
p1113
I5
sS'YDL183C'
p1114
I2
sS'YMR218C'
p1115
I3
sS'YML002W'
p1116
I5
sS'YNL265C'
p1117
I8
sS'YER011W'
p1118
I2
sS'YCL049C'
p1119
I4
sS'YGR196C'
p1120
I5
sS'YGR271C-A'
p1121
I6
sS'YDR169C'
p1122
I3
sS'YOR238W'
p1123
I2
sS'YNR041C'
p1124
I3
sS'YBL033C'
p1125
I2
sS'YMR090W'
p1126
I4
sS'YHR099W'
p1127
I10
sS'YMR272C'
p1128
I5
sS'YPR108W'
p1129
I23
sS'YKL132C'
p1130
I2
sS'YKL054C'
p1131
I22
sS'YHR171W'
p1132
I4
sS'YGR162W'
p1133
I36
sS'YDL165W'
p1134
I10
sS'YDR258C'
p1135
I13
sS'YDR520C'
p1136
I7
sS'YKL023W'
p1137
I4
sS'YHL039W'
p1138
I11
sS'YJR051W'
p1139
I10
sS'YKL094W'
p1140
I15
sS'YOL030W'
p1141
I8
sS'YDR318W'
p1142
I4
sS'YFL034W'
p1143
I5
sS'YER080W'
p1144
I8
sS'YPL179W'
p1145
I8
sS'YJR019C'
p1146
I1
sS'YJR135C'
p1147
I2
sS'YFR032C-A'
p1148
I81
sS'YGL213C'
p1149
I8
sS'YFR032C-B'
p1150
I1
sS'YDR147W'
p1151
I6
sS'YMR031C'
p1152
I5
sS'YBL080C'
p1153
I3
sS'YMR076C'
p1154
I10
sS'YGR205W'
p1155
I3
sS'YMR136W'
p1156
I1
sS'YPR174C'
p1157
I4
sS'YDL083C'
p1158
I32
sS'YGR016W'
p1159
I2
sS'YKL113C'
p1160
I7
sS'YNL027W'
p1161
I8
sS'YPL022W'
p1162
I6
sS'YDR336W'
p1163
I5
sS'YJL060W'
p1164
I5
sS'YPL095C'
p1165
I3
sS'YNL327W'
p1166
I14
sS'YLR291C'
p1167
I14
sS'YDR210W'
p1168
I9
sS'YIL122W'
p1169
I2
sS'YIR001C'
p1170
I1
sS'YDL230W'
p1171
I2
sS'YDR236C'
p1172
I3
sS'YJR113C'
p1173
I5
sS'YBR279W'
p1174
I17
sS'YGR024C'
p1175
I13
sS'YIR026C'
p1176
I3
sS'YOR340C'
p1177
I20
sS'YGR140W'
p1178
I4
sS'YOL158C'
p1179
I13
sS'YGR097W'
p1180
I4
sS'YOR122C'
p1181
I33
sS'YIL068C'
p1182
I14
sS'YCL025C'
p1183
I3
sS'YBR184W'
p1184
I5
sS'YGL231C'
p1185
I12
sS'YHR136C'
p1186
I9
sS'YNL282W'
p1187
I4
sS'YBR286W'
p1188
I51
sS'YGL144C'
p1189
I7
sS'YDR190C'
p1190
I24
sS'YAL031C'
p1191
I8
sS'YBL006C'
p1192
I11
sS'YGR108W'
p1193
I8
sS'YBR264C'
p1194
I2
sS'YBR231C'
p1195
I2
sS'YBR246W'
p1196
I4
sS'YDL184C'
p1197
I14
sS'YHR076W'
p1198
I7
sS'YDR462W'
p1199
I4
sS'YIL155C'
p1200
I3
sS'YJL148W'
p1201
I20
sS'YDR302W'
p1202
I4
sS'YPL055C'
p1203
I4
sS'YAL013W'
p1204
I4
sS'YLR353W'
p1205
I5
sS'YIL148W'
p1206
I55
sS'YNR016C'
p1207
I50
sS'YJR099W'
p1208
I3
sS'YLR259C'
p1209
I63
sS'YMR034C'
p1210
I2
sS'YFR036W'
p1211
I2
sS'YPL157W'
p1212
I7
sS'YKL005C'
p1213
I6
sS'YDR418W'
p1214
I98
sS'YPL217C'
p1215
I25
sS'YHR114W'
p1216
I6
sS'YBL024W'
p1217
I30
sS'YOL067C'
p1218
I2
sS'YGR028W'
p1219
I6
sS'YDL075W'
p1220
I73
sS'YER150W'
p1221
I2
sS'YDR127W'
p1222
I17
sS'YCL034W'
p1223
I7
sS'YOL018C'
p1224
I4
sS'YOR220W'
p1225
I6
sS'YNL231C'
p1226
I16
sS'YNL264C'
p1227
I9
sS'YOL027C'
p1228
I10
sS'YPL257W'
p1229
I2
sS'YPL120W'
p1230
I2
sS'YIL075C'
p1231
I42
sS'YOL145C'
p1232
I8
sS'YJL099W'
p1233
I4
sS'YHR149C'
p1234
I6
sS'YLR324W'
p1235
I4
sS'YOL098C'
p1236
I16
sS'YNR074C'
p1237
I2
sS'YDR005C'
p1238
I8
sS'YPR154W'
p1239
I3
sS'YIL097W'
p1240
I2
sS'YOL045W'
p1241
I9
sS'YFR010W'
p1242
I10
sS'YHL009C'
p1243
I2
sS'YMR311C'
p1244
I8
sS'YAL042W'
p1245
I19
sS'YDR251W'
p1246
I7
sS'YIL008W'
p1247
I7
sS'YBL039C'
p1248
I28
sS'YGR188C'
p1249
I3
sS'YER089C'
p1250
I5
sS'YNL086W'
p1251
I1
sS'YGL064C'
p1252
I1
sS'YLR126C'
p1253
I6
sS'YDL053C'
p1254
I6
sS'YKL109W'
p1255
I1
sS'YKR062W'
p1256
I8
sS'YNL286W'
p1257
I5
sS'YMR119W'
p1258
I6
sS'YER010C'
p1259
I2
sS'YER176W'
p1260
I12
sS'YDL180W'
p1261
I7
sS'YGL127C'
p1262
I3
sS'YDL133W'
p1263
I3
sS'YOR131C'
p1264
I11
sS'YLR166C'
p1265
I7
sS'YMR271C'
p1266
I1
sS'YDR393W'
p1267
I5
sS'YBR008C'
p1268
I2
sS'YPL004C'
p1269
I15
sS'YLR189C'
p1270
I7
sS'YMR199W'
p1271
I12
sS'YER118C'
p1272
I11
sS'YMR253C'
p1273
I1
sS'YJL127C-B'
p1274
I3
sS'YMR162C'
p1275
I8
sS'YEL009C'
p1276
I67
sS'YDR498C'
p1277
I8
sS'YOR257W'
p1278
I3
sS'YGR002C'
p1279
I3
sS'YDR042C'
p1280
I1
sS'YGR075C'
p1281
I2
sS'YDR111C'
p1282
I4
sS'YGR253C'
p1283
I26
sS'YDR510W'
p1284
I23
sS'YPL050C'
p1285
I17
sS'YBR023C'
p1286
I14
sS'YPR045C'
p1287
I9
sS'YLR419W'
p1288
I12
sS'YPR010C'
p1289
I35
sS'YPL231W'
p1290
I55
sS'YLR148W'
p1291
I3
sS'YMR137C'
p1292
I3
sS'YDL082W'
p1293
I43
sS'YKL155C'
p1294
I2
sS'YMR071C'
p1295
I6
sS'YBR162W-A'
p1296
I9
sS'YKR055W'
p1297
I3
sS'YFL042C'
p1298
I7
sS'YIR035C'
p1299
I5
sS'YBL083C'
p1300
I4
sS'YOL119C'
p1301
I2
sS'YDR148C'
p1302
I10
sS'YJR034W'
p1303
I1
sS'YOR003W'
p1304
I3
sS'YPL096W'
p1305
I4
sS'YNL026W'
p1306
I11
sS'YDR335W'
p1307
I18
sS'YKR061W'
p1308
I2
sS'YGR206W'
p1309
I2
sS'YGL189C'
p1310
I77
sS'YPR036W-A'
p1311
I14
sS'YNL320W'
p1312
I3
sS'YPL078C'
p1313
I13
sS'YDR211W'
p1314
I16
sS'YCR095C'
p1315
I4
sS'YLL011W'
p1316
I12
sS'YCR077C'
p1317
I10
sS'YLR437C'
p1318
I1
sS'YNL306W'
p1319
I6
sS'YNL191W'
p1320
I7
sS'YDR237W'
p1321
I1
sS'YOR297C'
p1322
I2
sS'YKL115C'
p1323
I1
sS'YKR048C'
p1324
I30
sS'YOR182C'
p1325
I23
sS'YBR001C'
p1326
I7
sS'YPL003W'
p1327
I2
sS'YDR407C'
p1328
I6
sS'YHR196W'
p1329
I20
sS'YKL108W'
p1330
I6
sS'YPR067W'
p1331
I4
sS'YML092C'
p1332
I10
sS'YML025C'
p1333
I11
sS'YJR074W'
p1334
I3
sS'YPR127W'
p1335
I5
sS'YLR100W'
p1336
I20
sS'YDL148C'
p1337
I25
sS'YAL012W'
p1338
I23
sS'YJR134C'
p1339
I16
sS'YMR288W'
p1340
I6
sS'YBR167C'
p1341
I2
sS'YIL156W'
p1342
I1
sS'YBR241C'
p1343
I1
sS'YPL196W'
p1344
I2
sS'YJL149W'
p1345
I4
sS'YNR017W'
p1346
I9
sS'YNL168C'
p1347
I6
sS'YFR037C'
p1348
I17
sS'YDR364C'
p1349
I6
sS'YHR077C'
p1350
I17
sS'YKL006W'
p1351
I27
sS'YML007W'
p1352
I14
sS'YPL156C'
p1353
I2
sS'YOR153W'
p1354
I143
sS'YIL056W'
p1355
I3
sS'YDR461W'
p1356
I6
sS'YNL113W'
p1357
I6
sS'YDR099W'
p1358
I12
sS'YLR229C'
p1359
I16
sS'YKL133C'
p1360
I2
sS'YJR052W'
p1361
I6
sS'YKL188C'
p1362
I3
sS'YLR292C'
p1363
I7
sS'YDR481C'
p1364
I15
sS'YKL020C'
p1365
I6
sS'YAL007C'
p1366
I10
sS'YHR170W'
p1367
I31
sS'YLR312W-A'
p1368
I2
sS'YDR259C'
p1369
I1
sS'YGL120C'
p1370
I29
sS'YDR177W'
p1371
I15
sS'YKL068W'
p1372
I10
sS'YMR002W'
p1373
I7
sS'YPL152W-A'
p1374
I1
sS'YLR261C'
p1375
I2
sS'YGL212W'
p1376
I2
sS'YER081W'
p1377
I9
sS'YPL178W'
p1378
I5
sS'YPR041W'
p1379
I31
sS'YNL008C'
p1380
I2
sS'YOL111C'
p1381
I6
sS'YDR004W'
p1382
I4
sS'YFR034W-A'
p1383
I1
sS'YIL096C'
p1384
I4
sS'YFR011C'
p1385
I5
sS'YIL074C'
p1386
I4
sS'YMR312W'
p1387
I4
sS'YIL161W'
p1388
I3
sS'YOL144W'
p1389
I10
sS'YMR297W'
p1390
I23
sS'YHL008C'
p1391
I3
sS'YLR457C'
p1392
I2
sS'YGL178W'
p1393
I2
sS'YNL249C'
p1394
I2
sS'YMR211W'
p1395
I7
sS'YGR056W'
p1396
I9
sS'YGR121C'
p1397
I3
sS'YOR185C'
p1398
I1
sS'YGL065C'
p1399
I4
sS'YOR052C'
p1400
I3
sS'YDL134C'
p1401
I7
sS'YLR243W'
p1402
I3
sS'YGR096W'
p1403
I3
sS'YHR066W'
p1404
I3
sS'YJL203W'
p1405
I4
sS'YJR112W'
p1406
I13
sS'YDL231C'
p1407
I8
sS'YGR116W'
p1408
I25
sS'YIL069C'
p1409
I10
sS'YJR083C'
p1410
I5
sS'YOL159C'
p1411
I2
sS'YKR084C'
p1412
I10
sS'YAL030W'
p1413
I3
sS'YGL147C'
p1414
I60
sS'YBR263W'
p1415
I22
sS'YOL086C'
p1416
I536
sS'YBL001C'
p1417
I7
sS'YBR185C'
p1418
I3
sS'YOR010C'
p1419
I1
sS'YDR019C'
p1420
I12
sS'YBR150C'
p1421
I9
sS'YER119C'
p1422
I2
sS'YLR048W'
p1423
I81
sS'YDR381C-A'
p1424
I2
sS'YMR196W'
p1425
I2
sS'YMR161W'
p1426
I5
sS'YDR499W'
p1427
I4
sS'YKL068W-A'
p1428
I4
sS'YJL133C-A'
p1429
I2
sS'YMR013C-A'
p1430
I1
sS'YMR252C'
p1431
I2
sS'YCR101C'
p1432
I1
sS'YGL246C'
p1433
I4
sS'YCR054C'
p1434
I3
sS'YDR045C'
p1435
I2
sS'YPL232W'
p1436
I9
sS'YEL017W'
p1437
I3
sS'YGR252W'
p1438
I10
sS'YDL215C'
p1439
I5
sS'YGR003W'
p1440
I4
sS'YDR517W'
p1441
I12
sS'YGR074W'
p1442
I1
sS'YOR256C'
p1443
I6
sS'YPR011C'
p1444
I6
sS'YLL061W'
p1445
I5
sS'YDR110W'
p1446
I10
sS'YLR390W-A'
p1447
I4
sS'YDR419W'
p1448
I2
sS'YOR361C'
p1449
I51
sS'YOR221C'
p1450
I3
sS'YPL214C'
p1451
I4
sS'YGR029W'
p1452
I2
sS'YFL034C-A'
p1453
I23
sS'YOR334W'
p1454
I1
sS'YOL064C'
p1455
I11
sS'YBL023C'
p1456
I4
sS'YGL078C'
p1457
I20
sS'YOR329C'
p1458
I3
sS'YER151C'
p1459
I13
sS'YLR005W'
p1460
I6
sS'YDR124W'
p1461
I1
sS'YEL039C'
p1462
I1
sS'YKL189W'
p1463
I2
sS'YPL254W'
p1464
I2
sS'YOR124C'
p1465
I10
sS'YLL012W'
p1466
I3
sS'YCR076C'
p1467
I4
sS'YDR067C'
p1468
I5
sS'YOR296W'
p1469
I3
sS'YHR032W-A'
p1470
I3
sS'YJL044C'
p1471
I9
sS'YCR094W'
p1472
I3
sS'YNL190W'
p1473
I3
sS'YPR164W'
p1474
I6
sS'YGL085W'
p1475
I2
sS'YER039C'
p1476
I3
sS'YIR029W'
p1477
I2
sS'YEL060C'
p1478
I4
sS'YKR049C'
p1479
I2
sS'YPR179C'
p1480
I5
sS'YHR195W'
p1481
I1
sS'YDL149W'
p1482
I1
sS'YML026C'
p1483
I33
sS'YPR066W'
p1484
I1
sS'YDR073W'
p1485
I3
sS'YDR229W'
p1486
I7
sS'YJR075W'
p1487
I13
sS'YPR124W'
p1488
I24
sS'YLL029W'
p1489
I9
sS'YDL181W'
p1490
I1
sS'YLR127C'
p1491
I6
sS'YER017C'
p1492
I10
sS'YBR022W'
p1493
I3
sS'YER177W'
p1494
I66
sS'YML048W'
p1495
I13
sS'YLR027C'
p1496
I27
sS'YDL132W'
p1497
I10
sS'YBL064C'
p1498
I3
sS'YIL045W'
p1499
I3
sS'YMR096W'
p1500
I2
sS'YGR229C'
p1501
I14
sS'YLR167W'
p1502
I309
sS'YMR270C'
p1503
I5
sS'YLR293C'
p1504
I74
sS'YLR228C'
p1505
I3
sS'YJR053W'
p1506
I1
sS'YGR182C'
p1507
I3
sS'YJL171C'
p1508
I1
sS'YMR237W'
p1509
I9
sS'YKL021C'
p1510
I11
sS'YDR453C'
p1511
I1
sS'YDL167C'
p1512
I7
sS'YLR388W'
p1513
I23
sS'YKL069W'
p1514
I4
sS'YMR003W'
p1515
I1
sS'YPL177C'
p1516
I6
sS'YLR373C'
p1517
I2
sS'YKL092C'
p1518
I5
sS'YDR322C-A'
p1519
I5
sS'YLR260W'
p1520
I3
sS'YDL241W'
p1521
I2
sS'YPR109W'
p1522
I6
sS'YKL152C'
p1523
I598
sS'YJR035W'
p1524
I3
sS'YKR054C'
p1525
I7
sS'YMR001C'
p1526
I8
sS'YBL082C'
p1527
I7
sS'YDL081C'
p1528
I116
sS'YIR034C'
p1529
I4
sS'YMR138W'
p1530
I1
sS'YDR465C'
p1531
I15
sS'YGL013C'
p1532
I5
sS'YFL018C'
p1533
I23
sS'YMR070W'
p1534
I5
sS'YJL139C'
p1535
I3
sS'YGR207C'
p1536
I11
sS'YDR212W'
p1537
I30
sS'YLR456W'
p1538
I4
sS'YNL052W'
p1539
I8
sS'YPL097W'
p1540
I2
sS'YOR273C'
p1541
I3
sS'YDR459C'
p1542
I5
sS'YDR334W'
p1543
I8
sS'YHL036W'
p1544
I1
sS'YLR375W'
p1545
I5
sS'YDR231C'
p1546
I3
sS'YMR038C'
p1547
I10
sS'YJL066C'
p1548
I1
sS'YNL025C'
p1549
I2
sS'YNL321W'
p1550
I2
sS'YGR121W-A'
p1551
I1
sS'YGR091W'
p1552
I3
sS'YDL232W'
p1553
I3
sS'YGR117C'
p1554
I5
sS'YDR262W'
p1555
I8
sS'YBR196C'
p1556
I97
sS'YLR242C'
p1557
I4
sS'YOR342C'
p1558
I6
sS'YJR148W'
p1559
I37
sS'YFR029W'
p1560
I2
sS'YBR153W'
p1561
I4
sS'YJR082C'
p1562
I3
sS'YOR073W'
p1563
I3
sS'YOL087C'
p1564
I8
sS'YNL134C'
p1565
I5
sS'YAL037W'
p1566
I1
sS'YOR008C'
p1567
I6
sS'YGL146C'
p1568
I1
sS'YDR291W'
p1569
I8
sS'YCR051W'
p1570
I8
sS'YBR262C'
p1571
I4
sS'YMR289W'
p1572
I5
sS'YOL012C'
p1573
I9
sS'YPL199C'
p1574
I10
sS'YAL015C'
p1575
I1
sS'YFL036W'
p1576
I7
sS'YDL209C'
p1577
I1
sS'YIL157C'
p1578
I2
sS'YIL051C'
p1579
I39
sS'YPL057C'
p1580
I4
sS'YMR030W-A'
p1581
I1
sS'YNL074C'
p1582
I2
sS'YDR365C'
p1583
I29
sS'YPL151C'
p1584
I8
sS'YKL007W'
p1585
I16
sS'YNL169C'
p1586
I11
sS'YFR034C'
p1587
I4
sS'YHR070W'
p1588
I6
sS'YJL213W'
p1589
I3
sS'YNL112W'
p1590
I25
sS'YHL047C'
p1591
I10
sS'YOR360C'
p1592
I4
sS'YOR335C'
p1593
I50
sS'YDR416W'
p1594
I5
sS'YDR160W'
p1595
I5
sS'YOL065C'
p1596
I2
sS'YMR181C'
p1597
I1
sS'YBL022C'
p1598
I15
sS'YGL164C'
p1599
I5
sS'YER156C'
p1600
I12
sS'YPL255W'
p1601
I1
sS'YOR095C'
p1602
I7
sS'YEL038W'
p1603
I8
sS'YCL014W'
p1604
I6
sS'YOL025W'
p1605
I3
sS'YOR328W'
p1606
I4
sS'YMR028W'
p1607
I3
sS'YPL208W'
p1608
I4
sS'YOL147C'
p1609
I5
sS'YNL280C'
p1610
I7
sS'YDR007W'
p1611
I10
sS'YOR284W'
p1612
I2
sS'YPR089W'
p1613
I8
sS'YBR233W'
p1614
I4
sS'YPL122C'
p1615
I7
sS'YKL104C'
p1616
I12
sS'YHR012W'
p1617
I3
sS'YIL022W'
p1618
I13
sS'YNL248C'
p1619
I13
sS'YHR202W'
p1620
I3
sS'YMR313C'
p1621
I4
sS'YDR440W'
p1622
I6
sS'YLR454W'
p1623
I4
sS'YGL179C'
p1624
I4
sS'YGR120C'
p1625
I4
sS'YBR025C'
p1626
I79
sS'YML001W'
p1627
I10
sS'YLL028W'
p1628
I2
sS'YER016W'
p1629
I10
sS'YDR438W'
p1630
I6
sS'YNL211C'
p1631
I3
sS'YER170W'
p1632
I3
sS'YPL096C-A'
p1633
I3
sS'YJR008W'
p1634
I3
sS'YKL222C'
p1635
I3
sS'YML058W-A'
p1636
I1
sS'YLR026C'
p1637
I2
sS'YLR139C'
p1638
I2
sS'YJR065C'
p1639
I24
sS'YDL131W'
p1640
I3
sS'YHR008C'
p1641
I6
sS'YMR277W'
p1642
I8
sS'YML049C'
p1643
I7
sS'YCR068W'
p1644
I1
sS'YLR446W'
p1645
I1
sS'YGL125W'
p1646
I2
sS'YLR164W'
p1647
I3
sS'YKR104W'
p1648
I1
sS'YDL033C'
p1649
I1
sS'YMR255W'
p1650
I6
sS'YHR209W'
p1651
I3
sS'YGL247W'
p1652
I1
sS'YER116C'
p1653
I1
sS'YMR160W'
p1654
I2
sS'YCR100C'
p1655
I1
sS'YPR074C'
p1656
I37
sS'YCR057C'
p1657
I19
sS'YMR197C'
p1658
I5
sS'YDR516C'
p1659
I2
sS'YPL233W'
p1660
I2
sS'YHR024C'
p1661
I6
sS'YPR140W'
p1662
I3
sS'YGR251W'
p1663
I6
sS'YLL060C'
p1664
I2
sS'YPR047W'
p1665
I4
sS'YKL219W'
p1666
I3
sS'YDR044W'
p1667
I6
sS'YJR005C-A'
p1668
I2
sS'YEL016C'
p1669
I9
sS'YOL128C'
p1670
I5
sS'YPL215W'
p1671
I8
sS'YIR037W'
p1672
I16
sS'YIR015W'
p1673
I5
sS'YGL012W'
p1674
I31
sS'YGR129W'
p1675
I6
sS'YMR073C'
p1676
I2
sS'YAR018C'
p1677
I4
sS'YMR139W'
p1678
I4
sS'YDL080C'
p1679
I5
sS'YOR172W'
p1680
I6
sS'YOR105W'
p1681
I3
sS'YDR541C'
p1682
I3
sS'YDR213W'
p1683
I5
sS'YGL010W'
p1684
I1
sS'YNL053W'
p1685
I5
sS'YNL322C'
p1686
I8
sS'YGR208W'
p1687
I11
sS'YNL024C'
p1688
I2
sS'YBL058W'
p1689
I16
sS'YKR079C'
p1690
I4
sS'YDR171W'
p1691
I3
sS'YMR055C'
p1692
I2
sS'YDR066C'
p1693
I2
sS'YCR020C'
p1694
I3
sS'YCL051W'
p1695
I1
sS'YOR127W'
p1696
I9
sS'YBL039C-A'
p1697
I2
sS'YDR235W'
p1698
I7
sS'YJL047C'
p1699
I4
sS'YER038C'
p1700
I4
sS'YPR125W'
p1701
I3
sS'YPL042C'
p1702
I6
sS'YHR049W'
p1703
I14
sS'YEL061C'
p1704
I10
sS'YBR007C'
p1705
I2
sS'YLR175W'
p1706
I62
sS'YPL001W'
p1707
I4
sS'YML128C'
p1708
I2
sS'YHR194W'
p1709
I1
sS'YGR288W'
p1710
I2
sS'YOR295W'
p1711
I4
sS'YLR102C'
p1712
I5
sS'YOR158W'
p1713
I3
sS'YIL156W-B'
p1714
I2
sS'YDL208W'
p1715
I31
sS'YNL159C'
p1716
I3
sS'YAL014C'
p1717
I3
sS'YFL037W'
p1718
I24
sS'YJR132W'
p1719
I14
sS'YCR020W-B'
p1720
I5
sS'YBR243C'
p1721
I12
sS'YLR181C'
p1722
I8
sS'YNL111C'
p1723
I11
sS'YPL058C'
p1724
I4
sS'YBL056W'
p1725
I16
sS'YNL182C'
p1726
I9
sS'YBR183W'
p1727
I1
sS'YIL050W'
p1728
I4
sS'YLR309C'
p1729
I18
sS'YPL150W'
p1730
I3
sS'YBR151W'
p1731
I5
sS'YJL012C'
p1732
I62
sS'YJL065C'
p1733
I2
sS'YNR034W'
p1734
I2
sS'YJL170C'
p1735
I1
sS'YKL026C'
p1736
I1
sS'YKR020W'
p1737
I3
sS'YMR202W'
p1738
I41
sS'YDR308C'
p1739
I3
sS'YLR372W'
p1740
I27
sS'YKL066W'
p1741
I7
sS'YMR004W'
p1742
I9
sS'YER083C'
p1743
I5
sS'YHR050W'
p1744
I2
sS'YPL176C'
p1745
I5
sS'YLR389C'
p1746
I8
sS'YHR172W'
p1747
I5
sS'YDL168W'
p1748
I12
sS'YLR263W'
p1749
I3
sS'YDL240W'
p1750
I5
sS'YBR234C'
p1751
I14
sS'YDR061W'
p1752
I7
sS'YFR013W'
p1753
I8
sS'YBR261C'
p1754
I9
sS'YPR088C'
p1755
I24
sS'YHR013C'
p1756
I10
sS'YNL253W'
p1757
I2
sS'YOL040C'
p1758
I160
sS'YGL045W'
p1759
I3
sS'YNL287W'
p1760
I22
sS'YIL023C'
p1761
I6
sS'YOL146W'
p1762
I3
sS'YHR144C'
p1763
I6
sS'YPR200C'
p1764
I2
sS'YLR327C'
p1765
I1
sS'YBR229C'
p1766
I5
sS'YDR297W'
p1767
I4
sS'YGR123C'
p1768
I10
sS'YMR314W'
p1769
I15
sS'YLR455W'
p1770
I4
sS'YNL247W'
p1771
I23
sS'YLR413W'
p1772
I16
sS'YMR184W'
p1773
I3
sS'YPL118W'
p1774
I10
sS'YLR241W'
p1775
I9
sS'YGR090W'
p1776
I14
sS'YDL233W'
p1777
I3
sS'YFR028C'
p1778
I7
sS'YNL132W'
p1779
I17
sS'YBR029C'
p1780
I6
sS'YJR149W'
p1781
I1
sS'YGL141W'
p1782
I5
sS'YBR152W'
p1783
I4
sS'YDR292C'
p1784
I10
sS'YER166W'
p1785
I12
sS'YNL137C'
p1786
I5
sS'YAL036C'
p1787
I14
sS'YBL003C'
p1788
I23
sS'YHR005C-A'
p1789
I14
sS'YHR208W'
p1790
I53
sS'YDL065C'
p1791
I13
sS'YGL244W'
p1792
I7
sS'YMR167W'
p1793
I2
sS'YOR249C'
p1794
I5
sS'YBR296C'
p1795
I4
sS'YDL030W'
p1796
I4
sS'YER117W'
p1797
I45
sS'YOR301W'
p1798
I4
sS'YKL218C'
p1799
I1
sS'YEL011W'
p1800
I2
sS'YGR001C'
p1801
I17
sS'YBL107C'
p1802
I3
sS'YLL063C'
p1803
I1
sS'YGR250C'
p1804
I3
sS'YDR515W'
p1805
I4
sS'YOR254C'
p1806
I30
sS'YOR201C'
p1807
I5
sS'YOR276W'
p1808
I20
sS'YMR309C'
p1809
I13
sS'YGL250W'
p1810
I3
sS'YOR089C'
p1811
I11
sS'YNL146C-A'
p1812
I1
sS'YLR186W'
p1813
I14
sS'YMR180C'
p1814
I6
sS'YGL163C'
p1815
I3
sS'YOR336W'
p1816
I1
sS'YBL021C'
p1817
I3
sS'YLL045C'
p1818
I53
sS'YLR007W'
p1819
I3
sS'YPL252C'
p1820
I5
sS'YOR094W'
p1821
I5
sS'YER157W'
p1822
I7
sS'YOL022C'
p1823
I10
sS'YNL261W'
p1824
I8
sS'YMR054W'
p1825
I10
sS'YDR065W'
p1826
I3
sS'YBL059W'
p1827
I1
sS'YNL305C'
p1828
I5
sS'YIL047C-A'
p1829
I4
sS'YLL014W'
p1830
I5
sS'YCL050C'
p1831
I20
sS'YGR047C'
p1832
I5
sS'YCR021C'
p1833
I1
sS'YKR078W'
p1834
I3
sS'YPR079W'
p1835
I3
sS'YOR191W'
p1836
I8
sS'YDR170C'
p1837
I12
sS'YDR272W'
p1838
I10
sS'YHR048W'
p1839
I1
sS'YOR159C'
p1840
I4
sS'YML020W'
p1841
I2
sS'YLR103C'
p1842
I8
sS'YOR294W'
p1843
I10
sS'YEL062W'
p1844
I2
sS'YJL039C'
p1845
I15
sS'YBR006W'
p1846
I2
sS'YLR038C'
p1847
I3
sS'YPR085C'
p1848
I4
sS'YOR038C'
p1849
I3
sS'YJL062W-A'
p1850
I2
sS'YNL096C'
p1851
I32
sS'YLR187W'
p1852
I5
sS'YNL212W'
p1853
I5
sS'YDR387C'
p1854
I4
sS'YER015W'
p1855
I2
sS'YDR098C'
p1856
I10
sS'YML006C'
p1857
I5
sS'YPR046W'
p1858
I1
sS'YDR439W'
p1859
I4
sS'YBR024W'
p1860
I5
sS'YFL039C'
p1861
I74
sS'YER062C'
p1862
I4
sS'YLR125W'
p1863
I1
sS'YER171W'
p1864
I6
sS'YDL047W'
p1865
I4
sS'YML046W'
p1866
I2
sS'YGL124C'
p1867
I5
sS'YDL130W'
p1868
I85
sS'YMR276W'
p1869
I11
sS'YDL160C-A'
p1870
I2
sS'YLR165C'
p1871
I5
sS'YLR025W'
p1872
I14
sS'YCR069W'
p1873
I4
sS'YMR094W'
p1874
I1
sS'YGR146C-A'
p1875
I1
sS'YLR016C'
p1876
I4
sS'YDR341C'
p1877
I30
sS'YKL027W'
p1878
I5
sS'YJL173C'
p1879
I8
sS'YDR152W'
p1880
I17
sS'YER019C-A'
p1881
I14
sS'YKL127W'
p1882
I11
sS'YDR309C'
p1883
I3
sS'YKR021W'
p1884
I3
sS'YOR307C'
p1885
I9
sS'YLR386W'
p1886
I2
sS'YLR371W'
p1887
I9
sS'YDR261C'
p1888
I4
sS'YKL090W'
p1889
I1
sS'YMR005W'
p1890
I5
sS'YLR262C'
p1891
I2
sS'YPL175W'
p1892
I5
sS'YLR092W'
p1893
I2
sS'YLR423C'
p1894
I2
sS'YMR072W'
p1895
I20
sS'YKL105C'
p1896
I5
sS'YJR033C'
p1897
I7
sS'YDL087C'
p1898
I4
sS'YKR056W'
p1899
I10
sS'YKL150W'
p1900
I9
sS'YMR225C'
p1901
I2
sS'YIR036C'
p1902
I7
sS'YMR123W'
p1903
I8
sS'YOR173W'
p1904
I2
sS'YNL323W'
p1905
I5
sS'YDR406W'
p1906
I6
sS'YFR031C-A'
p1907
I39
sS'YGR073C'
p1908
I1
sS'YCL043C'
p1909
I51
sS'YPL091W'
p1910
I19
sS'YML068W'
p1911
I4
sS'YIL052C'
p1912
I69
sS'YNL050C'
p1913
I8
sS'YMR304C-A'
p1914
I4
sS'YIR008C'
p1915
I3
sS'YLR240W'
p1916
I3
sS'YGR093W'
p1917
I4
sS'YGL166W'
p1918
I4
sS'YDL234C'
p1919
I6
sS'YIL009C-A'
p1920
I4
sS'YDL239C'
p1921
I2
sS'YGL080W'
p1922
I2
sS'YNL136W'
p1923
I12
sS'YKL049C'
p1924
I6
sS'YDR293C'
p1925
I4
sS'YBR155W'
p1926
I18
sS'YBL002W'
p1927
I35
sS'YNR038W'
p1928
I4
sS'YGL140C'
p1929
I14
sS'YCL029C'
p1930
I3
sS'YEL023C'
p1931
I4
sS'YOR071C'
p1932
I1
sS'YGL079W'
p1933
I4
sS'YAL017W'
p1934
I7
sS'YFL038C'
p1935
I18
sS'YBR242W'
p1936
I5
sS'YNR013C'
p1937
I2
sS'YJR131W'
p1938
I7
sS'YNL158W'
p1939
I3
sS'YBR108W'
p1940
I2
sS'YNR012W'
p1941
I8
sS'YBR109C'
p1942
I15
sS'YJL151C'
p1943
I6
sS'YNL110C'
p1944
I25
sS'YNL076W'
p1945
I4
sS'YDR367W'
p1946
I3
sS'YLR182W'
p1947
I6
sS'YPL059W'
p1948
I6
sS'YBR173C'
p1949
I8
sS'YHR045W'
p1950
I11
sS'YGL253W'
p1951
I73
sS'YPR178W'
p1952
I5
sS'YHL032C'
p1953
I2
sS'YMR308C'
p1954
I28
sS'YGL162W'
p1955
I1
sS'YOR271C'
p1956
I17
sS'YMR183C'
p1957
I11
sS'YDR414C'
p1958
I3
sS'YOR337W'
p1959
I6
sS'YFL055W'
p1960
I1
sS'YOR097C'
p1961
I2
sS'YHR118C'
p1962
I7
sS'YNL260C'
p1963
I3
sS'YGL075C'
p1964
I4
sS'YOL023W'
p1965
I2
sS'YPL253C'
p1966
I4
sS'YBL020W'
p1967
I4
sS'YER154W'
p1968
I4
sS'YBR208C'
p1969
I6
sS'YEL036C'
p1970
I7
sS'YBR260C'
p1971
I4
sS'YHR010W'
p1972
I80
sS'YDR400W'
p1973
I4
sS'YLL048C'
p1974
I14
sS'YPL124W'
p1975
I2
sS'YIL024C'
p1976
I1
sS'YLL021W'
p1977
I16
sS'YAL035W'
p1978
I57
sS'YOL041C'
p1979
I24
sS'YIL071C'
p1980
I3
sS'YBR235W'
p1981
I6
sS'YDR001C'
p1982
I6
sS'YIL162W'
p1983
I4
sS'YOL141W'
p1984
I2
sS'YOL109W'
p1985
I68
sS'YBR195C'
p1986
I2
sS'YIL039W'
p1987
I13
sS'YGR122W'
p1988
I5
sS'YOL077W-A'
p1989
I5
sS'YML130C'
p1990
I14
sS'YMR315W'
p1991
I11
sS'YLR328W'
p1992
I8
sS'YBR228W'
p1993
I3
sS'YNL246W'
p1994
I10
sS'YGR046W'
p1995
I4
sS'YDR384C'
p1996
I9
sS'YLR039C'
p1997
I9
sS'YNL097C'
p1998
I5
sS'YER063W'
p1999
I5
sS'YBR090C'
p2000
I2
sS'YER014W'
p2001
I4
sS'YBR027C'
p2002
I2
sS'YGL057C'
p2003
I2
sS'YER172C'
p2004
I11
sS'YNL213C'
p2005
I4
sS'YKL006C-A'
p2006
I5
sS'YDL046W'
p2007
I5
sS'YBR058C'
p2008
I10
sS'YLR024C'
p2009
I5
sS'YLR071C'
p2010
I6
sS'YHR092C'
p2011
I3
sS'YEL058W'
p2012
I7
sS'YMR019W'
p2013
I6
sS'YMR148W'
p2014
I1
sS'YDL199C'
p2015
I2
sS'YDR434W'
p2016
I10
sS'YFL034C-B'
p2017
I2
sS'YBR297W'
p2018
I1
sS'YLR006C'
p2019
I7
sS'YER149C'
p2020
I3
sS'YER114C'
p2021
I5
sS'YHR127W'
p2022
I5
sS'YDL064W'
p2023
I7
sS'YDL031W'
p2024
I18
sS'YMR257C'
p2025
I3
sS'YOR300W'
p2026
I2
sS'YDR046C'
p2027
I11
sS'YMR228W'
p2028
I7
sS'YOR202W'
p2029
I10
sS'YLL062C'
p2030
I1
sS'YHL014C'
p2031
I2
sS'YGR006W'
p2032
I3
sS'YGR079W'
p2033
I9
sS'YDL119C'
p2034
I2
sS'YER045C'
p2035
I5
sS'YKL151C'
p2036
I4
sS'YGL198W'
p2037
I5
sS'YDL086W'
p2038
I8
sS'YBL091C-A'
p2039
I1
sS'YLR422W'
p2040
I3
sS'YLR093C'
p2041
I6
sS'YIR031C'
p2042
I6
sS'YLR361C-A'
p2043
I1
sS'YKR051W'
p2044
I4
sS'YJR030C'
p2045
I4
sS'YBR141W-A'
p2046
I1
sS'YMR030W'
p2047
I1
sS'YOR022C'
p2048
I3
sS'YMR056C'
p2049
I2
sS'YHR038W'
p2050
I4
sS'YML069W'
p2051
I13
sS'YKR019C'
p2052
I2
sS'YGR279C'
p2053
I26
sS'YDR064W'
p2054
I223
sS'YMR275C'
p2055
I11
sS'YCR073C'
p2056
I6
sS'YIL020C'
p2057
I7
sS'YLL015W'
p2058
I4
sS'YMR053C'
p2059
I1
sS'YKR077W'
p2060
I3
sS'YDR173C'
p2061
I4
sS'YMR100W'
p2062
I4
sS'YCL057W'
p2063
I11
sS'YBR072W'
p2064
I2
sS'YBR005W'
p2065
I4
sS'YDR273W'
p2066
I2
sS'YPR063C'
p2067
I8
sS'YGR231C'
p2068
I11
sS'YEL063C'
p2069
I2
sS'YDR454C'
p2070
I29
sS'YML021C'
p2071
I4
sS'YPR032W'
p2072
I5
sS'YDL173W'
p2073
I5
sS'YHR050W-A'
p2074
I2
sS'YJR047C'
p2075
I3
sS'YMR006C'
p2076
I1
sS'YJR130C'
p2077
I6
sS'YKL145W-A'
p2078
I2
sS'YAL016W'
p2079
I17
sS'YBL068W-A'
p2080
I3
sS'YGL208W'
p2081
I3
sS'YOR070C'
p2082
I6
sS'YPL152W'
p2083
I1
sS'YLR183C'
p2084
I5
sS'YOL093W'
p2085
I9
sS'YPL064C'
p2086
I7
sS'YBR175W'
p2087
I6
sS'YNL077W'
p2088
I1
sS'YHR073W'
p2089
I7
sS'YBR172C'
p2090
I19
sS'YDR346C'
p2091
I27
sS'YJL172W'
p2092
I8
sS'YJL010C'
p2093
I16
sS'YBL078C'
p2094
I1
sS'YFR039C'
p2095
I5
sS'YNL051W'
p2096
I5
sS'YPL092W'
p2097
I9
sS'YPL029W'
p2098
I3
sS'YMR246W'
p2099
I31
sS'YKL024C'
p2100
I11
sS'YMR023C'
p2101
I2
sS'YBR189W'
p2102
I166
sS'YKL039W'
p2103
I12
sS'YKL064W'
p2104
I1
sS'YLR265C'
p2105
I3
sS'YKR022C'
p2106
I5
sS'YLR287C'
p2107
I11
sS'YPL174C'
p2108
I2
sS'YPL061W'
p2109
I61
sS'YLR370C'
p2110
I5
sS'YLR387C'
p2111
I10
sS'YAL034C'
p2112
I1
sS'YKL122C'
p2113
I14
sS'YNR039C'
p2114
I3
sS'YAL043C'
p2115
I8
sS'YIL165C'
p2116
I2
sS'YOL042W'
p2117
I2
sS'YDR054C'
p2118
I8
sS'YBR236C'
p2119
I8
sS'YPL125W'
p2120
I6
sS'YIL070C'
p2121
I4
sS'YCL037C'
p2122
I8
sS'YDR289C'
p2123
I7
sS'YNL316C'
p2124
I3
sS'YML131W'
p2125
I2
sS'YNL245C'
p2126
I4
sS'YGL040C'
p2127
I15
sS'YLR305C'
p2128
I10
sS'YNR024W'
p2129
I5
sS'YOL108C'
p2130
I4
sS'YJL092W'
p2131
I7
sS'YMR316W'
p2132
I6
sS'YOL140W'
p2133
I7
sS'YIL038C'
p2134
I8
sS'YPL043W'
p2135
I30
sS'YIL138C'
p2136
I20
sS'YJR118C'
p2137
I6
sS'YIL143C'
p2138
I6
sS'YGR092W'
p2139
I9
sS'YBR076C-A'
p2140
I2
sS'YKL002W'
p2141
I9
sS'YDR328C'
p2142
I11
sS'YLR247C'
p2143
I4
sS'YJR090C'
p2144
I4
sS'YDL235C'
p2145
I3
sS'YOR057W'
p2146
I9
sS'YIR009W'
p2147
I2
sS'YOR362C'
p2148
I21
sS'YGR103W'
p2149
I49
sS'YGR178C'
p2150
I18
sS'YGR057C'
p2151
I5
sS'YDR221W'
p2152
I5
sS'YMR013W-A'
p2153
I4
sS'YJR087W'
p2154
I1
sS'YGL143C'
p2155
I3
sS'YLR001C'
p2156
I3
sS'YOL075C'
p2157
I5
sS'YGR125W'
p2158
I5
sS'YDL067C'
p2159
I5
sS'YOL020W'
p2160
I7
sS'YDR135C'
p2161
I17
sS'YER115C'
p2162
I4
sS'YMR256C'
p2163
I1
sS'YER148W'
p2164
I12
sS'YGL242C'
p2165
I7
sS'YHL015W'
p2166
I194
sS'YOR303W'
p2167
I13
sS'YIL087C'
p2168
I2
sS'YOR252W'
p2169
I5
sS'YBR194W'
p2170
I1
sS'YMR192W'
p2171
I4
sS'YGR078C'
p2172
I8
sS'YOR104W'
p2173
I2
sS'YML074C'
p2174
I41
sS'YMR229C'
p2175
I35
sS'YLL038C'
p2176
I1
sS'YGR007W'
p2177
I10
sS'YOR056C'
p2178
I8
sS'YHL033C'
p2179
I25
sS'YOR270C'
p2180
I37
sS'YDR106W'
p2181
I1
sS'YOL068C'
p2182
I10
sS'YLL006W'
p2183
I3
sS'YGL252C'
p2184
I10
sS'YBR201W'
p2185
I3
sS'YLL043W'
p2186
I11
sS'YDR415C'
p2187
I2
sS'YGL161C'
p2188
I7
sS'YER155C'
p2189
I12
sS'YBR037C'
p2190
I5
sS'YGR062C'
p2191
I5
sS'YNL263C'
p2192
I5
sS'YOR096W'
p2193
I71
sS'YPR115W'
p2194
I4
sS'YPL250C'
p2195
I2
sS'YMR274C'
p2196
I2
sS'YGL119W'
p2197
I5
sS'YER028C'
p2198
I3
sS'YMR052W'
p2199
I3
sS'YMR103C'
p2200
I1
sS'YCR072C'
p2201
I12
sS'YMR203W'
p2202
I15
sS'YCR023C'
p2203
I10
sS'YGR278W'
p2204
I4
sS'YKR076W'
p2205
I1
sS'YBL057C'
p2206
I9
sS'YBR073W'
p2207
I11
sS'YDR225W'
p2208
I21
sS'YDR270W'
p2209
I5
sS'YBR004C'
p2210
I5
sS'YPR169W-A'
p2211
I5
sS'YPR033C'
p2212
I40
sS'YGR230W'
p2213
I1
sS'YPR120C'
p2214
I4
sS'YPR062W'
p2215
I18
sS'YBL041W'
p2216
I13
sS'YMR097C'
p2217
I1
sS'YDR528W'
p2218
I3
sS'YDL058W'
p2219
I24
sS'YER173W'
p2220
I2
sS'YBR026C'
p2221
I10
sS'YNL214W'
p2222
I2
sS'YDL185W'
p2223
I76
sS'YLR403W'
p2224
I6
sS'YBR091C'
p2225
I2
sS'YPR180W'
p2226
I5
sS'YOR203W'
p2227
I7
sS'YEL013W'
p2228
I10
sS'YNL094W'
p2229
I6
sS'YGL056C'
p2230
I8
sS'YKL220C'
p2231
I1
sS'YDR480W'
p2232
I1
sS'YML004C'
p2233
I15
sS'YPL227C'
p2234
I8
sS'YLR222C-A'
p2235
I1
sS'YLR023C'
p2236
I3
sS'YMR024W'
p2237
I8
sS'YBR059C'
p2238
I10
sS'YML019W'
p2239
I9
sS'YBR199W'
p2240
I9
sS'YLR163C'
p2241
I9
sS'YDR163W'
p2242
I4
sS'YJL207C'
p2243
I11
sS'YPR071W'
p2244
I2
sS'YLR072W'
p2245
I2
sS'YER180C'
p2246
I9
sS'YGR212W'
p2247
I2
sS'YJL011C'
p2248
I4
sS'YKL138C'
p2249
I5
sS'YBL079W'
p2250
I13
sS'YNL056W'
p2251
I4
sS'YPL093W'
p2252
I18
sS'YDR347W'
p2253
I4
sS'YFL001W'
p2254
I6
sS'YKL025C'
p2255
I7
sS'YPL188W'
p2256
I6
sS'YPL173W'
p2257
I2
sS'YGL226C-A'
p2258
I4
sS'YKL125W'
p2259
I11
sS'YLR264W'
p2260
I36
sS'YKL170W'
p2261
I4
sS'YKR023W'
p2262
I6
sS'YKL038W'
p2263
I3
sS'YLR286C'
p2264
I44
sS'YNL016W'
p2265
I17
sS'YBR065C'
p2266
I2
sS'YLR384C'
p2267
I20
sS'YPL060W'
p2268
I2
sS'YML099C'
p2269
I7
sS'YLR421C'
p2270
I12
sS'YLR090W'
p2271
I3
sS'YJR064W'
p2272
I43
sS'YML022W'
p2273
I16
sS'YGL081W'
p2274
I2
sS'YER046W'
p2275
I1
sS'YMR029C'
p2276
I7
sS'YIR030C'
p2277
I2
sS'YKR050W'
p2278
I1
sS'YMR121C'
p2279
I3
sS'YFL049W'
p2280
I2
sS'YKR018C'
p2281
I13
sS'YDL150W'
p2282
I9
sS'YOR171C'
p2283
I5
sS'YMR185W'
p2284
I4
sS'YNL038W'
p2285
I1
sS'YKL003C'
p2286
I12
sS'YOL007C'
p2287
I5
sS'YHR001W-A'
p2288
I2
sS'YIL139C'
p2289
I6
sS'YLR246W'
p2290
I2
sS'YJR119C'
p2291
I3
sS'YLR359W'
p2292
I36
sS'YHR069C'
p2293
I6
sS'YDR329C'
p2294
I9
sS'YGL180W'
p2295
I1
sS'YIL142W'
p2296
I32
sS'YFR025C'
p2297
I7
sS'YLR195C'
p2298
I10
sS'YDL035C'
p2299
I7
sS'YDR311W'
p2300
I5
sS'YKL192C'
p2301
I8
sS'YGL082W'
p2302
I3
sS'YHR002W'
p2303
I5
sS'YNL138W'
p2304
I23
sS'YPR098C'
p2305
I2
sS'YJL071W'
p2306
I3
sS'YNR009W'
p2307
I3
sS'YGL142C'
p2308
I4
sS'YGR179C'
p2309
I4
sS'YJR086W'
p2310
I4
sS'YKL065C'
p2311
I4
sS'YBR139W'
p2312
I2
sS'YJR046W'
p2313
I6
sS'YHR188C'
p2314
I10
sS'YBR052C'
p2315
I13
sS'YLR315W'
p2316
I1
sS'YFL023W'
p2317
I9
sS'YBR154C'
p2318
I18
sS'YNL116W'
p2319
I10
sS'YDR092W'
p2320
I8
sS'YNL139C'
p2321
I7
sS'YPL108W'
p2322
I2
sS'YDR361C'
p2323
I11
sS'YBR171W'
p2324
I7
sS'YJL157C'
p2325
I12
sS'YNL070W'
p2326
I4
sS'YCR043C'
p2327
I8
sS'YGL255W'
p2328
I2
sS'YFR007W'
p2329
I2
sS'YJL180C'
p2330
I2
sS'YLR333C'
p2331
I34
sS'YHL030W'
p2332
I9
sS'YBR200W'
p2333
I6
sS'YGR181W'
p2334
I1
sS'YAR028W'
p2335
I5
sS'YGL077C'
p2336
I13
sS'YPL204W'
p2337
I11
sS'YNL133C'
p2338
I2
sS'YOL069W'
p2339
I1
sS'YLL042C'
p2340
I1
sS'YDR412W'
p2341
I6
sS'YGL160W'
p2342
I5
sS'YOR091W'
p2343
I12
sS'YKR101W'
p2344
I3
sS'YJL199C'
p2345
I2
sS'YAL040C'
p2346
I5
sS'YDR288W'
p2347
I2
sS'YBR157C'
p2348
I2
sS'YNL284C'
p2349
I5
sS'YIL164C'
p2350
I2
sS'YOR077W'
p2351
I3
sS'YOL143C'
p2352
I25
sS'YOL043C'
p2353
I3
sS'YBR237W'
p2354
I8
sS'YIL026C'
p2355
I8
sS'YBR197C'
p2356
I4
sS'YHR147C'
p2357
I3
sS'YJL093C'
p2358
I7
sS'YDR003W'
p2359
I5
sS'YBR086C'
p2360
I12
sS'YNL244C'
p2361
I32
sS'YNR027W'
p2362
I3
sS'YLR438C-A'
p2363
I4
sS'YOR251C'
p2364
I8
sS'YPR181C'
p2365
I16
sS'YCL008C'
p2366
I4
sS'YBR092C'
p2367
I9
sS'YEL064C'
p2368
I4
sS'YML005W'
p2369
I1
sS'YNL215W'
p2370
I3
sS'YDR529C'
p2371
I7
sS'YGR044C'
p2372
I3
sS'YDL059C'
p2373
I2
sS'YOR204W'
p2374
I5
sS'YEL012W'
p2375
I1
sS'YBL040C'
p2376
I9
sS'YPR043W'
p2377
I101
sS'YDR382W'
p2378
I115
sS'YDR483W'
p2379
I30
sS'YOR219C'
p2380
I4
sS'YER061C'
p2381
I2
sS'YLR135W'
p2382
I4
sS'YLR022C'
p2383
I11
sS'YPL226W'
p2384
I24
sS'YLR073C'
p2385
I3
sS'YER183C'
p2386
I4
sS'YML018C'
p2387
I3
sS'YDL044C'
p2388
I7
sS'YHR090C'
p2389
I2
sS'YOL021C'
p2390
I8
sS'YHR030C'
p2391
I6
sS'YBR295W'
p2392
I3
sS'YKL018W'
p2393
I5
sS'YIL011W'
p2394
I1
sS'YEL034W'
p2395
I47
sS'YNR050C'
p2396
I19
sS'YKR100C'
p2397
I7
sS'YKL208W'
p2398
I3
sS'YGR004W'
p2399
I3
sS'YML110C'
p2400
I7
sS'YOR302W'
p2401
I1
sS'YER058W'
p2402
I2
sS'YGL048C'
p2403
I25
sS'YHL016C'
p2404
I2
sS'YMR193W'
p2405
I3
sS'YLL039C'
p2406
I4
sS'YCR053W'
p2407
I42
sS'YML023C'
p2408
I8
sS'YFL047W'
p2409
I8
sS'YLR091W'
p2410
I1
sS'YER047C'
p2411
I4
sS'YPL249C-A'
p2412
I71
sS'YPR029C'
p2413
I12
sS'YKR053C'
p2414
I1
sS'YML098W'
p2415
I6
sS'YJL034W'
p2416
I83
sS'YLR420W'
p2417
I21
sS'YJR067C'
p2418
I3
sS'YFL048C'
p2419
I10
sS'YLR117C'
p2420
I6
sS'YDL153C'
p2421
I11
sS'YOR176W'
p2422
I11
sS'YOR109W'
p2423
I16
sS'YKL061W'
p2424
I2
sS'YJR069C'
p2425
I6
sS'YIR033W'
p2426
I8
sS'YBL089W'
p2427
I3
sS'YDL084W'
p2428
I82
sS'YGL016W'
p2429
I5
sS'YMR120C'
p2430
I24
sS'YER029C'
p2431
I3
sS'YCL055W'
p2432
I4
sS'YGL116W'
p2433
I6
sS'YKR075C'
p2434
I1
sS'YBL054W'
p2435
I4
sS'YCR024C'
p2436
I5
sS'YIL102C-A'
p2437
I1
sS'YMR102C'
p2438
I8
sS'YCR071C'
p2439
I5
sS'YPR144C'
p2440
I7
sS'YDR175C'
p2441
I8
sS'YPR034W'
p2442
I6
sS'YOR189W'
p2443
I3
sS'YOR154W'
p2444
I4
sS'YGR233C'
p2445
I14
sS'YPR121W'
p2446
I3
sS'YBR070C'
p2447
I5
sS'YPR061C'
p2448
I1
sS'YOR280C'
p2449
I5
sS'YNL315C'
p2450
I5
sS'YOR299W'
p2451
I7
sS'YDR224C'
p2452
I26
sS'YDR420W'
p2453
I8
sS'YHR189W'
p2454
I1
sS'YLR385C'
p2455
I1
sS'YMR008C'
p2456
I2
sS'YPL026C'
p2457
I2
sS'YDL133C-A'
p2458
I16
sS'YMR119W-A'
p2459
I2
sS'YDL171C'
p2460
I10
sS'YKL062W'
p2461
I2
sS'YJR010W'
p2462
I4
sS'YBR138C'
p2463
I2
sS'YJL218W'
p2464
I2
sS'YIL126W'
p2465
I24
sS'YNL162W'
p2466
I10
sS'YDR093W'
p2467
I14
sS'YMR282C'
p2468
I5
sS'YIL109C'
p2469
I16
sS'YDR362C'
p2470
I4
sS'YFL022C'
p2471
I22
sS'YPL109C'
p2472
I1
sS'YJL156C'
p2473
I3
sS'YFL026W'
p2474
I20
sS'YNL115C'
p2475
I4
sS'YNL071W'
p2476
I26
sS'YMR088C'
p2477
I9
sS'YGR211W'
p2478
I17
sS'YKL139W'
p2479
I5
sS'YJL069C'
p2480
I6
sS'YLR298C'
p2481
I5
sS'YDL201W'
p2482
I6
sS'YNL057W'
p2483
I1
sS'YJL016W'
p2484
I4
sS'YJR058C'
p2485
I5
sS'YDR464W'
p2486
I10
sS'YDR444W'
p2487
I9
sS'YER087W'
p2488
I5
sS'YLR285W'
p2489
I9
sS'YDR359C'
p2490
I4
sS'YKL124W'
p2491
I1
sS'YLR267W'
p2492
I1
sS'YKL171W'
p2493
I2
sS'YDL219W'
p2494
I3
sS'YOR136W'
p2495
I11
sS'YDR206W'
p2496
I15
sS'YJL056C'
p2497
I2
sS'YKR024C'
p2498
I4
sS'YBR244W'
p2499
I17
sS'YKL140W'
p2500
I2
sS'YBR156C'
p2501
I3
sS'YPR141C'
p2502
I7
sS'YEL059C-A'
p2503
I1
sS'YOL142W'
p2504
I7
sS'YDR287W'
p2505
I5
sS'YGL209W'
p2506
I1
sS'YDR405W'
p2507
I5
sS'YLR099W-A'
p2508
I2
sS'YGL041W-A'
p2509
I4
sS'YCL031C'
p2510
I12
sS'YIL027C'
p2511
I8
sS'YLR459W'
p2512
I3
sS'YNL243W'
p2513
I7
sS'YJL090C'
p2514
I3
sS'YJR061W'
p2515
I3
sS'YNR026C'
p2516
I2
sS'YHL044W'
p2517
I2
sS'YHR140W'
p2518
I1
sS'YDR002W'
p2519
I43
sS'YNL297C'
p2520
I11
sS'YMR039C'
p2521
I7
sS'YOL164W'
p2522
I3
sS'YNL039W'
p2523
I7
sS'YHR068W'
p2524
I25
sS'YGR149W'
p2525
I3
sS'YJL205C'
p2526
I1
sS'YPL172C'
p2527
I2
sS'YGL148W'
p2528
I37
sS'YLR245C'
p2529
I2
sS'YKL193C'
p2530
I3
sS'YGL083W'
p2531
I7
sS'YNL067W'
p2532
I9
sS'YGR101W'
p2533
I4
sS'YLR310C'
p2534
I10
sS'YNR008W'
p2535
I13
sS'YJR085C'
p2536
I6
sS'YOL133W'
p2537
I6
sS'YJR150C'
p2538
I1
sS'YOR125C'
p2539
I3
sS'YOL077C'
p2540
I22
sS'YDR137W'
p2541
I12
sS'YHR031C'
p2542
I1
sS'YKL209C'
p2543
I27
sS'YLR003C'
p2544
I6
sS'YGL058W'
p2545
I2
sS'YDL061C'
p2546
I29
sS'YLR441C'
p2547
I86
sS'YPR167C'
p2548
I5
sS'YEL033W'
p2549
I26
sS'YNR051C'
p2550
I21
sS'YHR122W'
p2551
I5
sS'YKL164C'
p2552
I8
sS'YHL017W'
p2553
I5
sS'YJR010C-A'
p2554
I2
sS'YIL085C'
p2555
I10
sS'YMR190C'
p2556
I3
sS'YGR005C'
p2557
I9
sS'YGL049C'
p2558
I7
sS'YLR325C'
p2559
I98
sS'YHL034C'
p2560
I25
sS'YGL240W'
p2561
I1
sS'YCR052W'
p2562
I9
sS'YLR332W'
p2563
I5
sS'YOR272W'
p2564
I21
sS'YOR058C'
p2565
I4
sS'YGR127W'
p2566
I1
sS'YFR006W'
p2567
I11
sS'YHL031C'
p2568
I4
sS'YOR275C'
p2569
I7
sS'YGR088W'
p2570
I2
sS'YOR358W'
p2571
I2
sS'YER036C'
p2572
I46
sS'YAR029W'
p2573
I1
sS'YNL238W'
p2574
I7
sS'YOR090C'
p2575
I3
sS'YJL198W'
p2576
I12
sS'YPL207W'
p2577
I13
sS'YBR131W'
p2578
I4
sS'YNL138W-A'
p2579
I1
sS'YGL076C'
p2580
I37
sS'YOL135C'
p2581
I3
sS'YOR323C'
p2582
I35
sS'YLL041C'
p2583
I4
sS'YKR074W'
p2584
I12
sS'YCL054W'
p2585
I17
sS'YOR193W'
p2586
I2
sS'YGL117W'
p2587
I4
sS'YER026C'
p2588
I16
sS'YMR201C'
p2589
I4
sS'YMR105C'
p2590
I2
sS'YER182W'
p2591
I2
sS'YLR069C'
p2592
I3
sS'YJL110C'
p2593
I4
sS'YDR069C'
p2594
I4
sS'YOL110W'
p2595
I1
sS'YGR232W'
p2596
I7
sS'YEL066W'
p2597
I2
sS'YBL055C'
p2598
I3
sS'YPR035W'
p2599
I50
sS'YOR188W'
p2600
I7
sS'YNL314W'
p2601
I3
sS'YLL018C'
p2602
I34
sS'YOL114C'
p2603
I2
sS'YDR227W'
p2604
I8
sS'YDL130W-A'
p2605
I1
sS'YKR013W'
p2606
I9
sS'YDR174W'
p2607
I15
sS'YLR224W'
p2608
I6
sS'YOR155C'
p2609
I5
sS'YGL101W'
p2610
I8
sS'YOR250C'
p2611
I6
sS'YBR121C-A'
p2612
I11
sS'YPR042C'
p2613
I6
sS'YDR383C'
p2614
I2
sS'YEL048C'
p2615
I2
sS'YHL029C'
p2616
I7
sS'YBR093C'
p2617
I2
sS'YPR182W'
p2618
I1
sS'YGL256W'
p2619
I3
sS'YNL092W'
p2620
I1
sS'YGL054C'
p2621
I18
sS'YLR021W'
p2622
I2
sS'YLR134W'
p2623
I2
sS'YLR074C'
p2624
I9
sS'YNL216W'
p2625
I10
sS'YER066W'
p2626
I1
sS'YPL225W'
p2627
I22
sS'YDL043C'
p2628
I3
sS'YHR091C'
p2629
I5
sS'YDL012C'
p2630
I2
sS'YJL024C'
p2631
I3
sS'YOL013W-A'
p2632
I1
sS'YOL013W-B'
p2633
I1
sS'YLR299W'
p2634
I1
sS'YDR345C'
p2635
I21
sS'YJL177W'
p2636
I36
sS'YOR108W'
p2637
I17
sS'YPL051W'
p2638
I2
sS'YJL068C'
p2639
I8
sS'YNL054W'
p2640
I7
sS'YDR277C'
p2641
I1
sS'YGR210C'
p2642
I13
sS'YDR156W'
p2643
I2
sS'YPR155C'
p2644
I4
sS'YHR179W'
p2645
I66
sS'YOR137C'
p2646
I2
sS'YNL049C'
p2647
I4
sS'YKL123W'
p2648
I1
sS'YMR001C-A'
p2649
I1
sS'YKL172W'
p2650
I30
sS'YKR025W'
p2651
I11
sS'YDR305C'
p2652
I2
sS'YDR205W'
p2653
I1
sS'YJL057C'
p2654
I4
sS'YJL108C'
p2655
I2
sS'YLR266C'
p2656
I1
sS'YPL186C'
p2657
I3
sS'YLR284C'
p2658
I2
sS'YNL014W'
p2659
I2
sS'YDR358W'
p2660
I5
sS'YDR056C'
p2661
I5
sS'YFR009W-A'
p2662
I5
sS'YPR028W'
p2663
I27
sS'YLR096W'
p2664
I5
sS'YJL035C'
p2665
I2
sS'YKR052C'
p2666
I2
sS'YPR107C'
p2667
I3
sS'YER040W'
p2668
I3
sS'YIR032C'
p2669
I1
sS'YBL088C'
p2670
I7
sS'YLR083C'
p2671
I21
sS'YIL021W'
p2672
I19
sS'YHR039C-A'
p2673
I44
sS'YJR066W'
p2674
I4
sS'YLR116W'
p2675
I4
sS'YER008C'
p2676
I9
sS'YMR127C'
p2677
I3
sS'YBR177C'
p2678
I10
sS'YIL140W'
p2679
I1
sS'YJL155C'
p2680
I2
sS'YLR197W'
p2681
I69
sS'YFR027W'
p2682
I5
sS'YJL122W'
p2683
I10
sS'YGR148C'
p2684
I46
sS'YKR069W'
p2685
I5
sS'YJL204C'
p2686
I5
sS'YLR244C'
p2687
I28
sS'YBR111W-A'
p2688
I5
sS'YJR084W'
p2689
I4
sS'YLR233C'
p2690
I1
sS'YLR313C'
p2691
I4
sS'YDL238C'
p2692
I3
sS'YKL190W'
p2693
I15
sS'YGL084C'
p2694
I8
sS'YLR382C'
p2695
I3
sS'YKL063C'
p2696
I7
sS'YDL170W'
p2697
I7
sS'YER113C'
p2698
I3
sS'YJR044C'
p2699
I5
sS'YLR219W'
p2700
I3
sS'YMR009W'
p2701
I2
sS'YNL072W'
p2702
I2
sS'YDR363W'
p2703
I4
sS'YFL021W'
p2704
I2
sS'YKL126W'
p2705
I13
sS'YMR283C'
p2706
I4
sS'YLR199C'
p2707
I7
sS'YDR090C'
p2708
I3
sS'YIL108W'
p2709
I4
sS'YNL163C'
p2710
I10
sS'YFR005C'
p2711
I6
sS'YHR009C'
p2712
I12
sS'YJR135W-A'
p2713
I3
sS'YFR050C'
p2714
I8
sS'YLR447C'
p2715
I29
sS'YNR069C'
p2716
I2
sS'YOL058W'
p2717
I9
sS'YOL126C'
p2718
I11
sS'YAR019C'
p2719
I4
sS'YML129C'
p2720
I4
sS'YGL257C'
p2721
I8
sS'YOR359W'
p2722
I2
sS'YNL239W'
p2723
I8
sS'YDR410C'
p2724
I8
sS'YGR020C'
p2725
I16
sS'YOR093C'
p2726
I12
sS'YLL040C'
p2727
I6
sS'YOR322C'
p2728
I8
sS'YBR193C'
p2729
I3
sS'YAL046C'
p2730
I4
sS'YDR198C'
p2731
I5
sS'YAL039C'
p2732
I2
sS'YOR184W'
p2733
I22
sS'YGR100W'
p2734
I6
sS'YER060W'
p2735
I4
sS'YNL240C'
p2736
I7
sS'YBR159W'
p2737
I14
sS'YOR075W'
p2738
I4
sS'YCL030C'
p2739
I38
sS'YDR286C'
p2740
I4
sS'YFR018C'
p2741
I4
sS'YHR141C'
p2742
I15
sS'YJL212C'
p2743
I4
sS'YNL242W'
p2744
I2
sS'YNL162W-A'
p2745
I1
sS'YPL128C'
p2746
I5
sS'YOL090W'
p2747
I6
sS'YNL145W'
p2748
I9
sS'YMR195W'
p2749
I4
sS'YJL091C'
p2750
I6
sS'YNR021W'
p2751
I25
sS'YDR380W'
p2752
I5
sS'YGL100W'
p2753
I10
sS'YBR094W'
p2754
I4
sS'YDR035W'
p2755
I18
sS'YGR042W'
p2756
I5
sS'YDR485C'
p2757
I6
sS'YPL239W'
p2758
I14
sS'YPR183W'
p2759
I9
sS'YOR206W'
p2760
I25
sS'YBL042C'
p2761
I8
sS'YEL017C-A'
p2762
I12
sS'YOL001W'
p2763
I3
sS'YDR525W-A'
p2764
I1
sS'YLR075W'
p2765
I332
sS'YBR054W'
p2766
I2
sS'YPL224C'
p2767
I2
sS'YLR137W'
p2768
I3
sS'YLR020C'
p2769
I10
sS'YNL217W'
p2770
I10
sS'YLR404W'
p2771
I4
sS'YDL042C'
p2772
I5
sS'YMR226C'
p2773
I12
sS'YDR531W'
p2774
I4
sS'YPL206C'
p2775
I5
sS'YOL136C'
p2776
I2
sS'YDL060W'
p2777
I9
sS'YLR002C'
p2778
I9
sS'YBR293W'
p2779
I4
sS'YNR052C'
p2780
I5
sS'YHR032W'
p2781
I8
sS'YEL032W'
p2782
I12
sS'YOL076W'
p2783
I11
sS'YER145C'
p2784
I20
sS'YER110C'
p2785
I35
sS'YHR123W'
p2786
I9
sS'YHR203C'
p2787
I15
sS'YOR304W'
p2788
I15
sS'YDL010W'
p2789
I10
sS'YML112W'
p2790
I2
sS'YHL010C'
p2791
I1
sS'YGL241W'
p2792
I10
sS'YLR108C'
p2793
I1
sS'YPR176C'
p2794
I6
sS'YKR008W'
p2795
I6
sS'YLR017W'
p2796
I14
sS'YDR226W'
p2797
I49
sS'YKL100C'
p2798
I12
sS'YLR097C'
p2799
I6
sS'YDR108W'
p2800
I4
sS'YJL036W'
p2801
I7
sS'YLR426W'
p2802
I6
sS'YER009W'
p2803
I24
sS'YDL155W'
p2804
I6
sS'YNL291C'
p2805
I6
sS'YBR191W-A'
p2806
I13
sS'YDL045C'
p2807
I9
sS'YMR079W'
p2808
I14
sS'YLR115W'
p2809
I8
sS'YMR126C'
p2810
I4
sS'YGL014W'
p2811
I5
sS'YML043C'
p2812
I1
sS'YLR068W'
p2813
I4
sS'YMR258C'
p2814
I11
sS'YGL114W'
p2815
I5
sS'YER027C'
p2816
I5
sS'YER167W'
p2817
I1
sS'YDL013W'
p2818
I7
sS'YMR104C'
p2819
I4
sS'YER185W'
p2820
I2
sS'YKR088C'
p2821
I9
sS'YDL195W'
p2822
I17
sS'YNL199C'
p2823
I7
sS'YCR026C'
p2824
I15
sS'YOR231W'
p2825
I6
sS'YDL198C'
p2826
I10
sS'YPR036W'
p2827
I36
sS'YNL317W'
p2828
I4
sS'YLL019C'
p2829
I5
sS'YGR235C'
p2830
I9
sS'YDR068W'
p2831
I10
sS'YDR060W'
p2832
I29
sS'YLR406C'
p2833
I32
sS'YBR009C'
p2834
I8
sS'YHR052W'
p2835
I20
sS'YKR026C'
p2836
I13
sS'YJR043C'
p2837
I6
sS'YJR012C'
p2838
I5
sS'YKL060C'
p2839
I963
sS'YKL173W'
p2840
I6
sS'YDR119W-A'
p2841
I1
sS'YLR383W'
p2842
I3
sS'YKL035W'
p2843
I16
sS'YNL219C'
p2844
I6
sS'YNL073W'
p2845
I5
sS'YDR469W'
p2846
I4
sS'YNL160W'
p2847
I1
sS'YMR013C'
p2848
I4
sS'YNL328C'
p2849
I1
sS'YJL014W'
p2850
I30
sS'YDR219C'
p2851
I3
sS'YCR011C'
p2852
I18
sS'YNL055C'
p2853
I29
sS'YGR217W'
p2854
I4
sS'YOR174W'
p2855
I3
sS'YFL002C'
p2856
I7
sS'YDR155C'
p2857
I91
sS'YPR149W'
p2858
I12
sS'YGL181W'
p2859
I11
sS'YJL176C'
p2860
I11
sS'YPL087W'
p2861
I4
sS'YNL015W'
p2862
I4
sS'YCR084C'
p2863
I10
sS'YPL065W'
p2864
I3
sS'YDL166C'
p2865
I6
sS'YJL054W'
p2866
I7
sS'YHR178W'
p2867
I5
sS'YDR260C'
p2868
I2
sS'YLR283W'
p2869
I3
sS'YPL170W'
p2870
I3
sS'YDR204W'
p2871
I7
sS'YBR085C-A'
p2872
I7
sS'YJL109C'
p2873
I19
sS'YNL048W'
p2874
I9
sS'YAL038W'
p2875
I622
sS'YOR074C'
p2876
I6
sS'YAL047C'
p2877
I3
sS'YDR285W'
p2878
I3
sS'YJR152W'
p2879
I1
sS'YDR458C'
p2880
I5
sS'YDR150W'
p2881
I10
sS'YFR014C'
p2882
I7
sS'YBR158W'
p2883
I12
sS'YHR121W'
p2884
I9
sS'YOL097C'
p2885
I26
sS'YOR110W'
p2886
I9
sS'YJL096W'
p2887
I3
sS'YCL033C'
p2888
I4
sS'YNR020C'
p2889
I1
sS'YBR258C'
p2890
I1
sS'YFR019W'
p2891
I3
sS'YLR262C-A'
p2892
I19
sS'YHR142W'
p2893
I7
sS'YPL129W'
p2894
I10
sS'YBR223C'
p2895
I1
sS'YMR231W'
p2896
I4
sS'YNL241C'
p2897
I19
sS'YJL154C'
p2898
I10
sS'YDR091C'
p2899
I10
sS'YJL123C'
p2900
I21
sS'YLR196W'
p2901
I20
sS'YPL047W'
p2902
I4
sS'YER086W'
p2903
I20
sS'YIL147C'
p2904
I9
sS'YMR027W'
p2905
I8
sS'YLR287C-A'
p2906
I18
sS'YBR176W'
p2907
I6
sS'YDR207C'
p2908
I4
sS'YFR026C'
p2909
I2
sS'YGL238W'
p2910
I17
sS'YIR003W'
p2911
I8
sS'YML081C-A'
p2912
I3
sS'YNL128W'
p2913
I1
sS'YKL017C'
p2914
I3
sS'YDR450W'
p2915
I48
sS'YKL191W'
p2916
I7
sS'YNR006W'
p2917
I5
sS'YHR120W'
p2918
I3
sS'YOR023C'
p2919
I6
sS'YJL166W'
p2920
I3
sS'YBL018C'
p2921
I3
sS'YOL137W'
p2922
I6
sS'YLR410W'
p2923
I13
sS'YDR530C'
p2924
I6
sS'YDR131C'
p2925
I5
sS'YER111C'
p2926
I5
sS'YEL031W'
p2927
I32
sS'YOL071W'
p2928
I3
sS'YNR053C'
p2929
I18
sS'YDL063C'
p2930
I10
sS'YER144C'
p2931
I4
sS'YOL039W'
p2932
I90
sS'YGL123W'
p2933
I287
sS'YIL083C'
p2934
I6
sS'YNL298W'
p2935
I5
sS'YBR290W'
p2936
I8
sS'YDR172W'
p2937
I40
sS'YNR075W'
p2938
I3
sS'YML113W'
p2939
I2
sS'YHL011C'
p2940
I21
sS'YLR208W'
p2941
I14
sS'YGL173C'
p2942
I27
sS'YLR330W'
p2943
I11
sS'YFR051C'
p2944
I18
sS'YNR068C'
p2945
I1
sS'YOL057W'
p2946
I10
sS'YFR004W'
p2947
I15
sS'YOR369C'
p2948
I355
sS'YOR025W'
p2949
I8
sS'YOR092W'
p2950
I1
sS'YGR021W'
p2951
I4
sS'YDR411C'
p2952
I5
sS'YBR205W'
p2953
I23
sS'YOR321W'
p2954
I6
sS'YGL070C'
p2955
I5
sS'YMR186W'
p2956
I115
sS'YCR098C'
p2957
I1
sS'YOL038C-A'
p2958
I1
sS'YMR278W'
p2959
I4
sS'YER184C'
p2960
I1
sS'YLR136C'
p2961
I4
sS'YMR207C'
p2962
I6
sS'YML015C'
p2963
I2
sS'YOR197W'
p2964
I21
sS'YKR089C'
p2965
I2
sS'YKR072C'
p2966
I12
sS'YDL014W'
p2967
I57
sS'YHR015W'
p2968
I1
sS'YCR027C'
p2969
I3
sS'YDL194W'
p2970
I4
sS'YER079W'
p2971
I3
sS'YBR056W-A'
p2972
I2
sS'YER024W'
p2973
I2
sS'YOR230W'
p2974
I27
sS'YNL198C'
p2975
I1
sS'YGR234W'
p2976
I49
sS'YMR178W'
p2977
I5
sS'YGL115W'
p2978
I14
sS'YMR247C'
p2979
I7
sS'YPR037C'
p2980
I5
sS'YBR077C'
p2981
I4
sS'YEL068C'
p2982
I2
sS'YDR176W'
p2983
I10
sS'YNL090W'
p2984
I4
sS'YDR381W'
p2985
I26
sS'YGL103W'
p2986
I231
sS'YDR484W'
p2987
I3
sS'YOR207C'
p2988
I25
sS'YMR098C'
p2989
I1
sS'YGR192C'
p2990
I276
sS'YBR095C'
p2991
I8
sS'YBL045C'
p2992
I8
sS'YDR036C'
p2993
I10
sS'YGR043C'
p2994
I1
sS'YPL272C'
p2995
I2
sS'YKL135C'
p2996
I8
sS'YER064C'
p2997
I9
sS'YOL002C'
p2998
I10
sS'YLR190W'
p2999
I3
sS'YNL218W'
p3000
I3
sS'YLR407W'
p3001
I3
sS'YBR088C'
p3002
I11
sS'YBR055C'
p3003
I9
sS'YOR175C'
p3004
I13
sS'YNL329C'
p3005
I6
sS'YFL005W'
p3006
I18
sS'YHR204W'
p3007
I10
sS'YMR152W'
p3008
I4
sS'YDR154C'
p3009
I86
sS'YMR125W'
p3010
I14
sS'YGL028C'
p3011
I4
sS'YJR031C'
p3012
I12
sS'YGR216C'
p3013
I9
sS'YGR118W'
p3014
I21
sS'YJL055W'
p3015
I9
sS'YNL188W'
p3016
I7
sS'YDR303C'
p3017
I8
sS'YPL086C'
p3018
I16
sS'YPL184C'
p3019
I4
sS'YPR153W'
p3020
I1
sS'YKR066C'
p3021
I11
sS'YDR252W'
p3022
I2
sS'YLL003W'
p3023
I11
sS'YLR425W'
p3024
I3
sS'YOR157C'
p3025
I16
sS'YML009W-B'
p3026
I5
sS'YDR109C'
p3027
I5
sS'YPR171W'
p3028
I7
sS'YLR109W'
p3029
I200
sS'YKL103C'
p3030
I2
sS'YMR078C'
p3031
I9
sS'YLR094C'
p3032
I5
sS'YDL154W'
p3033
I1
sS'YLR114C'
p3034
I9
sS'YML037C'
p3035
I1
sS'YJR060W'
p3036
I7
sS'YLR141W'
p3037
I1
sS'YDL089W'
p3038
I1
sS'YPL159C'
p3039
I5
sS'YBR102C'
p3040
I10
sS'YNL161W'
p3041
I6
sS'YIL146C'
p3042
I5
sS'YDR096W'
p3043
I1
sS'YIR006C'
p3044
I11
sS'YPL046C'
p3045
I2
sS'YIL002W-A'
p3046
I9
sS'YKL196C'
p3047
I14
sS'YLR231C'
p3048
I6
sS'YFR021W'
p3049
I2
sS'YNL129W'
p3050
I4
sS'YKL016C'
p3051
I5
sS'YPL111W'
p3052
I13
sS'YGL017W'
p3053
I4
sS'YKL174C'
p3054
I8
sS'YJR013W'
p3055
I3
sS'YDL176W'
p3056
I7
sS'YKL121W'
p3057
I1
sS'YKR027W'
p3058
I3
sS'YLR380W'
p3059
I9
sS'YKL034W'
p3060
I3
sS'YER099C'
p3061
I7
sS'YJR042W'
p3062
I18
sS'YMR281W'
p3063
I5
sS'YMR012W'
p3064
I28
sS'YER093C'
p3065
I12
sS'YHR186C'
p3066
I3
sS'YFL027C'
p3067
I3
sS'YDR468C'
p3068
I5
sS'YLR174W'
p3069
I1
sS'YFR003C'
p3070
I2
sS'YIL033C'
p3071
I6
sS'YOR368W'
p3072
I1
sS'YGR128C'
p3073
I6
sS'YPL133C'
p3074
I5
sS'YIL048W'
p3075
I7
sS'YLR337C'
p3076
I3
sS'YOL056W'
p3077
I5
sS'YFR052W'
p3078
I15
sS'YMR302C'
p3079
I10
sS'YOR026W'
p3080
I5
sS'YBR230W-A'
p3081
I1
sS'YGL073W'
p3082
I4
sS'YMR189W'
p3083
I10
sS'YBR204C'
p3084
I2
sS'YGR106C'
p3085
I36
sS'YIL168W'
p3086
I1
sS'YOR076C'
p3087
I6
sS'YGL086W'
p3088
I12
sS'YJR155W'
p3089
I1
sS'YAL044C'
p3090
I22
sS'YPR081C'
p3091
I4
sS'YNR023W'
p3092
I9
sS'YOL096C'
p3093
I1
sS'YDR284C'
p3094
I7
sS'YJL097W'
p3095
I18
sS'YBR259W'
p3096
I2
sS'YNL135C'
p3097
I28
sS'YCL032W'
p3098
I5
sS'YOR048C'
p3099
I13
sS'YNL147W'
p3100
I8
sS'YPR163C'
p3101
I39
sS'YHR143W'
p3102
I11
sS'YBR222C'
p3103
I3
sS'YOR306C'
p3104
I8
sS'YPR101W'
p3105
I4
sS'YCL017C'
p3106
I12
sS'YNL091W'
p3107
I13
sS'YDL040C'
p3108
I23
sS'YCL004W'
p3109
I2
sS'YBR096W'
p3110
I10
sS'YJL206C'
p3111
I2
sS'YBR136W'
p3112
I5
sS'YNL281W'
p3113
I17
sS'YDR430C'
p3114
I3
sS'YGR193C'
p3115
I12
sS'YDR487C'
p3116
I15
sS'YPR185W'
p3117
I9
sS'YPL273W'
p3118
I14
sS'YGR015C'
p3119
I2
sS'YGL248W'
p3120
I5
sS'YNR035C'
p3121
I16
sS'YER065C'
p3122
I5
sS'YLR077W'
p3123
I6
sS'YBR056W'
p3124
I9
sS'YLL020C'
p3125
I1
sS'YDR037W'
p3126
I93
sS'YGR040W'
p3127
I3
sS'YER178W'
p3128
I58
sS'YOL003C'
p3129
I4
sS'YPL222W'
p3130
I3
sS'YBR137W'
p3131
I7
sS'YOR320C'
p3132
I5
sS'YHR034C'
p3133
I4
sS'YBL019W'
p3134
I2
sS'YOL070C'
p3135
I5
sS'YOL138C'
p3136
I3
sS'YJL085W'
p3137
I4
sS'YDR533C'
p3138
I5
sS'YHR061C'
p3139
I3
sS'YNR054C'
p3140
I9
sS'YER147C'
p3141
I4
sS'YDR130C'
p3142
I7
sS'YIL015W'
p3143
I16
sS'YEL030W'
p3144
I1
sS'YBR291C'
p3145
I2
sS'YOL038W'
p3146
I17
sS'YDR183C-A'
p3147
I1
sS'YML114C'
p3148
I6
sS'YHR201C'
p3149
I13
sS'YNL299W'
p3150
I2
sS'YGR008C'
p3151
I2
sS'YKL211C'
p3152
I14
sS'YNL311C'
p3153
I3
sS'YLL002W'
p3154
I3
sS'YJL030W'
p3155
I3
sS'YLR424W'
p3156
I4
sS'YDR165W'
p3157
I22
sS'YCR067C'
p3158
I6
sS'YGR248W'
p3159
I1
sS'YER043C'
p3160
I42
sS'YBR074W'
p3161
I6
sS'YOR150W'
p3162
I3
sS'YDR055W'
p3163
I3
sS'YLR095C'
p3164
I5
sS'YBR034C'
p3165
I14
sS'YML036W'
p3166
I3
sS'YLR040C'
p3167
I2
sS'YDL236W'
p3168
I15
sS'YDL088C'
p3169
I9
sS'YJR063W'
p3170
I7
sS'YLR113W'
p3171
I11
sS'YDL157C'
p3172
I5
sS'YLR131C'
p3173
I4
sS'YER025W'
p3174
I33
sS'YDL015C'
p3175
I14
sS'YKR086W'
p3176
I5
sS'YML041C'
p3177
I4
sS'YDL197C'
p3178
I3
sS'YER078C'
p3179
I5
sS'YER130C'
p3180
I5
sS'YDL192W'
p3181
I34
sS'YGR132C'
p3182
I4
sS'YER165W'
p3183
I60
sS'YMR106C'
p3184
I1
sS'YCL059C'
p3185
I15
sS'YBR082C'
p3186
I17
sS'YKR071C'
p3187
I9
sS'YGL112C'
p3188
I12
sS'YOR233W'
p3189
I8
sS'YPL040C'
p3190
I5
sS'YMR179W'
p3191
I2
sS'YDL008W'
p3192
I2
sS'YBL050W'
p3193
I10
sS'YGR102C'
p3194
I2
sS'YGR280C'
p3195
I12
sS'YGR237C'
p3196
I5
sS'YJR014W'
p3197
I20
sS'YLR281C'
p3198
I1
sS'YPL018W'
p3199
I3
sS'YKL120W'
p3200
I24
sS'YJR041C'
p3201
I6
sS'YKL175W'
p3202
I5
sS'YKR028W'
p3203
I17
sS'YLR381W'
p3204
I4
sS'YHR005C'
p3205
I22
sS'YMR286W'
p3206
I2
sS'YMR011W'
p3207
I9
sS'YKL168C'
p3208
I2
sS'YDL200C'
p3209
I3
sS'YDL102W'
p3210
I11
sS'YJR009C'
p3211
I31
sS'YER092W'
p3212
I2
sS'YLR214W'
p3213
I32
sS'YGL029W'
p3214
I7
sS'YFL004W'
p3215
I33
sS'YBR115C'
p3216
I19
sS'YGL183C'
p3217
I1
sS'YDL128W'
p3218
I5
sS'YJL025W'
p3219
I2
sS'YPL098C'
p3220
I5
sS'YMR153W'
p3221
I15
sS'YMR124W'
p3222
I5
sS'YMR033W'
p3223
I9
sS'YPR103W'
p3224
I26
sS'YPR003C'
p3225
I2
sS'YGR262C'
p3226
I6
sS'YPL085W'
p3227
I8
sS'YPR152C'
p3228
I5
sS'YJL052W'
p3229
I4
sS'YGR215W'
p3230
I4
sS'YDR253C'
p3231
I1
sS'YER128W'
p3232
I2
sS'YCR082W'
p3233
I7
sS'YDR300C'
p3234
I8
sS'YOR001W'
p3235
I8
sS'YKL088W'
p3236
I5
sS'YLR276C'
p3237
I19
sS'YKL023C-A'
p3238
I11
sS'YGR105W'
p3239
I4
sS'YBR269C'
p3240
I3
sS'YDR283C'
p3241
I11
sS'YBR192W'
p3242
I6
sS'YNL140C'
p3243
I5
sS'YER007C-A'
p3244
I19
sS'YOL095C'
p3245
I5
sS'YNR022C'
p3246
I5
sS'YBR125C'
p3247
I7
sS'YDR409W'
p3248
I1
sS'YBR221C'
p3249
I30
sS'YJL094C'
p3250
I4
sS'YGL043W'
p3251
I10
sS'YNL166C'
p3252
I14
sS'YDR097C'
p3253
I7
sS'YJL121C'
p3254
I14
sS'YKL008C'
p3255
I14
sS'YBR103W'
p3256
I7
sS'YIL132C'
p3257
I1
sS'YIL145C'
p3258
I10
sS'YNR004W'
p3259
I1
sS'YPL032C'
p3260
I9
sS'YHR064C'
p3261
I73
sS'YKL015W'
p3262
I5
sS'YKL197C'
p3263
I4
sS'YGR202C'
p3264
I5
sS'YJR089W'
p3265
I6
sS'YPL110C'
p3266
I3
sS'YDR377W'
p3267
I4
sS'YIR007W'
p3268
I1
sS'YJL201W'
p3269
I10
sS'YLR314C'
p3270
I16
sS'YLR146W-A'
p3271
I2
sS'YFR020W'
p3272
I2
sS'YNL126W'
p3273
I7
sS'YKL040C'
p3274
I5
sS'YLR249W'
p3275
I301
sS'YOR327C'
p3276
I6
sS'YOL139C'
p3277
I45
sS'YBR207W'
p3278
I8
sS'YDR489W'
p3279
I3
sS'YOL073C'
p3280
I2
sS'YPL203W'
p3281
I3
sS'YNR055C'
p3282
I12
sS'YDR532C'
p3283
I5
sS'YIL014W'
p3284
I5
sS'YHR200W'
p3285
I16
sS'YDR184C'
p3286
I1
sS'YDR133C'
p3287
I11
sS'YML115C'
p3288
I13
sS'YNL221C'
p3289
I12
sS'YER146W'
p3290
I10
sS'YHR159W'
p3291
I2
sS'YPL132W'
p3292
I7
sS'YIL114C'
p3293
I3
sS'YOL055C'
p3294
I5
sS'YMR223W'
p3295
I4
sS'YNL108C'
p3296
I12
sS'YFR053C'
p3297
I3
sS'YIL049W'
p3298
I3
sS'YMR301C'
p3299
I5
sS'YLR336C'
p3300
I7
sS'YFR002W'
p3301
I10
sS'YDL175C'
p3302
I3
sS'YGR089W'
p3303
I8
sS'YBL029W'
p3304
I2
sS'YMR188C'
p3305
I6
sS'YGR154C'
p3306
I1
sS'YLR130C'
p3307
I10
sS'YER022W'
p3308
I4
sS'YBR057C'
p3309
I6
sS'YPL269W'
p3310
I3
sS'YER186C'
p3311
I2
sS'YKR070W'
p3312
I5
sS'YMR205C'
p3313
I34
sS'YPL123C'
p3314
I3
sS'YJL185C'
p3315
I1
sS'YER164W'
p3316
I7
sS'YER131W'
p3317
I33
sS'YML017W'
p3318
I2
sS'YKR087C'
p3319
I7
sS'YOR274W'
p3320
I5
sS'YOR232W'
p3321
I10
sS'YGR281W'
p3322
I13
sS'YPL161C'
p3323
I8
sS'YGL113W'
p3324
I6
sS'YIL121W'
p3325
I6
sS'YKR091W'
p3326
I3
sS'YHL013C'
p3327
I4
sS'YGR009C'
p3328
I5
sS'YOR059C'
p3329
I5
sS'YCL005W'
p3330
I4
sS'YOR309C'
p3331
I21
sS'YBR097W'
p3332
I2
sS'YEL019C'
p3333
I1
sS'YMR227C'
p3334
I5
sS'YPR186C'
p3335
I3
sS'YGR194C'
p3336
I3
sS'YDR486C'
p3337
I5
sS'YOL130W'
p3338
I5
sS'YDR030C'
p3339
I4
sS'YPL221W'
p3340
I8
sS'YPL274W'
p3341
I6
sS'YBL047C'
p3342
I15
sS'YOR315W'
p3343
I10
sS'YEL051W'
p3344
I32
sS'YLL023C'
p3345
I6
sS'YOL004W'
p3346
I17
sS'YPL209C'
p3347
I4
sS'YGR014W'
p3348
I9
sS'YGR041W'
p3349
I7
sS'YMR032W'
p3350
I10
sS'YMR150C'
p3351
I5
sS'YFL007W'
p3352
I12
sS'YDL129W'
p3353
I1
sS'YPL099C'
p3354
I3
sS'YCR012W'
p3355
I644
sS'YGL026C'
p3356
I42
sS'YDR201W'
p3357
I2
sS'YDR254W'
p3358
I3
sS'YGR263C'
p3359
I3
sS'YNL045W'
p3360
I7
sS'YPL084W'
p3361
I4
sS'YNL010W'
p3362
I30
sS'YDR354W'
p3363
I5
sS'YDR301W'
p3364
I6
sS'YJL053W'
p3365
I3
sS'YPR104C'
p3366
I7
sS'YGR214W'
p3367
I65
sS'YCR083W'
p3368
I5
sS'YOR151C'
p3369
I22
sS'YML028W'
p3370
I87
sS'YNL267W'
p3371
I11
sS'YLL001W'
p3372
I7
sS'YDR052C'
p3373
I6
sS'YHL006C'
p3374
I1
sS'YPR173C'
p3375
I20
sS'YJL031C'
p3376
I10
sS'YNL262W'
p3377
I7
sS'YDL021W'
p3378
I2
sS'YLR143W'
p3379
I6
sS'YLR043C'
p3380
I20
sS'YML060W'
p3381
I3
sS'YJR062C'
p3382
I4
sS'YBR239C'
p3383
I2
sS'YBR035C'
p3384
I13
sS'YBR109W-A'
p3385
I1
sS'YML035C'
p3386
I14
sS'YLR050C'
p3387
I2
sS'YLR112W'
p3388
I1
sS'YNL167C'
p3389
I4
sS'YGL008C'
p3390
I127
sS'YFL025C'
p3391
I2
sS'YKL009W'
p3392
I22
sS'YER055C'
p3393
I65
sS'YHR063C'
p3394
I13
sS'YNL307C'
p3395
I11
sS'YDR094W'
p3396
I2
sS'YJL126W'
p3397
I2
sS'YJL159W'
p3398
I18
sS'YIL133C'
p3399
I85
sS'YKL141W'
p3400
I6
sS'YJL200C'
p3401
I20
sS'YLR317W'
p3402
I1
sS'YKL041W'
p3403
I5
sS'YNR003C'
p3404
I5
sS'YLR438W'
p3405
I8
sS'YDR376W'
p3406
I4
sS'YDR003W-A'
p3407
I1
sS'YKL194C'
p3408
I5
sS'YNL127W'
p3409
I3
sS'YDR089W'
p3410
I9
sS'YKL014C'
p3411
I10
sS'YLR237W'
p3412
I3
sS'YLR280C'
p3413
I1
sS'YJR040W'
p3414
I10
sS'YPR119W'
p3415
I5
sS'YJR015W'
p3416
I14
sS'YHR051W'
p3417
I6
sS'YKL176C'
p3418
I10
sS'YKR029C'
p3419
I4
sS'YDR249C'
p3420
I2
sS'YJL104W'
p3421
I8
sS'YPR010C-A'
p3422
I3
sS'YPL019C'
p3423
I51
sS'YDL174C'
p3424
I4
sS'YER091C'
p3425
I17
sS'YMR194C-B'
p3426
I1
sS'YMR194C-A'
p3427
I1
sS'YDL103C'
p3428
I8
sS'YMR010W'
p3429
I5
sS'YDL203C'
p3430
I8
sS'YML031W'
p3431
I11
sS'YLR215C'
p3432
I3
sS'YML082W'
p3433
I10
sS'YMR287C'
p3434
I4
sS'YGR026W'
p3435
I8
sS'YOL054W'
p3436
I6
sS'YFR001W'
p3437
I9
sS'YDR202C'
p3438
I7
sS'YBR220C'
p3439
I3
sS'YPL131W'
p3440
I262
sS'YIL115C'
p3441
I17
sS'YOL101C'
p3442
I2
sS'YJL088W'
p3443
I1
sS'YHR158C'
p3444
I5
sS'YKL033W-A'
p3445
I18
sS'YMR036C'
p3446
I2
sS'YDL109C'
p3447
I2
sS'YDR234W'
p3448
I6
sS'YIL031W'
p3449
I3
sS'YLR104W'
p3450
I1
sS'YGR155W'
p3451
I43
sS'YMR300C'
p3452
I18
sS'YFR049W'
p3453
I7
sS'YGR048W'
p3454
I6
sS'YLR342W'
p3455
I38
sS'YLR335W'
p3456
I14
sS'YJR102C'
p3457
I1
sS'YCL036W'
p3458
I13
sS'YOR020C'
p3459
I16
sS'YBL028C'
p3460
I5
sS'YOL092W'
p3461
I12
sS'YJR088C'
p3462
I2
sS'YGR104C'
p3463
I4
sS'YLR368W'
p3464
I8
sS'YBR268W'
p3465
I4
sS'YPR083W'
p3466
I2
sS'YKL089W'
p3467
I5
sS'YOR006C'
p3468
I6
sS'YLR277C'
p3469
I9
sS'YGL088W'
p3470
I5
sS'YGR173W'
p3471
I13
sS'YGR086C'
p3472
I24
sS'YDR282C'
p3473
I6
sS'YOR132W'
p3474
I8
sS'YAL002W'
p3475
I6
sS'YJL095W'
p3476
I10
sS'YHR018C'
p3477
I22
sS'YDR408C'
p3478
I10
sS'YBR126C'
p3479
I16
sS'YOL149W'
p3480
I5
sS'YPL067C'
p3481
I3
sS'YGL202W'
p3482
I38
sS'YOR046C'
p3483
I23
sS'YKR035W-A'
p3484
I7
sS'YNL141W'
p3485
I19
sS'YKR090W'
p3486
I7
sS'YMR220W'
p3487
I9
sS'YPR187W'
p3488
I21
sS'YEL018W'
p3489
I6
sS'YDR432W'
p3490
I21
sS'YOR308C'
p3491
I5
sS'YGL104C'
p3492
I2
sS'YPL002C'
p3493
I7
sS'YLL022C'
p3494
I7
sS'YGR017W'
p3495
I7
sS'YDR031W'
p3496
I2
sS'YOL005C'
p3497
I6
sS'YOR213C'
p3498
I3
sS'YEL050C'
p3499
I3
sS'YHR036W'
p3500
I3
sS'YOL072W'
p3501
I5
sS'YPL202C'
p3502
I6
sS'YGL224C'
p3503
I4
sS'YBR206W'
p3504
I1
sS'YIL017C'
p3505
I5
sS'YOR326W'
p3506
I31
sS'YOL123W'
p3507
I10
sS'YDR132C'
p3508
I3
sS'YML116W'
p3509
I8
sS'YDR185C'
p3510
I1
sS'YBR084C-A'
p3511
I40
sS'YHR207C'
p3512
I4
sS'YGR039W'
p3513
I1
sS'YER141W'
p3514
I4
sS'YKL213C'
p3515
I17
sS'YNL220W'
p3516
I38
sS'YGR060W'
p3517
I20
sS'YCL064C'
p3518
I40
sS'YML029W'
p3519
I7
sS'YJR154W'
p3520
I3
sS'YNL313C'
p3521
I14
sS'YGL031C'
p3522
I44
sS'YCR048W'
p3523
I11
sS'YCR033W'
p3524
I12
sS'YGR124W'
p3525
I36
sS'YDR104C'
p3526
I2
sS'YPR172W'
p3527
I5
sS'YML034W'
p3528
I5
sS'YBL039W-B'
p3529
I1
sS'YLR042C'
p3530
I1
sS'YLR144C'
p3531
I5
sS'YEL072W'
p3532
I4
sS'YPR058W'
p3533
I9
sS'YDL020C'
p3534
I13
sS'YML061C'
p3535
I5
sS'YJL186W'
p3536
I15
sS'YHR101C'
p3537
I4
sS'YER163C'
p3538
I8
sS'YPL268W'
p3539
I7
sS'YER132C'
p3540
I6
sS'YDR399W'
p3541
I20
sS'YML016C'
p3542
I6
sS'YLR133W'
p3543
I5
sS'YDL017W'
p3544
I5
sS'YOR060C'
p3545
I2
sS'YGL110C'
p3546
I6
sS'YDR179W-A'
p3547
I3
sS'YMR242C'
p3548
I32
sS'YGR282C'
p3549
I32
sS'YOR236W'
p3550
I5
sS'YPL183C'
p3551
I8
sS'YDR166C'
p3552
I5
sS'YPR118W'
p3553
I21
sS'YJL005W'
p3554
I3
sS'YJL050W'
p3555
I26
sS'YKR063C'
p3556
I5
sS'YHR056C'
p3557
I4
sS'YDR248C'
p3558
I5
sS'YJR016C'
p3559
I87
sS'YDL202W'
p3560
I6
sS'YDL100C'
p3561
I40
sS'YGL055W'
p3562
I23
sS'YOR049C'
p3563
I1
sS'YBR080C'
p3564
I10
sS'YLR216C'
p3565
I38
sS'YGR063C'
p3566
I4
sS'YER090W'
p3567
I21
sS'YMR035W'
p3568
I2
sS'YLR352W'
p3569
I3
sS'YCR015C'
p3570
I1
sS'YKR011C'
p3571
I1
sS'YDR159W'
p3572
I5
sS'YNL095C'
p3573
I3
sS'YGL185C'
p3574
I2
sS'YDR437W'
p3575
I1
sS'YGL027C'
p3576
I10
sS'YOR165W'
p3577
I7
sS'YDL086C-A'
p3578
I2
sS'YPR005C'
p3579
I2
sS'YNL044W'
p3580
I6
sS'YCR075W-A'
p3581
I2
sS'YDR200C'
p3582
I4
sS'YPR105C'
p3583
I8
sS'YOR130C'
p3584
I5
sS'YPL083C'
p3585
I5
sS'YNL011C'
p3586
I2
sS'YDR357C'
p3587
I2
sS'YCR030C'
p3588
I3
sS'YJR021C'
p3589
I8
sS'YLR274W'
p3590
I8
sS'YGL126W'
p3591
I3
sS'YLR369W'
p3592
I5
sS'YPL158C'
p3593
I10
sS'YHR097C'
p3594
I2
sS'YDL220C'
p3595
I2
sS'YGR170W'
p3596
I8
sS'YNL142W'
p3597
I4
sS'YOL148C'
p3598
I7
sS'YPR082C'
p3599
I1
sS'YHR019C'
p3600
I51
sS'YJR129C'
p3601
I1
sS'YDR281C'
p3602
I5
sS'YGL203C'
p3603
I13
sS'YIL078W'
p3604
I67
sS'YOR047C'
p3605
I4
sS'YFL024C'
p3606
I4
sS'YPL243W'
p3607
I16
sS'YAL061W'
p3608
I1
sS'YJL127C'
p3609
I5
sS'YIL130W'
p3610
I5
sS'YBL092W'
p3611
I145
sS'YDR368W'
p3612
I15
sS'YJL158C'
p3613
I48
sS'YMR299C'
p3614
I4
sS'YLR234W'
p3615
I4
sS'YJL167W'
p3616
I35
sS'YBR149W'
p3617
I12
sS'YNL179C'
p3618
I1
sS'YDR088C'
p3619
I3
sS'YDR320C'
p3620
I4
sS'YKL042W'
p3621
I5
sS'YNL066W'
p3622
I13
sS'YPL112C'
p3623
I5
sS'YPL030W'
p3624
I6
sS'YDR452W'
p3625
I16
sS'YLR316C'
p3626
I1
sS'YFR022W'
p3627
I2
sS'YNL124W'
p3628
I2
sS'YGL225W'
p3629
I23
sS'YHR037W'
p3630
I6
sS'YAR023C'
p3631
I1
sS'YOR352W'
p3632
I3
sS'YDR534C'
p3633
I2
sS'YOL028C'
p3634
I1
sS'YNR057C'
p3635
I3
sS'YDR186C'
p3636
I12
sS'YML117W'
p3637
I13
sS'YHR206W'
p3638
I4
sS'YDR129C'
p3639
I23
sS'YOR069W'
p3640
I7
sS'YGR038W'
p3641
I9
sS'YKR001C'
p3642
I29
sS'YOL122C'
p3643
I7
sS'YBR104W'
p3644
I12
sS'YNL223W'
p3645
I2
sS'YBR227C'
p3646
I8
sS'YOL053W'
p3647
I2
sS'YFR055W'
p3648
I7
sS'YHR157W'
p3649
I1
sS'YML124C'
p3650
I16
sS'YIL030C'
p3651
I11
sS'YIL116W'
p3652
I12
sS'YOL100W'
p3653
I9
sS'YLR194C'
p3654
I8
sS'YLR442C'
p3655
I9
sS'YJR103W'
p3656
I6
sS'YGR156W'
p3657
I2
sS'YFR048W'
p3658
I5
sS'YGL169W'
p3659
I9
sS'YMR307W'
p3660
I89
sS'YOR021C'
p3661
I19
sS'YER133W'
p3662
I18
sS'YOL006C'
p3663
I10
sS'YDL066W'
p3664
I25
sS'YLR132C'
p3665
I1
sS'YER020W'
p3666
I8
sS'YER162C'
p3667
I4
sS'YML011C'
p3668
I3
sS'YNL201C'
p3669
I9
sS'YDL190C'
p3670
I8
sS'YCR028C-A'
p3671
I10
sS'YHR102W'
p3672
I2
sS'YER112W'
p3673
I5
sS'YER075C'
p3674
I5
sS'YJL187C'
p3675
I6
sS'YLR018C'
p3676
I2
sS'YKR085C'
p3677
I4
sS'YMR319C'
p3678
I12
sS'YPL045W'
p3679
I6
sS'YLR063W'
p3680
I3
sS'YOR234C'
p3681
I27
sS'YGL111W'
p3682
I10
sS'YBR289W'
p3683
I8
sS'YKR093W'
p3684
I7
sS'YER082C'
p3685
I8
sS'YKL212W'
p3686
I23
sS'YMR221C'
p3687
I7
sS'YPR188C'
p3688
I9
sS'YOR374W'
p3689
I9
sS'YGL107C'
p3690
I4
sS'YOR269W'
p3691
I4
sS'YOR212W'
p3692
I7
sS'YDR032C'
p3693
I18
sS'YDR433W'
p3694
I9
sS'YGR054W'
p3695
I16
sS'YEL053C'
p3696
I3
sS'YPL037C'
p3697
I41
sS'YER057C'
p3698
I8
sS'YMR156C'
p3699
I1
sS'YKL145W'
p3700
I25
sS'YCR014C'
p3701
I3
sS'YIL053W'
p3702
I83
sS'YKR010C'
p3703
I5
sS'YGL184C'
p3704
I3
sS'YLR085C'
p3705
I2
sS'YOR179C'
p3706
I4
sS'YDR514C'
p3707
I4
sS'YMR129W'
p3708
I12
sS'YIL136W'
p3709
I2
sS'YCR081W'
p3710
I3
sS'YDR423C'
p3711
I4
sS'YPR106W'
p3712
I5
sS'YPR004C'
p3713
I11
sS'YGR261C'
p3714
I11
sS'YGR180C'
p3715
I33
sS'YDR158W'
p3716
I69
sS'YMR116C'
p3717
I250
sS'YHR065C'
p3718
I15
sS'YOR164C'
p3719
I9
sS'YNL047C'
p3720
I2
sS'YPL082C'
p3721
I9
sS'YDR451C'
p3722
I7
sS'YGL030W'
p3723
I159
sS'YGR283C'
p3724
I8
sS'YMR174C'
p3725
I1
sS'YJL033W'
p3726
I17
sS'YLR429W'
p3727
I21
sS'YMR230W'
p3728
I25
sS'YDR050C'
p3729
I418
sS'YGR061C'
p3730
I54
sS'YLL007C'
p3731
I2
sS'YCR032W'
p3732
I5
sS'YNL312W'
p3733
I12
sS'YDR105C'
p3734
I5
sS'YPL241C'
p3735
I2
sS'YLR145W'
p3736
I3
sS'YLR045C'
p3737
I8
sS'YDR085C'
p3738
I1
sS'YLR098C'
p3739
I4
sS'YPR022C'
p3740
I7
sS'YLR110C'
p3741
I239
sS'YIR038C'
p3742
I4
sS'YPL117C'
p3743
I18
sS'YEL071W'
p3744
I34
sS'YKR058W'
p3745
I2
sS'YML062C'
p3746
I4
sS'YFL050C'
p3747
I2
sS'YDR369C'
p3748
I5
sS'YBR106W'
p3749
I37
sS'YBL093C'
p3750
I4
sS'YAL062W'
p3751
I2
sS'YLR453C'
p3752
I1
sS'YMR298W'
p3753
I7
sS'YDR350C'
p3754
I3
sS'YNL078W'
p3755
I4
sS'YJL124C'
p3756
I10
sS'YNL165W'
p3757
I4
sS'YPR131C'
p3758
I7
sS'YIL131C'
p3759
I2
sS'YKL143W'
p3760
I16
sS'YBR146W'
p3761
I7
sS'YPL031C'
p3762
I5
sS'YAL044W-A'
p3763
I1
sS'YKL012W'
p3764
I7
sS'YPL115C'
p3765
I9
sS'YJL164C'
p3766
I2
sS'YNL125C'
p3767
I2
sS'YNL065W'
p3768
I2
sS'YNL030W'
p3769
I10
sS'YLR191W'
p3770
I3
sS'YDR321W'
p3771
I38
sS'YNR001C'
p3772
I12
sS'YNL178W'
p3773
I317
sS'YJL004C'
p3774
I5
sS'YGL243W'
p3775
I6
sS'YDR356W'
p3776
I12
sS'YDR167W'
p3777
I11
sS'YJL051W'
p3778
I1
sS'YJR017C'
p3779
I7
sS'YPL180W'
p3780
I7
sS'YHR057C'
p3781
I4
sS'YJL106W'
p3782
I3
sS'YOR380W'
p3783
I2
sS'YDL101C'
p3784
I4
sS'YDL205C'
p3785
I6
sS'YML080W'
p3786
I8
sS'YHR180W'
p3787
I3
sS'YMR285C'
p3788
I7
sS'YMR016C'
p3789
I4
sS'YKL210W'
p3790
I24
sS'YGL245W'
p3791
I86
sS'YLL018C-A'
p3792
I2
sS'YIL117C'
p3793
I6
sS'YAL055W'
p3794
I3
sS'YOL052C'
p3795
I3
sS'YDR475C'
p3796
I4
sS'YPL137C'
p3797
I5
sS'YOL103W'
p3798
I10
sS'YHR156C'
p3799
I2
sS'YGR157W'
p3800
I24
sS'YJR045C'
p3801
I36
sS'YJL165C'
p3802
I10
sS'YBR168W'
p3803
I3
sS'YJR100C'
p3804
I4
sS'YLR340W'
p3805
I335
sS'YJR068W'
p3806
I7
sS'YCL005W-A'
p3807
I5
sS'YHR162W'
p3808
I28
sS'YLR275W'
p3809
I2
sS'YOR004W'
p3810
I7
sS'YKL043W'
p3811
I4
sS'YGR171C'
p3812
I3
sS'YDL227C'
p3813
I10
sS'YAL048C'
p3814
I1
sS'YGL093W'
p3815
I10
sS'YHR011W'
p3816
I5
sS'YGL200C'
p3817
I19
sS'YHR080C'
p3818
I6
sS'YOR044W'
p3819
I2
sS'YBR120C'
p3820
I2
sS'YDR280W'
p3821
I13
sS'YKL215C'
p3822
I5
sS'YCL042W'
p3823
I1
sS'YHR138C'
p3824
I2
sS'YPR189W'
p3825
I8
sS'YPL079W'
p3826
I35
sS'YBR288C'
p3827
I13
sS'YKR092C'
p3828
I15
sS'YOR259C'
p3829
I31
sS'YGR197C'
p3830
I6
sS'YPR158W'
p3831
I4
sS'YHL007C'
p3832
I9
sS'YGL106W'
p3833
I21
sS'YOR375C'
p3834
I32
sS'YOR211C'
p3835
I12
sS'YGR011W'
p3836
I2
sS'YDR033W'
p3837
I37
sS'YGL226W'
p3838
I2
sS'YIL019W'
p3839
I6
sS'YOR324C'
p3840
I4
sS'YMR086C-A'
p3841
I1
sS'YLR177W'
p3842
I2
sS'YOR353C'
p3843
I4
sS'YER074W-A'
p3844
I6
sS'YOR099W'
p3845
I13
sS'YHL025W'
p3846
I5
sS'YOL029C'
p3847
I6
sS'YNL222W'
p3848
I4
sS'YHR205W'
p3849
I7
sS'YGR037C'
p3850
I14
sS'YNL330C'
p3851
I2
sS'YOL121C'
p3852
I37
sS'YNR058W'
p3853
I4
sS'YER143W'
p3854
I7
sS'YOR106W'
p3855
I5
sS'YGR284C'
p3856
I13
sS'YMR240C'
p3857
I12
sS'YCR031C'
p3858
I75
sS'YPR069C'
p3859
I40
sS'YPL134C'
p3860
I3
sS'YMR215W'
p3861
I18
sS'YDR051C'
p3862
I3
sS'YOR237W'
p3863
I1
sS'YHL035C'
p3864
I6
sS'YBR078W'
p3865
I81
sS'YBR030W'
p3866
I4
sS'YLR440C'
p3867
I8
sS'YPL240C'
p3868
I26
sS'YDL022W'
p3869
I10
sS'YPR021C'
p3870
I5
sS'YLR044C'
p3871
I643
sS'YGR244C'
p3872
I2
sS'YDR496C'
p3873
I20
sS'YLR099C'
p3874
I10
sS'YOR149C'
p3875
I2
sS'YOR298C-A'
p3876
I39
sS'YML032C'
p3877
I7
sS'YLR146C'
p3878
I5
sS'YGR271W'
p3879
I5
sS'YHR135C'
p3880
I10
sS'YDR429C'
p3881
I37
sS'YML010W'
p3882
I25
sS'YDL193W'
p3883
I4
sS'YER074W'
p3884
I12
sS'YER021W'
p3885
I30
sS'YMR208W'
p3886
I6
sS'YER134C'
p3887
I4
sS'YEL052W'
p3888
I12
sS'YNL088W'
p3889
I19
sS'YER161C'
p3890
I8
sS'YBR083W'
p3891
I4
sS'YHR103W'
p3892
I10
sS'YNL200C'
p3893
I2
sS'YDR461C-A'
p3894
I6
sS'YER129W'
p3895
I8
sS'YBR058C-A'
p3896
I8
sS'YKR082W'
p3897
I9
sS'YOR027W'
p3898
I29
sS'YLR019W'
p3899
I9
sS'YCR079W'
p3900
I2
sS'YDR164C'
p3901
I6
sS'YKL033W'
p3902
I4
sS'YNL046W'
p3903
I3
sS'YPL081W'
p3904
I11
sS'YDR351W'
p3905
I5
sS'YJL107C'
p3906
I1
sS'YHL028W'
p3907
I2
sS'YPL181W'
p3908
I4
sS'YDL045W-A'
p3909
I2
sS'YLR210W'
p3910
I5
sS'YBR063C'
p3911
I6
sS'YDL204W'
p3912
I3
sS'YDL106C'
p3913
I5
sS'YHR081W'
p3914
I8
sS'YKR031C'
p3915
I8
sS'YPL014W'
p3916
I2
sS'YML081W'
p3917
I9
sS'YHR181W'
p3918
I4
sS'YDL179W'
p3919
I3
sS'YMR128W'
p3920
I16
sS'YJL029C'
p3921
I9
sS'YER056C'
p3922
I43
sS'YGL130W'
p3923
I4
sS'YMR157C'
p3924
I4
sS'YML063W'
p3925
I122
sS'YLR417W'
p3926
I5
sS'YCR017C'
p3927
I16
sS'YLR084C'
p3928
I4
sS'YMR080C'
p3929
I14
sS'YMR037C'
p3930
I3
sS'YOR194C'
p3931
I5
sS'YGL025C'
p3932
I3
sS'YMR048W'
p3933
I4
sS'YML121W'
p3934
I3
sS'YOR167C'
p3935
I55
sS'YHR067W'
p3936
I3
sS'YMR117C'
p3937
I2
sS'YDL124W'
p3938
I9
sS'YDR257C'
p3939
I10
sS'YGR266W'
p3940
I11
sS'YPL076W'
p3941
I1
sS'YHR163W'
p3942
I9
sS'YMR200W'
p3943
I13
sS'YKL011C'
p3944
I3
sS'YNR061C'
p3945
I10
sS'YMR244C-A'
p3946
I3
sS'YLR272C'
p3947
I5
sS'YOR005C'
p3948
I3
sS'YDL226C'
p3949
I17
sS'YKL059C'
p3950
I4
sS'YGL092W'
p3951
I15
sS'YCL039W'
p3952
I3
sS'YAL049C'
p3953
I6
sS'YGR136W'
p3954
I12
sS'YOR018W'
p3955
I5
sS'YDR513W'
p3956
I9
sS'YGL201C'
p3957
I9
sS'YPR084W'
p3958
I2
sS'YKL084W'
p3959
I3
sS'YBR121C'
p3960
I60
sS'YDL146W'
p3961
I5
sS'YNL079C'
p3962
I46
sS'YMR062C'
p3963
I19
sS'YMR015C'
p3964
I16
sS'YCL026C-B'
p3965
I1
sS'YJL125C'
p3966
I8
sS'YBR107C'
p3967
I1
sS'YBL090W'
p3968
I3
sS'YPL114W'
p3969
I1
sS'YKL142W'
p3970
I13
sS'YPL049C'
p3971
I10
sS'YNL064C'
p3972
I66
sS'YNL031C'
p3973
I31
sS'YNL122C'
p3974
I3
sS'YJL070C'
p3975
I4
sS'YDR373W'
p3976
I9
sS'YHR060W'
p3977
I11
sS'YDR322W'
p3978
I7
sS'YHR073W-A'
p3979
I1
sS'YOR098C'
p3980
I11
sS'YGL227W'
p3981
I6
sS'YOR350C'
p3982
I1
sS'YIL018W'
p3983
I53
sS'YHR039C'
p3984
I10
sS'YBR274W'
p3985
I2
sS'YER142C'
p3986
I6
sS'YML119W'
p3987
I4
sS'YDL188C'
p3988
I4
sS'YGR036C'
p3989
I2
sS'YNL225C'
p3990
I5
sS'YOR318C'
p3991
I1
sS'YNR059W'
p3992
I4
sS'YDR180W'
p3993
I4
sS'YOL120C'
p3994
I41
sS'YHR199C-A'
p3995
I1
sS'YAL001C'
p3996
I5
sS'YIL036W'
p3997
I6
sS'YOL051W'
p3998
I5
sS'YPL236C'
p3999
I5
sS'YHR155W'
p4000
I4
sS'YOR045W'
p4001
I2
sS'YDR476C'
p4002
I1
sS'YOL102C'
p4003
I6
sS'YPR068C'
p4004
I2
sS'YBR252W'
p4005
I3
sS'YBR225W'
p4006
I5
sS'YIL110W'
p4007
I5
sS'YMR086W'
p4008
I7
sS'YPL183W-A'
p4009
I3
sS'YIL158W'
p4010
I7
sS'YDR395W'
p4011
I21
sS'YBR169C'
p4012
I3
sS'YJR101W'
p4013
I6
sS'YKR095W-A'
p4014
I5
sS'YMR305C'
p4015
I13
sS'YLL058W'
p4016
I3
sS'YBL051C'
p4017
I3
sS'YGR150C'
p4018
I5
sS'YJR133W'
p4019
I6
sS'YEL065W'
p4020
I17
sS'YEL055C'
p4021
I17
sS'YGR058W'
p4022
I1
sS'YPR193C'
p4023
I1
sS'YGL129C'
p4024
I4
sS'YBR053C'
p4025
I6
sS'YML013W'
p4026
I7
sS'YKL045W'
p4027
I7
sS'YNL207W'
p4028
I7
sS'YDR428C'
p4029
I3
sS'YLR029C'
p4030
I110
sS'YJL181W'
p4031
I2
sS'YOR210W'
p4032
I7
sS'YBL034C'
p4033
I4
sS'YOL008W'
p4034
I1
sS'YER077C'
p4035
I6
sS'YHR104W'
p4036
I3
sS'YBR089C-A'
p4037
I7
sS'YKR083C'
p4038
I4
sS'YMR209C'
p4039
I5
sS'YDL003W'
p4040
I3
sS'YDR363W-A'
p4041
I9
sS'YDL078C'
p4042
I10
sS'YLR061W'
p4043
I145
sS'YKL214C'
p4044
I6
sS'YOL088C'
p4045
I7
sS'YBR099C'
p4046
I1
sS'YKR095W'
p4047
I28
sS'YOR258W'
p4048
I2
sS'YNR010W'
p4049
I4
sS'YDR435C'
p4050
I5
sS'YIL098C'
p4051
I2
sS'YIL084C'
p4052
I3
sS'YLL027W'
p4053
I7
sS'YOR253W'
p4054
I7
sS'YCL001W'
p4055
I9
sS'YGR198W'
p4056
I7
sS'YAR007C'
p4057
I6
sS'YGR010W'
p4058
I3
sS'YML064C'
p4059
I2
sS'YEL020C'
p4060
I2
sS'YLR414C'
p4061
I4
sS'YCR016W'
p4062
I12
sS'YLR218C'
p4063
I2
sS'YLR087C'
p4064
I12
sS'YKR012C'
p4065
I1
sS'YMR154C'
p4066
I4
sS'YGL186C'
p4067
I9
sS'YGL131C'
p4068
I5
sS'YGR218W'
p4069
I21
sS'YGR267C'
p4070
I14
sS'YDL225W'
p4071
I3
sS'YDL125C'
p4072
I14
sS'YMR114C'
p4073
I3
sS'YGL022W'
p4074
I18
sS'YML079W'
p4075
I10
sS'YLR180W'
p4076
I29
sS'YMR049C'
p4077
I14
sS'YOR166C'
p4078
I2
sS'YDR460W'
p4079
I5
sS'YGR285C'
p4080
I79
sS'YGL105W'
p4081
I60
sS'YDR374W-A'
p4082
I1
sS'YMR214W'
p4083
I11
sS'YMR241W'
p4084
I21
sS'YDR500C'
p4085
I52
sS'YGL032C'
p4086
I3
sS'YMR176W'
p4087
I3
sS'YCL063W'
p4088
I4
sS'YER048C'
p4089
I16
sS'YPR020W'
p4090
I4
sS'YDR107C'
p4091
I2
sS'YGR245C'
p4092
I23
sS'YOR148C'
p4093
I2
sS'YLR047C'
p4094
I1
sS'YDR497C'
p4095
I14
sS'YDL025C'
p4096
I2
sS'YLR147C'
p4097
I4
sS'YMR222C'
p4098
I8
sS'YDL147W'
p4099
I25
sS'YFL056C'
p4100
I1
sS'YFL029C'
p4101
I4
sS'YBL091C'
p4102
I33
sS'YMR063W'
p4103
I1
sS'YMR014W'
p4104
I10
sS'YPL048W'
p4105
I35
sS'YDR263C'
p4106
I1
sS'YIL137C'
p4107
I12
sS'YNL123W'
p4108
I22
sS'YDR372C'
p4109
I15
sS'YBR119W'
p4110
I5
sS'YOR111W'
p4111
I8
sS'YFL016C'
p4112
I7
sS'YDR323C'
p4113
I4
sS'YJL162C'
p4114
I4
sS'YKL198C'
p4115
I2
sS'YNL063W'
p4116
I3
sS'YNL032W'
p4117
I6
sS'YNL041C'
p4118
I9
sS'YGR227W'
p4119
I4
sS'YJL100W'
p4120
I4
sS'YPL126W'
p4121
I23
sS'YJL006C'
p4122
I3
sS'YOR281C'
p4123
I3
sS'YKL032C'
p4124
I1
sS'YDL178W'
p4125
I8
sS'YER095W'
p4126
I3
sS'YLR170C'
p4127
I2
sS'YML086C'
p4128
I8
sS'YKR030W'
p4129
I4
sS'YDL207W'
p4130
I13
sS'YPL015C'
p4131
I5
sS'YLR211C'
p4132
I2
sS'YGL251C'
p4133
I2
sS'YHR182W'
p4134
I4
sS'YDL107W'
p4135
I1
sS'YNR029C'
p4136
I7
sS'YBR122C'
p4137
I9
sS'YHR001W'
p4138
I11
sS'YDR477W'
p4139
I7
sS'YAR002C-A'
p4140
I17
sS'YOL105C'
p4141
I1
sS'YOR042W'
p4142
I7
sS'YBR253W'
p4143
I4
sS'YIL042C'
p4144
I1
sS'YIL035C'
p4145
I12
sS'YIL111W'
p4146
I3
sS'YIL159W'
p4147
I7
sS'YLR346C'
p4148
I1
sS'YJL174W'
p4149
I9
sS'YJR106W'
p4150
I2
sS'YJL084C'
p4151
I4
sS'YHR154W'
p4152
I2
sS'YPL135W'
p4153
I6
sS'YGR151C'
p4154
I7
sS'YMR304W'
p4155
I4
sS'YGL050W'
p4156
I7
sS'YKL010C'
p4157
I13
sS'YDR125C'
p4158
I2
sS'YPL168W'
p4159
I2
sS'YGR177C'
p4160
I5
sS'YPL077C'
p4161
I2
sS'YJR022W'
p4162
I1
sS'YLR273C'
p4163
I3
sS'YLR009W'
p4164
I20
sS'YGR137W'
p4165
I7
sS'YGL206C'
p4166
I15
sS'YGL091C'
p4167
I7
sS'YCL038C'
p4168
I2
sS'YLR364W'
p4169
I1
sS'YKL058W'
p4170
I4
sS'YKL085W'
p4171
I10
sS'YJR124C'
p4172
I4
sS'YNR043W'
p4173
I10
sS'YHL018W'
p4174
I1
sS'YOL089C'
p4175
I3
sS'YIL064W'
p4176
I8
sS'YKR094C'
p4177
I31
sS'YGR013W'
p4178
I8
sS'YML103C'
p4179
I16
sS'YOR377W'
p4180
I9
sS'YLL026W'
p4181
I21
sS'YCL002C'
p4182
I3
sS'YGL108C'
p4183
I2
sS'YDR388W'
p4184
I15
sS'YGR199W'
p4185
I6
sS'YDR331W'
p4186
I3
sS'YLR306W'
p4187
I2
sS'YPL038W-A'
p4188
I2
sS'YGL220W'
p4189
I8
sS'YLR051C'
p4190
I6
sS'YGR082W'
p4191
I9
sS'YDL115C'
p4192
I13
sS'YDR436W'
p4193
I1
sS'YHL027W'
p4194
I12
sS'YDR063W'
p4195
I3
sS'YOR319W'
p4196
I1
sS'YGR119C'
p4197
I5
sS'YGR035C'
p4198
I4
sS'YDR181C'
p4199
I4
sS'YOL127W'
p4200
I205
sS'YNL224C'
p4201
I5
sS'YAL020C'
p4202
I4
sS'YBR275C'
p4203
I5
sS'YDR539W'
p4204
I7
sS'YDR304C'
p4205
I21
sS'YMR177W'
p4206
I6
sS'YOR187W'
p4207
I13
sS'YDR501W'
p4208
I3
sS'YGR286C'
p4209
I5
sS'YCR037C'
p4210
I7
sS'YMR217W'
p4211
I39
sS'YOR239W'
p4212
I22
sS'YDR128W'
p4213
I8
sS'YCR086W'
p4214
I3
sS'YPR201W'
p4215
I1
sS'YDR494W'
p4216
I5
sS'YOR147W'
p4217
I2
sS'YGR246C'
p4218
I8
sS'YPL242C'
p4219
I10
sS'YLR046C'
p4220
I5
sS'YBR067C'
p4221
I11
sS'YLR064W'
p4222
I11
sS'YDR100W'
p4223
I5
sS'YLL004W'
p4224
I5
sS'YER049W'
p4225
I14
sS'YEL054C'
p4226
I63
sS'YMR239C'
p4227
I3
sS'YLR028C'
p4228
I22
sS'YBR081C'
p4229
I12
sS'YML012W'
p4230
I23
sS'YER056C-A'
p4231
I55
sS'YDR028C'
p4232
I12
sS'YOR217W'
p4233
I10
sS'YBL035C'
p4234
I4
sS'YLL059C'
p4235
I1
sS'YHR105W'
p4236
I1
sS'YLR060W'
p4237
I44
sS'YHR035W'
p4238
I1
sS'YER076C'
p4239
I1
sS'YDR422C'
p4240
I3
sS'YKL156W'
p4241
I28
sS'YPL063W'
p4242
I19
sS'YBR049C'
p4243
I13
sS'YKR080W'
p4244
I18
sS'YGL188C-A'
p4245
I1
sS'YPR148C'
p4246
I9
sS'YNL180C'
p4247
I10
sS'YDR071C'
p4248
I19
sS'YDR162C'
p4249
I5
sS'YMR134W'
p4250
I5
sS'YPL066W'
p4251
I1
sS'YJL101C'
p4252
I7
sS'YBL069W'
p4253
I5
sS'YNL040W'
p4254
I3
sS'YDR353W'
p4255
I40
sS'YJL001W'
p4256
I15
sS'YJL049W'
p4257
I4
sS'YHR183W'
p4258
I44
sS'YDL085C-A'
p4259
I3
sS'YOR129C'
p4260
I1
sS'YDL206W'
p4261
I2
sS'YBR010W'
p4262
I33
sS'YER094C'
p4263
I16
sS'YDL104C'
p4264
I4
sS'YKR037C'
p4265
I4
sS'YKL119C'
p4266
I7
sS'YLR212C'
p4267
I7
sS'YHR042W'
p4268
I13
sS'YER101C'
p4269
I4
sS'YMR155W'
p4270
I4
sS'YCR019W'
p4271
I4
sS'YLR086W'
p4272
I8
sS'YMR284W'
p4273
I4
sS'YML030W'
p4274
I3
sS'YML065W'
p4275
I7
sS'YER001W'
p4276
I11
sS'YLR285C-A'
p4277
I5
sS'YBL074C'
p4278
I2
sS'YGL023C'
p4279
I5
sS'YPR009W'
p4280
I4
sS'YMR115W'
p4281
I8
sS'YDL126C'
p4282
I59
sS'YMR260C'
p4283
I62
sS'YGR264C'
p4284
I35
sS'YOR161C'
p4285
I3
sS'YML078W'
p4286
I16
sS'YLR142W'
p4287
I2
sS'YIR018W'
p4288
I1
sS'YPL074W'
p4289
I8
sS'YIL129C'
p4290
I7
sS'YKL046C'
p4291
I12
sS'YBR145W'
p4292
I4
sS'YDR339C'
p4293
I12
sS'YNL310C'
p4294
I4
sS'YDR307W'
p4295
I4
sS'YAL041W'
p4296
I11
sS'YPL169C'
p4297
I4
sS'YHR161C'
p4298
I4
sS'YGR174C'
p4299
I1
sS'YDL224C'
p4300
I12
sS'YLR225C'
p4301
I3
sS'YGL207W'
p4302
I28
sS'YGL090W'
p4303
I2
sS'YLR326W'
p4304
I1
sS'YGR134W'
p4305
I5
sS'YLR270W'
p4306
I5
sS'YKL184W'
p4307
I8
sS'YGR169C'
p4308
I4
sS'YPR086W'
p4309
I7
sS'YKL086W'
p4310
I1
sS'YJR125C'
p4311
I10
sS'YMR060C'
p4312
I2
sS'YPL127C'
p4313
I8
sS'YJR003C'
p4314
I7
sS'YDL144C'
p4315
I8
sS'YFL028C'
p4316
I7
sS'YBR105C'
p4317
I3
sS'YDR371W'
p4318
I4
sS'YDR456W'
p4319
I5
sS'YNL062C'
p4320
I9
sS'YMR295C'
p4321
I7
sS'YPL116W'
p4322
I6
sS'YLR238W'
p4323
I5
sS'YDR324C'
p4324
I14
sS'YJL072C'
p4325
I2
sS'YOR112W'
p4326
I7
sS'YFL017C'
p4327
I9
sS'YPR132W'
p4328
I31
sS'YIL134W'
p4329
I4
sS'YKL144C'
p4330
I3
sS'YNL175C'
p4331
I21
sS'YDR084C'
p4332
I5
sS'YOR061W'
p4333
I7
sS'YOR356W'
p4334
I5
sS'YGR152C'
p4335
I7
sS'YAR027W'
p4336
I3
sS'YGR083C'
p4337
I20
sS'YHL026C'
p4338
I4
sS'YGL221C'
p4339
I11
sS'YGR034W'
p4340
I41
sS'YDR182W'
p4341
I6
sS'YNL290W'
p4342
I4
sS'YBL010C'
p4343
I3
sS'YDR139C'
p4344
I7
sS'YBR276C'
p4345
I6
sS'YJR147W'
p4346
I4
sS'YAL021C'
p4347
I5
sS'YHR128W'
p4348
I19
sS'YDR538W'
p4349
I2
sS'YOR316C'
p4350
I8
sS'YCL011C'
p4351
I28
sS'YNL227C'
p4352
I8
sS'YBR123C'
p4353
I4
sS'YIL112W'
p4354
I15
sS'YBR198C'
p4355
I15
sS'YMR204C'
p4356
I2
sS'YOL104C'
p4357
I3
sS'YOR043W'
p4358
I17
sS'YDR470C'
p4359
I1
sS'YAL056W'
p4360
I7
sS'YIL043C'
p4361
I25
sS'YHR153C'
p4362
I3
sS'YDR386W'
p4363
I6
sS'YJL087C'
p4364
I2
sS'YLR347C'
p4365
I7
sS'YJR107W'
p4366
I3
sS'YNL157W'
p4367
I11
sS'YPL143W'
p4368
I65
sS'YBR218C'
p4369
I22
sS'YDR306C'
p4370
I3
sS'YNR060W'
p4371
I2
sS'YML120C'
p4372
I3
sS'YGL174W'
p4373
I3
sS'YHR106W'
p4374
I5
sS'YOR216C'
p4375
I11
sS'YDL156W'
p4376
I2
sS'YGL035C'
p4377
I3
sS'YBL036C'
p4378
I17
sS'YGR183C'
p4379
I1
sS'YMR238W'
p4380
I7
sS'YPR191W'
p4381
I6
sS'YER137C'
p4382
I2
sS'YDR027C'
p4383
I8
sS'YIL063C'
p4384
I15
sS'YBR170C'
p4385
I9
sS'YER071C'
p4386
I2
sS'YNL272C'
p4387
I4
sS'YBR048W'
p4388
I22
sS'YBL060W'
p4389
I3
sS'YKR081C'
p4390
I17
sS'YPL263C'
p4391
I14
sS'YDL001W'
p4392
I2
sS'YLR067C'
p4393
I4
sS'YOL013C'
p4394
I4
sS'YJL183W'
p4395
I19
sS'YPL218W'
p4396
I33
sS'YKL128C'
p4397
I11
sS'YEL028W'
p4398
I3
sS'YBL059C-A'
p4399
I3
sS'YIL065C'
p4400
I1
sS'YOL031C'
p4401
I3
sS'YBR071W'
p4402
I3
sS'YHL019C'
p4403
I3
sS'YNL258C'
p4404
I10
sS'YJR094W-A'
p4405
I61
sS'YKL216W'
p4406
I55
sS'YGR012W'
p4407
I7
sS'YHL004W'
p4408
I6
sS'YPL041C'
p4409
I2
sS'YNL098C'
p4410
I19
sS'YML102W'
p4411
I8
sS'YOR370C'
p4412
I17
sS'YJL047C-A'
p4413
I2
sS'YGR270W'
p4414
I12
sS'YDR389W'
p4415
I4
sS'YHR062C'
p4416
I7
sS'YDL027C'
p4417
I1
sS'YER053C'
p4418
I5
sS'YJR121W'
p4419
I25
sS'YDR049W'
p4420
I8
sS'YKR014C'
p4421
I9
sS'YAL060W'
p4422
I8
sS'YJL026W'
p4423
I13
sS'YLR412W'
p4424
I9
sS'YER002W'
p4425
I14
sS'YCR018C'
p4426
I1
sS'YDL127W'
p4427
I4
sS'YBL075C'
p4428
I4
sS'YPR008W'
p4429
I4
sS'YGL020C'
p4430
I6
sS'YOR160W'
p4431
I8
sS'YMR083W'
p4432
I53
sS'YMR261C'
p4433
I11
sS'YMR112C'
p4434
I2
sS'YCR036W'
p4435
I5
sS'YMR216C'
p4436
I7
sS'YIL144W'
p4437
I7
sS'YCL061C'
p4438
I6
sS'YHR004C'
p4439
I7
sS'YDR502C'
p4440
I4
sS'YGR065C'
p4441
I2
sS'YGR247W'
p4442
I3
sS'YDR101C'
p4443
I18
sS'YPR026W'
p4444
I1
sS'YEL002C'
p4445
I16
sS'YPL245W'
p4446
I8
sS'YBR066C'
p4447
I5
sS'YBR079C'
p4448
I34
sS'YHR199C'
p4449
I6
sS'YDL090C'
p4450
I2
sS'YFL054C'
p4451
I4
sS'YOR248W'
p4452
I7
sS'YJL128C'
p4453
I2
sS'YJR002W'
p4454
I18
sS'YDL145C'
p4455
I28
sS'YBL097W'
p4456
I7
sS'YBR126W-B'
p4457
I4
sS'YNL061W'
p4458
I17
sS'YGL068W'
p4459
I7
sS'YGR161W-C'
p4460
I2
sS'YDR325W'
p4461
I9
sS'YIL135C'
p4462
I4
sS'YDR370C'
p4463
I12
sS'YJL184W'
p4464
I4
sS'YOR113W'
p4465
I1
sS'YDR087C'
p4466
I8
sS'YMR294W'
p4467
I5
sS'YPR135W'
p4468
I4
sS'YER136W'
p4469
I12
sS'YDL237W'
p4470
I9
sS'YLR193C'
p4471
I4
sS'YDR072C'
p4472
I5
sS'YLR248W'
p4473
I13
sS'YOR283W'
p4474
I5
sS'YJL102W'
p4475
I3
sS'YNL043C'
p4476
I1
sS'YBR249C'
p4477
I49
sS'YNL181W'
p4478
I4
sS'YBL068W'
p4479
I12
sS'YOL009C'
p4480
I4
sS'YDR352W'
p4481
I2
sS'YKL129C'
p4482
I6
sS'YDR316W'
p4483
I4
sS'YML051W'
p4484
I5
sS'YDR238C'
p4485
I30
sS'YDL105W'
p4486
I3
sS'YMR122W-A'
p4487
I12
sS'YBR011C'
p4488
I90
sS'YDR243C'
p4489
I4
sS'YHR082C'
p4490
I3
sS'YFR008W'
p4491
I2
sS'YPR168W'
p4492
I1
sS'YJL048C'
p4493
I2
sS'YPR113W'
p4494
I10
sS'YLR213C'
p4495
I3
sS'YKL161C'
p4496
I2
sS'YKR036C'
p4497
I10
sS'YPL113C'
p4498
I2
sS'YOL159C-A'
p4499
I1
sS'YIL113W'
p4500
I2
sS'YMR099C'
p4501
I11
sS'YOL107W'
p4502
I1
sS'YIL040W'
p4503
I8
sS'YDR471W'
p4504
I33
sS'YMR173W-A'
p4505
I11
sS'YOR015W'
p4506
I3
sS'YHR003C'
p4507
I7
sS'YAL051W'
p4508
I4
sS'YAL019W'
p4509
I10
sS'YKL138C-A'
p4510
I1
sS'YPL140C'
p4511
I4
sS'YNL206C'
p4512
I6
sS'YLR449W'
p4513
I33
sS'YNL156C'
p4514
I4
sS'YIR024C'
p4515
I1
sS'YHR152W'
p4516
I3
sS'YGR169C-A'
p4517
I8
sS'YML123C'
p4518
I61
sS'YNR063W'
p4519
I3
sS'YLR239C'
p4520
I6
sS'YPL075W'
p4521
I9
sS'YJR024C'
p4522
I13
sS'YJL135W'
p4523
I2
sS'YNL029C'
p4524
I5
sS'YBR142W'
p4525
I12
sS'YHR166C'
p4526
I5
sS'YGR175C'
p4527
I17
sS'YIR017C'
p4528
I2
sS'YDR338C'
p4529
I4
sS'YIL128W'
p4530
I7
sS'YGL097W'
p4531
I19
sS'YIL010W'
p4532
I4
sS'YLR271W'
p4533
I2
sS'YJR126C'
p4534
I5
sS'YGR168C'
p4535
I4
sS'YGL204C'
p4536
I1
sS'YOR261C'
p4537
I20
sS'YIR042C'
p4538
I1
sS'YIL088C'
p4539
I10
sS'YOL152W'
p4540
I1
sS'YOL125W'
p4541
I7
sS'YNL259C'
p4542
I6
sS'YML101C'
p4543
I1
sS'YCL058W-A'
p4544
I8
sS'YNL099C'
p4545
I6
sS'YGL059W'
p4546
I2
sS'YER041W'
p4547
I3
sS'YKR096W'
p4548
I5
sS'YGR203W'
p4549
I3
sS'YHL003C'
p4550
I14
sS'YOR371C'
p4551
I2
sS'YJR104C'
p4552
I64
sS'YER180C-A'
p4553
I1
sS'YFR043C'
p4554
I4
sS'YHL021C'
p4555
I5
sS'YLR304C'
p4556
I33
sS'YOR357C'
p4557
I3
sS'YGR153W'
p4558
I1
sS'YFR038W'
p4559
I11
sS'YNL303W'
p4560
I1
sS'YGR080W'
p4561
I3
sS'YOR037W'
p4562
I2
sS'YBL011W'
p4563
I7
sS'YDR183W'
p4564
I3
sS'YGL222C'
p4565
I2
sS'YDR138W'
p4566
I7
sS'YHR129C'
p4567
I4
sS'YOR317W'
p4568
I10
sS'YBR255C-A'
p4569
I3
sS'YGR033C'
p4570
I10
sS'YEL024W'
p4571
I3
sS'YAL022C'
p4572
I5
sS'YJR144W'
p4573
I11
sS'YOL078W'
p4574
I3
sS'YPL271W'
p4575
I5
sS'YGL153W'
p4576
I2
sS'YOR383C'
p4577
I14
sS'YGL191W'
p4578
I4
sS'YOR305W'
p4579
I7
sS'YHR033W'
p4580
I1
sS'YMR171C'
p4581
I8
sS'YJR032W'
p4582
I9
sS'YCR042C'
p4583
I9
sS'YCR035C'
p4584
I10
sS'YOR244W'
p4585
I8
sS'YEL003W'
p4586
I10
sS'YDR503C'
p4587
I4
sS'YGL037C'
p4588
I6
sS'YPL244C'
p4589
I9
sS'YDR492W'
p4590
I4
sS'YGR240C'
p4591
I63
sS'YML111W'
p4592
I4
sS'YMR259C'
p4593
I6
sS'YBR061C'
p4594
I4
sS'YOR145C'
p4595
I13
sS'YPR052C'
p4596
I6
sS'YPR025C'
p4597
I5
sS'YBR087W'
p4598
I8
sS'YBL037W'
p4599
I6
sS'YPR190C'
p4600
I10
sS'YOR215C'
p4601
I2
sS'YHR107C'
p4602
I8
sS'YAR002W'
p4603
I5
sS'YGL175C'
p4604
I1
sS'YOR262W'
p4605
I7
sS'YEL056W'
p4606
I11
sS'YDR026C'
p4607
I9
sS'YNL204C'
p4608
I1
sS'YLR066W'
p4609
I13
sS'YBR047W'
p4610
I1
sS'YEL029C'
p4611
I3
sS'YMR092C'
p4612
I15
sS'YNL273W'
p4613
I4
sS'YER070W'
p4614
I31
sS'YPL219W'
p4615
I1
sS'YPL262W'
p4616
I9
sS'YNL294C'
p4617
I7
sS'YJL003W'
p4618
I2
sS'YPL020C'
p4619
I8
sS'YKR057W'
p4620
I47
sS'YLR289W'
p4621
I1
sS'YGR222W'
p4622
I3
sS'YCL040W'
p4623
I11
sS'YOR163W'
p4624
I6
sS'YMR044W'
p4625
I4
sS'YJL077W-A'
p4626
I3
sS'YNL042W'
p4627
I4
sS'YBR012C'
p4628
I4
sS'YML050W'
p4629
I1
sS'YPL010W'
p4630
I25
sS'YHL040C'
p4631
I7
sS'YHR058C'
p4632
I7
sS'YDR239C'
p4633
I6
sS'YJR049C'
p4634
I11
sS'YPR112C'
p4635
I15
sS'YDR524C'
p4636
I3
sS'YML085C'
p4637
I17
sS'YPR169W'
p4638
I16
sS'YDR242W'
p4639
I3
sS'YHR085W'
p4640
I6
sS'YHR071C-A'
p4641
I1
sS'YNL308C'
p4642
I31
sS'YML067C'
p4643
I15
sS'YER052C'
p4644
I15
sS'YLR427W'
p4645
I6
sS'YLR080W'
p4646
I1
sS'YER003C'
p4647
I24
sS'YER103W'
p4648
I3
sS'YCR099C'
p4649
I1
sS'YGL254W'
p4650
I3
sS'YKR017C'
p4651
I1
sS'YPR143W'
p4652
I16
sS'YDL120W'
p4653
I13
sS'YMR262W'
p4654
I2
sS'YLR153C'
p4655
I23
sS'YOL059W'
p4656
I12
sS'YBL076C'
p4657
I73
sS'YMR113W'
p4658
I4
sS'YGL134W'
p4659
I3
sS'YNL021W'
p4660
I6
sS'YLR128W'
p4661
I3
sS'YKR068C'
p4662
I10
sS'YGL021W'
p4663
I12
sS'YBR143C'
p4664
I41
sS'YCR092C'
p4665
I10
sS'YDR086C'
p4666
I17
sS'YHR072W-A'
p4667
I17
sS'YIR016W'
p4668
I4
sS'YPL072W'
p4669
I2
sS'YHR167W'
p4670
I4
sS'YJL134W'
p4671
I7
sS'YJL161W'
p4672
I1
sS'YDR449C'
p4673
I7
sS'YJL019W'
p4674
I2
sS'YLR367W'
p4675
I13
sS'YLR227C'
p4676
I4
sS'YKL080W'
p4677
I24
sS'YKL186C'
p4678
I3
sS'YGL096W'
p4679
I1
sS'YIR022W'
p4680
I14
sS'YLR173W'
p4681
I3
sS'YGR095C'
p4682
I3
sS'YKR042W'
p4683
I19
sS'YKL160W'
p4684
I13
sS'YDL091C'
p4685
I3
sS'YDL142C'
p4686
I3
sS'YCL027W'
p4687
I1
sS'YMR066W'
p4688
I2
sS'YHR198C'
p4689
I3
sS'YJR001W'
p4690
I8
sS'YGL196W'
p4691
I11
sS'YJL129C'
p4692
I7
sS'YLR209C'
p4693
I7
sS'YJL209W'
p4694
I5
sS'YDR264C'
p4695
I16
sS'YNL035C'
p4696
I5
sS'YMR026C'
p4697
I5
sS'YPL016W'
p4698
I1
sS'YJL074C'
p4699
I4
sS'YNL177C'
p4700
I12
sS'YKL162C'
p4701
I1
sS'YOR114W'
p4702
I1
sS'YDR326C'
p4703
I6
sS'YPR134W'
p4704
I5
sS'YLR250W'
p4705
I8
sS'YNL254C'
p4706
I4
sS'YCR075C'
p4707
I4
sS'YHL020C'
p4708
I12
sS'YIL009W'
p4709
I9
sS'YFR042W'
p4710
I3
sS'YOR066W'
p4711
I4
sS'YOR354C'
p4712
I6
sS'YGL223C'
p4713
I3
sS'YOR036W'
p4714
I3
sS'YBL016W'
p4715
I3
sS'YGR032W'
p4716
I4
sS'YGL150C'
p4717
I9
sS'YOR349W'
p4718
I2
sS'YJR145C'
p4719
I17
sS'YNL292W'
p4720
I7
sS'YCL057C-A'
p4721
I6
sS'YBR270C'
p4722
I2
sS'YAL023C'
p4723
I18
sS'YGR027C'
p4724
I100
sS'YNL148C'
p4725
I3
sS'YLR439W'
p4726
I4
sS'YJR127C'
p4727
I8
sS'YBR256C'
p4728
I11
sS'YOR014W'
p4729
I10
sS'YLR390W'
p4730
I1
sS'YLR345W'
p4731
I4
sS'YKL073W'
p4732
I10
sS'YLR448W'
p4733
I30
sS'YPL141C'
p4734
I2
sS'YHR151C'
p4735
I5
sS'YJL081C'
p4736
I10
sS'YIL041W'
p4737
I15
sS'YDR472W'
p4738
I8
sS'YNL155W'
p4739
I8
sS'YNL100W'
p4740
I7
sS'YBR216C'
p4741
I5
sS'YOR304C-A'
p4742
I5
sS'YMR318C'
p4743
I16
sS'YOR372C'
p4744
I1
sS'YBR062C'
p4745
I8
sS'YHR108W'
p4746
I19
sS'YDR025W'
p4747
I26
sS'YGL176C'
p4748
I3
sS'YBL071W-A'
p4749
I3
sS'YAR003W'
p4750
I7
sS'YBL030C'
p4751
I33
sS'YPL229W'
p4752
I3
sS'YMR236W'
p4753
I5
sS'YNL304W'
p4754
I3
sS'YOL011W'
p4755
I5
sS'YOR195W'
p4756
I9
sS'YLL054C'
p4757
I1
sS'YLR443W'
p4758
I3
sS'YLL013C'
p4759
I2
sS'YGL194C-A'
p4760
I2
sS'YOR381W'
p4761
I1
sS'YER073W'
p4762
I43
sS'YLR065C'
p4763
I6
sS'YBR046C'
p4764
I2
sS'YOL124C'
p4765
I8
sS'YDR013W'
p4766
I6
sS'YDR275W'
p4767
I2
sS'YNR040W'
p4768
I5
sS'YIL067C'
p4769
I5
sS'YHR021W-A'
p4770
I1
sS'YHR020W'
p4771
I36
sS'YOL033W'
p4772
I2
sS'YBR238C'
p4773
I3
sS'YGR049W'
p4774
I3
sS'YHL002W'
p4775
I6
sS'YML027W'
p4776
I3
sS'YKR099W'
p4777
I7
sS'YML100W'
p4778
I3
sS'YER051W'
p4779
I5
sS'YDR228C'
p4780
I3
sS'YER004W'
p4781
I8
sS'YOR144C'
p4782
I4
sS'YKL162C-A'
p4783
I2
sS'YOR142W'
p4784
I10
sS'YKR016W'
p4785
I5
sS'YMR158W'
p4786
I5
sS'YMR251W-A'
p4787
I7
sS'YLL036C'
p4788
I2
sS'YBR191W'
p4789
I48
sS'YDR519W'
p4790
I3
sS'YDL029W'
p4791
I19
sS'YLR034C'
p4792
I5
sS'YER019W'
p4793
I8
sS'YBR028C'
p4794
I5
sS'YMR263W'
p4795
I2
sS'YLR152C'
p4796
I3
sS'YDL121C'
p4797
I12
sS'YJL217W'
p4798
I11
sS'YLR129W'
p4799
I21
sS'YNR032C-A'
p4800
I4
sS'YPR065W'
p4801
I3
sS'YMR172W'
p4802
I10
sS'YCR034W'
p4803
I10
sS'YDL007W'
p4804
I24
sS'YER088C-A'
p4805
I3
sS'YMR210W'
p4806
I5
sS'YDR504C'
p4807
I2
sS'YLL009C'
p4808
I3
sS'YPR024W'
p4809
I7
sS'YDR493W'
p4810
I1
sS'YGR241C'
p4811
I7
sS'YGL036W'
p4812
I7
sS'YPL247C'
p4813
I3
sS'YOR245C'
p4814
I2
sS'YBR060C'
p4815
I11
sS'YDR103W'
p4816
I9
sS'YPR053C'
p4817
I5
sS'YKL167C'
p4818
I3
sS'YOR181W'
p4819
I2
sS'YIR023W'
p4820
I2
sS'YBL095W'
p4821
I3
sS'YDL092W'
p4822
I8
sS'YKR043C'
p4823
I20
sS'YER053C-A'
p4824
I2
sS'YMR067C'
p4825
I5
sS'YML116W-A'
p4826
I5
sS'YDL143W'
p4827
I39
sS'YCL021W-A'
p4828
I2
sS'YPR137W'
p4829
I10
sS'YGL197W'
p4830
I4
sS'YPR060C'
p4831
I11
sS'YNL036W'
p4832
I1
sS'YOR115C'
p4833
I4
sS'YJR025C'
p4834
I8
sS'YMR296C'
p4835
I14
sS'YDR267C'
p4836
I10
sS'YJL208C'
p4837
I3
sS'YPR019W'
p4838
I9
sS'YOR162C'
p4839
I2
sS'YMR145C'
p4840
I2
sS'YDR161W'
p4841
I20
sS'YMR110C'
p4842
I5
sS'YGL128C'
p4843
I3
sS'YOR285W'
p4844
I12
sS'YJL002C'
p4845
I20
sS'YCR065W'
p4846
I4
sS'YLR288C'
p4847
I1
sS'YPR159W'
p4848
I12
sS'YGR223C'
p4849
I3
sS'YDR074W'
p4850
I3
sS'YHR059W'
p4851
I3
sS'YPR075C'
p4852
I6
sS'YBR013C'
p4853
I1
sS'YGL137W'
p4854
I31
sS'YDR375C'
p4855
I2
sS'YML053C'
p4856
I5
sS'YPL011C'
p4857
I5
sS'YOL094C'
p4858
I6
sS'YNL309W'
p4859
I4
sS'YLL033W'
p4860
I1
sS'YJR048W'
p4861
I8
sS'YPR111W'
p4862
I3
sS'YHR084W'
p4863
I4
sS'YAL053W'
p4864
I7
sS'YNL149C'
p4865
I15
sS'YGL095C'
p4866
I4
sS'YBR257W'
p4867
I2
sS'YPL028W'
p4868
I41
sS'YOR205C'
p4869
I7
sS'YDL216C'
p4870
I3
sS'YIL079C'
p4871
I13
sS'YGR133W'
p4872
I3
sS'YOR017W'
p4873
I4
sS'YJL140W'
p4874
I7
sS'YDR473C'
p4875
I5
sS'YLR393W'
p4876
I3
sS'YDR310C'
p4877
I11
sS'YPL146C'
p4878
I27
sS'YKL072W'
p4879
I4
sS'YPL139C'
p4880
I3
sS'YBR217W'
p4881
I3
sS'YNL154C'
p4882
I11
sS'YNL001W'
p4883
I7
sS'YJL080C'
p4884
I21
sS'YIL046W'
p4885
I9
sS'YFR009W'
p4886
I25
sS'YNL101W'
p4887
I4
sS'YHR150W'
p4888
I6
sS'YDR081C'
p4889
I4
sS'YJL137C'
p4890
I3
sS'YCL009C'
p4891
I30
sS'YML014W'
p4892
I3
sS'YNL176C'
p4893
I4
sS'YKL149C'
p4894
I2
sS'YBR140C'
p4895
I3
sS'YDR448W'
p4896
I5
sS'YJR111C'
p4897
I4
sS'YLR360W'
p4898
I3
sS'YPL189C-A'
p4899
I1
sS'YHR164C'
p4900
I5
sS'YKL081W'
p4901
I110
sS'YPL164C'
p4902
I2
sS'YLR226W'
p4903
I2
sS'YKL181W'
p4904
I35
sS'YDL229W'
p4905
I40
sS'YDR482C'
p4906
I2
sS'YOL032W'
p4907
I5
sS'YHR027C'
p4908
I33
sS'YNR047W'
p4909
I3
sS'YNL293W'
p4910
I7
sS'YDR079C-A'
p4911
I2
sS'YML107C'
p4912
I3
sS'YDR034C'
p4913
I7
sS'YKR098C'
p4914
I3
sS'YNR011C'
p4915
I4
sS'YML125C'
p4916
I12
sS'YLR251W'
p4917
I3
sS'YFR041C'
p4918
I8
sS'YHR071W'
p4919
I17
sS'YOR355W'
p4920
I10
sS'YOR028C'
p4921
I2
sS'YPL106C'
p4922
I109
sS'YIL006W'
p4923
I1
sS'YAL034W-A'
p4924
I6
sS'YGR195W'
p4925
I5
sS'YOR316C-A'
p4926
I1
sS'YHL023C'
p4927
I5
sS'YGL151W'
p4928
I7
sS'YCL052C'
p4929
I5
sS'YJR091C'
p4930
I3
sS'YGR031W'
p4931
I5
sS'YBR271W'
p4932
I7
sS'YOR035C'
p4933
I1
sS'YBL017C'
p4934
I16
sS'YAL024C'
p4935
I4
sS'YJR142W'
p4936
I9
sS'YJL197W'
p4937
I5
sS'YMR213W'
p4938
I3
sS'YBR233W-A'
p4939
I5
sS'YMR173W'
p4940
I5
sS'YDR506C'
p4941
I2
sS'YDL006W'
p4942
I3
sS'YER123W'
p4943
I5
sS'YDR153C'
p4944
I8
sS'YGL038C'
p4945
I10
sS'YLL008W'
p4946
I23
sS'YDR505C'
p4947
I6
sS'YKL206C'
p4948
I8
sS'YHR132W-A'
p4949
I5
sS'YGR068C'
p4950
I4
sS'YPL246C'
p4951
I10
sS'YOR246C'
p4952
I9
sS'YGL039W'
p4953
I3
sS'YLR405W'
p4954
I9
sS'YEL001C'
p4955
I15
sS'YDR443C'
p4956
I3
sS'YBR085W'
p4957
I3
sS'YHR109W'
p4958
I2
sS'YBL031W'
p4959
I2
sS'YPL270W'
p4960
I4
sS'YHL001W'
p4961
I15
sS'YOR373W'
p4962
I6
sS'YDR391C'
p4963
I3
sS'YPL228W'
p4964
I3
sS'YOR260W'
p4965
I16
sS'YPR196W'
p4966
I2
sS'YPL260W'
p4967
I6
sS'YOL010W'
p4968
I9
sS'YNL271C'
p4969
I10
sS'YOR228C'
p4970
I1
sS'YLL055W'
p4971
I2
sS'YER072W'
p4972
I37
sS'YMR111C'
p4973
I2
sS'YNL184C'
p4974
I3
sS'YOR138C'
p4975
I4
sS'YMR144W'
p4976
I3
sS'YCR066W'
p4977
I1
sS'YCR088W'
p4978
I26
sS'YDR208W'
p4979
I14
sS'YJL058C'
p4980
I2
sS'YDR075W'
p4981
I5
sS'YHR087W'
p4982
I1
sS'YGR220C'
p4983
I4
sS'YBR014C'
p4984
I5
sS'YML052W'
p4985
I6
sS'YPL012W'
p4986
I22
sS'YMR089C'
p4987
I9
sS'YJL191W'
p4988
I9
sS'YDL108W'
p4989
I4
sS'YGR275W'
p4990
I7
sS'YOR286W'
p4991
I6
sS'YDR240C'
p4992
I3
sS'YCR073W-A'
p4993
I3
sS'YBL046W'
p4994
I6
sS'YOR143C'
p4995
I7
sS'YDR119W'
p4996
I9
sS'YLR411W'
p4997
I1
sS'YDR490C'
p4998
I3
sS'YER005W'
p4999
I6
sS'YER105C'
p5000
I15
sS'YPL034W'
p5001
I3
sS'YDL028C'
p5002
I11
sS'YJL023C'
p5003
I1
sS'YER050C'
p5004
I1
sS'YCR008W'
p5005
I14
sS'YBL104C'
p5006
I6
sS'YKL165C'
p5007
I8
sS'YDR518W'
p5008
I5
sS'YLR119W'
p5009
I1
sS'YGL087C'
p5010
I5
sS'YLR082C'
p5011
I4
sS'YMR159C'
p5012
I4
sS'YLR035C'
p5013
I3
sS'YLR151C'
p5014
I1
sS'YMR264W'
p5015
I10
sS'YGL136C'
p5016
I2
sS'YPR018W'
p5017
I4
sS'YGL139W'
p5018
I5
sS'YGR268C'
p5019
I1
sS'YER018C'
p5020
I3
sS'YOR034C-A'
p5021
I2
sS'YDL002C'
p5022
I8
sS'YIL125W'
p5023
I5
sS'YBR141C'
p5024
I5
sS'YJL136C'
p5025
I45
sS'YKL148C'
p5026
I2
sS'YDR140W'
p5027
I7
sS'YJL117W'
p5028
I18
sS'YJL076W'
p5029
I16
sS'YDR080W'
p5030
I7
sS'YHR016C'
p5031
I5
sS'YBR114W'
p5032
I4
sS'YHR165C'
p5033
I7
sS'YNL075W'
p5034
I14
sS'YKL028W'
p5035
I5
sS'YLR221C'
p5036
I16
sS'YHR046C'
p5037
I1
sS'YIR014W'
p5038
I2
sS'YPL070W'
p5039
I3
sS'YLR361C'
p5040
I3
sS'YGL159W'
p5041
I5
sS'YKL185W'
p5042
I15
sS'YKL082C'
p5043
I27
sS'YKL180W'
p5044
I91
sS'YMR064W'
p5045
I3
sS'YKL166C'
p5046
I5
sS'YJR007W'
p5047
I29
sS'YDL093W'
p5048
I9
sS'YER098W'
p5049
I3
sS'YHR047C'
p5050
I11
sS'YJL118W'
p5051
I1
sS'YIR002C'
p5052
I6
sS'YGL001C'
p5053
I13
sS'YJL163C'
p5054
I2
sS'YMR291W'
p5055
I1
sS'YDL140C'
p5056
I13
sS'YPL038W'
p5057
I4
sS'YDR266C'
p5058
I9
sS'YGL194C'
p5059
I2
sS'YKL091C'
p5060
I5
sS'YOR116C'
p5061
I9
sS'YGL195W'
p5062
I25
sS'YLR207W'
p5063
I5
sS'YNL037C'
p5064
I10
sS'YFL013C'
p5065
I6
sS'YFR040W'
p5066
I8
sS'YPL107W'
p5067
I1
sS'YIL107C'
p5068
I4
sS'YLR138W'
p5069
I17
sS'YNL268W'
p5070
I12
sS'YIL007C'
p5071
I3
sS'YJR143C'
p5072
I19
sS'YGR147C'
p5073
I11
sS'YJR092W'
p5074
I8
sS'YGR030C'
p5075
I4
sS'YAL025C'
p5076
I20
sS'YOR034C'
p5077
I9
sS'YBL014C'
p5078
I10
sS'YGL094C'
p5079
I3
sS'YJR059W'
p5080
I5
sS'YGR130C'
p5081
I6
sS'YPR100W'
p5082
I7
sS'YOR016C'
p5083
I4
sS'YDL217C'
p5084
I2
sS'YGR165W'
p5085
I5
sS'YGL066W'
p5086
I8
sS'YBR254C'
p5087
I4
sS'YDR313C'
p5088
I2
sS'YIL047C'
p5089
I16
sS'YNL153C'
p5090
I12
sS'YER088C'
p5091
I16
sS'YJL083W'
p5092
I1
sS'YCL056C'
p5093
I4
sS'YBR214W'
p5094
I2
sS'YPL138C'
p5095
I8
sS'YMR224C'
p5096
I5
sS'YJL141C'
p5097
I7
sS'YKL075C'
p5098
I4
sS'YCL035C'
p5099
I10
sS'YLR392C'
p5100
I1
sS'YNL102W'
p5101
I7
sS'YPL147W'
p5102
I4
sS'YMR234W'
p5103
I4
sS'YOL086W-A'
p5104
I3
sS'YIR005W'
p5105
I5
sS'YPR175W'
p5106
I3
sS'YBR084W'
p5107
I37
sS'YAR042W'
p5108
I3
sS'YGR187C'
p5109
I16
sS'YDR508C'
p5110
I25
sS'YNL081C'
p5111
I3
sS'YCL016C'
p5112
I1
sS'YPL267W'
p5113
I3
sS'YOR229W'
p5114
I3
sS'YNL276C'
p5115
I1
sS'YLL056C'
p5116
I3
sS'YOL017W'
p5117
I1
sS'YDR006C'
p5118
I4
sS'YBL032W'
p5119
I13
sS'YOR083W'
p5120
I1
sS'YDR023W'
p5121
I74
sS'YLR010C'
p5122
I3
sS'YNL209W'
p5123
I13
sS'YOR312C'
p5124
I24
sS'YBR272C'
p5125
I7
sS'YDR298C'
p5126
I12
sS'YDR011W'
p5127
I7
sS'YIL061C'
p5128
I1
sS'YBL009W'
p5129
I5
sS'YNR046W'
p5130
I7
sS'YPR097W'
p5131
I4
sS'YOL151W'
p5132
I9
sS'YHR131C'
p5133
I2
sS'YHR026W'
p5134
I29
sS'YBR281C'
p5135
I2
sS'YDR197W'
p5136
I2
sS'YNL289W'
p5137
I14
sS'YIL029C'
p5138
I1
sS'YML106W'
p5139
I35
sS'YCR009C'
p5140
I8
sS'YDR118W'
p5141
I5
sS'YPR070W'
p5142
I2
sS'YLR118C'
p5143
I5
sS'YER006W'
p5144
I32
sS'YKL106W'
p5145
I8
sS'YPR051W'
p5146
I5
sS'YLL034C'
p5147
I11
sS'YCR024C-A'
p5148
I10
sS'YBL105C'
p5149
I9
sS'YOR196C'
p5150
I7
sS'YKR060W'
p5151
I5
sS'YER104W'
p5152
I3
sS'YLR150W'
p5153
I158
sS'YLR036C'
p5154
I5
sS'YEL046C'
p5155
I14
sS'YDL189W'
p5156
I13
sS'YDL123W'
p5157
I1
sS'YML008C'
p5158
I52
sS'YDL054C'
p5159
I2
sS'YHR187W'
p5160
I4
sS'YMR265C'
p5161
I3
sS'YML073C'
p5162
I88
sS'YMR087W'
p5163
I2
sS'YNL236W'
p5164
I6
sS'YHR143W-A'
p5165
I5
sS'YBR044C'
p5166
I1
sS'YGR221C'
p5167
I5
sS'YJR105W'
p5168
I36
sS'YDL072C'
p5169
I14
sS'YER159C'
p5170
I6
sS'YDL005C'
p5171
I4
sS'YER122C'
p5172
I22
sS'YHR113W'
p5173
I7
sS'YMR212C'
p5174
I14
sS'YER048W-A'
p5175
I5
sS'YOR152C'
p5176
I1
sS'YJL196C'
p5177
I12
sS'YPR117W'
p5178
I5
sS'YHR086W'
p5179
I5
sS'YOR054C'
p5180
I2
sS'YLR058C'
p5181
I54
sS'YMR142C'
p5182
I69
sS'YOR247W'
p5183
I14
sS'YEL006W'
p5184
I8
sS'YDR058C'
p5185
I2
sS'YCR024C-B'
p5186
I46
sS'YKL207W'
p5187
I22
sS'YBR298C'
p5188
I2
sS'YPL249C'
p5189
I11
sS'YHR023W'
p5190
I10
sS'YER031C'
p5191
I22
sS'YMR065W'
p5192
I1
sS'YJR006W'
p5193
I6
sS'YGL187C'
p5194
I3
sS'YIR021W'
p5195
I3
sS'YGL002W'
p5196
I2
sS'YLR430W'
p5197
I10
sS'YKL112W'
p5198
I7
sS'YKR041W'
p5199
I1
sS'YMR091C'
p5200
I12
sS'YMR130W'
p5201
I5
sS'YML095C'
p5202
I1
sS'YOR117W'
p5203
I18
sS'YMR025W'
p5204
I2
sS'YDR222W'
p5205
I2
sS'YMR290C'
p5206
I21
sS'YDL141W'
p5207
I4
sS'YLR206W'
p5208
I6
sS'YPR139C'
p5209
I3
sS'YHR100C'
p5210
I3
sS'YDR076W'
p5211
I1
sS'YNL185C'
p5212
I3
sS'YJL059W'
p5213
I2
sS'YBR166C'
p5214
I12
sS'YMR047C'
p5215
I17
sS'YMR147W'
p5216
I1
sS'YOR287C'
p5217
I6
sS'YDR247W'
p5218
I1
sS'YLR168C'
p5219
I2
sS'YGR274C'
p5220
I5
sS'YBR015C'
p5221
I9
sS'YML055W'
p5222
I3
sS'YML088W'
p5223
I5
sS'YLR176C'
p5224
I2
sS'YPL013C'
p5225
I3
sS'YHR083W'
p5226
I10
s.