(dp1
S'YBR177C'
p2
I2
sS'YIL140W'
p3
I1
sS'YLR268W'
p4
I4
sS'YOR011W'
p5
I0
sS'YJL155C'
p6
I2
sS'YLL062C'
p7
I1
sS'YHR067W'
p8
I2
sS'YAL008W'
p9
I2
sS'YNR028W'
p10
I3
sS'YMR111C'
p11
I2
sS'YBR255W'
p12
I1
sS'YFR027W'
p13
I1
sS'YJL122W'
p14
I10
sS'YOL115W'
p15
I3
sS'YNL007C'
p16
I6
sS'YNL300W'
p17
I2
sS'YAL056W'
p18
I3
sS'YJR122W'
p19
I1
sS'YLR152C'
p20
I1
sS'YDR459C'
p21
I3
sS'YIL034C'
p22
I2
sS'YLR244C'
p23
I6
sS'YNL003C'
p24
I4
sS'YBR111W-A'
p25
I7
sS'YJR084W'
p26
I2
sS'YBR135W'
p27
I3
sS'YBR004C'
p28
I2
sS'YBR160W'
p29
I7
sS'YLR313C'
p30
I1
sS'YNR007C'
p31
I2
sS'YJL082W'
p32
I1
sS'YHR007C'
p33
I14
sS'YIR004W'
p34
I6
sS'YPL191C'
p35
I2
sS'YKL190W'
p36
I8
sS'YGL084C'
p37
I3
sS'YLR348C'
p38
I13
sS'YBR248C'
p39
I5
sS'YNR067C'
p40
I2
sS'YNL152W'
p41
I1
sS'YLR382C'
p42
I1
sS'YKL063C'
p43
I5
sS'YFL045C'
p44
I53
sS'YFL010C'
p45
I6
sS'YDR141C'
p46
I0
sS'YJL131C'
p47
I1
sS'YDL170W'
p48
I1
sS'YIL124W'
p49
I8
sS'YJR044C'
p50
I4
sS'YJR011C'
p51
I3
sS'YPL039W'
p52
I2
sS'YKL048C'
p53
I1
sS'YMR009W'
p54
I2
sS'YOR123C'
p55
I3
sS'YJL179W'
p56
I15
sS'YOR097C'
p57
I3
sS'YKL183W'
p58
I6
sS'YLR189C'
p59
I1
sS'YDR363W'
p60
I2
sS'YFL021W'
p61
I1
sS'YPL194W'
p62
I0
sS'YLR362W'
p63
I2
sS'YPR118W'
p64
I11
sS'YMR283C'
p65
I1
sS'YOR074C'
p66
I1
sS'YPL024W'
p67
I3
sS'YKL134C'
p68
I1
sS'YDR090C'
p69
I3
sS'YIL108W'
p70
I2
sS'YKL052C'
p71
I3
sS'YLR278C'
p72
I1
sS'YBR273C'
p73
I3
sS'YFR005C'
p74
I5
sS'YOR313C'
p75
I2
sS'YHR009C'
p76
I4
sS'YAL026C'
p77
I1
sS'YOL034W'
p78
I1
sS'YJR135W-A'
p79
I7
sS'YFL017W-A'
p80
I3
sS'YFR050C'
p81
I9
sS'YOR147W'
p82
I2
sS'YBL008W'
p83
I1
sS'YLR079W'
p84
I3
sS'YLR447C'
p85
I35
sS'YGL237C'
p86
I1
sS'YOL058W'
p87
I1
sS'YIL062C'
p88
I15
sS'YNL295W'
p89
I1
sS'YDR016C'
p90
I10
sS'YNR032C-A'
p91
I7
sS'YPL059W'
p92
I8
sS'YAR019C'
p93
I0
sS'YDR299W'
p94
I5
sS'YOL116W'
p95
I2
sS'YJL140W'
p96
I16
sS'YBR182C'
p97
I1
sS'YGL257C'
p98
I5
sS'YDR196C'
p99
I6
sS'YBR202W'
p100
I2
sS'YHR101C'
p101
I1
sS'YNL239W'
p102
I2
sS'YDR410C'
p103
I8
sS'YBR280C'
p104
I0
sS'YGR020C'
p105
I21
sS'YNR045W'
p106
I1
sS'YPL143W'
p107
I261
sS'YKL148C'
p108
I0
sS'YML105C'
p109
I9
sS'YLL040C'
p110
I0
sS'YIL091C'
p111
I5
sS'YCL032W'
p112
I2
sS'YLR357W'
p113
I1
sS'YPL104W'
p114
I1
sS'YNL103W'
p115
I2
sS'YAL046C'
p116
I3
sS'YDR198C'
p117
I3
sS'YAL039C'
p118
I2
sS'YNR018W'
p119
I4
sS'YNL168C'
p120
I3
sS'YDL185W'
p121
I9
sS'YFR047C'
p122
I4
sS'YBR215W'
p123
I1
sS'YGL092W'
p124
I2
sS'YLR403W'
p125
I1
sS'YNL147W'
p126
I8
sS'YBR159W'
p127
I15
sS'YDR364C'
p128
I3
sS'YML127W'
p129
I4
sS'YCL030C'
p130
I9
sS'YHR078W'
p131
I2
sS'YGR084C'
p132
I5
sS'YDR286C'
p133
I3
sS'YFR018C'
p134
I2
sS'YCR002C'
p135
I3
sS'YER042W'
p136
I4
sS'YJR110W'
p137
I1
sS'YOR163W'
p138
I5
sS'YGL157W'
p139
I3
sS'YNL162W-A'
p140
I5
sS'YLR233C'
p141
I1
sS'YGR099W'
p142
I2
sS'YBL015W'
p143
I1
sS'YOL090W'
p144
I2
sS'YLR300W'
p145
I13
sS'YNL145W'
p146
I39
sS'YJL091C'
p147
I2
sS'YJR140C'
p148
I1
sS'YGR146C'
p149
I2
sS'YOR033C'
p150
I2
sS'YNR021W'
p151
I7
sS'YBR043C'
p152
I3
sS'YHR005C-A'
p153
I21
sS'YDR380W'
p154
I8
sS'YGL100W'
p155
I7
sS'YBR094W'
p156
I2
sS'YHR112C'
p157
I1
sS'YDR035W'
p158
I7
sS'YGR042W'
p159
I4
sS'YPL156C'
p160
I1
sS'YDR485C'
p161
I2
sS'YGR077C'
p162
I1
sS'YOR216C'
p163
I3
sS'YIL044C'
p164
I3
sS'YPL239W'
p165
I10
sS'YNL197C'
p166
I1
sS'YPR183W'
p167
I3
sS'YLR069C'
p168
I2
sS'YDL073W'
p169
I3
sS'YBL042C'
p170
I2
sS'YEL017C-A'
p171
I69
sS'YNL091W'
p172
I1
sS'YCR046C'
p173
I2
sS'YLR059C'
p174
I3
sS'YOL001W'
p175
I2
sS'YDR525W-A'
p176
I2
sS'YIL056W'
p177
I1
sS'YBR054W'
p178
I1
sS'YDR507C'
p179
I1
sS'YDR379C-A'
p180
I4
sS'YOL063C'
p181
I1
sS'YPL224C'
p182
I2
sS'YLR137W'
p183
I1
sS'YLR020C'
p184
I4
sS'YNL217W'
p185
I8
sS'YKL204W'
p186
I1
sS'YLR404W'
p187
I2
sS'YDL042C'
p188
I1
sS'YMR226C'
p189
I10
sS'YOR058C'
p190
I1
sS'YDR531W'
p191
I7
sS'YMR233W'
p192
I4
sS'YPL206C'
p193
I5
sS'YOL136C'
p194
I2
sS'YDL060W'
p195
I5
sS'YLR002C'
p196
I4
sS'YOR303W'
p197
I6
sS'YDR320C-A'
p198
I9
sS'YOR071C'
p199
I1
sS'YDR393W'
p200
I3
sS'YBR293W'
p201
I3
sS'YIR022W'
p202
I8
sS'YGL215W'
p203
I2
sS'YNR052C'
p204
I3
sS'YGR019W'
p205
I2
sS'YHR032W'
p206
I3
sS'YEL032W'
p207
I1
sS'YOL076W'
p208
I3
sS'YER145C'
p209
I8
sS'YER110C'
p210
I4
sS'YHR123W'
p211
I3
sS'YBL033C'
p212
I3
sS'YDR022C'
p213
I1
sS'YPL266W'
p214
I8
sS'YOR304W'
p215
I1
sS'YLR023C'
p216
I1
sS'YML112W'
p217
I1
sS'YHL010C'
p218
I0
sS'YGR183C'
p219
I12
sS'YER169W'
p220
I1
sS'YNL321W'
p221
I0
sS'YOR226C'
p222
I5
sS'YGL241W'
p223
I2
sS'YEL025C'
p224
I1
sS'YLR108C'
p225
I1
sS'YLR229C'
p226
I11
sS'YNL186W'
p227
I3
sS'YPR176C'
p228
I7
sS'YCL044C'
p229
I1
sS'YKR008W'
p230
I1
sS'YLR017W'
p231
I10
sS'YMR146C'
p232
I8
sS'YPR165W'
p233
I29
sS'YPR024W'
p234
I3
sS'YDR226W'
p235
I42
sS'YMR266W'
p236
I3
sS'YDR057W'
p237
I2
sS'YKR064W'
p238
I1
sS'YLR097C'
p239
I3
sS'YCR060W'
p240
I6
sS'YJL036W'
p241
I2
sS'YER041W'
p242
I1
sS'YBR016W'
p243
I3
sS'YER009W'
p244
I44
sS'YBR036C'
p245
I5
sS'YMR015C'
p246
I3
sS'YDL139C'
p247
I1
sS'YDR246W'
p248
I1
sS'YOL014W'
p249
I6
sS'YOR288C'
p250
I2
sS'YLR163C'
p251
I5
sS'YCR028C'
p252
I2
sS'YLR115W'
p253
I1
sS'YMR126C'
p254
I4
sS'YHR089C'
p255
I22
sS'YGL014W'
p256
I1
sS'YMR168C'
p257
I1
sS'YML043C'
p258
I3
sS'YLL035W'
p259
I2
sS'YMR258C'
p260
I3
sS'YNL323W'
p261
I3
sS'YER007W'
p262
I2
sS'YGL114W'
p263
I2
sS'YER027C'
p264
I2
sS'YER167W'
p265
I2
sS'YDL013W'
p266
I3
sS'YBL106C'
p267
I0
sS'YMR104C'
p268
I1
sS'YGL044C'
p269
I4
sS'YGL169W'
p270
I3
sS'YER107C'
p271
I7
sS'YNR044W'
p272
I1
sS'YBR038W'
p273
I1
sS'YLR219W'
p274
I1
sS'YDR117C'
p275
I2
sS'YLR120C'
p276
I2
sS'YCR026C'
p277
I2
sS'YBL052C'
p278
I2
sS'YBR060C'
p279
I1
sS'YPL202C'
p280
I5
sS'YEL047C'
p281
I4
sS'YPR036W'
p282
I16
sS'YIL026C'
p283
I1
sS'YNL317W'
p284
I1
sS'YCR087C-A'
p285
I6
sS'YGR235C'
p286
I7
sS'YDR068W'
p287
I5
sS'YDL055C'
p288
I82
sS'YDR177W'
p289
I13
sS'YEL043W'
p290
I1
sS'YJL003W'
p291
I2
sS'YML072C'
p292
I1
sS'YHR052W'
p293
I16
sS'YDR142C'
p294
I2
sS'YKR026C'
p295
I9
sS'YFL044C'
p296
I2
sS'YJR043C'
p297
I2
sS'YPL263C'
p298
I7
sS'YJR012C'
p299
I1
sS'YJL130C'
p300
I2
sS'YJL078C'
p301
I1
sS'YJR126C'
p302
I2
sS'YKL060C'
p303
I383
sS'YBL085W'
p304
I1
sS'YKL173W'
p305
I1
sS'YIR023W'
p306
I0
sS'YGR200C'
p307
I5
sS'YBR056W'
p308
I3
sS'YLR383W'
p309
I1
sS'YDL177C'
p310
I6
sS'YIL127C'
p311
I8
sS'YDR082W'
p312
I4
sS'YOR338W'
p313
I1
sS'YDR348C'
p314
I4
sS'YKL182W'
p315
I3
sS'YOR291W'
p316
I1
sS'YDR469W'
p317
I6
sS'YMR079W'
p318
I4
sS'YDR333C'
p319
I5
sS'YKL018C-A'
p320
I3
sS'YNL160W'
p321
I1
sS'YMR013C'
p322
I3
sS'YPL167C'
p323
I1
sS'YLR223C'
p324
I2
sS'YIR012W'
p325
I12
sS'YLR363C'
p326
I5
sS'YNR026C'
p327
I2
sS'YNR046W'
p328
I5
sS'YJL014W'
p329
I11
sS'YDR219C'
p330
I3
sS'YCR011C'
p331
I4
sS'YPL218W'
p332
I19
sS'YLR431C'
p333
I1
sS'YKR046C'
p334
I1
sS'YJR036C'
p335
I0
sS'YJR005W'
p336
I2
sS'YGR217W'
p337
I0
sS'YNL072W'
p338
I1
sS'YBL098W'
p339
I3
sS'YDL095W'
p340
I4
sS'YOR194C'
p341
I6
sS'YOR174W'
p342
I7
sS'YER030W'
p343
I7
sS'YFL002C'
p344
I3
sS'YDR155C'
p345
I67
sS'YPR149W'
p346
I11
sS'YGL181W'
p347
I2
sS'YJL176C'
p348
I1
sS'YOL086W-A'
p349
I5
sS'YJR072C'
p350
I12
sS'YDR047W'
p351
I6
sS'YKR039W'
p352
I1
sS'YPL087W'
p353
I6
sS'YNL015W'
p354
I3
sS'YCR084C'
p355
I1
sS'YDR302W'
p356
I8
sS'YGL003C'
p357
I1
sS'YJL054W'
p358
I2
sS'YHR178W'
p359
I1
sS'YOR118W'
p360
I3
sS'YDR268W'
p361
I3
sS'YLR283W'
p362
I1
sS'YPL170W'
p363
I5
sS'YOL003C'
p364
I2
sS'YML094W'
p365
I3
sS'YKR006C'
p366
I4
sS'YDL117W'
p367
I2
sS'YDR204W'
p368
I3
sS'YBR085C-A'
p369
I19
sS'YDR251W'
p370
I1
sS'YPL269W'
p371
I1
sS'YMR293C'
p372
I2
sS'YER089C'
p373
I1
sS'YOR230W'
p374
I5
sS'YAL038W'
p375
I76
sS'YIL105C'
p376
I2
sS'YNL119W'
p377
I5
sS'YNR006W'
p378
I1
sS'YML126C'
p379
I6
sS'YAL047C'
p380
I1
sS'YIL150C'
p381
I1
sS'YJL208C'
p382
I2
sS'YDR285W'
p383
I1
sS'YNL064C'
p384
I12
sS'YGR158C'
p385
I5
sS'YKL077W'
p386
I11
sS'YFR046C'
p387
I1
sS'YBR212W'
p388
I1
sS'YJR109C'
p389
I2
sS'YLR254C'
p390
I5
sS'YFR014C'
p391
I2
sS'YBR158W'
p392
I10
sS'YPL105C'
p393
I3
sS'YLR392C'
p394
I2
sS'YOL097C'
p395
I15
sS'YOR110W'
p396
I3
sS'YMR285C'
p397
I2
sS'YJL096W'
p398
I5
sS'YJR141W'
p399
I5
sS'YDR407C'
p400
I1
sS'YLR354C'
p401
I16
sS'YIL065C'
p402
I5
sS'YKL029C'
p403
I2
sS'YBR258C'
p404
I3
sS'YLR457C'
p405
I2
sS'YLR301W'
p406
I17
sS'YAL007C'
p407
I11
sS'YJL070C'
p408
I1
sS'YHR142W'
p409
I7
sS'YGR098C'
p410
I0
sS'YOR103C'
p411
I13
sS'YNL241C'
p412
I1
sS'YJL154C'
p413
I2
sS'YDR091C'
p414
I8
sS'YJL123C'
p415
I8
sS'YIR005W'
p416
I4
sS'YJL203W'
p417
I3
sS'YAL009W'
p418
I4
sS'YIL147C'
p419
I1
sS'YBR129C'
p420
I6
sS'YDL160C'
p421
I2
sS'YBR176W'
p422
I3
sS'YPR138C'
p423
I2
sS'YPL173W'
p424
I3
sS'YDL215C'
p425
I4
sS'YGR167W'
p426
I6
sS'YJL059W'
p427
I1
sS'YKL099C'
p428
I14
sS'YPL097W'
p429
I3
sS'YDR315C'
p430
I2
sS'YJL143W'
p431
I13
sS'YBR161W'
p432
I2
sS'YPR103W'
p433
I14
sS'YGL238W'
p434
I4
sS'YDL239C'
p435
I0
sS'YNL104C'
p436
I4
sS'YML081C-A'
p437
I11
sS'YIL118W'
p438
I13
sS'YNL151C'
p439
I6
sS'YKL191W'
p440
I2
sS'YLR220W'
p441
I5
sS'YHR006W'
p442
I3
sS'YHR120W'
p443
I2
sS'YOR023C'
p444
I1
sS'YGR106C'
p445
I31
sS'YKL021C'
p446
I8
sS'YHR025W'
p447
I3
sS'YNL083W'
p448
I2
sS'YPR147C'
p449
I5
sS'YNL258C'
p450
I3
sS'YBL018C'
p451
I8
sS'YOR098C'
p452
I1
sS'YOR357C'
p453
I8
sS'YOL137W'
p454
I1
sS'YLR410W'
p455
I2
sS'YDR530C'
p456
I1
sS'YDR131C'
p457
I2
sS'YER111C'
p458
I0
sS'YEL031W'
p459
I2
sS'YOL071W'
p460
I1
sS'YBL029C-A'
p461
I4
sS'YDL063C'
p462
I3
sS'YER144C'
p463
I1
sS'YNL163C'
p464
I2
sS'YOR385W'
p465
I4
sS'YGR185C'
p466
I7
sS'YJL189W'
p467
I323
sS'YMR238W'
p468
I3
sS'YER168C'
p469
I4
sS'YPL265W'
p470
I16
sS'YIL083C'
p471
I2
sS'YOR081C'
p472
I1
sS'YEL026W'
p473
I11
sS'YLL050C'
p474
I80
sS'YDR392W'
p475
I2
sS'YBR290W'
p476
I7
sS'YLR180W'
p477
I9
sS'YNL274C'
p478
I1
sS'YIL096C'
p479
I4
sS'YML113W'
p480
I3
sS'YDR021W'
p481
I5
sS'YHL011C'
p482
I12
sS'YPL212C'
p483
I5
sS'YMR296C'
p484
I2
sS'YPL028W'
p485
I20
sS'YHR136C'
p486
I17
sS'YGL173C'
p487
I1
sS'YLR330W'
p488
I4
sS'YPR095C'
p489
I1
sS'YOR310C'
p490
I14
sS'YFR051C'
p491
I2
sS'YHR024C'
p492
I3
sS'YOL038W'
p493
I16
sS'YDR188W'
p494
I8
sS'YAL027W'
p495
I4
sS'YPL152W'
p496
I1
sS'YGL236C'
p497
I1
sS'YGR129W'
p498
I2
sS'YAR018C'
p499
I1
sS'YHR133C'
p500
I18
sS'YDR541C'
p501
I1
sS'YOL080C'
p502
I5
sS'YOR369C'
p503
I591
sS'YOL117W'
p504
I1
sS'YOR086C'
p505
I1
sS'YGR021W'
p506
I2
sS'YDR411C'
p507
I3
sS'YBR283C'
p508
I6
sS'YIL090W'
p509
I2
sS'YBR205W'
p510
I9
sS'YOR321W'
p511
I1
sS'YML104C'
p512
I1
sS'YBR183W'
p513
I2
sS'YDL004W'
p514
I6
sS'YGL256W'
p515
I5
sS'YDR195W'
p516
I3
sS'YOR319W'
p517
I4
sS'YOL048C'
p518
I2
sS'YGR072W'
p519
I3
sS'YNL256W'
p520
I4
sS'YMR278W'
p521
I1
sS'YER184C'
p522
I1
sS'YLR136C'
p523
I1
sS'YPR071W'
p524
I2
sS'YMR207C'
p525
I0
sS'YML015C'
p526
I3
sS'YOR197W'
p527
I3
sS'YKR089C'
p528
I1
sS'YEL004W'
p529
I1
sS'YER166W'
p530
I1
sS'YDL014W'
p531
I16
sS'YHR015W'
p532
I0
sS'YLL032C'
p533
I1
sS'YCR027C'
p534
I3
sS'YLR186W'
p535
I10
sS'YBR039W'
p536
I5
sS'YER024W'
p537
I1
sS'YDR116C'
p538
I2
sS'YGR258C'
p539
I1
sS'YLR325C'
p540
I318
sS'YPL234C'
p541
I23
sS'YMR110C'
p542
I3
sS'YDL056W'
p543
I1
sS'YGR234W'
p544
I25
sS'YKL117W'
p545
I20
sS'YMR178W'
p546
I7
sS'YPR017C'
p547
I4
sS'YGL115W'
p548
I9
sS'YNL299W'
p549
I2
sS'YOL129W'
p550
I14
sS'YEL044W'
p551
I8
sS'YMR247C'
p552
I1
sS'YDR427W'
p553
I14
sS'YML071C'
p554
I2
sS'YBR077C'
p555
I6
sS'YDR176W'
p556
I2
sS'YPL177C'
p557
I5
sS'YDR122W'
p558
I1
sS'YER120W'
p559
I6
sS'YNL090W'
p560
I8
sS'YBR042C'
p561
I6
sS'YOL062C'
p562
I5
sS'YDR381W'
p563
I30
sS'YGL103W'
p564
I503
sS'YDR484W'
p565
I2
sS'YJL194W'
p566
I1
sS'YMR225C'
p567
I3
sS'YOR370C'
p568
I5
sS'YBR095C'
p569
I2
sS'YHR111W'
p570
I3
sS'YBL045C'
p571
I3
sS'YGL071W'
p572
I1
sS'YDR524C'
p573
I1
sS'YPR170W-B'
p574
I23
sS'YOR224C'
p575
I19
sS'YDL070W'
p576
I5
sS'YNL193W'
p577
I1
sS'YCR047C'
p578
I6
sS'YMR187C'
p579
I2
sS'YNL261W'
p580
I3
sS'YKL135C'
p581
I3
sS'YER064C'
p582
I4
sS'YOR241W'
p583
I6
sS'YOL002C'
p584
I15
sS'YML111W'
p585
I1
sS'YOR359W'
p586
I2
sS'YLL021W'
p587
I1
sS'YKL205W'
p588
I2
sS'YLR407W'
p589
I15
sS'YBR088C'
p590
I7
sS'YLR425W'
p591
I0
sS'YBR055C'
p592
I2
sS'YOR175C'
p593
I9
sS'YNL329C'
p594
I1
sS'YFL005W'
p595
I20
sS'YOR298W'
p596
I1
sS'YKL110C'
p597
I5
sS'YMR014W'
p598
I5
sS'YPR040W'
p599
I1
sS'YHR040W'
p600
I3
sS'YMR152W'
p601
I2
sS'YPR060C'
p602
I15
sS'YML057W'
p603
I1
sS'YDR178W'
p604
I1
sS'YKR038C'
p605
I7
sS'YGL028C'
p606
I5
sS'YLR288C'
p607
I2
sS'YGR216C'
p608
I3
sS'YJL115W'
p609
I2
sS'YJR073C'
p610
I4
sS'YGL004C'
p611
I2
sS'YLR204W'
p612
I3
sS'YML097C'
p613
I4
sS'YKR007W'
p614
I2
sS'YLR055C'
p615
I1
sS'YJL055W'
p616
I12
sS'YHR193C'
p617
I31
sS'YMR292W'
p618
I7
sS'YNL044W'
p619
I7
sS'YBL099W'
p620
I4
sS'YMR132C'
p621
I3
sS'YDR303C'
p622
I2
sS'YPL008W'
p623
I1
sS'YOR126C'
p624
I2
sS'YDL116W'
p625
I3
sS'YPL184C'
p626
I2
sS'YGL027C'
p627
I2
sS'YMR042W'
p628
I2
sS'YDR252W'
p629
I2
sS'YOR119C'
p630
I3
sS'YLL003W'
p631
I1
sS'YOR165W'
p632
I2
sS'YDR054C'
p633
I4
sS'YLR409C'
p634
I5
sS'YBR008C'
p635
I1
sS'YCL045C'
p636
I2
sS'YPL088W'
p637
I4
sS'YJL046W'
p638
I2
sS'YOR092W'
p639
I1
sS'YMR041C'
p640
I2
sS'YDR221W'
p641
I1
sS'YMR267W'
p642
I4
sS'YNL288W'
p643
I2
sS'YPR145W'
p644
I15
sS'YKR009C'
p645
I0
sS'YDR078C'
p646
I3
sS'YKL103C'
p647
I1
sS'YCR061W'
p648
I0
sS'YMR109W'
p649
I1
sS'YMR078C'
p650
I1
sS'YLR094C'
p651
I1
sS'YDL154W'
p652
I1
sS'YDR232W'
p653
I2
sS'YDR245W'
p654
I12
sS'YHR088W'
p655
I7
sS'YGR276C'
p656
I5
sS'YBR017C'
p657
I3
sS'YKR014C'
p658
I7
sS'YML037C'
p659
I1
sS'YDL138W'
p660
I1
sS'YOR056C'
p661
I7
sS'YJR060W'
p662
I7
sS'YLR141W'
p663
I1
sS'YPR162C'
p664
I1
sS'YDL089W'
p665
I1
sS'YLR178C'
p666
I1
sS'YHR175W'
p667
I3
sS'YGR166W'
p668
I1
sS'YDL161W'
p669
I3
sS'YKL101W'
p670
I1
sS'YOR191W'
p671
I1
sS'YDL212W'
p672
I24
sS'YNL161W'
p673
I2
sS'YGR184C'
p674
I1
sS'YDR096W'
p675
I0
sS'YJL126W'
p676
I4
sS'YPR111W'
p677
I1
sS'YBR175W'
p678
I8
sS'YPL046C'
p679
I5
sS'YGL099W'
p680
I2
sS'YIL119C'
p681
I1
sS'YIL002W-A'
p682
I10
sS'YPL124W'
p683
I3
sS'YPL193W'
p684
I2
sS'YKL196C'
p685
I19
sS'YLR231C'
p686
I3
sS'YPL011C'
p687
I4
sS'YFR021W'
p688
I1
sS'YKL098W'
p689
I2
sS'YJR139C'
p690
I31
sS'YKL016C'
p691
I7
sS'YBR133C'
p692
I1
sS'YGL017W'
p693
I3
sS'YBR162C'
p694
I6
sS'YIL004C'
p695
I7
sS'YPR129W'
p696
I2
sS'YKL174C'
p697
I3
sS'YJR013W'
p698
I4
sS'YJL133W'
p699
I4
sS'YGR260W'
p700
I7
sS'YDR143C'
p701
I1
sS'YDL176W'
p702
I1
sS'YBR111C'
p703
I10
sS'YPR037C'
p704
I3
sS'YKL121W'
p705
I0
sS'YML036W'
p706
I3
sS'YPL215W'
p707
I3
sS'YKR027W'
p708
I2
sS'YFL047W'
p709
I2
sS'YGR201C'
p710
I2
sS'YPR122W'
p711
I1
sS'YLR380W'
p712
I1
sS'YKL034W'
p713
I1
sS'YKL061W'
p714
I4
sS'YJR042W'
p715
I4
sS'YMR281W'
p716
I1
sS'YMR012W'
p717
I2
sS'YER093C'
p718
I1
sS'YGR100W'
p719
I1
sS'YLR133W'
p720
I0
sS'YNL023C'
p721
I1
sS'YDR349C'
p722
I2
sS'YIR011C'
p723
I8
sS'YOR171C'
p724
I3
sS'YDR214W'
p725
I5
sS'YIL126W'
p726
I1
sS'YIL106W'
p727
I1
sS'YLR201C'
p728
I1
sS'YLR295C'
p729
I6
sS'YDL201W'
p730
I2
sS'YDR468C'
p731
I7
sS'YDR332W'
p732
I1
sS'YHR168W'
p733
I1
sS'YOL102C'
p734
I5
sS'YOR064C'
p735
I3
sS'YOL154W'
p736
I1
sS'YPR008W'
p737
I1
sS'YOR048C'
p738
I2
sS'YJL147C'
p739
I2
sS'YFR003C'
p740
I5
sS'YNL297C'
p741
I1
sS'YLR068W'
p742
I5
sS'YOL081W'
p743
I0
sS'YIL033C'
p744
I1
sS'YOL036W'
p745
I1
sS'YGL148W'
p746
I17
sS'YOR002W'
p747
I5
sS'YPL133C'
p748
I3
sS'YPL162C'
p749
I2
sS'YIL048W'
p750
I1
sS'YDR189W'
p751
I3
sS'YLR337C'
p752
I0
sS'YOL056W'
p753
I5
sS'YGR116W'
p754
I2
sS'YFR052W'
p755
I8
sS'YMR302C'
p756
I1
sS'YBR282W'
p757
I6
sS'YOR079C'
p758
I5
sS'YDR404C'
p759
I5
sS'YHR132C'
p760
I5
sS'YGR088W'
p761
I1
sS'YLR103C'
p762
I1
sS'YLR188W'
p763
I1
sS'YGL073W'
p764
I1
sS'YDR194C'
p765
I6
sS'YOL049W'
p766
I6
sS'YDR014W'
p767
I1
sS'YKR074W'
p768
I12
sS'YMR244C-A'
p769
I2
sS'YIR006C'
p770
I1
sS'YHL029C'
p771
I1
sS'YIL093C'
p772
I5
sS'YBR204C'
p773
I2
sS'YDR466W'
p774
I1
sS'YLR397C'
p775
I2
sS'YJL210W'
p776
I1
sS'YFR045W'
p777
I1
sS'YIL104C'
p778
I4
sS'YIL151C'
p779
I1
sS'YIL002C'
p780
I1
sS'YGL086W'
p781
I2
sS'YGR159C'
p782
I22
sS'YJR155W'
p783
I1
sS'YNL265C'
p784
I3
sS'YAL044C'
p785
I39
sS'YLR355C'
p786
I24
sS'YLR369W'
p787
I2
sS'YPR081C'
p788
I1
sS'YNL118C'
p789
I3
sS'YNR030W'
p790
I2
sS'YNR023W'
p791
I2
sS'YOL096C'
p792
I2
sS'YGL228W'
p793
I4
sS'YDR284C'
p794
I7
sS'YJR117W'
p795
I2
sS'YJL097W'
p796
I5
sS'YNL166C'
p797
I4
sS'YBR259W'
p798
I1
sS'YGR111W'
p799
I3
sS'YGL155W'
p800
I4
sS'YPR108W'
p801
I12
sS'YOR007C'
p802
I17
sS'YLR451W'
p803
I1
sS'YDR406W'
p804
I0
sS'YBR193C'
p805
I2
sS'YJR101W'
p806
I9
sS'YLR359W'
p807
I45
sS'YPR163C'
p808
I22
sS'YHR143W'
p809
I9
sS'YBR222C'
p810
I2
sS'YPR088C'
p811
I8
sS'YLR131C'
p812
I0
sS'YPR101W'
p813
I9
sS'YER127W'
p814
I7
sS'YLR199C'
p815
I2
sS'YDL040C'
p816
I2
sS'YMR037C'
p817
I1
sS'YKR095W-A'
p818
I3
sS'YBR096W'
p819
I9
sS'YJL206C'
p820
I1
sS'YJL193W'
p821
I4
sS'YJR093C'
p822
I1
sS'YEL027W'
p823
I54
sS'YDL015C'
p824
I13
sS'YNL281W'
p825
I24
sS'YDR123C'
p826
I2
sS'YHR110W'
p827
I4
sS'YBR041W'
p828
I2
sS'YDR430C'
p829
I1
sS'YGR193C'
p830
I2
sS'YPR185W'
p831
I1
sS'YIL142W'
p832
I9
sS'YNR035C'
p833
I10
sS'YLR406C'
p834
I77
sS'YCR036W'
p835
I7
sS'YLR077W'
p836
I3
sS'YCR044C'
p837
I4
sS'YNL219C'
p838
I3
sS'YDR037W'
p839
I18
sS'YGR040W'
p840
I2
sS'YER178W'
p841
I5
sS'YLR057W'
p842
I2
sS'YCR004C'
p843
I8
sS'YPL222W'
p844
I0
sS'YLR320W'
p845
I0
sS'YHR005C'
p846
I10
sS'YPR135W'
p847
I1
sS'YAR008W'
p848
I4
sS'YHR121W'
p849
I10
sS'YDL179W'
p850
I4
sS'YHR034C'
p851
I2
sS'YBL019W'
p852
I1
sS'YMR231W'
p853
I1
sS'YOL070C'
p854
I3
sS'YOL138C'
p855
I0
sS'YOR188W'
p856
I1
sS'YMR216C'
p857
I2
sS'YJL085W'
p858
I2
sS'YDR533C'
p859
I2
sS'YOL148C'
p860
I2
sS'YLR452C'
p861
I3
sS'YNR054C'
p862
I2
sS'YER147C'
p863
I2
sS'YDR130C'
p864
I3
sS'YIL015W'
p865
I6
sS'YEL030W'
p866
I1
sS'YPR082C'
p867
I4
sS'YBR291C'
p868
I3
sS'YNL002C'
p869
I20
sS'YNL275W'
p870
I2
sS'YAR015W'
p871
I22
sS'YPR046W'
p872
I6
sS'YML114C'
p873
I1
sS'YDR020C'
p874
I4
sS'YHR201C'
p875
I11
sS'YJL093C'
p876
I2
sS'YOR320C'
p877
I5
sS'YNR001C'
p878
I6
sS'YOR347C'
p879
I0
sS'YNL082W'
p880
I1
sS'YLL051C'
p881
I2
sS'YDR395W'
p882
I4
sS'YOR279C'
p883
I4
sS'YGR008C'
p884
I6
sS'YLR036C'
p885
I4
sS'YKL211C'
p886
I6
sS'YGL060W'
p887
I1
sS'YNL311C'
p888
I2
sS'YLL002W'
p889
I1
sS'YJL030W'
p890
I3
sS'YLR424W'
p891
I2
sS'YGL123W'
p892
I263
sS'YKR066C'
p893
I4
sS'YDR079W'
p894
I2
sS'YMR268C'
p895
I1
sS'YNL154C'
p896
I5
sS'YBR086C'
p897
I2
sS'YML070W'
p898
I4
sS'YBR074W'
p899
I2
sS'YGR191W'
p900
I3
sS'YOR150W'
p901
I3
sS'YMR106C'
p902
I0
sS'YDR055W'
p903
I5
sS'YBL061C'
p904
I4
sS'YGL203C'
p905
I2
sS'YMR140W'
p906
I1
sS'YLR095C'
p907
I1
sS'YBR034C'
p908
I13
sS'YML014W'
p909
I2
sS'YLR401C'
p910
I3
sS'YDR244W'
p911
I2
sS'YLR304C'
p912
I4
sS'YKL018W'
p913
I2
sS'YDL088C'
p914
I2
sS'YJR063W'
p915
I4
sS'YGR271W'
p916
I0
sS'YMR161W'
p917
I5
sS'YDL157C'
p918
I13
sS'YDR233C'
p919
I11
sS'YJL184W'
p920
I4
sS'YER025W'
p921
I7
sS'YDR527W'
p922
I3
sS'YCR059C'
p923
I3
sS'YML041C'
p924
I4
sS'YDL197C'
p925
I1
sS'YER078C'
p926
I2
sS'YER130C'
p927
I4
sS'YDR115W'
p928
I9
sS'YDR428C'
p929
I3
sS'YIL077C'
p930
I2
sS'YGR071C'
p931
I1
sS'YCR106W'
p932
I0
sS'YMR204C'
p933
I1
sS'YML038C'
p934
I5
sS'YCL059C'
p935
I13
sS'YJL181W'
p936
I1
sS'YER109C'
p937
I1
sS'YKR071C'
p938
I8
sS'YKR031C'
p939
I1
sS'YDR489W'
p940
I1
sS'YGR196C'
p941
I2
sS'YNL101W'
p942
I2
sS'YOR233W'
p943
I3
sS'YLR011W'
p944
I2
sS'YPR049C'
p945
I1
sS'YDL057W'
p946
I1
sS'YGR257C'
p947
I4
sS'YNL070W'
p948
I11
sS'YHR150W'
p949
I1
sS'YLR263W'
p950
I0
sS'YPL235W'
p951
I8
sS'YNL182C'
p952
I7
sS'YDL008W'
p953
I5
sS'YBL050W'
p954
I8
sS'YJR086W'
p955
I5
sS'YGR280C'
p956
I3
sS'YGR237C'
p957
I1
sS'YLR031W'
p958
I3
sS'YDL159W'
p959
I1
sS'YJR014W'
p960
I7
sS'YJL132W'
p961
I1
sS'YGL190C'
p962
I4
sS'YBR110W'
p963
I5
sS'YDR144C'
p964
I2
sS'YOR180C'
p965
I2
sS'YPL018W'
p966
I2
sS'YGL018C'
p967
I1
sS'YMR075W'
p968
I1
sS'YGR202C'
p969
I4
sS'YKL120W'
p970
I16
sS'YJR041C'
p971
I1
sS'YKL175W'
p972
I2
sS'YKR028W'
p973
I2
sS'YFL046W'
p974
I4
sS'YDR379W'
p975
I1
sS'YMR179W'
p976
I1
sS'YLR381W'
p977
I1
sS'YNL176C'
p978
I1
sS'YHR169W'
p979
I6
sS'YMR286W'
p980
I7
sS'YDL175C'
p981
I2
sS'YHR104W'
p982
I2
sS'YGL009C'
p983
I14
sS'YKL168C'
p984
I1
sS'YDL200C'
p985
I4
sS'YDL102W'
p986
I1
sS'YLR237W'
p987
I1
sS'YER092W'
p988
I8
sS'YIL121W'
p989
I2
sS'YLR214W'
p990
I8
sS'YEL002C'
p991
I7
sS'YIR010W'
p992
I1
sS'YDR331W'
p993
I4
sS'YOR293W'
p994
I240
sS'YML056C'
p995
I23
sS'YKR044W'
p996
I2
sS'YJL127C'
p997
I1
sS'YGL029W'
p998
I12
sS'YFL004W'
p999
I5
sS'YKL149C'
p1000
I2
sS'YNL078W'
p1001
I2
sS'YER139C'
p1002
I3
sS'YDL128W'
p1003
I4
sS'YLR433C'
p1004
I2
sS'YMR068W'
p1005
I1
sS'YPL098C'
p1006
I3
sS'YMR153W'
p1007
I4
sS'YGR239C'
p1008
I1
sS'YIR015W'
p1009
I2
sS'YPL096W'
p1010
I4
sS'YER032W'
p1011
I0
sS'YJR070C'
p1012
I10
sS'YMR033W'
p1013
I6
sS'YDL097C'
p1014
I5
sS'YPR003C'
p1015
I1
sS'YGL005C'
p1016
I5
sS'YGR262C'
p1017
I6
sS'YPL160W'
p1018
I7
sS'YIR024C'
p1019
I2
sS'YDL111C'
p1020
I3
sS'YPL245W'
p1021
I8
sS'YOL016C'
p1022
I8
sS'YDR202C'
p1023
I2
sS'YPL007C'
p1024
I3
sS'YMR029C'
p1025
I4
sS'YBR066C'
p1026
I5
sS'YLR104W'
p1027
I5
sS'YGR215W'
p1028
I6
sS'YPL095C'
p1029
I3
sS'YDR363W-A'
p1030
I24
sS'YOR335C'
p1031
I6
sS'YML096W'
p1032
I2
sS'YHR192W'
p1033
I3
sS'YCR082W'
p1034
I9
sS'YDR300C'
p1035
I6
sS'YJL158C'
p1036
I12
sS'YGL087C'
p1037
I3
sS'YPL052W'
p1038
I6
sS'YIL003W'
p1039
I4
sS'YMR224C'
p1040
I1
sS'YBR245C'
p1041
I1
sS'YBR163W'
p1042
I2
sS'YDR465C'
p1043
I7
sS'YLR276C'
p1044
I6
sS'YJR154W'
p1045
I1
sS'YKL079W'
p1046
I2
sS'YFR044C'
p1047
I4
sS'YBR210W'
p1048
I6
sS'YPL103C'
p1049
I1
sS'YIL103W'
p1050
I5
sS'YBR269C'
p1051
I1
sS'YFR033C'
p1052
I7
sS'YDR283C'
p1053
I1
sS'YJR096W'
p1054
I3
sS'YNL037C'
p1055
I4
sS'YLR398C'
p1056
I1
sS'YBR192W'
p1057
I5
sS'YNL188W'
p1058
I3
sS'YJR116W'
p1059
I1
sS'YKL027W'
p1060
I6
sS'YGR143W'
p1061
I1
sS'YER007C-A'
p1062
I10
sS'YGR112W'
p1063
I1
sS'YNR022C'
p1064
I5
sS'YLR056W'
p1065
I10
sS'YBR125C'
p1066
I3
sS'YLR356W'
p1067
I1
sS'YBR221C'
p1068
I12
sS'YJL094C'
p1069
I1
sS'YGR074W'
p1070
I8
sS'YKL057C'
p1071
I2
sS'YGL098W'
p1072
I5
sS'YJR056C'
p1073
I4
sS'YDR097C'
p1074
I1
sS'YJL121C'
p1075
I3
sS'YGR161C'
p1076
I3
sS'YGR186W'
p1077
I2
sS'YIR001C'
p1078
I1
sS'YOR047C'
p1079
I3
sS'YDL213C'
p1080
I7
sS'YIL145C'
p1081
I3
sS'YKL195W'
p1082
I7
sS'YGL216W'
p1083
I1
sS'YDR317W'
p1084
I1
sS'YFL031W'
p1085
I18
sS'YDR478W'
p1086
I2
sS'YHR064C'
p1087
I20
sS'YKL015W'
p1088
I1
sS'YOR215C'
p1089
I6
sS'YKL179C'
p1090
I4
sS'YMR020W'
p1091
I3
sS'YJR089W'
p1092
I1
sS'YJL145W'
p1093
I7
sS'YDR377W'
p1094
I16
sS'YIR007W'
p1095
I0
sS'YJL201W'
p1096
I1
sS'YLR314C'
p1097
I6
sS'YLR153C'
p1098
I5
sS'YLR146W-A'
p1099
I4
sS'YNL126W'
p1100
I1
sS'YBR132C'
p1101
I0
sS'YKL040C'
p1102
I10
sS'YPR114W'
p1103
I3
sS'YLR249W'
p1104
I68
sS'YNL004W'
p1105
I7
sS'YOR327C'
p1106
I7
sS'YIR025W'
p1107
I1
sS'YPL163C'
p1108
I3
sS'YDR336W'
p1109
I6
sS'YDR320C'
p1110
I1
sS'YPL069C'
p1111
I3
sS'YOR265W'
p1112
I5
sS'YOL139C'
p1113
I49
sS'YIL092W'
p1114
I1
sS'YBR207W'
p1115
I4
sS'YPR133C'
p1116
I8
sS'YOL073C'
p1117
I3
sS'YLR321C'
p1118
I3
sS'YNL191W'
p1119
I2
sS'YOR266W'
p1120
I2
sS'YPL203W'
p1121
I1
sS'YNR055C'
p1122
I4
sS'YDR532C'
p1123
I3
sS'YHL040C'
p1124
I1
sS'YHR200W'
p1125
I7
sS'YDR184C'
p1126
I4
sS'YNR011C'
p1127
I1
sS'YNL167C'
p1128
I1
sS'YKL210W'
p1129
I4
sS'YNL221C'
p1130
I2
sS'YLR194C'
p1131
I3
sS'YNR032W'
p1132
I4
sS'YNL284C'
p1133
I6
sS'YER146W'
p1134
I17
sS'YLR426W'
p1135
I1
sS'YGL061C'
p1136
I3
sS'YDR394W'
p1137
I8
sS'YNL173C'
p1138
I2
sS'YDR399W'
p1139
I53
sS'YAR014C'
p1140
I3
sS'YOR353C'
p1141
I2
sS'YOR087W'
p1142
I2
sS'YKL127W'
p1143
I4
sS'YHR159W'
p1144
I1
sS'YPL132W'
p1145
I5
sS'YIL114C'
p1146
I5
sS'YLR435W'
p1147
I7
sS'YPL100W'
p1148
I3
sS'YGL234W'
p1149
I12
sS'YOL055C'
p1150
I1
sS'YPR093C'
p1151
I2
sS'YOL082W'
p1152
I4
sS'YAL029C'
p1153
I1
sS'YIL070C'
p1154
I6
sS'YKL013C'
p1155
I9
sS'YNL108C'
p1156
I3
sS'YDR421W'
p1157
I1
sS'YLR226W'
p1158
I4
sS'YHL035C'
p1159
I0
sS'YMR301C'
p1160
I1
sS'YGL171W'
p1161
I3
sS'YDR294C'
p1162
I2
sS'YFR002W'
p1163
I3
sS'YBR267W'
p1164
I6
sS'YJL217W'
p1165
I13
sS'YNL250W'
p1166
I0
sS'YMR011W'
p1167
I2
sS'YPR194C'
p1168
I0
sS'YGR089W'
p1169
I1
sS'YBL029W'
p1170
I1
sS'YDR325W'
p1171
I2
sS'YNR031C'
p1172
I1
sS'YHL028W'
p1173
I1
sS'YNL131W'
p1174
I11
sS'YEL020W-A'
p1175
I12
sS'YNL124W'
p1176
I2
sS'YJL073W'
p1177
I1
sS'YBL005W'
p1178
I1
sS'YOR322C'
p1179
I1
sS'YNL048W'
p1180
I4
sS'YOL125W'
p1181
I2
sS'YOR243C'
p1182
I5
sS'YLR130C'
p1183
I11
sS'YER022W'
p1184
I3
sS'YBR057C'
p1185
I2
sS'YNR059W'
p1186
I2
sS'YDR041W'
p1187
I9
sS'YER186C'
p1188
I5
sS'YMR165C'
p1189
I1
sS'YPR105C'
p1190
I2
sS'YKR070W'
p1191
I4
sS'YNL059C'
p1192
I2
sS'YMR205C'
p1193
I5
sS'YIL094C'
p1194
I15
sS'YCR005C'
p1195
I106
sS'YER164W'
p1196
I1
sS'YBL101C'
p1197
I0
sS'YPR055W'
p1198
I1
sS'YML017W'
p1199
I2
sS'YIL016W'
p1200
I6
sS'YLR032W'
p1201
I1
sS'YOR274W'
p1202
I3
sS'YPR141C'
p1203
I1
sS'YBL051C'
p1204
I1
sS'YGR281W'
p1205
I1
sS'YLR089C'
p1206
I2
sS'YPL161C'
p1207
I3
sS'YMR298W'
p1208
I4
sS'YMR022W'
p1209
I4
sS'YDR488C'
p1210
I1
sS'YNL115C'
p1211
I1
sS'YJL063C'
p1212
I3
sS'YOL021C'
p1213
I1
sS'YNL080C'
p1214
I1
sS'YEL042W'
p1215
I2
sS'YLR113W'
p1216
I9
sS'YEL020C'
p1217
I1
sS'YHL013C'
p1218
I7
sS'YOL060C'
p1219
I1
sS'YML129C'
p1220
I3
sS'YGR009C'
p1221
I2
sS'YNL208W'
p1222
I12
sS'YMR185W'
p1223
I2
sS'YCL005W'
p1224
I3
sS'YGL105W'
p1225
I10
sS'YBR097W'
p1226
I0
sS'YLR014C'
p1227
I1
sS'YDL076C'
p1228
I6
sS'YOR137C'
p1229
I1
sS'YDR120C'
p1230
I7
sS'YER126C'
p1231
I17
sS'YPL060W'
p1232
I1
sS'YMR227C'
p1233
I1
sS'YPR186C'
p1234
I2
sS'YOR113W'
p1235
I0
sS'YGR194C'
p1236
I1
sS'YDR486C'
p1237
I3
sS'YJL192C'
p1238
I11
sS'YHR117W'
p1239
I1
sS'YOL130W'
p1240
I4
sS'YDR030C'
p1241
I1
sS'YOR014W'
p1242
I1
sS'YOR238W'
p1243
I3
sS'YNL325C'
p1244
I1
sS'YPL274W'
p1245
I1
sS'YNL257C'
p1246
I1
sS'YBL047C'
p1247
I1
sS'YNL293W'
p1248
I2
sS'YEL051W'
p1249
I18
sS'YLR207W'
p1250
I1
sS'YLL023C'
p1251
I2
sS'YKL203C'
p1252
I0
sS'YOL004W'
p1253
I1
sS'YOL128C'
p1254
I9
sS'YPL209C'
p1255
I1
sS'YGR014W'
p1256
I1
sS'YGL050W'
p1257
I3
sS'YPR161C'
p1258
I2
sS'YDL036C'
p1259
I2
sS'YMR032W'
p1260
I1
sS'YMR150C'
p1261
I6
sS'YFL007W'
p1262
I1
sS'YML059C'
p1263
I1
sS'YDL129W'
p1264
I4
sS'YDR063W'
p1265
I4
sS'YOR352W'
p1266
I1
sS'YPL099C'
p1267
I5
sS'YGR238C'
p1268
I0
sS'YCR012W'
p1269
I202
sS'YER035W'
p1270
I1
sS'YDR201W'
p1271
I5
sS'YDR254W'
p1272
I1
sS'YPR128C'
p1273
I6
sS'YGR263C'
p1274
I2
sS'YKL156W'
p1275
I115
sS'YMR310C'
p1276
I2
sS'YHR191C'
p1277
I5
sS'YDL110C'
p1278
I2
sS'YDL098C'
p1279
I3
sS'YDR301W'
p1280
I1
sS'YJL053W'
p1281
I4
sS'YPR104C'
p1282
I2
sS'YPL023C'
p1283
I2
sS'YGR214W'
p1284
I102
sS'YGL006W'
p1285
I1
sS'YPL006W'
p1286
I1
sS'YCR083W'
p1287
I3
sS'YKR067W'
p1288
I0
sS'YNL310C'
p1289
I2
sS'YML028W'
p1290
I39
sS'YOR080W'
p1291
I1
sS'YLL001W'
p1292
I2
sS'YOR168W'
p1293
I13
sS'YDR052C'
p1294
I2
sS'YNL189W'
p1295
I6
sS'YMR043W'
p1296
I3
sS'YPR173C'
p1297
I6
sS'YCL047C'
p1298
I3
sS'YJL031C'
p1299
I5
sS'YML077W'
p1300
I8
sS'YER068W'
p1301
I1
sS'YER013W'
p1302
I1
sS'YMR269W'
p1303
I2
sS'YKL053C-A'
p1304
I6
sS'YMR092C'
p1305
I8
sS'YDL021W'
p1306
I1
sS'YLR143W'
p1307
I2
sS'YLR043C'
p1308
I35
sS'YJL008C'
p1309
I7
sS'YDL018C'
p1310
I4
sS'YPL176C'
p1311
I2
sS'YMR102C'
p1312
I1
sS'YML060W'
p1313
I1
sS'YJR062C'
p1314
I2
sS'YGR054W'
p1315
I2
sS'YBR035C'
p1316
I7
sS'YMR191W'
p1317
I2
sS'YPL019C'
p1318
I24
sS'YBL060W'
p1319
I2
sS'YML035C'
p1320
I2
sS'YNL181W'
p1321
I4
sS'YPL254W'
p1322
I6
sS'YCL010C'
p1323
I4
sS'YNL277W'
p1324
I1
sS'YCR090C'
p1325
I12
sS'YPR171W'
p1326
I1
sS'YKL056C'
p1327
I252
sS'YAL060W'
p1328
I5
sS'YFL025C'
p1329
I1
sS'YKL009W'
p1330
I30
sS'YIL144W'
p1331
I1
sS'YPL270W'
p1332
I1
sS'YOR124C'
p1333
I1
sS'YOR332W'
p1334
I16
sS'YKR056W'
p1335
I3
sS'YCL057C-A'
p1336
I5
sS'YJR057W'
p1337
I7
sS'YHR164C'
p1338
I0
sS'YKL150W'
p1339
I4
sS'YIL133C'
p1340
I43
sS'YHR063C'
p1341
I8
sS'YJL200C'
p1342
I5
sS'YGL211W'
p1343
I6
sS'YDR316W'
p1344
I2
sS'YMR093W'
p1345
I4
sS'YPL113C'
p1346
I1
sS'YCR076C'
p1347
I3
sS'YPL195W'
p1348
I3
sS'YNL107W'
p1349
I4
sS'YIR036C'
p1350
I2
sS'YIL009C-A'
p1351
I5
sS'YBL063W'
p1352
I0
sS'YDR479C'
p1353
I1
sS'YAL059W'
p1354
I10
sS'YKL194C'
p1355
I1
sS'YOR030W'
p1356
I1
sS'YKL096W'
p1357
I3
sS'YDR089W'
p1358
I2
sS'YKL014C'
p1359
I1
sS'YGL160W'
p1360
I2
sS'YMR021C'
p1361
I3
sS'YNR036C'
p1362
I10
sS'YPL216W'
p1363
I1
sS'YJR040W'
p1364
I1
sS'YPR119W'
p1365
I3
sS'YJR015W'
p1366
I5
sS'YDR378C'
p1367
I25
sS'YOL122C'
p1368
I4
sS'YGR277C'
p1369
I5
sS'YBL086C'
p1370
I2
sS'YKL176C'
p1371
I2
sS'YKR029C'
p1372
I2
sS'YDR249C'
p1373
I3
sS'YGL191W'
p1374
I10
sS'YJL104W'
p1375
I11
sS'YPR010C-A'
p1376
I5
sS'YOR296W'
p1377
I1
sS'YFL041W'
p1378
I1
sS'YJL168C'
p1379
I3
sS'YDR145W'
p1380
I3
sS'YDL174C'
p1381
I1
sS'YJL062W'
p1382
I1
sS'YPL085W'
p1383
I0
sS'YDL103C'
p1384
I3
sS'YJR008W'
p1385
I1
sS'YDL203C'
p1386
I1
sS'YFR024C-A'
p1387
I7
sS'YML031W'
p1388
I3
sS'YLR215C'
p1389
I2
sS'YML082W'
p1390
I1
sS'YLR363W-A'
p1391
I7
sS'YLR439W'
p1392
I1
sS'YKL100C'
p1393
I3
sS'YDR216W'
p1394
I0
sS'YIL120W'
p1395
I1
sS'YKL130C'
p1396
I3
sS'YOR106W'
p1397
I3
sS'YPL138C'
p1398
I3
sS'YNL021W'
p1399
I1
sS'YNL236W'
p1400
I1
sS'YOL054W'
p1401
I2
sS'YFR001W'
p1402
I13
sS'YPR152C'
p1403
I2
sS'YBR220C'
p1404
I4
sS'YIL019W'
p1405
I6
sS'YIL115C'
p1406
I1
sS'YKR013W'
p1407
I7
sS'YGL233W'
p1408
I1
sS'YCL027W'
p1409
I1
sS'YGR113W'
p1410
I4
sS'YLR319C'
p1411
I1
sS'YKL033W-A'
p1412
I18
sS'YMR036C'
p1413
I2
sS'YMR235C'
p1414
I11
sS'YOL053W'
p1415
I3
sS'YHR029C'
p1416
I3
sS'YPL091W'
p1417
I7
sS'YPR164W'
p1418
I1
sS'YIL031W'
p1419
I0
sS'YDR295C'
p1420
I1
sS'YAL033W'
p1421
I8
sS'YLR203C'
p1422
I1
sS'YGR155W'
p1423
I17
sS'YGL208W'
p1424
I1
sS'YFR049W'
p1425
I3
sS'YNL130C'
p1426
I6
sS'YMR195W'
p1427
I19
sS'YDR108W'
p1428
I2
sS'YNR049C'
p1429
I4
sS'YDR192C'
p1430
I1
sS'YOL112W'
p1431
I3
sS'YKR004C'
p1432
I1
sS'YML109W'
p1433
I0
sS'YLR342W'
p1434
I4
sS'YLR335W'
p1435
I3
sS'YNL251C'
p1436
I2
sS'YJR102C'
p1437
I3
sS'YPL089C'
p1438
I1
sS'YHR134W'
p1439
I4
sS'YOR020C'
p1440
I22
sS'YBL028C'
p1441
I27
sS'YBL004W'
p1442
I1
sS'YBR164C'
p1443
I15
sS'YIL153W'
p1444
I1
sS'YIL045W'
p1445
I1
sS'YJR088C'
p1446
I9
sS'YHR074W'
p1447
I2
sS'YBR211C'
p1448
I4
sS'YLR368W'
p1449
I2
sS'YBR268W'
p1450
I5
sS'YFR030W'
p1451
I1
sS'YKL089W'
p1452
I2
sS'YOR006C'
p1453
I8
sS'YBR131W'
p1454
I1
sS'YLR277C'
p1455
I2
sS'YAL011W'
p1456
I1
sS'YDL155W'
p1457
I4
sS'YBR244W'
p1458
I16
sS'YNL050C'
p1459
I4
sS'YLR436C'
p1460
I1
sS'YOR028C'
p1461
I2
sS'YBR179C'
p1462
I1
sS'YDR282C'
p1463
I2
sS'YPL155C'
p1464
I1
sS'YJR097W'
p1465
I6
sS'YPR091C'
p1466
I1
sS'YLR351C'
p1467
I8
sS'YOL094C'
p1468
I2
sS'YPR031W'
p1469
I1
sS'YAL002W'
p1470
I0
sS'YJL095W'
p1471
I0
sS'YHR018C'
p1472
I8
sS'YDR408C'
p1473
I10
sS'YOR260W'
p1474
I3
sS'YBR126C'
p1475
I4
sS'YOL149W'
p1476
I6
sS'YLR257W'
p1477
I30
sS'YGL202W'
p1478
I6
sS'YPL106C'
p1479
I12
sS'YLR173W'
p1480
I1
sS'YOR046C'
p1481
I10
sS'YKR035W-A'
p1482
I8
sS'YNL141W'
p1483
I9
sS'YBL026W'
p1484
I13
sS'YMR220W'
p1485
I5
sS'YPR187W'
p1486
I18
sS'YKL032C'
p1487
I1
sS'YEL018W'
p1488
I4
sS'YDR121W'
p1489
I5
sS'YER125W'
p1490
I1
sS'YDR432W'
p1491
I5
sS'YGR195W'
p1492
I3
sS'YPL211W'
p1493
I26
sS'YMR115W'
p1494
I1
sS'YDL077C'
p1495
I1
sS'YOR222W'
p1496
I9
sS'YOL043C'
p1497
I1
sS'YOL061W'
p1498
I7
sS'YOR206W'
p1499
I7
sS'YGL104C'
p1500
I1
sS'YER152C'
p1501
I3
sS'YLR015W'
p1502
I2
sS'YPL259C'
p1503
I2
sS'YOL100W'
p1504
I1
sS'YNL283C'
p1505
I2
sS'YLR008C'
p1506
I8
sS'YHR210C'
p1507
I1
sS'YPR133W-A'
p1508
I7
sS'YMR219W'
p1509
I0
sS'YBL046W'
p1510
I3
sS'YGR017W'
p1511
I4
sS'YDR031W'
p1512
I3
sS'YJR061W'
p1513
I1
sS'YOL005C'
p1514
I4
sS'YCL054W'
p1515
I5
sS'YOL107W'
p1516
I1
sS'YEL050C'
p1517
I4
sS'YHR036W'
p1518
I2
sS'YHR016C'
p1519
I3
sS'YOL072W'
p1520
I2
sS'YLR450W'
p1521
I1
sS'YNR048W'
p1522
I2
sS'YGL159W'
p1523
I4
sS'YOR155C'
p1524
I3
sS'YGR109C'
p1525
I1
sS'YGL224C'
p1526
I4
sS'YIL017C'
p1527
I1
sS'YNL268W'
p1528
I4
sS'YOR307C'
p1529
I3
sS'YLR396C'
p1530
I1
sS'YHR147C'
p1531
I7
sS'YOL123W'
p1532
I6
sS'YDR132C'
p1533
I1
sS'YML116W'
p1534
I4
sS'YNL084C'
p1535
I8
sS'YGL066W'
p1536
I1
sS'YGR156W'
p1537
I1
sS'YOR070C'
p1538
I1
sS'YLR179C'
p1539
I9
sS'YOR386W'
p1540
I1
sS'YAR042W'
p1541
I1
sS'YOR166C'
p1542
I4
sS'YHR207C'
p1543
I4
sS'YOL086C'
p1544
I230
sS'YHL038C'
p1545
I1
sS'YOR051C'
p1546
I11
sS'YMR313C'
p1547
I1
sS'YDR425W'
p1548
I0
sS'YNL220W'
p1549
I32
sS'YBL007C'
p1550
I1
sS'YGR060W'
p1551
I12
sS'YCL064C'
p1552
I19
sS'YML076C'
p1553
I1
sS'YER174C'
p1554
I6
sS'YML029W'
p1555
I1
sS'YOR140W'
p1556
I0
sS'YOL133W'
p1557
I7
sS'YPR073C'
p1558
I12
sS'YNL313C'
p1559
I2
sS'YHR094C'
p1560
I2
sS'YGL219C'
p1561
I1
sS'YLR127C'
p1562
I1
sS'YPL042C'
p1563
I3
sS'YCR048W'
p1564
I1
sS'YCR033W'
p1565
I1
sS'YER069W'
p1566
I1
sS'YMR091C'
p1567
I3
sS'YER012W'
p1568
I4
sS'YDR104C'
p1569
I1
sS'YDR222W'
p1570
I1
sS'YBL067C'
p1571
I1
sS'YMR208W'
p1572
I3
sS'YHR098C'
p1573
I1
sS'YDL019C'
p1574
I1
sS'YML034W'
p1575
I1
sS'YDL135C'
p1576
I7
sS'YPR023C'
p1577
I3
sS'YLR042C'
p1578
I1
sS'YCR093W'
p1579
I1
sS'YLR144C'
p1580
I1
sS'YEL072W'
p1581
I2
sS'YPR058W'
p1582
I4
sS'YDL020C'
p1583
I4
sS'YDR168W'
p1584
I6
sS'YML061C'
p1585
I2
sS'YGL080W'
p1586
I6
sS'YOR093C'
p1587
I1
sS'YJL186W'
p1588
I5
sS'YER023W'
p1589
I12
sS'YER163C'
p1590
I3
sS'YPL268W'
p1591
I3
sS'YER132C'
p1592
I1
sS'YOR095C'
p1593
I19
sS'YPL140C'
p1594
I2
sS'YBR069C'
p1595
I10
sS'YML016C'
p1596
I2
sS'YGL040C'
p1597
I10
sS'YKR084C'
p1598
I3
sS'YDL017W'
p1599
I1
sS'YDR512C'
p1600
I2
sS'YDR113C'
p1601
I2
sS'YLL031C'
p1602
I1
sS'YPL116W'
p1603
I1
sS'YDR058C'
p1604
I1
sS'YLR088W'
p1605
I2
sS'YBR021W'
p1606
I0
sS'YLR438C-A'
p1607
I13
sS'YGR255C'
p1608
I2
sS'YNL156C'
p1609
I8
sS'YGL110C'
p1610
I3
sS'YDL051W'
p1611
I23
sS'YDR179W-A'
p1612
I3
sS'YGL263W'
p1613
I1
sS'YBL102W'
p1614
I10
sS'YIL038C'
p1615
I2
sS'YGR282C'
p1616
I19
sS'YNL183C'
p1617
I1
sS'YCR030C'
p1618
I1
sS'YMR077C'
p1619
I4
sS'YPL183C'
p1620
I4
sS'YDR166C'
p1621
I1
sS'YKR088C'
p1622
I6
sS'YNL068C'
p1623
I1
sS'YGR204W'
p1624
I4
sS'YMR198W'
p1625
I2
sS'YJR080C'
p1626
I1
sS'YJL005W'
p1627
I0
sS'YJL050W'
p1628
I4
sS'YDL192W'
p1629
I85
sS'YOL095C'
p1630
I1
sS'YDR146C'
p1631
I1
sS'YKR063C'
p1632
I3
sS'YPL158C'
p1633
I1
sS'YDR248C'
p1634
I4
sS'YJR016C'
p1635
I20
sS'YDL202W'
p1636
I2
sS'YDL100C'
p1637
I16
sS'YFL008W'
p1638
I1
sS'YDR337W'
p1639
I4
sS'YOL006C'
p1640
I3
sS'YJL061W'
p1641
I3
sS'YLR216C'
p1642
I16
sS'YDR217C'
p1643
I1
sS'YGR063C'
p1644
I9
sS'YDR441C'
p1645
I2
sS'YGL140C'
p1646
I1
sS'YPL094C'
p1647
I12
sS'YNL020C'
p1648
I1
sS'YOR101W'
p1649
I7
sS'YLR290C'
p1650
I3
sS'YER090W'
p1651
I3
sS'YIL123W'
p1652
I3
sS'YMR246W'
p1653
I6
sS'YMR035W'
p1654
I3
sS'YDR231C'
p1655
I2
sS'YLR352W'
p1656
I0
sS'YJL112W'
p1657
I3
sS'YCR015C'
p1658
I3
sS'YHR152W'
p1659
I4
sS'YKR011C'
p1660
I2
sS'YPR018W'
p1661
I1
sS'YDR159W'
p1662
I1
sS'YNL095C'
p1663
I1
sS'YGL185C'
p1664
I2
sS'YMR059W'
p1665
I3
sS'YDR062W'
p1666
I7
sS'YLL033W'
p1667
I2
sS'YML058W'
p1668
I11
sS'YML123C'
p1669
I38
sS'YOR251C'
p1670
I5
sS'YER034W'
p1671
I2
sS'YJR076C'
p1672
I5
sS'YHR190W'
p1673
I5
sS'YLR106C'
p1674
I0
sS'YKR065C'
p1675
I3
sS'YKL157W'
p1676
I2
sS'YKR002W'
p1677
I1
sS'YGR044C'
p1678
I3
sS'YOL159C-A'
p1679
I4
sS'YBR003W'
p1680
I2
sS'YDR200C'
p1681
I1
sS'YPL050C'
p1682
I13
sS'YBR068C'
p1683
I15
sS'YDR279W'
p1684
I3
sS'YDL113C'
p1685
I2
sS'YNL138W-A'
p1686
I3
sS'YNL011C'
p1687
I4
sS'YDR357C'
p1688
I6
sS'YDL099W'
p1689
I3
sS'YGL226C-A'
p1690
I8
sS'YPL067C'
p1691
I1
sS'YBR130C'
p1692
I2
sS'YJR021C'
p1693
I1
sS'YLR274W'
p1694
I3
sS'YPR016C'
p1695
I8
sS'YBR247C'
p1696
I3
sS'YBL040C'
p1697
I19
sS'YDR463W'
p1698
I3
sS'YIL001W'
p1699
I1
sS'YAL010C'
p1700
I1
sS'YIL154C'
p1701
I3
sS'YPL149W'
p1702
I6
sS'YIL047C'
p1703
I4
sS'YBR165W'
p1704
I5
sS'YHR097C'
p1705
I1
sS'YDL220C'
p1706
I0
sS'YGR170W'
p1707
I1
sS'YHR075C'
p1708
I1
sS'YKL004W'
p1709
I3
sS'YOR208W'
p1710
I1
sS'YNL142W'
p1711
I1
sS'YMR250W'
p1712
I1
sS'YFR031C'
p1713
I2
sS'YMR083W'
p1714
I12
sS'YHR019C'
p1715
I11
sS'YJR129C'
p1716
I1
sS'YOR367W'
p1717
I3
sS'YDR281C'
p1718
I7
sS'YAL003W'
p1719
I67
sS'YIL149C'
p1720
I1
sS'YNL271C'
p1721
I0
sS'YLR200W'
p1722
I8
sS'YPL075W'
p1723
I1
sS'YLR258W'
p1724
I2
sS'YPL213W'
p1725
I5
sS'YNR015W'
p1726
I3
sS'YJR098C'
p1727
I1
sS'YBR127C'
p1728
I14
sS'YLR350W'
p1729
I3
sS'YMR253C'
p1730
I1
sS'YFL024C'
p1731
I1
sS'YPL243W'
p1732
I11
sS'YAL061W'
p1733
I1
sS'YGR163W'
p1734
I2
sS'YGL126W'
p1735
I4
sS'YKL022C'
p1736
I1
sS'YLR018C'
p1737
I6
sS'YNL164C'
p1738
I6
sS'YOR012W'
p1739
I2
sS'YBL092W'
p1740
I135
sS'YDR368W'
p1741
I6
sS'YBR101C'
p1742
I12
sS'YLR147C'
p1743
I4
sS'YDL164C'
p1744
I1
sS'YJR050W'
p1745
I5
sS'YLR105C'
p1746
I5
sS'YHR132W-A'
p1747
I8
sS'YKL008C'
p1748
I10
sS'YDR375C'
p1749
I2
sS'YHR062C'
p1750
I3
sS'YIL014W'
p1751
I4
sS'YBR149W'
p1752
I3
sS'YGL210W'
p1753
I4
sS'YPR110C'
p1754
I23
sS'YDR088C'
p1755
I3
sS'YCR020C-A'
p1756
I8
sS'YKL042W'
p1757
I1
sS'YLR376C'
p1758
I2
sS'YNL158W'
p1759
I4
sS'YNL066W'
p1760
I5
sS'YLR453C'
p1761
I1
sS'YPL112C'
p1762
I4
sS'YPL030W'
p1763
I2
sS'YAL058W'
p1764
I2
sS'YDR452W'
p1765
I5
sS'YLR316C'
p1766
I3
sS'YDR319C'
p1767
I3
sS'YFR022W'
p1768
I0
sS'YKL095W'
p1769
I1
sS'YJR136C'
p1770
I4
sS'YGL225W'
p1771
I8
sS'YHR037W'
p1772
I1
sS'YJL098W'
p1773
I3
sS'YKL137W'
p1774
I7
sS'YML108W'
p1775
I7
sS'YHR017W'
p1776
I4
sS'YOL044W'
p1777
I3
sS'YHR148W'
p1778
I6
sS'YLR323C'
p1779
I3
sS'YOL028C'
p1780
I2
sS'YDR186C'
p1781
I2
sS'YBR103W'
p1782
I4
sS'YBL038W'
p1783
I8
sS'YML117W'
p1784
I1
sS'YGL067W'
p1785
I2
sS'YDR424C'
p1786
I9
sS'YGR189C'
p1787
I5
sS'YNL278W'
p1788
I0
sS'YIR003W'
p1789
I1
sS'YOR069W'
p1790
I3
sS'YGR038W'
p1791
I3
sS'YKR001C'
p1792
I5
sS'YER140W'
p1793
I2
sS'YOR363C'
p1794
I1
sS'YNL087W'
p1795
I3
sS'YFL029C'
p1796
I2
sS'YNL223W'
p1797
I1
sS'YOR196C'
p1798
I5
sS'YBR227C'
p1799
I2
sS'YLR318W'
p1800
I1
sS'YBR278W'
p1801
I4
sS'YFR055W'
p1802
I16
sS'YOR067C'
p1803
I3
sS'YOR273C'
p1804
I2
sS'YNL024C-A'
p1805
I15
sS'YDR296W'
p1806
I3
sS'YGL232W'
p1807
I8
sS'YPL107W'
p1808
I2
sS'YMR108W'
p1809
I6
sS'YGR141W'
p1810
I3
sS'YOR109W'
p1811
I1
sS'YIL030C'
p1812
I1
sS'YIL116W'
p1813
I13
sS'YMR123W'
p1814
I6
sS'YPL032C'
p1815
I1
sS'YGR094W'
p1816
I7
sS'YJR138W'
p1817
I1
sS'YLR442C'
p1818
I2
sS'YDR191W'
p1819
I2
sS'YJR103W'
p1820
I3
sS'YHR028C'
p1821
I2
sS'YBR265W'
p1822
I3
sS'YOR381W'
p1823
I1
sS'YFR048W'
p1824
I2
sS'YBR287W'
p1825
I2
sS'YNR037C'
p1826
I5
sS'YDL044C'
p1827
I3
sS'YCL024W'
p1828
I1
sS'YMR307W'
p1829
I16
sS'YPL271W'
p1830
I5
sS'YAL032C'
p1831
I1
sS'YGL145W'
p1832
I2
sS'YGL112C'
p1833
I4
sS'YHR137W'
p1834
I10
sS'YOR021C'
p1835
I22
sS'YBR230C'
p1836
I2
sS'YNL252C'
p1837
I2
sS'YBR187W'
p1838
I17
sS'YNL046W'
p1839
I6
sS'YER133W'
p1840
I32
sS'YGL248W'
p1841
I2
sS'YKL197C'
p1842
I0
sS'YHR077C'
p1843
I2
sS'YCR003W'
p1844
I9
sS'YOR342C'
p1845
I4
sS'YER020W'
p1846
I1
sS'YER162C'
p1847
I1
sS'YOR020W-A'
p1848
I4
sS'YNL255C'
p1849
I37
sS'YDR511W'
p1850
I1
sS'YML011C'
p1851
I4
sS'YKL035W'
p1852
I5
sS'YNL201C'
p1853
I1
sS'YDL190C'
p1854
I2
sS'YCR028C-A'
p1855
I10
sS'YMR210W'
p1856
I2
sS'YHR102W'
p1857
I1
sS'YHR030C'
p1858
I4
sS'YDR043C'
p1859
I3
sS'YGR076C'
p1860
I3
sS'YER075C'
p1861
I1
sS'YJL187C'
p1862
I1
sS'YOR250C'
p1863
I1
sS'YEL015W'
p1864
I6
sS'YBL103C'
p1865
I2
sS'YEL040W'
p1866
I16
sS'YKR085C'
p1867
I9
sS'YPR131C'
p1868
I10
sS'YPL045W'
p1869
I2
sS'YLR418C'
p1870
I7
sS'YLR224W'
p1871
I3
sS'YPL128C'
p1872
I0
sS'YOL078W'
p1873
I1
sS'YLR063W'
p1874
I2
sS'YER059W'
p1875
I2
sS'YMR243C'
p1876
I16
sS'YGL111W'
p1877
I5
sS'YLR271W'
p1878
I2
sS'YBR289W'
p1879
I1
sS'YOR136W'
p1880
I5
sS'YOR132W'
p1881
I1
sS'YBL025W'
p1882
I5
sS'YLR102C'
p1883
I1
sS'YOL066C'
p1884
I2
sS'YLR388W'
p1885
I102
sS'YKL212W'
p1886
I8
sS'YJL071W'
p1887
I2
sS'YGL167C'
p1888
I2
sS'YHR115C'
p1889
I2
sS'YOR223W'
p1890
I2
sS'YER124C'
p1891
I16
sS'YEL022W'
p1892
I1
sS'YPL188W'
p1893
I3
sS'YPR188C'
p1894
I7
sS'YIL053W'
p1895
I40
sS'YDL074C'
p1896
I5
sS'YNL073W'
p1897
I2
sS'YOR374W'
p1898
I1
sS'YJL190C'
p1899
I316
sS'YKL001C'
p1900
I8
sS'YLR052W'
p1901
I2
sS'YGL107C'
p1902
I2
sS'YOR269W'
p1903
I1
sS'YOR212W'
p1904
I7
sS'YPL256C'
p1905
I2
sS'YDR520C'
p1906
I2
sS'YKL201C'
p1907
I1
sS'YLL049W'
p1908
I2
sS'YMR221C'
p1909
I2
sS'YOL026C'
p1910
I4
sS'YNL106C'
p1911
I0
sS'YDL069C'
p1912
I2
sS'YGR016W'
p1913
I2
sS'YEL053C'
p1914
I1
sS'YDR236C'
p1915
I6
sS'YJL042W'
p1916
I0
sS'YER037W'
p1917
I2
sS'YPL037C'
p1918
I76
sS'YER057C'
p1919
I8
sS'YCR092C'
p1920
I1
sS'YKL145W'
p1921
I12
sS'YJL111W'
p1922
I8
sS'YCR014C'
p1923
I2
sS'YMR211W'
p1924
I4
sS'YKR010C'
p1925
I1
sS'YKR051W'
p1926
I3
sS'YMR034C'
p1927
I1
sS'YLL010C'
p1928
I2
sS'YMR058W'
p1929
I3
sS'YDR061W'
p1930
I4
sS'YNL113W'
p1931
I9
sS'YJR112W-A'
p1932
I6
sS'YOR290C'
p1933
I0
sS'YKL114C'
p1934
I6
sS'YML093W'
p1935
I4
sS'YJR077C'
p1936
I3
sS'YHR197W'
p1937
I4
sS'YCR081W'
p1938
I0
sS'YBR002C'
p1939
I6
sS'YDR391C'
p1940
I2
sS'YPR106W'
p1941
I1
sS'YFR015C'
p1942
I0
sS'YDR276C'
p1943
I22
sS'YGR261C'
p1944
I3
sS'YKL154W'
p1945
I8
sS'YGR180C'
p1946
I19
sS'YDR158W'
p1947
I25
sS'YOR111W'
p1948
I2
sS'YMR116C'
p1949
I238
sS'YOL019W'
p1950
I1
sS'YOR164C'
p1951
I13
sS'YLR107W'
p1952
I6
sS'YMR073C'
p1953
I3
sS'YPL082C'
p1954
I1
sS'YDR323C'
p1955
I2
sS'YGL030W'
p1956
I225
sS'YGR283C'
p1957
I7
sS'YDL052C'
p1958
I2
sS'YER175C'
p1959
I2
sS'YMR308C'
p1960
I4
sS'YJL178C'
p1961
I11
sS'YIL084C'
p1962
I1
sS'YLR429W'
p1963
I5
sS'YDL183C'
p1964
I2
sS'YMR218C'
p1965
I2
sS'YDR050C'
p1966
I231
sS'YGR061C'
p1967
I5
sS'YLL007C'
p1968
I1
sS'YLL048C'
p1969
I2
sS'YCR032W'
p1970
I1
sS'YNL312W'
p1971
I5
sS'YDR105C'
p1972
I3
sS'YOR271C'
p1973
I4
sS'YMR287C'
p1974
I1
sS'YPL241C'
p1975
I2
sS'YGL120C'
p1976
I4
sS'YLR145W'
p1977
I4
sS'YGR271C-A'
p1978
I13
sS'YDR169C'
p1979
I1
sS'YLR098C'
p1980
I1
sS'YNR041C'
p1981
I4
sS'YPR022C'
p1982
I1
sS'YLR110C'
p1983
I193
sS'YIR038C'
p1984
I3
sS'YHR099W'
p1985
I0
sS'YEL071W'
p1986
I34
sS'YKR058W'
p1987
I1
sS'YBR098W'
p1988
I1
sS'YML062C'
p1989
I6
sS'YPL233W'
p1990
I4
sS'YOR040W'
p1991
I2
sS'YNL041C'
p1992
I2
sS'YFL050C'
p1993
I1
sS'YDR369C'
p1994
I1
sS'YBR106W'
p1995
I62
sS'YKL132C'
p1996
I1
sS'YBL093C'
p1997
I13
sS'YKL054C'
p1998
I4
sS'YLR390W-A'
p1999
I9
sS'YHR171W'
p2000
I1
sS'YGR162W'
p2001
I7
sS'YDL165W'
p2002
I6
sS'YGR227W'
p2003
I1
sS'YDR258C'
p2004
I1
sS'YDR032C'
p2005
I12
sS'YJL124C'
p2006
I7
sS'YOR076C'
p2007
I2
sS'YDR179C'
p2008
I3
sS'YLR253W'
p2009
I3
sS'YKL023W'
p2010
I1
sS'YNL165W'
p2011
I1
sS'YJR051W'
p2012
I3
sS'YKL094W'
p2013
I8
sS'YNL022C'
p2014
I5
sS'YDR261C'
p2015
I2
sS'YIL131C'
p2016
I1
sS'YKL143W'
p2017
I6
sS'YBR146W'
p2018
I4
sS'YDR318W'
p2019
I4
sS'YFL034W'
p2020
I1
sS'YPL031C'
p2021
I3
sS'YAL044W-A'
p2022
I3
sS'YKL012W'
p2023
I3
sS'YER080W'
p2024
I2
sS'YJL164C'
p2025
I1
sS'YNL125C'
p2026
I1
sS'YNL065W'
p2027
I4
sS'YJR019C'
p2028
I1
sS'YJR135C'
p2029
I3
sS'YDR321W'
p2030
I10
sS'YFR032C-A'
p2031
I247
sS'YGL213C'
p2032
I3
sS'YNL178W'
p2033
I322
sS'YDR147W'
p2034
I3
sS'YJL004C'
p2035
I9
sS'YMR031C'
p2036
I2
sS'YBL080C'
p2037
I1
sS'YMR076C'
p2038
I1
sS'YGR205W'
p2039
I1
sS'YDR356W'
p2040
I1
sS'YMR136W'
p2041
I1
sS'YDR167W'
p2042
I6
sS'YJL051W'
p2043
I1
sS'YPR074C'
p2044
I9
sS'YJR017C'
p2045
I2
sS'YPL180W'
p2046
I1
sS'YHR057C'
p2047
I4
sS'YHR118C'
p2048
I1
sS'YOR380W'
p2049
I1
sS'YNL027W'
p2050
I1
sS'YPL022W'
p2051
I2
sS'YDR440W'
p2052
I1
sS'YJL060W'
p2053
I1
sS'YDL101C'
p2054
I2
sS'YDL205C'
p2055
I6
sS'YML080W'
p2056
I5
sS'YNL099C'
p2057
I5
sS'YMR027W'
p2058
I5
sS'YLR291C'
p2059
I3
sS'YDR210W'
p2060
I17
sS'YGR048W'
p2061
I4
sS'YDL230W'
p2062
I2
sS'YOR259C'
p2063
I13
sS'YML115C'
p2064
I3
sS'YJR113C'
p2065
I5
sS'YBR279W'
p2066
I3
sS'YGR024C'
p2067
I12
sS'YOR281C'
p2068
I7
sS'YIL117C'
p2069
I8
sS'YAL055W'
p2070
I1
sS'YHR041C'
p2071
I2
sS'YOL052C'
p2072
I2
sS'YGR140W'
p2073
I1
sS'YDR475C'
p2074
I1
sS'YPL137C'
p2075
I1
sS'YNL116W'
p2076
I1
sS'YOR278W'
p2077
I3
sS'YGR097W'
p2078
I1
sS'YHR156C'
p2079
I2
sS'YBR151W'
p2080
I7
sS'YCL025C'
p2081
I1
sS'YBR184W'
p2082
I1
sS'YGL231C'
p2083
I11
sS'YGR157W'
p2084
I3
sS'YNL282W'
p2085
I5
sS'YBR286W'
p2086
I10
sS'YGL144C'
p2087
I1
sS'YBR168W'
p2088
I2
sS'YDR297W'
p2089
I4
sS'YAL031C'
p2090
I1
sS'YBL006C'
p2091
I12
sS'YLR340W'
p2092
I44
sS'YGR108W'
p2093
I10
sS'YMR070W'
p2094
I1
sS'YBR264C'
p2095
I3
sS'YBR231C'
p2096
I1
sS'YHR162W'
p2097
I75
sS'YBR246W'
p2098
I3
sS'YPL110C'
p2099
I1
sS'YGR207C'
p2100
I9
sS'YLR275W'
p2101
I4
sS'YOR004W'
p2102
I15
sS'YOR073W'
p2103
I1
sS'YDR212W'
p2104
I9
sS'YBR166C'
p2105
I6
sS'YDR462W'
p2106
I4
sS'YKL043W'
p2107
I1
sS'YIL155C'
p2108
I0
sS'YGR171C'
p2109
I1
sS'YDL227C'
p2110
I3
sS'YPL065W'
p2111
I1
sS'YAL048C'
p2112
I1
sS'YPL055C'
p2113
I1
sS'YPL210C'
p2114
I9
sS'YAL013W'
p2115
I1
sS'YGL093W'
p2116
I1
sS'YDR098C'
p2117
I10
sS'YOR371C'
p2118
I0
sS'YNR003C'
p2119
I6
sS'YOR330C'
p2120
I1
sS'YGL200C'
p2121
I17
sS'YJR099W'
p2122
I4
sS'YOR019W'
p2123
I1
sS'YOR044W'
p2124
I7
sS'YNL052W'
p2125
I5
sS'YNL192W'
p2126
I3
sS'YPL157W'
p2127
I5
sS'YKL005C'
p2128
I2
sS'YBR120C'
p2129
I3
sS'YLR085C'
p2130
I3
sS'YDR280W'
p2131
I11
sS'YOR179C'
p2132
I3
sS'YKL215C'
p2133
I1
sS'YGL166W'
p2134
I6
sS'YHR114W'
p2135
I1
sS'YHR138C'
p2136
I2
sS'YEL023C'
p2137
I1
sS'YMR241W'
p2138
I18
sS'YOL067C'
p2139
I1
sS'YGL079W'
p2140
I1
sS'YDL075W'
p2141
I137
sS'YDR127W'
p2142
I1
sS'YCL034W'
p2143
I5
sS'YOL018C'
p2144
I4
sS'YBR288C'
p2145
I4
sS'YOR220W'
p2146
I5
sS'YKR092C'
p2147
I7
sS'YMR222C'
p2148
I1
sS'YGR197C'
p2149
I1
sS'YMR284W'
p2150
I1
sS'YOR065W'
p2151
I1
sS'YNL264C'
p2152
I2
sS'YNL155W'
p2153
I8
sS'YPR158W'
p2154
I2
sS'YOR142W'
p2155
I4
sS'YDR434W'
p2156
I5
sS'YGL106W'
p2157
I19
sS'YOL027C'
p2158
I2
sS'YOR211C'
p2159
I1
sS'YPL257W'
p2160
I2
sS'YDR033W'
p2161
I19
sS'YPL120W'
p2162
I1
sS'YPL117C'
p2163
I19
sS'YIL075C'
p2164
I6
sS'YOL145C'
p2165
I3
sS'YOR022C'
p2166
I1
sS'YHR038W'
p2167
I1
sS'YJL099W'
p2168
I2
sS'YHR149C'
p2169
I1
sS'YIL020C'
p2170
I5
sS'YOL098C'
p2171
I2
sS'YBR208C'
p2172
I1
sS'YNR074C'
p2173
I4
sS'YER074W-A'
p2174
I16
sS'YDR005C'
p2175
I3
sS'YHL025W'
p2176
I11
sS'YGL091C'
p2177
I7
sS'YOL045W'
p2178
I1
sS'YFR010W'
p2179
I5
sS'YHL009C'
p2180
I1
sS'YDL112W'
p2181
I1
sS'YHL021C'
p2182
I2
sS'YJL109C'
p2183
I2
sS'YHR205W'
p2184
I1
sS'YGR037C'
p2185
I17
sS'YIL008W'
p2186
I10
sS'YOR236W'
p2187
I3
sS'YBL039C'
p2188
I14
sS'YGR188C'
p2189
I1
sS'YNR058W'
p2190
I1
sS'YER143W'
p2191
I2
sS'YNL045W'
p2192
I1
sS'YPL012W'
p2193
I4
sS'YGL064C'
p2194
I1
sS'YFR053C'
p2195
I0
sS'YGR284C'
p2196
I9
sS'YDL053C'
p2197
I3
sS'YPR004C'
p2198
I5
sS'YOR122C'
p2199
I54
sS'YIL071C'
p2200
I2
sS'YMR240C'
p2201
I4
sS'YIL005W'
p2202
I1
sS'YKL109W'
p2203
I0
sS'YKR062W'
p2204
I3
sS'YNL286W'
p2205
I3
sS'YMR119W'
p2206
I3
sS'YPR069C'
p2207
I14
sS'YLL006W'
p2208
I1
sS'YMR215W'
p2209
I3
sS'YDR051C'
p2210
I6
sS'YGR062C'
p2211
I3
sS'YML128C'
p2212
I2
sS'YER010C'
p2213
I3
sS'YER176W'
p2214
I1
sS'YIL049W'
p2215
I2
sS'YKR003W'
p2216
I2
sS'YDL180W'
p2217
I3
sS'YGL127C'
p2218
I1
sS'YBR030W'
p2219
I2
sS'YLR336C'
p2220
I4
sS'YDL133W'
p2221
I5
sS'YDL232W'
p2222
I9
sS'YJL019W'
p2223
I0
sS'YDL022W'
p2224
I2
sS'YPR021C'
p2225
I1
sS'YGR244C'
p2226
I2
sS'YOR286W'
p2227
I5
sS'YKR037C'
p2228
I4
sS'YMR271C'
p2229
I2
sS'YBR065C'
p2230
I2
sS'YLR099C'
p2231
I1
sS'YOR149C'
p2232
I1
sS'YGR117C'
p2233
I5
sS'YOR298C-A'
p2234
I48
sS'YML032C'
p2235
I2
sS'YLR146C'
p2236
I5
sS'YDR240C'
p2237
I3
sS'YHR135C'
p2238
I2
sS'YDR429C'
p2239
I31
sS'YHR079C'
p2240
I1
sS'YDL035C'
p2241
I1
sS'YER118C'
p2242
I3
sS'YML010W'
p2243
I2
sS'YDL193W'
p2244
I2
sS'YER021W'
p2245
I10
sS'YBR052C'
p2246
I7
sS'YER134C'
p2247
I4
sS'YEL052W'
p2248
I2
sS'YMR162C'
p2249
I1
sS'YEL009C'
p2250
I24
sS'YER161C'
p2251
I2
sS'YBR083W'
p2252
I1
sS'YHR103W'
p2253
I2
sS'YNR019W'
p2254
I1
sS'YOR001W'
p2255
I2
sS'YNL047C'
p2256
I1
sS'YDR498C'
p2257
I2
sS'YNL240C'
p2258
I2
sS'YOR257W'
p2259
I4
sS'YDR461C-A'
p2260
I5
sS'YGR002C'
p2261
I2
sS'YDR042C'
p2262
I2
sS'YER129W'
p2263
I1
sS'YBR058C-A'
p2264
I24
sS'YOL113W'
p2265
I2
sS'YDR111C'
p2266
I2
sS'YMR120C'
p2267
I25
sS'YGR253C'
p2268
I16
sS'YDR510W'
p2269
I8
sS'YKR082W'
p2270
I2
sS'YLR228C'
p2271
I1
sS'YHR129C'
p2272
I1
sS'YLR019W'
p2273
I2
sS'YCR079W'
p2274
I1
sS'YPR045C'
p2275
I3
sS'YER058W'
p2276
I2
sS'YPR010C'
p2277
I4
sS'YPL231W'
p2278
I3
sS'YLR148W'
p2279
I2
sS'YMR137C'
p2280
I1
sS'YDR164C'
p2281
I1
sS'YKL155C'
p2282
I1
sS'YJR069C'
p2283
I6
sS'YBR162W-A'
p2284
I28
sS'YOR258W'
p2285
I3
sS'YDR119W'
p2286
I5
sS'YGR145W'
p2287
I3
sS'YKR055W'
p2288
I1
sS'YFL042C'
p2289
I0
sS'YDR351W'
p2290
I1
sS'YOL119C'
p2291
I4
sS'YMR188C'
p2292
I11
sS'YDR148C'
p2293
I2
sS'YPL181W'
p2294
I4
sS'YJR034W'
p2295
I2
sS'YLR121C'
p2296
I1
sS'YDL045W-A'
p2297
I3
sS'YOR003W'
p2298
I1
sS'YLR210W'
p2299
I2
sS'YDR490C'
p2300
I1
sS'YNL055C'
p2301
I8
sS'YNL026W'
p2302
I5
sS'YDL106C'
p2303
I1
sS'YDR335W'
p2304
I1
sS'YKR061W'
p2305
I3
sS'YHR081W'
p2306
I8
sS'YGL116W'
p2307
I1
sS'YGR206W'
p2308
I4
sS'YMR039C'
p2309
I6
sS'YPR036W-A'
p2310
I111
sS'YOR239W'
p2311
I3
sS'YPL014W'
p2312
I0
sS'YGR154C'
p2313
I2
sS'YHR181W'
p2314
I6
sS'YNL320W'
p2315
I2
sS'YDR443C'
p2316
I0
sS'YDR211W'
p2317
I6
sS'YCR095C'
p2318
I5
sS'YMR128W'
p2319
I2
sS'YLL011W'
p2320
I7
sS'YCR077C'
p2321
I2
sS'YML130C'
p2322
I2
sS'YJL029C'
p2323
I2
sS'YER056C'
p2324
I27
sS'YGL130W'
p2325
I5
sS'YMR157C'
p2326
I4
sS'YJL033W'
p2327
I3
sS'YER036C'
p2328
I11
sS'YCL005W-A'
p2329
I14
sS'YNL306W'
p2330
I10
sS'YML075C'
p2331
I2
sS'YCR017C'
p2332
I2
sS'YDR237W'
p2333
I4
sS'YOR297C'
p2334
I3
sS'YDR060W'
p2335
I4
sS'YKR048C'
p2336
I6
sS'YMR080C'
p2337
I2
sS'YPR144C'
p2338
I2
sS'YGL187C'
p2339
I9
sS'YMR193W'
p2340
I7
sS'YJL023C'
p2341
I3
sS'YBR001C'
p2342
I1
sS'YNL246W'
p2343
I5
sS'YOR315W'
p2344
I7
sS'YCL033C'
p2345
I4
sS'YHR196W'
p2346
I14
sS'YMR048W'
p2347
I2
sS'YKL108W'
p2348
I1
sS'YPR067W'
p2349
I1
sS'YML092C'
p2350
I9
sS'YJL047C'
p2351
I1
sS'YML025C'
p2352
I2
sS'YDL124W'
p2353
I2
sS'YDR257C'
p2354
I4
sS'YJR074W'
p2355
I4
sS'YNL291C'
p2356
I2
sS'YGR266W'
p2357
I2
sS'YDL148C'
p2358
I4
sS'YJL167W'
p2359
I11
sS'YPL076W'
p2360
I1
sS'YHR163W'
p2361
I7
sS'YMR200W'
p2362
I12
sS'YKL011C'
p2363
I3
sS'YBR167C'
p2364
I3
sS'YIL156W'
p2365
I0
sS'YML002W'
p2366
I1
sS'YPL196W'
p2367
I5
sS'YLR272C'
p2368
I0
sS'YOR005C'
p2369
I1
sS'YDL226C'
p2370
I4
sS'YNR017W'
p2371
I5
sS'YKL059C'
p2372
I1
sS'YFR037C'
p2373
I7
sS'YCL039W'
p2374
I1
sS'YAL049C'
p2375
I5
sS'YJL212C'
p2376
I1
sS'YOR234C'
p2377
I213
sS'YGR136W'
p2378
I4
sS'YNL097C'
p2379
I4
sS'YOR008C'
p2380
I4
sS'YOR018W'
p2381
I1
sS'YDR513W'
p2382
I8
sS'YDR461W'
p2383
I20
sS'YGL201C'
p2384
I1
sS'YGL047W'
p2385
I3
sS'YKL084W'
p2386
I1
sS'YBR121C'
p2387
I17
sS'YDL146W'
p2388
I1
sS'YKL133C'
p2389
I1
sS'YJR052W'
p2390
I2
sS'YKL188C'
p2391
I1
sS'YMR062C'
p2392
I4
sS'YLR292C'
p2393
I13
sS'YKL020C'
p2394
I1
sS'YHR170W'
p2395
I12
sS'YJL125C'
p2396
I4
sS'YLR312W-A'
p2397
I8
sS'YBL090W'
p2398
I8
sS'YLR262C-A'
p2399
I42
sS'YPR034W'
p2400
I3
sS'YKL068W'
p2401
I2
sS'YPL129W'
p2402
I8
sS'YDL166C'
p2403
I7
sS'YDR260C'
p2404
I3
sS'YKL142W'
p2405
I8
sS'YPL049C'
p2406
I3
sS'YGL212W'
p2407
I2
sS'YNL122C'
p2408
I3
sS'YLR045C'
p2409
I2
sS'YER081W'
p2410
I9
sS'YIL136W'
p2411
I2
sS'YPL178W'
p2412
I12
sS'YKL019W'
p2413
I3
sS'YPR041W'
p2414
I27
sS'YDR373W'
p2415
I13
sS'YGR233C'
p2416
I1
sS'YDR322W'
p2417
I2
sS'YNL008C'
p2418
I2
sS'YOL111C'
p2419
I2
sS'YDR004W'
p2420
I5
sS'YGL227W'
p2421
I1
sS'YOR350C'
p2422
I1
sS'YFR011C'
p2423
I4
sS'YIL074C'
p2424
I7
sS'YMR312W'
p2425
I1
sS'YIL161W'
p2426
I3
sS'YLL043W'
p2427
I2
sS'YOL144W'
p2428
I2
sS'YMR297W'
p2429
I8
sS'YLR395C'
p2430
I8
sS'YHL008C'
p2431
I1
sS'YOR096W'
p2432
I269
sS'YIL021W'
p2433
I9
sS'YCL016C'
p2434
I3
sS'YHR039C'
p2435
I2
sS'YBR274W'
p2436
I2
sS'YER131W'
p2437
I77
sS'YGL178W'
p2438
I0
sS'YNL249C'
p2439
I2
sS'YMR090W'
p2440
I3
sS'YKL088W'
p2441
I2
sS'YER142C'
p2442
I1
sS'YML119W'
p2443
I4
sS'YGR056W'
p2444
I1
sS'YGR036C'
p2445
I3
sS'YNL225C'
p2446
I3
sS'YKL006C-A'
p2447
I14
sS'YLR084C'
p2448
I1
sS'YGL065C'
p2449
I1
sS'YKR087C'
p2450
I7
sS'YDR180W'
p2451
I0
sS'YOR052C'
p2452
I7
sS'YLR243W'
p2453
I8
sS'YAL001C'
p2454
I1
sS'YLR196W'
p2455
I8
sS'YPL221W'
p2456
I2
sS'YIL036W'
p2457
I1
sS'YPL047W'
p2458
I7
sS'YMR135C'
p2459
I3
sS'YPL236C'
p2460
I2
sS'YHR155W'
p2461
I1
sS'YOR045W'
p2462
I18
sS'YDR476C'
p2463
I1
sS'YEL003W'
p2464
I16
sS'YJR112W'
p2465
I6
sS'YDL231C'
p2466
I1
sS'YBR252W'
p2467
I11
sS'YBR225W'
p2468
I0
sS'YIL110W'
p2469
I8
sS'YPL183W-A'
p2470
I4
sS'YIL158W'
p2471
I5
sS'YJR054W'
p2472
I4
sS'YOR264W'
p2473
I3
sS'YJR083C'
p2474
I2
sS'YOL159C'
p2475
I3
sS'YBR169C'
p2476
I1
sS'YNL135C'
p2477
I32
sS'YAL030W'
p2478
I2
sS'YBR263W'
p2479
I3
sS'YMR305C'
p2480
I6
sS'YBL001C'
p2481
I16
sS'YBR185C'
p2482
I2
sS'YOR010C'
p2483
I1
sS'YDR019C'
p2484
I19
sS'YNL207W'
p2485
I8
sS'YOR232W'
p2486
I17
sS'YGR150C'
p2487
I2
sS'YJR133W'
p2488
I5
sS'YEL065W'
p2489
I4
sS'YEL055C'
p2490
I2
sS'YER119C'
p2491
I1
sS'YGR058W'
p2492
I1
sS'YDR381C-A'
p2493
I5
sS'YMR196W'
p2494
I1
sS'YBR053C'
p2495
I3
sS'YML013W'
p2496
I1
sS'YPL077C'
p2497
I2
sS'YLL058W'
p2498
I1
sS'YDR499W'
p2499
I1
sS'YKL068W-A'
p2500
I9
sS'YBR082C'
p2501
I14
sS'YOR210W'
p2502
I25
sS'YJL133C-A'
p2503
I7
sS'YBL034C'
p2504
I0
sS'YMR252C'
p2505
I2
sS'YJR022W'
p2506
I3
sS'YOL008W'
p2507
I1
sS'YER077C'
p2508
I3
sS'YNL224C'
p2509
I2
sS'YGL246C'
p2510
I8
sS'YCR054C'
p2511
I2
sS'YDR045C'
p2512
I14
sS'YPL232W'
p2513
I7
sS'YKR083C'
p2514
I4
sS'YMR209C'
p2515
I3
sS'YEL017W'
p2516
I2
sS'YGR252W'
p2517
I3
sS'YDL003W'
p2518
I3
sS'YER128W'
p2519
I1
sS'YJR123W'
p2520
I213
sS'YDL078C'
p2521
I10
sS'YGR003W'
p2522
I2
sS'YDR517W'
p2523
I3
sS'YGL043W'
p2524
I5
sS'YOR256C'
p2525
I2
sS'YPR011C'
p2526
I2
sS'YLL061W'
p2527
I1
sS'YDR110W'
p2528
I3
sS'YLR061W'
p2529
I136
sS'YKL214C'
p2530
I1
sS'YOL088C'
p2531
I6
sS'YDR419W'
p2532
I2
sS'YOR361C'
p2533
I12
sS'YOR221C'
p2534
I2
sS'YOR185C'
p2535
I1
sS'YGL113W'
p2536
I1
sS'YKR095W'
p2537
I1
sS'YMR223W'
p2538
I2
sS'YPL214C'
p2539
I2
sS'YGR029W'
p2540
I6
sS'YFL034C-A'
p2541
I66
sS'YOR334W'
p2542
I2
sS'YLR193C'
p2543
I2
sS'YLR154C'
p2544
I4
sS'YBL023C'
p2545
I1
sS'YNR010W'
p2546
I1
sS'YML067C'
p2547
I9
sS'YGL078C'
p2548
I12
sS'YNL079C'
p2549
I35
sS'YDR435C'
p2550
I2
sS'YER151C'
p2551
I1
sS'YIL098C'
p2552
I4
sS'YLR005W'
p2553
I4
sS'YPR052C'
p2554
I17
sS'YLL027W'
p2555
I4
sS'YJL076W'
p2556
I1
sS'YOR382W'
p2557
I2
sS'YOR144C'
p2558
I1
sS'YOR253W'
p2559
I14
sS'YNL069C'
p2560
I101
sS'YNL267W'
p2561
I1
sS'YCL001W'
p2562
I14
sS'YGR198W'
p2563
I2
sS'YKL189W'
p2564
I1
sS'YPR048W'
p2565
I4
sS'YAR007C'
p2566
I3
sS'YLR050C'
p2567
I3
sS'YGR010W'
p2568
I1
sS'YML064C'
p2569
I11
sS'YKR091W'
p2570
I1
sS'YER055C'
p2571
I57
sS'YNL307C'
p2572
I4
sS'YCR016W'
p2573
I5
sS'YLL012W'
p2574
I1
sS'YCL052C'
p2575
I4
sS'YDR067C'
p2576
I6
sS'YMR056C'
p2577
I1
sS'YHR167W'
p2578
I5
sS'YLR218C'
p2579
I2
sS'YLR087C'
p2580
I0
sS'YJL044C'
p2581
I4
sS'YCR094W'
p2582
I1
sS'YGL186C'
p2583
I8
sS'YDR234W'
p2584
I3
sS'YGL085W'
p2585
I3
sS'YGL131C'
p2586
I0
sS'YGR218W'
p2587
I2
sS'YEL060C'
p2588
I1
sS'YKR049C'
p2589
I3
sS'YPL145C'
p2590
I9
sS'YPR179C'
p2591
I2
sS'YHR195W'
p2592
I6
sS'YGR267C'
p2593
I13
sS'YDL149W'
p2594
I0
sS'YDL125C'
p2595
I14
sS'YJL149W'
p2596
I1
sS'YPR006C'
p2597
I1
sS'YMR114C'
p2598
I1
sS'YPL002C'
p2599
I4
sS'YGL022W'
p2600
I4
sS'YML079W'
p2601
I5
sS'YKL017C'
p2602
I1
sS'YMR049C'
p2603
I2
sS'YDR229W'
p2604
I4
sS'YJR075W'
p2605
I6
sS'YPR124W'
p2606
I11
sS'YJL213W'
p2607
I5
sS'YLL029W'
p2608
I2
sS'YDL181W'
p2609
I2
sS'YOR344C'
p2610
I3
sS'YGR285C'
p2611
I12
sS'YNL232W'
p2612
I9
sS'YDR374W-A'
p2613
I5
sS'YER017C'
p2614
I1
sS'YBR022W'
p2615
I5
sS'YMR214W'
p2616
I3
sS'YBR079C'
p2617
I4
sS'YER177W'
p2618
I57
sS'YDR500C'
p2619
I112
sS'YGL032C'
p2620
I3
sS'YMR176W'
p2621
I1
sS'YCL063W'
p2622
I1
sS'YER048C'
p2623
I6
sS'YPR020W'
p2624
I5
sS'YML048W'
p2625
I5
sS'YNL112W'
p2626
I14
sS'YLR027C'
p2627
I5
sS'YDR107C'
p2628
I1
sS'YDL132W'
p2629
I3
sS'YBL064C'
p2630
I2
sS'YGR245C'
p2631
I4
sS'YOR148C'
p2632
I5
sS'YLR047C'
p2633
I1
sS'YDR497C'
p2634
I10
sS'YDL025C'
p2635
I2
sS'YGR229C'
p2636
I7
sS'YMR270C'
p2637
I6
sS'YLR293C'
p2638
I15
sS'YDL147W'
p2639
I15
sS'YJR053W'
p2640
I1
sS'YPR065W'
p2641
I1
sS'YBR104W'
p2642
I10
sS'YPL005W'
p2643
I1
sS'YJL171C'
p2644
I3
sS'YBL091C'
p2645
I4
sS'YPR072W'
p2646
I3
sS'YOR262W'
p2647
I5
sS'YIL041W'
p2648
I3
sS'YHR061C'
p2649
I1
sS'YNL242W'
p2650
I0
sS'YDL167C'
p2651
I4
sS'YER082C'
p2652
I6
sS'YIL137C'
p2653
I1
sS'YKL069W'
p2654
I4
sS'YNL123W'
p2655
I3
sS'YMR003W'
p2656
I2
sS'YDR372C'
p2657
I13
sS'YBR119W'
p2658
I2
sS'YPL179W'
p2659
I2
sS'YEL056W'
p2660
I4
sS'YLR373C'
p2661
I1
sS'YKL092C'
p2662
I1
sS'YFL016C'
p2663
I3
sS'YDR451C'
p2664
I4
sS'YDR322C-A'
p2665
I11
sS'YJL162C'
p2666
I2
sS'YKL198C'
p2667
I1
sS'YLR260W'
p2668
I1
sS'YDR085C'
p2669
I0
sS'YNL032W'
p2670
I7
sS'YPR109W'
p2671
I4
sS'YKL152C'
p2672
I351
sS'YJR035W'
p2673
I1
sS'YDR350C'
p2674
I2
sS'YPL126W'
p2675
I4
sS'YMR129W'
p2676
I1
sS'YKR054C'
p2677
I0
sS'YMR001C'
p2678
I4
sS'YJL006C'
p2679
I4
sS'YPL118W'
p2680
I5
sS'YBL082C'
p2681
I2
sS'YDL081C'
p2682
I213
sS'YIR034C'
p2683
I1
sS'YMR138W'
p2684
I3
sS'YDR165W'
p2685
I8
sS'YGL013C'
p2686
I1
sS'YLR191W'
p2687
I4
sS'YFL018C'
p2688
I4
sS'YJR068W'
p2689
I7
sS'YJL139C'
p2690
I2
sS'YDL178W'
p2691
I9
sS'YER095W'
p2692
I3
sS'YLR456W'
p2693
I2
sS'YHR080C'
p2694
I1
sS'YML086C'
p2695
I2
sS'YKR030W'
p2696
I5
sS'YDL207W'
p2697
I2
sS'YDR334W'
p2698
I1
sS'YPL015C'
p2699
I1
sS'YLR211C'
p2700
I1
sS'YLR375W'
p2701
I3
sS'YDR514C'
p2702
I3
sS'YJL066C'
p2703
I1
sS'YHR182W'
p2704
I1
sS'YDL107W'
p2705
I2
sS'YNR029C'
p2706
I4
sS'YGR091W'
p2707
I1
sS'YBR122C'
p2708
I11
sS'YHR001W'
p2709
I5
sS'YDR477W'
p2710
I1
sS'YJL010C'
p2711
I3
sS'YOL105C'
p2712
I1
sS'YBR199W'
p2713
I11
sS'YLR242C'
p2714
I4
sS'YMR088C'
p2715
I3
sS'YJR148W'
p2716
I21
sS'YBR253W'
p2717
I6
sS'YIL035C'
p2718
I10
sS'YIL111W'
p2719
I7
sS'YIL159W'
p2720
I0
sS'YBR153W'
p2721
I4
sS'YJR082C'
p2722
I4
sS'YLR346C'
p2723
I2
sS'YOL087C'
p2724
I1
sS'YNL134C'
p2725
I3
sS'YJR106W'
p2726
I0
sS'YJL084C'
p2727
I0
sS'YHR154W'
p2728
I1
sS'YOL007C'
p2729
I2
sS'YPR134W'
p2730
I4
sS'YDR291W'
p2731
I1
sS'YHL014C'
p2732
I2
sS'YBR262C'
p2733
I9
sS'YMR304W'
p2734
I0
sS'YGR041W'
p2735
I1
sS'YKL010C'
p2736
I1
sS'YMR038C'
p2737
I11
sS'YPL255W'
p2738
I2
sS'YMR289W'
p2739
I3
sS'YOL012C'
p2740
I4
sS'YPL168W'
p2741
I2
sS'YOR128C'
p2742
I9
sS'YAL015C'
p2743
I2
sS'YFL036W'
p2744
I0
sS'YGR177C'
p2745
I2
sS'YDL209C'
p2746
I4
sS'YKL045W'
p2747
I3
sS'YMR239C'
p2748
I6
sS'YIL157C'
p2749
I6
sS'YIL051C'
p2750
I20
sS'YPL057C'
p2751
I1
sS'YNL074C'
p2752
I1
sS'YDR365C'
p2753
I10
sS'YPL151C'
p2754
I3
sS'YKL007W'
p2755
I6
sS'YNL169C'
p2756
I2
sS'YFR034C'
p2757
I3
sS'YKL185W'
p2758
I3
sS'YDL225W'
p2759
I4
sS'YCL038C'
p2760
I1
sS'YHR070W'
p2761
I2
sS'YDR460W'
p2762
I3
sS'YMR028W'
p2763
I2
sS'YOR377W'
p2764
I3
sS'YLR364W'
p2765
I2
sS'YKL058W'
p2766
I11
sS'YKL085W'
p2767
I5
sS'YJR124C'
p2768
I4
sS'YHL047C'
p2769
I2
sS'YOR360C'
p2770
I10
sS'YOR227W'
p2771
I1
sS'YOL089C'
p2772
I1
sS'YDR416W'
p2773
I3
sS'YGL129C'
p2774
I2
sS'YLL026W'
p2775
I3
sS'YHR023W'
p2776
I1
sS'YOL065C'
p2777
I2
sS'YGL251C'
p2778
I0
sS'YLL019C'
p2779
I1
sS'YBL022C'
p2780
I1
sS'YGL164C'
p2781
I2
sS'YER156C'
p2782
I6
sS'YNL298W'
p2783
I1
sS'YGR013W'
p2784
I1
sS'YML103C'
p2785
I1
sS'YEL038W'
p2786
I7
sS'YCL014W'
p2787
I0
sS'YOL025W'
p2788
I0
sS'YGL172W'
p2789
I7
sS'YCL002C'
p2790
I4
sS'YGL108C'
p2791
I4
sS'YPL040C'
p2792
I0
sS'YKL151C'
p2793
I3
sS'YLR051C'
p2794
I10
sS'YDR388W'
p2795
I4
sS'YGR199W'
p2796
I3
sS'YLR289W'
p2797
I1
sS'YPL208W'
p2798
I3
sS'YLR306W'
p2799
I3
sS'YOL147C'
p2800
I1
sS'YNL280C'
p2801
I4
sS'YDR007W'
p2802
I8
sS'YOR284W'
p2803
I1
sS'YGL220W'
p2804
I11
sS'YPR089W'
p2805
I1
sS'YBR233W'
p2806
I1
sS'YPL122C'
p2807
I2
sS'YMR295C'
p2808
I11
sS'YOR328W'
p2809
I1
sS'YGR082W'
p2810
I5
sS'YMR291W'
p2811
I1
sS'YKL113C'
p2812
I6
sS'YKL104C'
p2813
I3
sS'YHR012W'
p2814
I7
sS'YDR436W'
p2815
I1
sS'YHL027W'
p2816
I2
sS'YKL116C'
p2817
I1
sS'YHR202W'
p2818
I1
sS'YLR285W'
p2819
I6
sS'YGR119C'
p2820
I7
sS'YGR035C'
p2821
I5
sS'YDR181C'
p2822
I2
sS'YOL127W'
p2823
I230
sS'YHR039C-A'
p2824
I15
sS'YLR326W'
p2825
I2
sS'YGL179C'
p2826
I1
sS'YAL020C'
p2827
I2
sS'YPL048W'
p2828
I4
sS'YBR275C'
p2829
I0
sS'YDR539W'
p2830
I3
sS'YMR212C'
p2831
I4
sS'YBR025C'
p2832
I24
sS'YML001W'
p2833
I22
sS'YLL028W'
p2834
I1
sS'YOR187W'
p2835
I7
sS'YER016W'
p2836
I6
sS'YDR501W'
p2837
I1
sS'YGR286C'
p2838
I6
sS'YCR037C'
p2839
I3
sS'YMR044W'
p2840
I3
sS'YHR004C'
p2841
I3
sS'YMR217W'
p2842
I12
sS'YKL128C'
p2843
I8
sS'YGL035C'
p2844
I1
sS'YER170W'
p2845
I3
sS'YCR024C-A'
p2846
I49
sS'YKL222C'
p2847
I1
sS'YDR494W'
p2848
I6
sS'YLR026C'
p2849
I2
sS'YKR086W'
p2850
I2
sS'YGL026C'
p2851
I4
sS'YGR246C'
p2852
I3
sS'YHR008C'
p2853
I4
sS'YMR277W'
p2854
I1
sS'YPL242C'
p2855
I1
sS'YLR046C'
p2856
I2
sS'YBR067C'
p2857
I14
sS'YCR024C-B'
p2858
I53
sS'YDR100W'
p2859
I6
sS'YLL004W'
p2860
I3
sS'YER049W'
p2861
I9
sS'YGL125W'
p2862
I0
sS'YML009C'
p2863
I9
sS'YLR164W'
p2864
I2
sS'YPR172W'
p2865
I1
sS'YDL033C'
p2866
I1
sS'YMR255W'
p2867
I5
sS'YGL068W'
p2868
I15
sS'YNL006W'
p2869
I5
sS'YLR028C'
p2870
I11
sS'YER136W'
p2871
I5
sS'YGL247W'
p2872
I4
sS'YER116C'
p2873
I2
sS'YML012W'
p2874
I30
sS'YOL009C'
p2875
I1
sS'YDR028C'
p2876
I2
sS'YNL010W'
p2877
I29
sS'YOR217W'
p2878
I2
sS'YBL035C'
p2879
I1
sS'YPL010W'
p2880
I24
sS'YCR057C'
p2881
I3
sS'YNL206C'
p2882
I5
sS'YMR197C'
p2883
I3
sS'YLR060W'
p2884
I8
sS'YKL096W-A'
p2885
I58
sS'YDR516C'
p2886
I2
sS'YER076C'
p2887
I1
sS'YIL063C'
p2888
I6
sS'YPR140W'
p2889
I1
sS'YGR251W'
p2890
I5
sS'YLL060C'
p2891
I2
sS'YPR047W'
p2892
I1
sS'YKL219W'
p2893
I3
sS'YML091C'
p2894
I0
sS'YBR049C'
p2895
I1
sS'YDR044W'
p2896
I5
sS'YKR080W'
p2897
I36
sS'YEL016C'
p2898
I3
sS'YKL078W'
p2899
I1
sS'YDL002C'
p2900
I9
sS'YDR354W'
p2901
I4
sS'YJR032W'
p2902
I3
sS'YOR037W'
p2903
I3
sS'YIR037W'
p2904
I6
sS'YDR071C'
p2905
I21
sS'YDR162C'
p2906
I5
sS'YMR134W'
p2907
I2
sS'YGL012W'
p2908
I14
sS'YPL066W'
p2909
I1
sS'YOL057W'
p2910
I3
sS'YJL101C'
p2911
I1
sS'YBL069W'
p2912
I2
sS'YFR004W'
p2913
I11
sS'YDR353W'
p2914
I13
sS'YMR139W'
p2915
I2
sS'YJL001W'
p2916
I17
sS'YDL080C'
p2917
I3
sS'YJL049W'
p2918
I3
sS'YHR183W'
p2919
I13
sS'YDL085C-A'
p2920
I6
sS'YDR017C'
p2921
I3
sS'YOR129C'
p2922
I1
sS'YDR213W'
p2923
I1
sS'YML085C'
p2924
I3
sS'YPR167C'
p2925
I3
sS'YNL053W'
p2926
I1
sS'YDL206W'
p2927
I1
sS'YHR060W'
p2928
I5
sS'YER094C'
p2929
I23
sS'YIL022W'
p2930
I3
sS'YDL104C'
p2931
I1
sS'YGR208W'
p2932
I13
sS'YNL024C'
p2933
I4
sS'YPL053C'
p2934
I8
sS'YKL119C'
p2935
I7
sS'YLR212C'
p2936
I2
sS'YHR042W'
p2937
I2
sS'YCR075C'
p2938
I4
sS'YER101C'
p2939
I1
sS'YMR155W'
p2940
I2
sS'YKR079C'
p2941
I2
sS'YNL248C'
p2942
I9
sS'YDR171W'
p2943
I1
sS'YLR086W'
p2944
I1
sS'YGR105W'
p2945
I11
sS'YDR066C'
p2946
I2
sS'YCR020C'
p2947
I2
sS'YLR151C'
p2948
I1
sS'YOR025W'
p2949
I2
sS'YML030W'
p2950
I6
sS'YCL051W'
p2951
I1
sS'YML065W'
p2952
I2
sS'YCR097W'
p2953
I12
sS'YER001W'
p2954
I3
sS'YDR235W'
p2955
I4
sS'YGL194C-A'
p2956
I5
sS'YER038C'
p2957
I1
sS'YBL074C'
p2958
I2
sS'YDR275W'
p2959
I7
sS'YGL023C'
p2960
I1
sS'YHR049W'
p2961
I11
sS'YEL061C'
p2962
I1
sS'YBR007C'
p2963
I1
sS'YLR175W'
p2964
I29
sS'YDL126C'
p2965
I11
sS'YDR228C'
p2966
I2
sS'YHR194W'
p2967
I1
sS'YGR288W'
p2968
I1
sS'YOR295W'
p2969
I4
sS'YOR340C'
p2970
I5
sS'YMR260C'
p2971
I41
sS'YGR264C'
p2972
I13
sS'YNL110C'
p2973
I15
sS'YOR161C'
p2974
I1
sS'YML078W'
p2975
I5
sS'YOR158W'
p2976
I3
sS'YOR151C'
p2977
I4
sS'YDL208W'
p2978
I37
sS'YIR018W'
p2979
I4
sS'YPL074W'
p2980
I3
sS'YIL129C'
p2981
I1
sS'YKL046C'
p2982
I7
sS'YBR145W'
p2983
I2
sS'YDR339C'
p2984
I10
sS'YAL014C'
p2985
I2
sS'YFL037W'
p2986
I5
sS'YIL027C'
p2987
I16
sS'YOR075W'
p2988
I4
sS'YCR020W-B'
p2989
I13
sS'YHR161C'
p2990
I2
sS'YBR243C'
p2991
I2
sS'YNL199C'
p2992
I4
sS'YDL224C'
p2993
I1
sS'YLR181C'
p2994
I2
sS'YLR225C'
p2995
I4
sS'YDR524C-B'
p2996
I171
sS'YGL207W'
p2997
I3
sS'YNL111C'
p2998
I9
sS'YPL058C'
p2999
I1
sS'YLR454W'
p3000
I0
sS'YGR134W'
p3001
I1
sS'YCR073C'
p3002
I0
sS'YLR270W'
p3003
I1
sS'YGL070C'
p3004
I12
sS'YOL103W'
p3005
I5
sS'YHR071W'
p3006
I2
sS'YGR169C'
p3007
I1
sS'YLR309C'
p3008
I2
sS'YPR086W'
p3009
I5
sS'YPL148C'
p3010
I3
sS'YJR125C'
p3011
I4
sS'YIL068C'
p3012
I1
sS'YMR060C'
p3013
I3
sS'YDR153C'
p3014
I2
sS'YJL065C'
p3015
I3
sS'YPL127C'
p3016
I2
sS'YGR120C'
p3017
I3
sS'YJR003C'
p3018
I6
sS'YNR034W'
p3019
I1
sS'YDL144C'
p3020
I2
sS'YFL028C'
p3021
I7
sS'YBR105C'
p3022
I1
sS'YLR080W'
p3023
I1
sS'YMR016C'
p3024
I0
sS'YKR020W'
p3025
I2
sS'YDR371W'
p3026
I3
sS'YDR456W'
p3027
I2
sS'YDR308C'
p3028
I6
sS'YLR372W'
p3029
I28
sS'YNL062C'
p3030
I5
sS'YMR004W'
p3031
I2
sS'YER083C'
p3032
I2
sS'YHR050W'
p3033
I2
sS'YOR066W'
p3034
I1
sS'YDR324C'
p3035
I5
sS'YLR389C'
p3036
I1
sS'YJL072C'
p3037
I5
sS'YHR172W'
p3038
I1
sS'YOR112W'
p3039
I2
sS'YFL017C'
p3040
I7
sS'YDL168W'
p3041
I4
sS'YDR262W'
p3042
I5
sS'YIL134W'
p3043
I5
sS'YJL163C'
p3044
I1
sS'YNL175C'
p3045
I9
sS'YGR173W'
p3046
I7
sS'YDL240W'
p3047
I1
sS'YBR234C'
p3048
I3
sS'YOR061W'
p3049
I6
sS'YOR356W'
p3050
I2
sS'YFR013W'
p3051
I1
sS'YBR261C'
p3052
I2
sS'YAR027W'
p3053
I7
sS'YNL326C'
p3054
I3
sS'YHR013C'
p3055
I2
sS'YGR083C'
p3056
I3
sS'YKR077W'
p3057
I1
sS'YGL045W'
p3058
I1
sS'YCL035C'
p3059
I7
sS'YIL023C'
p3060
I6
sS'YOR308C'
p3061
I1
sS'YOL146W'
p3062
I5
sS'YML121W'
p3063
I7
sS'YGL221C'
p3064
I9
sS'YHR144C'
p3065
I4
sS'YDR006C'
p3066
I1
sS'YGR034W'
p3067
I292
sS'YBR229C'
p3068
I1
sS'YMR100W'
p3069
I2
sS'YPR084W'
p3070
I1
sS'YDR190C'
p3071
I11
sS'YNL290W'
p3072
I5
sS'YBL010C'
p3073
I2
sS'YJR100C'
p3074
I4
sS'YDR139C'
p3075
I17
sS'YBR276C'
p3076
I2
sS'YJR147W'
p3077
I1
sS'YMR314W'
p3078
I14
sS'YKR017C'
p3079
I2
sS'YAL021C'
p3080
I1
sS'YNL247W'
p3081
I5
sS'YOR035C'
p3082
I1
sS'YHR128W'
p3083
I9
sS'YDR538W'
p3084
I2
sS'YOR316C'
p3085
I2
sS'YCL011C'
p3086
I14
sS'YMR184W'
p3087
I4
sS'YBR123C'
p3088
I1
sS'YIL112W'
p3089
I1
sS'YBR198C'
p3090
I1
sS'YML049C'
p3091
I1
sS'YLR241W'
p3092
I3
sS'YGR090W'
p3093
I3
sS'YDL233W'
p3094
I1
sS'YFR028C'
p3095
I4
sS'YNR047W'
p3096
I0
sS'YOL104C'
p3097
I2
sS'YNL071W'
p3098
I5
sS'YNL132W'
p3099
I1
sS'YDR470C'
p3100
I1
sS'YBR029C'
p3101
I2
sS'YJR149W'
p3102
I1
sS'YIL043C'
p3103
I19
sS'YDR386W'
p3104
I1
sS'YOR042W'
p3105
I2
sS'YGL141W'
p3106
I1
sS'YMR124W'
p3107
I1
sS'YBR152W'
p3108
I1
sS'YJL087C'
p3109
I1
sS'YLR347C'
p3110
I2
sS'YDR292C'
p3111
I4
sS'YPR063C'
p3112
I4
sS'YKR072C'
p3113
I2
sS'YOR131C'
p3114
I6
sS'YNL137C'
p3115
I2
sS'YAL036C'
p3116
I8
sS'YCL028W'
p3117
I3
sS'YML120C'
p3118
I1
sS'YGL174W'
p3119
I1
sS'YHR106W'
p3120
I2
sS'YLR172C'
p3121
I4
sS'YOL164W'
p3122
I2
sS'YHR208W'
p3123
I12
sS'YNL211C'
p3124
I4
sS'YDL065C'
p3125
I4
sS'YPR174C'
p3126
I2
sS'YGL244W'
p3127
I4
sS'YDL156W'
p3128
I0
sS'YMR167W'
p3129
I1
sS'YBL036C'
p3130
I11
sS'YOR249C'
p3131
I2
sS'YBR296C'
p3132
I6
sS'YBR080C'
p3133
I2
sS'YPR191W'
p3134
I1
sS'YJL020C'
p3135
I1
sS'YDL030W'
p3136
I3
sS'YNR033W'
p3137
I2
sS'YDR027C'
p3138
I2
sS'YJL110C'
p3139
I1
sS'YHR068W'
p3140
I10
sS'YER071C'
p3141
I8
sS'YNL272C'
p3142
I1
sS'YKL218C'
p3143
I2
sS'YKR081C'
p3144
I6
sS'YEL011W'
p3145
I0
sS'YGR001C'
p3146
I4
sS'YDL001W'
p3147
I3
sS'YBL107C'
p3148
I6
sS'YLR067C'
p3149
I1
sS'YOL013C'
p3150
I2
sS'YJL183W'
p3151
I9
sS'YLL063C'
p3152
I1
sS'YGR250C'
p3153
I1
sS'YDR515W'
p3154
I2
sS'YPR033C'
p3155
I11
sS'YOR254C'
p3156
I11
sS'YOR201C'
p3157
I6
sS'YOR276W'
p3158
I34
sS'YMR309C'
p3159
I5
sS'YBL059C-A'
p3160
I7
sS'YMR023C'
p3161
I2
sS'YHR022C'
p3162
I2
sS'YOR089C'
p3163
I13
sS'YOL031C'
p3164
I3
sS'YHR119W'
p3165
I1
sS'YHL019C'
p3166
I1
sS'YHR076W'
p3167
I5
sS'YMR180C'
p3168
I2
sS'YGL163C'
p3169
I1
sS'YOR336W'
p3170
I1
sS'YJR094W-A'
p3171
I256
sS'YKL216W'
p3172
I34
sS'YML021C'
p3173
I3
sS'YGR012W'
p3174
I2
sS'YBL021C'
p3175
I5
sS'YHL004W'
p3176
I2
sS'YGR124W'
p3177
I16
sS'YLR007W'
p3178
I5
sS'YPL252C'
p3179
I4
sS'YLR139C'
p3180
I0
sS'YML102W'
p3181
I3
sS'YPL154C'
p3182
I5
sS'YER157W'
p3183
I3
sS'YOL022C'
p3184
I7
sS'YGR270W'
p3185
I1
sS'YEL037C'
p3186
I4
sS'YDR389W'
p3187
I1
sS'YMR054W'
p3188
I1
sS'YDR065W'
p3189
I2
sS'YBL059W'
p3190
I1
sS'YDL027C'
p3191
I1
sS'YER053C'
p3192
I1
sS'YNL305C'
p3193
I4
sS'YPL051W'
p3194
I4
sS'YJR121W'
p3195
I5
sS'YLL014W'
p3196
I15
sS'YCL050C'
p3197
I5
sS'YGR047C'
p3198
I1
sS'YDR049W'
p3199
I2
sS'YJL148W'
p3200
I23
sS'YPL153C'
p3201
I1
sS'YER100W'
p3202
I5
sS'YFR040W'
p3203
I1
sS'YKR078W'
p3204
I1
sS'YPR079W'
p3205
I3
sS'YGL008C'
p3206
I32
sS'YJL026W'
p3207
I6
sS'YLR412W'
p3208
I3
sS'YER002W'
p3209
I8
sS'YCR018C'
p3210
I6
sS'YPL101W'
p3211
I4
sS'YDL127W'
p3212
I1
sS'YBL075C'
p3213
I1
sS'YDR272W'
p3214
I8
sS'YMR006C'
p3215
I2
sS'YHR048W'
p3216
I1
sS'YOR159C'
p3217
I9
sS'YML020W'
p3218
I1
sS'YGL020C'
p3219
I7
sS'YOR160W'
p3220
I1
sS'YGL133W'
p3221
I1
sS'YOR294W'
p3222
I11
sS'YEL062W'
p3223
I1
sS'YMR261C'
p3224
I1
sS'YMR112C'
p3225
I4
sS'YJL039C'
p3226
I1
sS'YBR006W'
p3227
I1
sS'YLR038C'
p3228
I8
sS'YPR085C'
p3229
I1
sS'YOR038C'
p3230
I1
sS'YLR187W'
p3231
I0
sS'YNL212W'
p3232
I2
sS'YDR387C'
p3233
I2
sS'YPL072W'
p3234
I1
sS'YER015W'
p3235
I1
sS'YLR353W'
p3236
I1
sS'YML006C'
p3237
I1
sS'YCL061C'
p3238
I1
sS'YDR439W'
p3239
I1
sS'YNL148C'
p3240
I2
sS'YNL253W'
p3241
I3
sS'YBR024W'
p3242
I1
sS'YDR502C'
p3243
I4
sS'YGR065C'
p3244
I3
sS'YER062C'
p3245
I3
sS'YER171W'
p3246
I2
sS'YDL047W'
p3247
I3
sS'YGR247W'
p3248
I3
sS'YDR101C'
p3249
I7
sS'YPR026W'
p3250
I0
sS'YML046W'
p3251
I3
sS'YGL124C'
p3252
I4
sS'YDL130W'
p3253
I101
sS'YPR166C'
p3254
I6
sS'YMR276W'
p3255
I4
sS'YDL160C-A'
p3256
I4
sS'YLR165C'
p3257
I2
sS'YLR025W'
p3258
I5
sS'YCR069W'
p3259
I2
sS'YOL030W'
p3260
I3
sS'YLR049C'
p3261
I5
sS'YDR495C'
p3262
I1
sS'YLR138W'
p3263
I2
sS'YLR016C'
p3264
I6
sS'YDR341C'
p3265
I10
sS'YJL013C'
p3266
I2
sS'YJL173C'
p3267
I5
sS'YPL068C'
p3268
I1
sS'YPR169W'
p3269
I7
sS'YHR199C'
p3270
I2
sS'YDR152W'
p3271
I7
sS'YDL090C'
p3272
I3
sS'YGR101W'
p3273
I4
sS'YMR061W'
p3274
I6
sS'YJL128C'
p3275
I1
sS'YJR002W'
p3276
I7
sS'YDL145C'
p3277
I3
sS'YER019C-A'
p3278
I35
sS'YBL097W'
p3279
I1
sS'YIL076W'
p3280
I17
sS'YDR309C'
p3281
I3
sS'YNL061W'
p3282
I3
sS'YKR021W'
p3283
I1
sS'YDR398W'
p3284
I7
sS'YHR209W'
p3285
I1
sS'YFL014W'
p3286
I3
sS'YDR457W'
p3287
I1
sS'YLR386W'
p3288
I1
sS'YIL135C'
p3289
I2
sS'YLR371W'
p3290
I1
sS'YKL067W'
p3291
I17
sS'YLR185W'
p3292
I81
sS'YMR005W'
p3293
I3
sS'YDR370C'
p3294
I5
sS'YPR107C'
p3295
I5
sS'YLR262C'
p3296
I10
sS'YOR207C'
p3297
I2
sS'YNL121C'
p3298
I3
sS'YDR087C'
p3299
I15
sS'YMR294W'
p3300
I3
sS'YDR265W'
p3301
I5
sS'YBR081C'
p3302
I1
sS'YPL175W'
p3303
I2
sS'YNR008W'
p3304
I1
sS'YLR092W'
p3305
I0
sS'YJL166W'
p3306
I12
sS'YDR072C'
p3307
I3
sS'YER044C'
p3308
I4
sS'YMR072W'
p3309
I10
sS'YLR248W'
p3310
I4
sS'YOR283W'
p3311
I9
sS'YKL105C'
p3312
I0
sS'YMR160W'
p3313
I0
sS'YKL075C'
p3314
I7
sS'YJR033C'
p3315
I0
sS'YDL087C'
p3316
I1
sS'YBL068W'
p3317
I6
sS'YGL011C'
p3318
I5
sS'YDR352W'
p3319
I4
sS'YKL129C'
p3320
I0
sS'YDR163W'
p3321
I3
sS'YML051W'
p3322
I1
sS'YDR238C'
p3323
I4
sS'YDL105W'
p3324
I1
sS'YMR122W-A'
p3325
I36
sS'YCR098C'
p3326
I1
sS'YPL026C'
p3327
I1
sS'YPL134C'
p3328
I2
sS'YDR243C'
p3329
I1
sS'YHR082C'
p3330
I1
sS'YGR209C'
p3331
I40
sS'YML068W'
p3332
I3
sS'YPR168W'
p3333
I3
sS'YJL048C'
p3334
I2
sS'YPR113W'
p3335
I17
sS'YLR213C'
p3336
I1
sS'YKL161C'
p3337
I1
sS'YKR036C'
p3338
I2
sS'YNL085W'
p3339
I3
sS'YBR251W'
p3340
I5
sS'YKL041W'
p3341
I5
sS'YMR099C'
p3342
I13
sS'YIR008C'
p3343
I5
sS'YLR240W'
p3344
I0
sS'YGR093W'
p3345
I4
sS'YPL078C'
p3346
I12
sS'YIL040W'
p3347
I5
sS'YDR471W'
p3348
I94
sS'YGR135W'
p3349
I20
sS'YPL217C'
p3350
I3
sS'YPL172C'
p3351
I2
sS'YKL144C'
p3352
I8
sS'YDL234C'
p3353
I1
sS'YHR003C'
p3354
I6
sS'YAL051W'
p3355
I1
sS'YDR036C'
p3356
I2
sS'YAL019W'
p3357
I1
sS'YKL138C-A'
p3358
I6
sS'YNL218W'
p3359
I1
sS'YLR449W'
p3360
I6
sS'YNL136W'
p3361
I3
sS'YKL049C'
p3362
I3
sS'YDR293C'
p3363
I1
sS'YBR155W'
p3364
I2
sS'YBL002W'
p3365
I47
sS'YNR038W'
p3366
I2
sS'YDR376W'
p3367
I3
sS'YCL029C'
p3368
I2
sS'YLR195C'
p3369
I7
sS'YBL024W'
p3370
I4
sS'YGR169C-A'
p3371
I9
sS'YBR188C'
p3372
I2
sS'YPR189W'
p3373
I1
sS'YLR239C'
p3374
I1
sS'YGR028W'
p3375
I4
sS'YAL017W'
p3376
I1
sS'YJR024C'
p3377
I10
sS'YFL038C'
p3378
I22
sS'YBR242W'
p3379
I4
sS'YLR083C'
p3380
I5
sS'YNL029C'
p3381
I2
sS'YBR142W'
p3382
I3
sS'YOR231W'
p3383
I2
sS'YNR013C'
p3384
I1
sS'YHR166C'
p3385
I2
sS'YGR175C'
p3386
I12
sS'YJR131W'
p3387
I1
sS'YIR017C'
p3388
I1
sS'YDR338C'
p3389
I1
sS'YIL128W'
p3390
I1
sS'YNL127W'
p3391
I1
sS'YBR108W'
p3392
I0
sS'YJR137C'
p3393
I1
sS'YNR012W'
p3394
I3
sS'YGL097W'
p3395
I6
sS'YHR073W'
p3396
I2
sS'YJL151C'
p3397
I9
sS'YIL010W'
p3398
I1
sS'YKL087C'
p3399
I1
sS'YNL076W'
p3400
I2
sS'YDR367W'
p3401
I4
sS'YHR072W'
p3402
I4
sS'YGR168C'
p3403
I3
sS'YBR173C'
p3404
I4
sS'YIL064W'
p3405
I7
sS'YOR261C'
p3406
I17
sS'YHR045W'
p3407
I5
sS'YHR021C'
p3408
I249
sS'YGL253W'
p3409
I16
sS'YPR178W'
p3410
I2
sS'YHL032C'
p3411
I1
sS'YAR002C-A'
p3412
I16
sS'YIL088C'
p3413
I4
sS'YOL152W'
p3414
I1
sS'YMR183C'
p3415
I4
sS'YDR414C'
p3416
I2
sS'YNL259C'
p3417
I12
sS'YOR337W'
p3418
I1
sS'YMR010W'
p3419
I2
sS'YML101C'
p3420
I2
sS'YCL058W-A'
p3421
I4
sS'YPR094W'
p3422
I8
sS'YNL081C'
p3423
I4
sS'YGL059W'
p3424
I1
sS'YMR074C'
p3425
I17
sS'YGL075C'
p3426
I2
sS'YOL023W'
p3427
I1
sS'YPL253C'
p3428
I1
sS'YBL020W'
p3429
I3
sS'YHR051W'
p3430
I12
sS'YHL003C'
p3431
I15
sS'YER154W'
p3432
I1
sS'YDR422C'
p3433
I1
sS'YEL036C'
p3434
I5
sS'YBR260C'
p3435
I1
sS'YHR010W'
p3436
I327
sS'YDR400W'
p3437
I2
sS'YJR104C'
p3438
I36
sS'YER180C-A'
p3439
I4
sS'YFR043C'
p3440
I2
sS'YAL042W'
p3441
I15
sS'YHR204W'
p3442
I3
sS'YAL035W'
p3443
I6
sS'YOL041C'
p3444
I9
sS'YGR153W'
p3445
I1
sS'YFR038W'
p3446
I1
sS'YBR235W'
p3447
I1
sS'YDR001C'
p3448
I1
sS'YIL162W'
p3449
I1
sS'YNR061C'
p3450
I11
sS'YGR080W'
p3451
I2
sS'YOL109W'
p3452
I143
sS'YBL011W'
p3453
I1
sS'YOR043W'
p3454
I5
sS'YBR195C'
p3455
I3
sS'YDR183W'
p3456
I2
sS'YGL222C'
p3457
I1
sS'YDR138W'
p3458
I1
sS'YGR122W'
p3459
I2
sS'YOR317W'
p3460
I7
sS'YPL092W'
p3461
I5
sS'YGR033C'
p3462
I13
sS'YAL022C'
p3463
I4
sS'YJR144W'
p3464
I9
sS'YMR315W'
p3465
I2
sS'YLR328W'
p3466
I2
sS'YBR228W'
p3467
I2
sS'YGL153W'
p3468
I3
sS'YOR275C'
p3469
I1
sS'YJR039W'
p3470
I1
sS'YGR046W'
p3471
I3
sS'YDR384C'
p3472
I2
sS'YLR039C'
p3473
I1
sS'YML007W'
p3474
I3
sS'YOL017W'
p3475
I1
sS'YER063W'
p3476
I3
sS'YDR481C'
p3477
I12
sS'YER014W'
p3478
I2
sS'YMR171C'
p3479
I2
sS'YGL057C'
p3480
I1
sS'YER172C'
p3481
I1
sS'YNL180C'
p3482
I2
sS'YCR042C'
p3483
I1
sS'YNL213C'
p3484
I2
sS'YCR035C'
p3485
I9
sS'YOR244W'
p3486
I5
sS'YDL046W'
p3487
I4
sS'YDR503C'
p3488
I2
sS'YGL037C'
p3489
I12
sS'YBR058C'
p3490
I2
sS'YPL244C'
p3491
I9
sS'YDR492W'
p3492
I3
sS'YLR024C'
p3493
I0
sS'YLR071C'
p3494
I1
sS'YGR240C'
p3495
I6
sS'YPL228W'
p3496
I2
sS'YEL058W'
p3497
I7
sS'YMR259C'
p3498
I1
sS'YKL024C'
p3499
I8
sS'YBR061C'
p3500
I4
sS'YHL007C'
p3501
I1
sS'YOR145C'
p3502
I13
sS'YFL034C-B'
p3503
I2
sS'YLR399C'
p3504
I4
sS'YPR025C'
p3505
I4
sS'YBR087W'
p3506
I9
sS'YLR006C'
p3507
I1
sS'YDR330W'
p3508
I1
sS'YER149C'
p3509
I2
sS'YBL037W'
p3510
I1
sS'YER114C'
p3511
I1
sS'YOR375C'
p3512
I15
sS'YPR190C'
p3513
I2
sS'YLR075W'
p3514
I433
sS'YOR306C'
p3515
I6
sS'YHR107C'
p3516
I2
sS'YAR002W'
p3517
I3
sS'YHR127W'
p3518
I3
sS'YOR153W'
p3519
I12
sS'YMR237W'
p3520
I2
sS'YDL064W'
p3521
I4
sS'YDL031W'
p3522
I3
sS'YMR257C'
p3523
I0
sS'YDR026C'
p3524
I2
sS'YMR272C'
p3525
I2
sS'YLR066W'
p3526
I5
sS'YBR047W'
p3527
I2
sS'YDR046C'
p3528
I5
sS'YEL029C'
p3529
I5
sS'YMR228W'
p3530
I4
sS'YMR125W'
p3531
I4
sS'YOR202W'
p3532
I4
sS'YGL245W'
p3533
I7
sS'YNL273W'
p3534
I0
sS'YCR051W'
p3535
I4
sS'YER070W'
p3536
I4
sS'YPL219W'
p3537
I1
sS'YPL262W'
p3538
I3
sS'YGR006W'
p3539
I1
sS'YMR002W'
p3540
I18
sS'YGR079W'
p3541
I4
sS'YDL119C'
p3542
I3
sS'YDR160W'
p3543
I1
sS'YPL020C'
p3544
I1
sS'YNR053C'
p3545
I19
sS'YKR057W'
p3546
I249
sS'YER045C'
p3547
I1
sS'YKL039W'
p3548
I2
sS'YGL198W'
p3549
I5
sS'YNL040W'
p3550
I3
sS'YGR222W'
p3551
I5
sS'YDL086W'
p3552
I3
sS'YBL091C-A'
p3553
I1
sS'YOL092W'
p3554
I9
sS'YLR422W'
p3555
I0
sS'YPR115W'
p3556
I1
sS'YLR093C'
p3557
I11
sS'YIR031C'
p3558
I4
sS'YDR073W'
p3559
I1
sS'YJR065C'
p3560
I4
sS'YNL042W'
p3561
I1
sS'YJR030C'
p3562
I1
sS'YNL063W'
p3563
I2
sS'YKR093W'
p3564
I2
sS'YNL308C'
p3565
I4
sS'YML050W'
p3566
I1
sS'YOL064C'
p3567
I10
sS'YHR058C'
p3568
I4
sS'YDR239C'
p3569
I1
sS'YJR049C'
p3570
I2
sS'YOR292C'
p3571
I4
sS'YGL010W'
p3572
I2
sS'YML069W'
p3573
I10
sS'YKR019C'
p3574
I1
sS'YOR324C'
p3575
I1
sS'YMR026C'
p3576
I3
sS'YDR242W'
p3577
I1
sS'YHR085W'
p3578
I9
sS'YMR177W'
p3579
I3
sS'YOR172W'
p3580
I1
sS'YMR019W'
p3581
I1
sS'YDR064W'
p3582
I191
sS'YMR275C'
p3583
I1
sS'YBL056W'
p3584
I10
sS'YLR324W'
p3585
I1
sS'YER052C'
p3586
I3
sS'YLR427W'
p3587
I2
sS'YNL260C'
p3588
I4
sS'YLL015W'
p3589
I1
sS'YMR202W'
p3590
I24
sS'YPL061W'
p3591
I14
sS'YMR089C'
p3592
I2
sS'YER003C'
p3593
I4
sS'YER103W'
p3594
I3
sS'YPL115C'
p3595
I1
sS'YGR172C'
p3596
I4
sS'YDR173C'
p3597
I2
sS'YGL254W'
p3598
I1
sS'YCL057W'
p3599
I1
sS'YJL025W'
p3600
I1
sS'YLR413W'
p3601
I4
sS'YBR072W'
p3602
I1
sS'YBR005W'
p3603
I3
sS'YDL120W'
p3604
I5
sS'YMR262W'
p3605
I3
sS'YJL165C'
p3606
I1
sS'YGR070W'
p3607
I0
sS'YGR231C'
p3608
I6
sS'YEL063C'
p3609
I2
sS'YBL076C'
p3610
I9
sS'YMR113W'
p3611
I4
sS'YPR097W'
p3612
I2
sS'YGL134W'
p3613
I3
sS'YDR326C'
p3614
I1
sS'YKR068C'
p3615
I8
sS'YOR099W'
p3616
I11
sS'YLR387C'
p3617
I9
sS'YGL021W'
p3618
I2
sS'YPR032W'
p3619
I0
sS'YDL173W'
p3620
I7
sS'YHR050W-A'
p3621
I7
sS'YBR143C'
p3622
I24
sS'YDR086C'
p3623
I26
sS'YHR072W-A'
p3624
I62
sS'YOR346W'
p3625
I2
sS'YJR130C'
p3626
I2
sS'YJL062W-A'
p3627
I5
sS'YML023C'
p3628
I2
sS'YAL016W'
p3629
I6
sS'YFL039C'
p3630
I22
sS'YPR112C'
p3631
I6
sS'YJL134W'
p3632
I7
sS'YKL146W'
p3633
I1
sS'YDR449C'
p3634
I6
sS'YIL097W'
p3635
I1
sS'YNR039C'
p3636
I1
sS'YLR367W'
p3637
I78
sS'YLR227C'
p3638
I2
sS'YKL080W'
p3639
I16
sS'YPL131W'
p3640
I67
sS'YLR183C'
p3641
I3
sS'YKL186C'
p3642
I10
sS'YOL093W'
p3643
I4
sS'YPL064C'
p3644
I6
sS'YOR127W'
p3645
I1
sS'YNL077W'
p3646
I0
sS'YMR311C'
p3647
I6
sS'YBR109C'
p3648
I13
sS'YBR172C'
p3649
I2
sS'YDR346C'
p3650
I13
sS'YJL172W'
p3651
I1
sS'YDR151C'
p3652
I3
sS'YBL078C'
p3653
I2
sS'YHR083W'
p3654
I2
sS'YNL222W'
p3655
I5
sS'YGR095C'
p3656
I5
sS'YMR163C'
p3657
I1
sS'YPL086C'
p3658
I6
sS'YOR301W'
p3659
I1
sS'YFR039C'
p3660
I4
sS'YKR042W'
p3661
I13
sS'YKL160W'
p3662
I12
sS'YOL077W-A'
p3663
I4
sS'YPL029W'
p3664
I2
sS'YHR146W'
p3665
I5
sS'YDL091C'
p3666
I1
sS'YDL142C'
p3667
I4
sS'YMR066W'
p3668
I2
sS'YHR198C'
p3669
I2
sS'YJR001W'
p3670
I4
sS'YGL196W'
p3671
I4
sS'YKL126W'
p3672
I4
sS'YJL129C'
p3673
I1
sS'YLR209C'
p3674
I2
sS'YHR158C'
p3675
I1
sS'YJL209W'
p3676
I1
sS'YDR264C'
p3677
I6
sS'YDR306C'
p3678
I3
sS'YKL064W'
p3679
I1
sS'YLR265C'
p3680
I3
sS'YKR022C'
p3681
I4
sS'YNL035C'
p3682
I3
sS'YLR287C'
p3683
I8
sS'YPL174C'
p3684
I1
sS'YJL074C'
p3685
I1
sS'YLR370C'
p3686
I4
sS'YNL177C'
p3687
I7
sS'YDR454C'
p3688
I28
sS'YIL009W'
p3689
I2
sS'YLR250W'
p3690
I10
sS'YNL327W'
p3691
I6
sS'YKL122C'
p3692
I8
sS'YHR011W'
p3693
I1
sS'YAL043C'
p3694
I1
sS'YIL165C'
p3695
I4
sS'YIL078W'
p3696
I24
sS'YOL042W'
p3697
I3
sS'YPL237W'
p3698
I21
sS'YBL058W'
p3699
I7
sS'YBR236C'
p3700
I3
sS'YPL125W'
p3701
I2
sS'YBR189W'
p3702
I309
sS'YCL049C'
p3703
I2
sS'YHL020C'
p3704
I5
sS'YGR081C'
p3705
I13
sS'YDR289C'
p3706
I2
sS'YOR054C'
p3707
I1
sS'YFR042W'
p3708
I5
sS'YLR305C'
p3709
I1
sS'YOR063W'
p3710
I202
sS'YNL316C'
p3711
I2
sS'YGL223C'
p3712
I3
sS'YOR036W'
p3713
I4
sS'YBL016W'
p3714
I3
sS'YML131W'
p3715
I2
sS'YGR032W'
p3716
I0
sS'YGL150C'
p3717
I1
sS'YLR170C'
p3718
I7
sS'YGR125W'
p3719
I1
sS'YNL292W'
p3720
I2
sS'YCR019W'
p3721
I2
sS'YBR194W'
p3722
I4
sS'YDR423C'
p3723
I1
sS'YOR354C'
p3724
I3
sS'YOL108C'
p3725
I3
sS'YBR270C'
p3726
I1
sS'YIL039W'
p3727
I5
sS'YMR316W'
p3728
I5
sS'YOL140W'
p3729
I3
sS'YAL023C'
p3730
I3
sS'YNR009W'
p3731
I1
sS'YGR132C'
p3732
I13
sS'YIL138C'
p3733
I17
sS'YDR109C'
p3734
I1
sS'YJR127C'
p3735
I1
sS'YIL143C'
p3736
I2
sS'YGR092W'
p3737
I3
sS'YBR256C'
p3738
I11
sS'YKL002W'
p3739
I8
sS'YDR328C'
p3740
I20
sS'YLR247C'
p3741
I1
sS'YJR090C'
p3742
I1
sS'YDL235C'
p3743
I9
sS'YOR057W'
p3744
I3
sS'YIR009W'
p3745
I3
sS'YOR362C'
p3746
I13
sS'YLR345W'
p3747
I1
sS'YKL073W'
p3748
I2
sS'YGR103W'
p3749
I18
sS'YPL141C'
p3750
I0
sS'YHR151C'
p3751
I1
sS'YDR311W'
p3752
I4
sS'YHR002W'
p3753
I2
sS'YDR472W'
p3754
I5
sS'YGR057C'
p3755
I3
sS'YLR197W'
p3756
I25
sS'YNL100W'
p3757
I7
sS'YLR078C'
p3758
I7
sS'YBR154C'
p3759
I26
sS'YBR216C'
p3760
I2
sS'YNL245C'
p3761
I1
sS'YGL143C'
p3762
I2
sS'YLR001C'
p3763
I1
sS'YLR126C'
p3764
I3
sS'YOR304C-A'
p3765
I3
sS'YMR318C'
p3766
I13
sS'YGR181W'
p3767
I4
sS'YBR062C'
p3768
I6
sS'YHR108W'
p3769
I2
sS'YOR349W'
p3770
I0
sS'YDL067C'
p3771
I10
sS'YGL176C'
p3772
I1
sS'YBL071W-A'
p3773
I6
sS'YDR135C'
p3774
I2
sS'YAR003W'
p3775
I3
sS'YBL030C'
p3776
I4
sS'YMR256C'
p3777
I7
sS'YPL229W'
p3778
I1
sS'YMR236W'
p3779
I10
sS'YNL304W'
p3780
I1
sS'YER148W'
p3781
I14
sS'YGL242C'
p3782
I6
sS'YHL015W'
p3783
I384
sS'YOL011W'
p3784
I1
sS'YOR195W'
p3785
I1
sS'YLL054C'
p3786
I1
sS'YLR443W'
p3787
I4
sS'YLL013C'
p3788
I0
sS'YNR024W'
p3789
I6
sS'YMR192W'
p3790
I1
sS'YGR078C'
p3791
I2
sS'YOR104W'
p3792
I3
sS'YML074C'
p3793
I6
sS'YOR141C'
p3794
I1
sS'YER073W'
p3795
I8
sS'YMR229C'
p3796
I3
sS'YLL038C'
p3797
I1
sS'YBR046C'
p3798
I2
sS'YOL124C'
p3799
I6
sS'YDR013W'
p3800
I5
sS'YPR125W'
p3801
I2
sS'YNR040W'
p3802
I2
sS'YIL067C'
p3803
I2
sS'YNL051W'
p3804
I4
sS'YMR201C'
p3805
I1
sS'YJL092W'
p3806
I1
sS'YOR270C'
p3807
I14
sS'YHR020W'
p3808
I11
sS'YGL252C'
p3809
I3
sS'YOL033W'
p3810
I2
sS'YBR201W'
p3811
I5
sS'YBR238C'
p3812
I0
sS'YDR415C'
p3813
I4
sS'YGL161C'
p3814
I9
sS'YPR051W'
p3815
I8
sS'YIR026C'
p3816
I4
sS'YER155C'
p3817
I1
sS'YBR037C'
p3818
I2
sS'YKL047W'
p3819
I3
sS'YGL058W'
p3820
I8
sS'YHL002W'
p3821
I4
sS'YPR009W'
p3822
I2
sS'YNL263C'
p3823
I4
sS'YML027W'
p3824
I1
sS'YKR099W'
p3825
I1
sS'YLR033W'
p3826
I5
sS'YMR149W'
p3827
I6
sS'YPL001W'
p3828
I6
sS'YDR128W'
p3829
I1
sS'YMR274C'
p3830
I1
sS'YER051W'
p3831
I3
sS'YER004W'
p3832
I5
sS'YGL119W'
p3833
I4
sS'YMR052W'
p3834
I1
sS'YCR072C'
p3835
I3
sS'YKR016W'
p3836
I2
sS'YMR158W'
p3837
I5
sS'YLR114C'
p3838
I2
sS'YMR203W'
p3839
I3
sS'YLL036C'
p3840
I3
sS'YCR023C'
p3841
I2
sS'YDR519W'
p3842
I11
sS'YGR278W'
p3843
I1
sS'YDL029W'
p3844
I13
sS'YKL141W'
p3845
I5
sS'YBL057C'
p3846
I8
sS'YBR073W'
p3847
I2
sS'YLR034C'
p3848
I2
sS'YPL004C'
p3849
I6
sS'YER019W'
p3850
I2
sS'YBR028C'
p3851
I2
sS'YEL064C'
p3852
I1
sS'YMR263W'
p3853
I7
sS'YDR270W'
p3854
I0
sS'YKR069W'
p3855
I2
sS'YDR172W'
p3856
I10
sS'YDL121C'
p3857
I12
sS'YMR299C'
p3858
I4
sS'YBR078W'
p3859
I16
sS'YDR464W'
p3860
I1
sS'YLR129W'
p3861
I6
sS'YPR057W'
p3862
I4
sS'YPR199C'
p3863
I3
sS'YPR120C'
p3864
I2
sS'YPR062W'
p3865
I19
sS'YBL041W'
p3866
I7
sS'YMR097C'
p3867
I2
sS'YDR528W'
p3868
I1
sS'YDL058W'
p3869
I1
sS'YER173W'
p3870
I2
sS'YPR056W'
p3871
I6
sS'YLR150W'
p3872
I56
sS'YBR026C'
p3873
I2
sS'YMR172W'
p3874
I1
sS'YNL214W'
p3875
I2
sS'YCR034W'
p3876
I7
sS'YER060W'
p3877
I1
sS'YBR091C'
p3878
I5
sS'YPR180W'
p3879
I5
sS'YEL013W'
p3880
I4
sS'YDL007W'
p3881
I11
sS'YPR083W'
p3882
I2
sS'YNL094W'
p3883
I1
sS'YGL056C'
p3884
I2
sS'YOR280C'
p3885
I3
sS'YDR480W'
p3886
I1
sS'YML004C'
p3887
I10
sS'YCR043C'
p3888
I8
sS'YPL227C'
p3889
I9
sS'YDL010W'
p3890
I2
sS'YMR024W'
p3891
I2
sS'YLL009C'
p3892
I4
sS'YBR059C'
p3893
I1
sS'YML019W'
p3894
I7
sS'YJL146W'
p3895
I2
sS'YDR493W'
p3896
I3
sS'YDL045C'
p3897
I2
sS'YGR241C'
p3898
I1
sS'YGL036W'
p3899
I1
sS'YPL247C'
p3900
I0
sS'YBR071W'
p3901
I2
sS'YJL207C'
p3902
I1
sS'YDL198C'
p3903
I2
sS'YDR103W'
p3904
I1
sS'YLR072W'
p3905
I1
sS'YER180C'
p3906
I4
sS'YKL167C'
p3907
I5
sS'YPL159C'
p3908
I2
sS'YOR181W'
p3909
I0
sS'YGR212W'
p3910
I1
sS'YOR125C'
p3911
I4
sS'YBL095W'
p3912
I4
sS'YDL092W'
p3913
I13
sS'YKR043C'
p3914
I7
sS'YPL084W'
p3915
I1
sS'YLR166C'
p3916
I4
sS'YMR067C'
p3917
I1
sS'YJL011C'
p3918
I8
sS'YDL143W'
p3919
I11
sS'YKL138C'
p3920
I5
sS'YBL079W'
p3921
I1
sS'YNL056W'
p3922
I7
sS'YPL093W'
p3923
I7
sS'YDR347W'
p3924
I2
sS'YFL001W'
p3925
I4
sS'YKL025C'
p3926
I1
sS'YER086W'
p3927
I4
sS'YGL197W'
p3928
I0
sS'YDR207C'
p3929
I1
sS'YKL125W'
p3930
I5
sS'YLR264W'
p3931
I187
sS'YKL170W'
p3932
I7
sS'YKR023W'
p3933
I2
sS'YNL036W'
p3934
I10
sS'YOR115C'
p3935
I8
sS'YKL038W'
p3936
I0
sS'YJR025C'
p3937
I5
sS'YLR208W'
p3938
I13
sS'YDR267C'
p3939
I5
sS'YLR286C'
p3940
I10
sS'YNL016W'
p3941
I4
sS'YDR496C'
p3942
I10
sS'YLR384C'
p3943
I3
sS'YDR307W'
p3944
I1
sS'YPL071C'
p3945
I3
sS'YPR019W'
p3946
I1
sS'YML099C'
p3947
I2
sS'YOR162C'
p3948
I1
sS'YLR421C'
p3949
I19
sS'YMR145C'
p3950
I2
sS'YDR161W'
p3951
I7
sS'YLR090W'
p3952
I4
sS'YBR102C'
p3953
I1
sS'YJR064W'
p3954
I17
sS'YMR098C'
p3955
I2
sS'YOR285W'
p3956
I14
sS'YJL002C'
p3957
I10
sS'YML022W'
p3958
I31
sS'YCR065W'
p3959
I1
sS'YNL159C'
p3960
I3
sS'YER046W'
p3961
I3
sS'YJR031C'
p3962
I1
sS'YPR159W'
p3963
I4
sS'YGR223C'
p3964
I2
sS'YDR074W'
p3965
I2
sS'YPR143W'
p3966
I8
sS'YHR059W'
p3967
I3
sS'YPR075C'
p3968
I2
sS'YMR087W'
p3969
I1
sS'YML053C'
p3970
I3
sS'YJR055W'
p3971
I3
sS'YFL049W'
p3972
I2
sS'YPR184W'
p3973
I0
sS'YKR018C'
p3974
I3
sS'YNL309W'
p3975
I1
sS'YER099C'
p3976
I7
sS'YDL150W'
p3977
I5
sS'YJR048W'
p3978
I2
sS'YHR186C'
p3979
I1
sS'YHR084W'
p3980
I1
sS'YNL038W'
p3981
I9
sS'YKL003C'
p3982
I4
sS'YAL053W'
p3983
I2
sS'YNL149C'
p3984
I25
sS'YGL095C'
p3985
I3
sS'YBR257W'
p3986
I2
sS'YHR001W-A'
p3987
I2
sS'YJR132W'
p3988
I2
sS'YIL139C'
p3989
I4
sS'YLR246W'
p3990
I2
sS'YJR119C'
p3991
I1
sS'YOR205C'
p3992
I1
sS'YDL216C'
p3993
I1
sS'YIL079C'
p3994
I3
sS'YHR069C'
p3995
I10
sS'YDR329C'
p3996
I4
sS'YGR142W'
p3997
I2
sS'YFR025C'
p3998
I4
sS'YHR065C'
p3999
I5
sS'YOR017W'
p4000
I1
sS'YMR199W'
p4001
I2
sS'YBR137W'
p4002
I6
sS'YDR473C'
p4003
I2
sS'YPL169C'
p4004
I2
sS'YKL192C'
p4005
I4
sS'YGL082W'
p4006
I4
sS'YDR310C'
p4007
I1
sS'YPL146C'
p4008
I7
sS'YKL072W'
p4009
I1
sS'YPL139C'
p4010
I2
sS'YBR217W'
p4011
I4
sS'YGR178C'
p4012
I4
sS'YPR098C'
p4013
I4
sS'YNL001W'
p4014
I8
sS'YDL236W'
p4015
I10
sS'YIL046W'
p4016
I2
sS'YGR174C'
p4017
I1
sS'YGL142C'
p4018
I1
sS'YFR009W'
p4019
I6
sS'YKR096W'
p4020
I1
sS'YGR179C'
p4021
I3
sS'YGR102C'
p4022
I2
sS'YDR081C'
p4023
I1
sS'YJL137C'
p4024
I1
sS'YCL009C'
p4025
I3
sS'YKL065C'
p4026
I14
sS'YBR139W'
p4027
I1
sS'YBR115C'
p4028
I1
sS'YBR140C'
p4029
I0
sS'YDR448W'
p4030
I4
sS'YJR111C'
p4031
I3
sS'YJR046W'
p4032
I1
sS'YHR188C'
p4033
I2
sS'YDL005C'
p4034
I3
sS'YOR305W'
p4035
I7
sS'YFL023W'
p4036
I1
sS'YJL127C-B'
p4037
I12
sS'YLR360W'
p4038
I3
sS'YPL189C-A'
p4039
I9
sS'YER087C-B'
p4040
I6
sS'YKL081W'
p4041
I15
sS'YDR092W'
p4042
I5
sS'YNL139C'
p4043
I1
sS'YPL108W'
p4044
I4
sS'YDR361C'
p4045
I14
sS'YPL164C'
p4046
I1
sS'YBR171W'
p4047
I9
sS'YNL005C'
p4048
I5
sS'YNL088W'
p4049
I2
sS'YJL157C'
p4050
I3
sS'YHR206W'
p4051
I1
sS'YKL181W'
p4052
I25
sS'YOL032W'
p4053
I3
sS'YML063W'
p4054
I275
sS'YHR027C'
p4055
I5
sS'YPR139C'
p4056
I5
sS'YGL255W'
p4057
I5
sS'YFR007W'
p4058
I1
sS'YJL180C'
p4059
I5
sS'YKR090W'
p4060
I1
sS'YLR333C'
p4061
I81
sS'YOL075C'
p4062
I0
sS'YHL030W'
p4063
I1
sS'YBR200W'
p4064
I2
sS'YNL262W'
p4065
I0
sS'YAR028W'
p4066
I4
sS'YDR079C-A'
p4067
I5
sS'YML107C'
p4068
I4
sS'YGL077C'
p4069
I5
sS'YPL204W'
p4070
I3
sS'YNL133C'
p4071
I1
sS'YNL200C'
p4072
I2
sS'YOL069W'
p4073
I1
sS'YKL184W'
p4074
I3
sS'YDR412W'
p4075
I6
sS'YDR129C'
p4076
I10
sS'YOR091W'
p4077
I4
sS'YKR101W'
p4078
I1
sS'YGR026W'
p4079
I5
sS'YNL129W'
p4080
I5
sS'YML125C'
p4081
I8
sS'YAL040C'
p4082
I1
sS'YLR251W'
p4083
I3
sS'YDR288W'
p4084
I5
sS'YBR157C'
p4085
I5
sS'YCL036W'
p4086
I8
sS'YFR041C'
p4087
I4
sS'YIL050W'
p4088
I2
sS'YOR355W'
p4089
I3
sS'YPR127W'
p4090
I1
sS'YGR086C'
p4091
I9
sS'YPL111W'
p4092
I3
sS'YOR077W'
p4093
I2
sS'YOL143C'
p4094
I18
sS'YAL034W-A'
p4095
I1
sS'YNL233W'
p4096
I1
sS'YBR237W'
p4097
I1
sS'YHL023C'
p4098
I1
sS'YGL151W'
p4099
I1
sS'YBR197C'
p4100
I1
sS'YGR075C'
p4101
I3
sS'YOR329C'
p4102
I1
sS'YJR091C'
p4103
I0
sS'YGR031W'
p4104
I5
sS'YJL204C'
p4105
I1
sS'YOL020W'
p4106
I3
sS'YBR271W'
p4107
I3
sS'YNL231C'
p4108
I9
sS'YDR003W'
p4109
I4
sS'YBL017C'
p4110
I2
sS'YNL244C'
p4111
I41
sS'YNR027W'
p4112
I2
sS'YAL024C'
p4113
I0
sS'YPL150W'
p4114
I2
sS'YJR142W'
p4115
I3
sS'YER115C'
p4116
I11
sS'YJL197W'
p4117
I1
sS'YMR213W'
p4118
I1
sS'YPL199C'
p4119
I7
sS'YBR233W-A'
p4120
I5
sS'YGL055W'
p4121
I13
sS'YPR181C'
p4122
I2
sS'YCL008C'
p4123
I1
sS'YOR245C'
p4124
I3
sS'YOL141W'
p4125
I1
sS'YML005W'
p4126
I2
sS'YNL215W'
p4127
I3
sS'YDR529C'
p4128
I13
sS'YCR075W-A'
p4129
I2
sS'YDL059C'
p4130
I2
sS'YEL012W'
p4131
I2
sS'YDL006W'
p4132
I5
sS'YER123W'
p4133
I2
sS'YJL012C'
p4134
I7
sS'YPR043W'
p4135
I166
sS'YDR382W'
p4136
I223
sS'YDR483W'
p4137
I9
sS'YLL008W'
p4138
I7
sS'YOR219C'
p4139
I1
sS'YDR505C'
p4140
I1
sS'YKL206C'
p4141
I3
sS'YER061C'
p4142
I3
sS'YLR135W'
p4143
I1
sS'YMR300C'
p4144
I7
sS'YLR022C'
p4145
I12
sS'YPL246C'
p4146
I4
sS'YOR246C'
p4147
I13
sS'YPL226W'
p4148
I4
sS'YLR073C'
p4149
I3
sS'YGL039W'
p4150
I4
sS'YER183C'
p4151
I7
sS'YML018C'
p4152
I7
sS'YEL001C'
p4153
I12
sS'YHR090C'
p4154
I4
sS'YDL066W'
p4155
I3
sS'YER112W'
p4156
I6
sS'YMR319C'
p4157
I13
sS'YBR295W'
p4158
I0
sS'YBR085W'
p4159
I3
sS'YHR109W'
p4160
I1
sS'YBL031W'
p4161
I1
sS'YEL034W'
p4162
I40
sS'YOR039W'
p4163
I8
sS'YNR050C'
p4164
I6
sS'YKR100C'
p4165
I4
sS'YKL208W'
p4166
I3
sS'YJL079C'
p4167
I2
sS'YCL017C'
p4168
I2
sS'YBR023C'
p4169
I3
sS'YOR237W'
p4170
I1
sS'YPL260W'
p4171
I3
sS'YGR004W'
p4172
I2
sS'YML110C'
p4173
I7
sS'YNR016C'
p4174
I2
sS'YOL010W'
p4175
I8
sS'YLR064W'
p4176
I4
sS'YLR419W'
p4177
I1
sS'YGL048C'
p4178
I14
sS'YHL016C'
p4179
I1
sS'YOR228C'
p4180
I1
sS'YGL243W'
p4181
I4
sS'YCR053W'
p4182
I8
sS'YLL055W'
p4183
I1
sS'YER072W'
p4184
I21
sS'YKL106W'
p4185
I6
sS'YOR272W'
p4186
I8
sS'YGL019W'
p4187
I6
sS'YLR091W'
p4188
I1
sS'YNL330C'
p4189
I6
sS'YER047C'
p4190
I1
sS'YOR138C'
p4191
I3
sS'YPR029C'
p4192
I2
sS'YMR144W'
p4193
I1
sS'YCR066W'
p4194
I1
sS'YML098W'
p4195
I5
sS'YJL034W'
p4196
I8
sS'YLR420W'
p4197
I14
sS'YJR067C'
p4198
I3
sS'YOR252W'
p4199
I4
sS'YDR208W'
p4200
I1
sS'YJL058C'
p4201
I1
sS'YDR075W'
p4202
I3
sS'YLR177W'
p4203
I1
sS'YFL048C'
p4204
I9
sS'YLR117C'
p4205
I1
sS'YNR020C'
p4206
I3
sS'YGR220C'
p4207
I4
sS'YBR014C'
p4208
I7
sS'YML052W'
p4209
I8
sS'YDL153C'
p4210
I7
sS'YLR299W'
p4211
I0
sS'YOR176W'
p4212
I5
sS'YHR187W'
p4213
I5
sS'YDL108W'
p4214
I4
sS'YNL172W'
p4215
I0
sS'YGR275W'
p4216
I4
sS'YMR071C'
p4217
I13
sS'YIR033W'
p4218
I2
sS'YNL254C'
p4219
I2
sS'YBL089W'
p4220
I3
sS'YDL084W'
p4221
I36
sS'YGL016W'
p4222
I2
sS'YOR209C'
p4223
I9
sS'YCR073W-A'
p4224
I1
sS'YKL033W'
p4225
I1
sS'YLL022C'
p4226
I2
sS'YOR143C'
p4227
I6
sS'YER029C'
p4228
I4
sS'YCL055W'
p4229
I6
sS'YBR063C'
p4230
I2
sS'YER005W'
p4231
I2
sS'YER105C'
p4232
I1
sS'YPL034W'
p4233
I4
sS'YBL054W'
p4234
I2
sS'YDL028C'
p4235
I1
sS'YCR024C'
p4236
I0
sS'YER050C'
p4237
I8
sS'YCR008W'
p4238
I2
sS'YBL104C'
p4239
I1
sS'YKL165C'
p4240
I1
sS'YCR071C'
p4241
I3
sS'YLR009W'
p4242
I11
sS'YDR518W'
p4243
I2
sS'YLR119W'
p4244
I2
sS'YDR175C'
p4245
I4
sS'YLR082C'
p4246
I4
sS'YOR341W'
p4247
I3
sS'YOR189W'
p4248
I7
sS'YLR035C'
p4249
I0
sS'YOR154W'
p4250
I4
sS'YOR213C'
p4251
I5
sS'YDL122W'
p4252
I3
sS'YMR264W'
p4253
I12
sS'YPR121W'
p4254
I1
sS'YGL136C'
p4255
I3
sS'YBR070C'
p4256
I3
sS'YLR065C'
p4257
I10
sS'YIR035C'
p4258
I4
sS'YMR086W'
p4259
I1
sS'YGR007W'
p4260
I5
sS'YNL315C'
p4261
I4
sS'YER018C'
p4262
I2
sS'YOR299W'
p4263
I2
sS'YDR224C'
p4264
I60
sS'YOL158C'
p4265
I7
sS'YMR288W'
p4266
I1
sS'YIL125W'
p4267
I1
sS'YBR141C'
p4268
I1
sS'YMR008C'
p4269
I1
sS'YJL136C'
p4270
I172
sS'YDR084C'
p4271
I4
sS'YDR140W'
p4272
I3
sS'YKL112W'
p4273
I1
sS'YDL171C'
p4274
I1
sS'YKL062W'
p4275
I0
sS'YLR238W'
p4276
I1
sS'YDR080W'
p4277
I1
sS'YJR010W'
p4278
I2
sS'YBR138C'
p4279
I1
sS'YBR114W'
p4280
I0
sS'YPL250C'
p4281
I3
sS'YNR043W'
p4282
I3
sS'YHR165C'
p4283
I1
sS'YNL075W'
p4284
I10
sS'YKL028W'
p4285
I4
sS'YLR222C'
p4286
I3
sS'YLR221C'
p4287
I14
sS'YDR093W'
p4288
I0
sS'YMR282C'
p4289
I3
sS'YIL109C'
p4290
I2
sS'YHR046C'
p4291
I4
sS'YPL070W'
p4292
I1
sS'YLR361C'
p4293
I1
sS'YOR085W'
p4294
I2
sS'YDR362C'
p4295
I2
sS'YFL022C'
p4296
I5
sS'YOL101C'
p4297
I4
sS'YJL156C'
p4298
I2
sS'YFL026W'
p4299
I26
sS'YKL082C'
p4300
I8
sS'YKL180W'
p4301
I51
sS'YOR094W'
p4302
I5
sS'YMR064W'
p4303
I2
sS'YKL166C'
p4304
I6
sS'YJR007W'
p4305
I7
sS'YGR211W'
p4306
I6
sS'YJL174W'
p4307
I7
sS'YDL093W'
p4308
I1
sS'YJL069C'
p4309
I6
sS'YNL185C'
p4310
I3
sS'YLR168C'
p4311
I3
sS'YLR298C'
p4312
I3
sS'YFL027C'
p4313
I6
sS'YHR047C'
p4314
I3
sS'YIR002C'
p4315
I1
sS'YML095C'
p4316
I2
sS'YPR137W'
p4317
I5
sS'YJL016W'
p4318
I1
sS'YGL001C'
p4319
I8
sS'YJR058C'
p4320
I5
sS'YDR444W'
p4321
I1
sS'YDL115C'
p4322
I4
sS'YER087W'
p4323
I2
sS'YDL140C'
p4324
I1
sS'YDR359C'
p4325
I0
sS'YKL124W'
p4326
I1
sS'YDR304C'
p4327
I20
sS'YKL171W'
p4328
I0
sS'YDL219W'
p4329
I9
sS'YPL038W'
p4330
I5
sS'YCR086W'
p4331
I1
sS'YDR266C'
p4332
I2
sS'YGL194C'
p4333
I1
sS'YDR206W'
p4334
I4
sS'YJL056C'
p4335
I1
sS'YKL091C'
p4336
I2
sS'YOR116C'
p4337
I1
sS'YMR025W'
p4338
I1
sS'YKR024C'
p4339
I2
sS'YIL095W'
p4340
I1
sS'YFL013C'
p4341
I1
sS'YPL063W'
p4342
I3
sS'YKL140W'
p4343
I4
sS'YBR156C'
p4344
I0
sS'YML124C'
p4345
I8
sS'YIL107C'
p4346
I1
sS'YOL142W'
p4347
I5
sS'YDR287W'
p4348
I2
sS'YGL209W'
p4349
I1
sS'YNL229C'
p4350
I5
sS'YOR326W'
p4351
I2
sS'YDR405W'
p4352
I1
sS'YIL007C'
p4353
I3
sS'YML081W'
p4354
I1
sS'YLR099W-A'
p4355
I4
sS'YGL041W-A'
p4356
I4
sS'YCL031C'
p4357
I13
sS'YAL041W'
p4358
I2
sS'YLR459W'
p4359
I2
sS'YNL243W'
p4360
I2
sS'YGR152C'
p4361
I8
sS'YNL025C'
p4362
I1
sS'YJL090C'
p4363
I1
sS'YJR143C'
p4364
I3
sS'YBR196C'
p4365
I36
sS'YLR190W'
p4366
I2
sS'YPL144W'
p4367
I5
sS'YGR147C'
p4368
I11
sS'YDR002W'
p4369
I65
sS'YJR092W'
p4370
I1
sS'YOR311C'
p4371
I4
sS'YGR030C'
p4372
I3
sS'YAL025C'
p4373
I10
sS'YOR034C'
p4374
I1
sS'YBL014C'
p4375
I1
sS'YDL141W'
p4376
I1
sS'YGL094C'
p4377
I1
sS'YNL039W'
p4378
I2
sS'YBR170C'
p4379
I2
sS'YGR149W'
p4380
I2
sS'YJR059W'
p4381
I1
sS'YGR130C'
p4382
I1
sS'YOR368W'
p4383
I2
sS'YDR458C'
p4384
I2
sS'YJR118C'
p4385
I5
sS'YOR016C'
p4386
I7
sS'YDL217C'
p4387
I3
sS'YGR165W'
p4388
I7
sS'YGR055W'
p4389
I2
sS'YGR128C'
p4390
I5
sS'YBR254C'
p4391
I6
sS'YDR313C'
p4392
I1
sS'YBR136W'
p4393
I0
sS'YKL193C'
p4394
I2
sS'YNL153C'
p4395
I17
sS'YGL083W'
p4396
I0
sS'YOR130C'
p4397
I4
sS'YBR214W'
p4398
I0
sS'YLR310C'
p4399
I1
sS'YOR060C'
p4400
I2
sS'YDL237W'
p4401
I3
sS'YJR085C'
p4402
I14
sS'YJL141C'
p4403
I1
sS'YBR249C'
p4404
I19
sS'YNL287W'
p4405
I3
sS'YFR008W'
p4406
I2
sS'YNL102W'
p4407
I1
sS'YPL147W'
p4408
I1
sS'YMR234W'
p4409
I2
sS'YOL077C'
p4410
I15
sS'YDR137W'
p4411
I3
sS'YHR031C'
p4412
I1
sS'YKL209C'
p4413
I4
sS'YPR175W'
p4414
I1
sS'YBR084W'
p4415
I5
sS'YLR003C'
p4416
I10
sS'YGR049W'
p4417
I1
sS'YLR441C'
p4418
I287
sS'YER113C'
p4419
I1
sS'YDR397C'
p4420
I7
sS'YNR051C'
p4421
I3
sS'YGR187C'
p4422
I7
sS'YDR056C'
p4423
I7
sS'YHR122W'
p4424
I7
sS'YDR390C'
p4425
I3
sS'YPL267W'
p4426
I3
sS'YOR229W'
p4427
I2
sS'YPR198W'
p4428
I2
sS'YEL024W'
p4429
I2
sS'YHL017W'
p4430
I3
sS'YOR383C'
p4431
I2
sS'YJR010C-A'
p4432
I7
sS'YLR378C'
p4433
I2
sS'YMR190C'
p4434
I0
sS'YPL123C'
p4435
I2
sS'YGR005C'
p4436
I4
sS'YBL032W'
p4437
I3
sS'YGL049C'
p4438
I1
sS'YDR023W'
p4439
I28
sS'YLR010C'
p4440
I2
sS'YPL135W'
p4441
I16
sS'YCR052W'
p4442
I2
sS'YNL294C'
p4443
I4
sS'YLR332W'
p4444
I2
sS'YBR272C'
p4445
I3
sS'YDR298C'
p4446
I8
sS'YDR011W'
p4447
I2
sS'YIL061C'
p4448
I1
sS'YBL009W'
p4449
I1
sS'YDR182W'
p4450
I2
sS'YCL043C'
p4451
I9
sS'YOL059W'
p4452
I3
sS'YFR006W'
p4453
I6
sS'YHL031C'
p4454
I1
sS'YKL074C'
p4455
I5
sS'YML100W'
p4456
I1
sS'YOL151W'
p4457
I4
sS'YHR131C'
p4458
I1
sS'YKL213C'
p4459
I3
sS'YHR026W'
p4460
I12
sS'YGR104C'
p4461
I3
sS'YOL039W'
p4462
I96
sS'YOR026W'
p4463
I3
sS'YOR358W'
p4464
I2
sS'YLR437C'
p4465
I3
sS'YNL238W'
p4466
I2
sS'YOR090C'
p4467
I1
sS'YBR281C'
p4468
I1
sS'YJL198W'
p4469
I3
sS'YPL207W'
p4470
I5
sS'YDR197W'
p4471
I3
sS'YLR417W'
p4472
I2
sS'YGR027C'
p4473
I217
sS'YNL289W'
p4474
I4
sS'YIL029C'
p4475
I3
sS'YOL135C'
p4476
I1
sS'YOR323C'
p4477
I6
sS'YLL041C'
p4478
I2
sS'YML106W'
p4479
I22
sS'YCR009C'
p4480
I12
sS'YDR118W'
p4481
I2
sS'YOR193W'
p4482
I1
sS'YPR070W'
p4483
I2
sS'YLR118C'
p4484
I3
sS'YER006W'
p4485
I8
sS'YGL117W'
p4486
I2
sS'YER026C'
p4487
I13
sS'YLR182W'
p4488
I1
sS'YPR068C'
p4489
I2
sS'YMR105C'
p4490
I1
sS'YER182W'
p4491
I3
sS'YLL034C'
p4492
I4
sS'YML042W'
p4493
I0
sS'YBL105C'
p4494
I1
sS'YMR251W-A'
p4495
I58
sS'YKR060W'
p4496
I3
sS'YDR069C'
p4497
I0
sS'YER104W'
p4498
I2
sS'YGR232W'
p4499
I3
sS'YEL066W'
p4500
I1
sS'YEL046C'
p4501
I5
sS'YBL055C'
p4502
I4
sS'YPR035W'
p4503
I62
sS'YDL189W'
p4504
I2
sS'YNL314W'
p4505
I1
sS'YLL018C'
p4506
I4
sS'YGR123C'
p4507
I3
sS'YDR227W'
p4508
I1
sS'YDL130W-A'
p4509
I3
sS'YML008C'
p4510
I5
sS'YDL054C'
p4511
I1
sS'YHL039W'
p4512
I2
sS'YDR174W'
p4513
I21
sS'YMR265C'
p4514
I2
sS'YML073C'
p4515
I63
sS'YGL137W'
p4516
I5
sS'YOR157C'
p4517
I4
sS'YLR455W'
p4518
I3
sS'YGL101W'
p4519
I11
sS'YHR143W-A'
p4520
I19
sS'YCL056C'
p4521
I4
sS'YBR044C'
p4522
I3
sS'YJR105W'
p4523
I26
sS'YDR383C'
p4524
I4
sS'YDL072C'
p4525
I8
sS'YER159C'
p4526
I4
sS'YEL048C'
p4527
I7
sS'YER122C'
p4528
I7
sS'YHR113W'
p4529
I3
sS'YMR189W'
p4530
I3
sS'YER048W-A'
p4531
I14
sS'YDR482C'
p4532
I3
sS'YPR182W'
p4533
I3
sS'YJL196C'
p4534
I14
sS'YPL003W'
p4535
I3
sS'YDR034C'
p4536
I2
sS'YGL054C'
p4537
I38
sS'YGL025C'
p4538
I1
sS'YLR021W'
p4539
I3
sS'YOL126C'
p4540
I1
sS'YLR058C'
p4541
I27
sS'YOR247W'
p4542
I8
sS'YEL006W'
p4543
I6
sS'YNL322C'
p4544
I3
sS'YDR506C'
p4545
I0
sS'YGL038C'
p4546
I2
sS'YLR074C'
p4547
I9
sS'YNL216W'
p4548
I3
sS'YKL207W'
p4549
I12
sS'YLR405W'
p4550
I3
sS'YNL227C'
p4551
I1
sS'YPL225W'
p4552
I35
sS'YDL043C'
p4553
I5
sS'YHR091C'
p4554
I1
sS'YDL012C'
p4555
I3
sS'YPL249C'
p4556
I0
sS'YJL024C'
p4557
I4
sS'YPR148C'
p4558
I9
sS'YER031C'
p4559
I8
sS'YMR065W'
p4560
I3
sS'YJR006W'
p4561
I2
sS'YIR021W'
p4562
I3
sS'YJL177W'
p4563
I52
sS'YGL002W'
p4564
I6
sS'YLR430W'
p4565
I0
sS'YOR108W'
p4566
I4
sS'YGL139W'
p4567
I1
sS'YJL068C'
p4568
I4
sS'YJL117W'
p4569
I14
sS'YNL054W'
p4570
I0
sS'YPL043W'
p4571
I4
sS'YGR210C'
p4572
I4
sS'YDR156W'
p4573
I2
sS'YMR130W'
p4574
I5
sS'YPR155C'
p4575
I2
sS'YHR179W'
p4576
I12
sS'YOR117W'
p4577
I8
sS'YLR176C'
p4578
I0
sS'YNL049C'
p4579
I1
sS'YGL195W'
p4580
I1
sS'YOR167C'
p4581
I217
sS'YKL172W'
p4582
I15
sS'YKR025W'
p4583
I7
sS'YMR290C'
p4584
I5
sS'YLR423C'
p4585
I1
sS'YDR305C'
p4586
I4
sS'YDR205W'
p4587
I1
sS'YJL057C'
p4588
I2
sS'YPR100W'
p4589
I8
sS'YLR266C'
p4590
I6
sS'YLR206W'
p4591
I1
sS'YER088C'
p4592
I2
sS'YLR284C'
p4593
I2
sS'YDR358W'
p4594
I1
sS'YDR508C'
p4595
I8
sS'YPR028W'
p4596
I15
sS'YMR117C'
p4597
I2
sS'YLR096W'
p4598
I1
sS'YCR067C'
p4599
I1
sS'YJL035C'
p4600
I3
sS'YKR052C'
p4601
I4
sS'YMR047C'
p4602
I2
sS'YOR120W'
p4603
I2
sS'YER040W'
p4604
I1
sS'YCR089W'
p4605
I0
sS'YOR287C'
p4606
I4
sS'YBL088C'
p4607
I0
sS'YPR117W'
p4608
I0
sS'YHR086W'
p4609
I1
sS'YGR274C'
p4610
I2
sS'YLR100W'
p4611
I13
sS'YBR015C'
p4612
I1
sS'YML055W'
p4613
I5
sS'YML088W'
p4614
I2
sS'YJR066W'
p4615
I1
sS'YLR116W'
p4616
I1
sS'YER008C'
p4617
I1
sS'YJL081C'
p4618
I4
sS'YMR127C'
p4619
I3
sS'YPL013C'
p4620
I9
sS'YLR440C'
p4621
I2
sS'YLR192C'
p4622
I8
s.