(dp1
S'YAL008W'
p2
I83
sS'YBR255W'
p3
I28
sS'YGR164W'
p4
I1
sS'YGR131W'
p5
I29
sS'YNL003C'
p6
I47
sS'YBR135W'
p7
I84
sS'YBR160W'
p8
I56
sS'YJL082W'
p9
I126
sS'YJL142C'
p10
I7
sS'YPL191C'
p11
I16
sS'YGL215W'
p12
I199
sS'YKL074C'
p13
I31
sS'YLR467C-A'
p14
I0
sS'YJL077C'
p15
I1
sS'YKL096W-A'
p16
I9483
sS'YIL124W'
p17
I132
sS'YLR364C-A'
p18
I4
sS'YIL171W'
p19
I0
sS'YPL039W'
p20
I40
sS'YNL170W'
p21
I6
sS'YGL141W'
p22
I35
sS'YJL179W'
p23
I95
sS'YDR316W-A'
p24
I0
sS'YDR316W-B'
p25
I622
sS'YKL083W'
p26
I2
sS'YOR009W'
p27
I25
sS'YKL029C'
p28
I115
sS'YPL166W'
p29
I11
sS'YKL052C'
p30
I51
sS'YHR025W'
p31
I296
sS'YOL034W'
p32
I25
sS'YBL008W'
p33
I22
sS'YIL062C'
p34
I207
sS'YCL023C'
p35
I0
sS'YOL116W'
p36
I26
sS'YDR196C'
p37
I74
sS'YBR280C'
p38
I15
sS'YNR032W'
p39
I42
sS'YNR045W'
p40
I27
sS'YML105C'
p41
I100
sS'YNL288W'
p42
I64
sS'YIL059C'
p43
I12
sS'YIL004C'
p44
I51
sS'YNR018W'
p45
I158
sS'YPL144W'
p46
I34
sS'YFR047C'
p47
I74
sS'YER087C-B'
p48
I354
sS'YHR078W'
p49
I51
sS'YIR023C-A'
p50
I2
sS'YJR115W'
p51
I14
sS'YLR355C'
p52
I764
sS'YGR099W'
p53
I23
sS'YLR300W'
p54
I591
sS'YCL028W'
p55
I210
sS'YJR140C'
p56
I28
sS'YOR033C'
p57
I37
sS'YOR062C'
p58
I39
sS'YBR043C'
p59
I61
sS'YHR112C'
p60
I40
sS'YLR011W'
p61
I28
sS'YIL044C'
p62
I81
sS'YHR126C'
p63
I3
sS'YKR084C'
p64
I59
sS'YER121W'
p65
I12
sS'YCR046C'
p66
I74
sS'YKL204W'
p67
I101
sS'YOR266W'
p68
I33
sS'YDR393W'
p69
I26
sS'YGL171W'
p70
I84
sS'YPR194C'
p71
I11
sS'YGR019W'
p72
I114
sS'YBL033C'
p73
I93
sS'YJL188C'
p74
I4
sS'YLL057C'
p75
I6
sS'YPL060C-A'
p76
I2
sS'YBR296C'
p77
I2
sS'YNL277W'
p78
I27
sS'YMR040W'
p79
I34
sS'YDR077W'
p80
I2366
sS'YMR266W'
p81
I75
sS'YKR064W'
p82
I36
sS'YPL089C'
p83
I82
sS'YGR277C'
p84
I41
sS'YDL139C'
p85
I15
sS'YDR246W'
p86
I33
sS'YOR288C'
p87
I37
sS'YDL240C-A'
p88
I0
sS'YCR028C'
p89
I33
sS'YML054C'
p90
I5
sS'YLR179C'
p91
I388
sS'YOR141C'
p92
I38
sS'YPL280W'
p93
I1
sS'YBL106C'
p94
I17
sS'YGL044C'
p95
I44
sS'YER107C'
p96
I72
sS'YBR038W'
p97
I56
sS'YER076W-A'
p98
I3
sS'YGR259C'
p99
I0
sS'YEL047C'
p100
I174
sS'YPR016C'
p101
I242
sS'YLR157C'
p102
I182
sS'YDL055C'
p103
I3389
sS'YML009C'
p104
I160
sS'YML072C'
p105
I158
sS'YDR142C'
p106
I25
sS'YFL044C'
p107
I22
sS'YBL113W-A'
p108
I0
sS'YKL019W'
p109
I45
sS'YJL130C'
p110
I238
sS'YBL085W'
p111
I64
sS'YBR116C'
p112
I1
sS'YDR166C'
p113
I37
sS'YHR212W-A'
p114
I0
sS'YDR082W'
p115
I20
sS'YDR348C'
p116
I79
sS'YKL182W'
p117
I553
sS'YDR333C'
p118
I54
sS'YKL018C-A'
p119
I67
sS'YPL027W'
p120
I1
sS'YIR012W'
p121
I119
sS'YLR363C'
p122
I45
sS'YEL077W-A'
p123
I0
sS'YDR179C'
p124
I39
sS'YML089C'
p125
I12
sS'YLR431C'
p126
I22
sS'YKR046C'
p127
I48
sS'YJR005W'
p128
I69
sS'YJL116C'
p129
I100
sS'YER030W'
p130
I196
sS'YIR026C'
p131
I66
sS'YJR072C'
p132
I114
sS'YEL030C-A'
p133
I0
sS'YKR039W'
p134
I22
sS'YGL003C'
p135
I47
sS'YPL009C'
p136
I151
sS'YDR268W'
p137
I22
sS'YGL192W'
p138
I0
sS'YDL117W'
p139
I39
sS'YMR131C'
p140
I176
sS'YMR293C'
p141
I21
sS'YJL214W'
p142
I9
sS'YIL105C'
p143
I42
sS'YML126C'
p144
I259
sS'YLR189C'
p145
I42
sS'YIL150C'
p146
I10
sS'YLR349W'
p147
I3
sS'YGL250W'
p148
I17
sS'YBR212W'
p149
I39
sS'YJR109C'
p150
I444
sS'YLR254C'
p151
I52
sS'YGR085C'
p152
I970
sS'YPL105C'
p153
I135
sS'YGR145W'
p154
I77
sS'YGR110W'
p155
I6
sS'YKL177W'
p156
I1
sS'YGL154C'
p157
I25
sS'YBR129C'
p158
I46
sS'YDL215C'
p159
I106
sS'YKL099C'
p160
I72
sS'YDR315C'
p161
I16
sS'YLR394W'
p162
I24
sS'YNL104C'
p163
I401
sS'YNL151C'
p164
I112
sS'YNR066C'
p165
I6
sS'YLR220W'
p166
I90
sS'YHR006W'
p167
I47
sS'YMR232W'
p168
I32
sS'YNL083W'
p169
I26
sS'YGR038C-A'
p170
I0
sS'YGR038C-B'
p171
I255
sS'YER168C'
p172
I54
sS'YPL265W'
p173
I80
sS'YOR227W'
p174
I63
sS'YOR081C'
p175
I54
sS'YEL026W'
p176
I705
sS'YGR050C'
p177
I21
sS'YDR021W'
p178
I32
sS'YGL063W'
p179
I13
sS'YPL212C'
p180
I87
sS'YOL157C'
p181
I9
sS'YOR345C'
p182
I1
sS'YPR095C'
p183
I31
sS'YOR310C'
p184
I815
sS'YDR188W'
p185
I262
sS'YAL027W'
p186
I27
sS'YGL236C'
p187
I29
sS'YHR133C'
p188
I72
sS'YDR017C'
p189
I86
sS'YAR061W'
p190
I0
sS'YIL090W'
p191
I69
sS'YBR183W'
p192
I62
sS'YOL048C'
p193
I32
sS'YML039W'
p194
I202
sS'YCR007C'
p195
I16
sS'YDR016C'
p196
I142
sS'YEL004W'
p197
I29
sS'YPR057W'
p198
I39
sS'YLL032C'
p199
I22
sS'YDR116C'
p200
I54
sS'YPL119C-A'
p201
I4
sS'YHR130C'
p202
I11
sS'YLR030W'
p203
I2
sS'YDR122W'
p204
I53
sS'YOL062C'
p205
I89
sS'YNL234W'
p206
I26
sS'YLR467W'
p207
I0
sS'YJL194W'
p208
I40
sS'YOL015W'
p209
I9
sS'YDL070W'
p210
I276
sS'YOR241W'
p211
I78
sS'YLR056W'
p212
I276
sS'YPR039W'
p213
I0
sS'Q0092'
p214
I0
sS'YKL110C'
p215
I83
sS'YML100W-A'
p216
I1
sS'YNL255C'
p217
I202
sS'YLR204W'
p218
I88
sS'YML097C'
p219
I77
sS'YKR007W'
p220
I42
sS'YDL096C'
p221
I0
sS'YHR193C'
p222
I1260
sS'YBL099W'
p223
I732
sS'YOR126C'
p224
I48
sS'YMR023C'
p225
I24
sS'YOR119C'
p226
I56
sS'YIL047C-A'
p227
I5
sS'YNL187W'
p228
I16
sS'YMR141C'
p229
I57
sS'YMR101C'
p230
I2
sS'YCL045C'
p231
I290
sS'YCR061W'
p232
I89
sS'YOR199W'
p233
I1
sS'YPR115W'
p234
I61
sS'YHR088W'
p235
I70
sS'YBR017C'
p236
I91
sS'YPR162C'
p237
I28
sS'YGR166W'
p238
I41
sS'YDL161W'
p239
I69
sS'YKL050C'
p240
I14
sS'YJR055W'
p241
I23
sS'YGL099W'
p242
I82
sS'YFL030W'
p243
I17
sS'YIL119C'
p244
I57
sS'YPL193W'
p245
I49
sS'YNL005C'
p246
I65
sS'YGL217C'
p247
I0
sS'YJL144W'
p248
I9
sS'YBR012W-B'
p249
I41
sS'YBR012W-A'
p250
I0
sS'YJR139C'
p251
I439
sS'YBR133C'
p252
I67
sS'YBR162C'
p253
I1600
sS'YFL002W-B'
p254
I0
sS'YJL079C'
p255
I157
sS'YGL019W'
p256
I107
sS'YGR201C'
p257
I24
sS'YNL172W'
p258
I29
sS'YNL058C'
p259
I64
sS'YPL160W'
p260
I239
sS'YOL083C-A'
p261
I0
sS'YNL023C'
p262
I38
sS'YDR214W'
p263
I147
sS'YIL126W'
p264
I90
sS'YLR295C'
p265
I185
sS'YER175W-A'
p266
I4
sS'YHR168W'
p267
I19
sS'YOR064C'
p268
I29
sS'YOR159C'
p269
I80
sS'YOR130C'
p270
I84
sS'YOL081W'
p271
I77
sS'YOL036W'
p272
I48
sS'YGL148W'
p273
I273
sS'YOR031W'
p274
I64
sS'YPR204C-A'
p275
I0
sS'YBR282W'
p276
I56
sS'YDR194C'
p277
I159
sS'YOL114C'
p278
I12
sS'YJR108W'
p279
I10
sS'YNR030W'
p280
I60
sS'YAL037C-A'
p281
I3
sS'YML007C-A'
p282
I7
sS'YKL076C'
p283
I5
sS'YDR466W'
p284
I40
sS'YFR045W'
p285
I24
sS'YIL002C'
p286
I38
sS'YGR159C'
p287
I625
sS'YGL089C'
p288
I1187
sS'YFR032C'
p289
I22
sS'YNL118C'
p290
I89
sS'YGL228W'
p291
I93
sS'YJR117W'
p292
I124
sS'YBR196C-A'
p293
I3
sS'YBR196C-B'
p294
I5
sS'YIL030W-A'
p295
I1
sS'YLR357W'
p296
I57
sS'YER127W'
p297
I89
sS'YJR093C'
p298
I49
sS'YLR017W'
p299
I70
sS'YHR110W'
p300
I93
sS'YBR041W'
p301
I76
sS'YOR394W'
p302
I1
sS'YPL078C'
p303
I271
sS'YCL068C'
p304
I0
sS'YDL039C'
p305
I95
sS'YKL202W'
p306
I0
sS'YGR122C-A'
p307
I0
sS'YOR264W'
p308
I52
sS'YNL042W-B'
p309
I98
sS'YBL029C-A'
p310
I25
sS'YGL173C'
p311
I156
sS'YOR366W'
p312
I4
sS'YNL275W'
p313
I26
sS'YAR015W'
p314
I297
sS'YOR384W'
p315
I7
sS'YLL051C'
p316
I69
sS'YDR427W'
p317
I196
sS'YLR079W'
p318
I95
sS'YLR408C'
p319
I43
sS'YMR093W'
p320
I82
sS'YKR066C'
p321
I105
sS'YDR079W'
p322
I53
sS'YMR268C'
p323
I26
sS'YOR169C'
p324
I5
sS'YML070W'
p325
I110
sS'YHR175W-A'
p326
I19
sS'YPR072W'
p327
I73
sS'YMR108W'
p328
I379
sS'YCR091W'
p329
I18
sS'YER062C'
p330
I141
sS'YDR244W'
p331
I34
sS'YER189W'
p332
I0
sS'YJL009W'
p333
I0
sS'YDL137W'
p334
I122
sS'YGR271W'
p335
I55
sS'YDR233C'
p336
I656
sS'YGR071C'
p337
I36
sS'YCR106W'
p338
I13
sS'YBL100C'
p339
I0
sS'YER109C'
p340
I26
sS'YDR489W'
p341
I28
sS'YPL282C'
p342
I1
sS'YPR049C'
p343
I25
sS'YDL057W'
p344
I10
sS'YPR014C'
p345
I0
sS'YGR257C'
p346
I82
sS'YEL045C'
p347
I1
sS'YPL235W'
p348
I127
sS'YLR122C'
p349
I2
sS'YLR155C'
p350
I182
sS'YBL087C'
p351
I1435
sS'YJL132W'
p352
I14
sS'YGL190C'
p353
I77
sS'YBR110W'
p354
I69
sS'YDR144C'
p355
I66
sS'YOR180C'
p356
I10
sS'YFL046W'
p357
I54
sS'YOR103C'
p358
I184
sS'YKL137W'
p359
I60
sS'YDR447C'
p360
I714
sS'YAL061W'
p361
I20
sS'YNL324W'
p362
I1
sS'YPR145W'
p363
I538
sS'YJL063C'
p364
I41
sS'YDL160C-A'
p365
I56
sS'YPL021W'
p366
I0
sS'YIR010W'
p367
I34
sS'YDR331W'
p368
I42
sS'YJL114W'
p369
I0
sS'YKR044W'
p370
I31
sS'YLR433C'
p371
I55
sS'YMR068W'
p372
I9
sS'YLR157C-A'
p373
I0
sS'YLR157C-C'
p374
I0
sS'YLR157C-B'
p375
I220
sS'YNL164C'
p376
I44
sS'YER032W'
p377
I45
sS'YJR070C'
p378
I182
sS'YGL005C'
p379
I39
sS'YHR043C'
p380
I78
sS'YDL111C'
p381
I100
sS'YMR133W'
p382
I1
sS'YPL007C'
p383
I29
sS'YKL159C'
p384
I28
sS'YDR059C'
p385
I56
sS'YKR075W-A'
p386
I5
sS'YLR138W'
p387
I79
sS'YBR101C'
p388
I85
sS'YLR396C'
p389
I29
sS'YBR245C'
p390
I63
sS'YJL216C'
p391
I40
sS'YBR210W'
p392
I73
sS'YPL103C'
p393
I26
sS'YIL103W'
p394
I46
sS'YIL152W'
p395
I57
sS'YDR341C'
p396
I331
sS'YJR096W'
p397
I47
sS'YAL010C'
p398
I22
sS'YGR143W'
p399
I56
sS'YGR112W'
p400
I26
sS'YLR256W'
p401
I317
sS'YHR174W'
p402
I12336
sS'YOR012W'
p403
I4
sS'YHR062C'
p404
I44
sS'YDL213C'
p405
I168
sS'YDR317W'
p406
I16
sS'YDR478W'
p407
I22
sS'YKL097C'
p408
I0
sS'YOL164W-A'
p409
I3
sS'YNL106C'
p410
I26
sS'YOR378W'
p411
I7
sS'YFR015C'
p412
I71
sS'YMR230W'
p413
I1484
sS'YIL092W'
p414
I17
sS'YAR009C'
p415
I12
sS'YLR321C'
p416
I76
sS'YGR052W'
p417
I14
sS'YJR161C'
p418
I9
sS'YOR278W'
p419
I45
sS'YNL085W'
p420
I119
sS'YGL061C'
p421
I36
sS'YPL210C'
p422
I90
sS'YOR087W'
p423
I63
sS'YGL234W'
p424
I316
sS'YOR347C'
p425
I32
sS'YPR093C'
p426
I15
sS'YAL029C'
p427
I76
sS'YOL155C'
p428
I29
sS'YDR421W'
p429
I27
sS'YGR186W'
p430
I97
sS'YDR294C'
p431
I103
sS'YHR135C'
p432
I102
sS'YDR015C'
p433
I2
sS'YBR181C'
p434
I1366
sS'YOR078W'
p435
I193
sS'YOR243C'
p436
I88
sS'YMR165C'
p437
I43
sS'YCR005C'
p438
I127
sS'YGR296W'
p439
I141
sS'YLR163W-A'
p440
I0
sS'YPR055W'
p441
I33
sS'YHR037W'
p442
I76
sS'YLR032W'
p443
I34
sS'YDR114C'
p444
I0
sS'YLL030C'
p445
I0
sS'YDL185C-A'
p446
I0
sS'YLL065W'
p447
I1
sS'YPR046W'
p448
I23
sS'YBR099C'
p449
I6
sS'YEL020C'
p450
I22
sS'YOL060C'
p451
I47
sS'YIR018C-A'
p452
I2
sS'YNL208W'
p453
I498
sS'YNL232W'
p454
I79
sS'YDL076C'
p455
I62
sS'YOR225W'
p456
I1
sS'YDR120C'
p457
I107
sS'YLR465C'
p458
I8
sS'YJL192C'
p459
I171
sS'YEL020C-B'
p460
I5
sS'YLR054C'
p461
I4
sS'YLR009W'
p462
I229
sS'YDR063W'
p463
I105
sS'YOR352W'
p464
I24
sS'YGR238C'
p465
I23
sS'YLR423C'
p466
I18
sS'YDR278C'
p467
I1
sS'YLR105C'
p468
I54
sS'YML091C'
p469
I83
sS'YHR191C'
p470
I46
sS'YDL098C'
p471
I35
sS'YLR202C'
p472
I20
sS'YLR299C-A'
p473
I1
sS'YKR005C'
p474
I17
sS'YMR143W'
p475
I2050
sS'YCR063W'
p476
I10
sS'YNL189W'
p477
I171
sS'YFR024C-A'
p478
I90
sS'YCL047C'
p479
I109
sS'YGL122C'
p480
I164
sS'YDL018C'
p481
I42
sS'YNL303W'
p482
I0
sS'YPR160W'
p483
I121
sS'YBL060W'
p484
I30
sS'YEL025C'
p485
I38
sS'YBR019C'
p486
I16
sS'YKL056C'
p487
I2360
sS'YKL065W-A'
p488
I6
sS'YGR160W'
p489
I0
sS'YDL163W'
p490
I0
sS'YPL068C'
p491
I46
sS'YJR057W'
p492
I45
sS'YKL178C'
p493
I226
sS'YFL032W'
p494
I0
sS'YLR377C'
p495
I2
sS'YBL063W'
p496
I19
sS'YAL059W'
p497
I69
sS'YNL007C'
p498
I313
sS'YPL148C'
p499
I21
sS'YJR137C'
p500
I74
sS'YDR397C'
p501
I149
sS'YMR021C'
p502
I28
sS'YMR074C'
p503
I201
sS'YDR378C'
p504
I196
sS'YJR039W'
p505
I24
sS'YDL158C'
p506
I21
sS'YOR104W'
p507
I43
sS'YFL009W'
p508
I59
sS'YLR297W'
p509
I39
sS'YLR279W'
p510
I0
sS'YDR216W'
p511
I14
sS'YIL120W'
p512
I22
sS'YNL021W'
p513
I44
sS'YGR095C'
p514
I76
sS'YCL027W'
p515
I196
sS'YHR029C'
p516
I83
sS'YIR021W-A'
p517
I1
sS'YAL033W'
p518
I34
sS'YBR284W'
p519
I9
sS'YNR036C'
p520
I149
sS'YNR049C'
p521
I57
sS'YDR192C'
p522
I24
sS'YOL112W'
p523
I39
sS'YHR032C-A'
p524
I0
sS'YOL083W'
p525
I14
sS'YNL251C'
p526
I100
sS'YBR266C'
p527
I0
sS'YBL004W'
p528
I102
sS'YER145C-A'
p529
I1
sS'YBR164C'
p530
I137
sS'YHR074W'
p531
I76
sS'YDR464W'
p532
I48
sS'YFR030W'
p533
I77
sS'YBR131W'
p534
I39
sS'YKL078W'
p535
I40
sS'YIL055C'
p536
I22
sS'YPL053C'
p537
I99
sS'YLR351C'
p538
I105
sS'YEL009C-A'
p539
I9
sS'YJR111C'
p540
I112
sS'YGR027W-A'
p541
I0
sS'YER125W'
p542
I92
sS'YER152C'
p543
I43
sS'YLR015W'
p544
I23
sS'YHR116W'
p545
I21
sS'YPL259C'
p546
I48
sS'YOR198C'
p547
I248
sS'YOR039W'
p548
I95
sS'YDL037C'
p549
I54
sS'YLR334C'
p550
I1
sS'YHL043W'
p551
I0
sS'YOR364W'
p552
I8
sS'YOR386W'
p553
I17
sS'YAR042W'
p554
I0
sS'YPR198W'
p555
I61
sS'YHL038C'
p556
I22
sS'YLL053C'
p557
I7
sS'YDR425W'
p558
I42
sS'YOR331C'
p559
I0
sS'YML076C'
p560
I25
sS'YKR060W'
p561
I85
sS'YER069W'
p562
I285
sS'YMR091C'
p563
I84
sS'YER012W'
p564
I260
sS'YHR098C'
p565
I111
sS'YDL135C'
p566
I148
sS'YCR093W'
p567
I130
sS'YGR273C'
p568
I0
sS'YPR108W-A'
p569
I13
sS'YBR069C'
p570
I119
sS'YGR077C'
p571
I44
sS'YCR104W'
p572
I3
sS'YDR512C'
p573
I112
sS'YPR012W'
p574
I4
sS'YGR255C'
p575
I79
sS'YDL051W'
p576
I175
sS'YBL102W'
p577
I122
sS'YGR073C'
p578
I7
sS'YLR120C'
p579
I133
sS'YCL001W-B'
p580
I0
sS'YEL043W'
p581
I60
sS'YNL068C'
p582
I43
sS'YJL169W'
p583
I0
sS'YJR080C'
p584
I62
sS'YDR146C'
p585
I34
sS'YBR112C'
p586
I134
sS'YBL081W'
p587
I80
sS'YFL040W'
p588
I2
sS'YNL326C'
p589
I32
sS'YDR337W'
p590
I62
sS'YJL061W'
p591
I47
sS'YPR147C'
p592
I45
sS'YKL131W'
p593
I0
sS'YDR441C'
p594
I92
sS'YPL094C'
p595
I195
sS'YOR101W'
p596
I152
sS'YOR314W-A'
p597
I1
sS'YDR231C'
p598
I51
sS'YJL112W'
p599
I45
sS'YFL066C'
p600
I0
sS'YNL193W'
p601
I30
sS'YML058W'
p602
I552
sS'YOR071C'
p603
I38
sS'YER034W'
p604
I16
sS'YJR076C'
p605
I75
sS'YKL157W'
p606
I76
sS'YBR003W'
p607
I55
sS'YOL140W'
p608
I104
sS'YPR129W'
p609
I106
sS'YDL113C'
p610
I34
sS'YMR135C'
p611
I32
sS'YGL007W'
p612
I0
sS'YPL005W'
p613
I20
sS'YBR247C'
p614
I91
sS'YLR185W'
p615
I2746
sS'YJL210W'
p616
I57
sS'YLR398C'
p617
I61
sS'YIL154C'
p618
I41
sS'YIL101C'
p619
I33
sS'YKL004W'
p620
I113
sS'YOR208W'
p621
I42
sS'YPL154C'
p622
I277
sS'YPL101W'
p623
I40
sS'YLR258W'
p624
I93
sS'YBR178W'
p625
I0
sS'YJR098C'
p626
I14
sS'YHR176W'
p627
I18
sS'YJR018W'
p628
I4
sS'YDL211C'
p629
I11
sS'YDL244W'
p630
I5
sS'YDR319C'
p631
I35
sS'YKL095W'
p632
I14
sS'YOL099C'
p633
I17
sS'YIL094C'
p634
I834
sS'YLR451W'
p635
I37
sS'YFR017C'
p636
I60
sS'YLR342W-A'
p637
I122
sS'YHR017W'
p638
I35
sS'YNR077C'
p639
I0
sS'YOL044W'
p640
I22
sS'YLR323C'
p641
I20
sS'YOR085W'
p642
I153
sS'YGR054W'
p643
I166
sS'YOR050C'
p644
I6
sS'YNL087W'
p645
I65
sS'YGR114C'
p646
I0
sS'YLR318W'
p647
I20
sS'YBR278W'
p648
I28
sS'YNL024C-A'
p649
I139
sS'YDR296W'
p650
I45
sS'YGL232W'
p651
I114
sS'YPR091C'
p652
I65
sS'YGR141W'
p653
I23
sS'YAR030C'
p654
I0
sS'YJR158W'
p655
I0
sS'YHR137W'
p656
I372
sS'YBR187W'
p657
I166
sS'YMR198W'
p658
I19
sS'YCR003W'
p659
I52
sS'YMR316C-B'
p660
I8
sS'YMR316C-A'
p661
I1
sS'YMR163C'
p662
I19
sS'YGR294W'
p663
I8
sS'YEL008W'
p664
I1
sS'YLL067C'
p665
I0
sS'YPL029W'
p666
I26
sS'YHR086W-A'
p667
I11
sS'YBR020W'
p668
I7
sS'YLR418C'
p669
I43
sS'YDR112W'
p670
I0
sS'YER059W'
p671
I40
sS'YPL153C'
p672
I12
sS'YBL025W'
p673
I20
sS'YOL066C'
p674
I24
sS'YDR126W'
p675
I24
sS'YGL167C'
p676
I113
sS'YOR223W'
p677
I21
sS'YEL022W'
p678
I75
sS'YIL053W'
p679
I1151
sS'YDL074C'
p680
I82
sS'YLR463C'
p681
I4
sS'YJL190C'
p682
I2597
sS'YMR218C'
p683
I32
sS'YLR052W'
p684
I72
sS'YNL230C'
p685
I19
sS'YLL049W'
p686
I54
sS'YHR211W'
p687
I30
sS'YPR166C'
p688
I99
sS'YMR244C-A'
p689
I97
sS'YNL301C'
p690
I81
sS'YDR445C'
p691
I27
sS'YMR058W'
p692
I297
sS'YDR061W'
p693
I39
sS'YJR112W-A'
p694
I46
sS'YOR290C'
p695
I71
sS'YKL114C'
p696
I88
sS'YML024W'
p697
I2005
sS'YML093W'
p698
I106
sS'YHR197W'
p699
I66
sS'YDR276C'
p700
I1445
sS'YLR200W'
p701
I102
sS'YKR003W'
p702
I69
sS'YLR107W'
p703
I68
sS'YMR321C'
p704
I4
sS'YER175C'
p705
I137
sS'YKL135C'
p706
I78
sS'YDL183C'
p707
I24
sS'YPL278C'
p708
I0
sS'Q0075'
p709
I0
sS'YMR118C'
p710
I1
sS'YCL049C'
p711
I102
sS'YBL066C'
p712
I28
sS'YGL107C'
p713
I46
sS'YGR271C-A'
p714
I19
sS'YDR169C'
p715
I32
sS'YLR410W-B'
p716
I68
sS'YLR410W-A'
p717
I0
sS'YLR169W'
p718
I1
sS'YMR272C'
p719
I188
sS'YPR108W'
p720
I155
sS'YKL054C'
p721
I305
sS'YGR162W'
p722
I219
sS'YDL165W'
p723
I36
sS'YDR032C'
p724
I369
sS'YKL023W'
p725
I43
sS'YJR051W'
p726
I62
sS'YNL009W'
p727
I16
sS'YFL034W'
p728
I42
sS'YKL164C'
p729
I437
sS'YJR135C'
p730
I12
sS'YGL213C'
p731
I63
sS'YOR161W-A'
p732
I1
sS'YMR076C'
p733
I45
sS'YGR205W'
p734
I11
sS'YJR037W'
p735
I0
sS'YNL027W'
p736
I46
sS'YLR291C'
p737
I112
sS'YDR210W'
p738
I98
sS'YIL122W'
p739
I27
sS'YDL230W'
p740
I36
sS'YJR113C'
p741
I45
sS'YGL075C'
p742
I4
sS'YHR041C'
p743
I25
sS'YIL156W-B'
p744
I87
sS'YIL156W-A'
p745
I2
sS'YLR416C'
p746
I0
sS'YGR097W'
p747
I80
sS'YIL068C'
p748
I51
sS'YCL025C'
p749
I215
sS'YNR034W'
p750
I45
sS'YOL085C'
p751
I0
sS'YNL282W'
p752
I20
sS'YBR286W'
p753
I298
sS'YGL144C'
p754
I27
sS'YDR190C'
p755
I164
sS'YAL031C'
p756
I30
sS'YBL006C'
p757
I95
sS'YGR108W'
p758
I50
sS'YBR264C'
p759
I56
sS'YBR231C'
p760
I19
sS'YLR162W-A'
p761
I31
sS'YPL197C'
p762
I0
sS'YBR166C'
p763
I103
sS'YDR462W'
p764
I55
sS'YJL148W'
p765
I247
sS'YIL057C'
p766
I2
sS'YPL055C'
p767
I33
sS'YLR353W'
p768
I28
sS'YIL148W'
p769
I2017
sS'YNR016C'
p770
I446
sS'YFR036W'
p771
I19
sS'YER023C-A'
p772
I0
sS'YHR114W'
p773
I48
sS'YGL079W'
p774
I36
sS'YER150W'
p775
I45
sS'YNL279W'
p776
I54
sS'YCL034W'
p777
I116
sS'YLR156C-A'
p778
I0
sS'YDL068W'
p779
I4
sS'YOL027C'
p780
I151
sS'YPL257W'
p781
I13
sS'YPL120W'
p782
I16
sS'YOL145C'
p783
I88
sS'YJL099W'
p784
I35
sS'YDR034W-B'
p785
I10
sS'YOL110W'
p786
I24
sS'YDR005C'
p787
I38
sS'YMR311C'
p788
I112
sS'YHL041W'
p789
I0
sS'YBL039C'
p790
I155
sS'YGR188C'
p791
I21
sS'YOR362C'
p792
I198
sS'YLR126C'
p793
I55
sS'YDL053C'
p794
I122
sS'YML074C'
p795
I835
sS'YKR062W'
p796
I46
sS'YBR235W'
p797
I40
sS'YER010C'
p798
I46
sS'YML003W'
p799
I7
sS'YMR097C'
p800
I27
sS'YDL133W'
p801
I41
sS'YNL330C'
p802
I90
sS'YGR228W'
p803
I1
sS'YHR096C'
p804
I2
sS'YDL035C'
p805
I63
sS'YMR253C'
p806
I26
sS'YCR102C'
p807
I11
sS'YJL127C-B'
p808
I115
sS'YOR257W'
p809
I72
sS'YGR002C'
p810
I32
sS'YDR042C'
p811
I11
sS'YGR075C'
p812
I7
sS'YGR253C'
p813
I318
sS'YDR510W'
p814
I393
sS'YEL014C'
p815
I0
sS'YPL050C'
p816
I136
sS'YMR166C'
p817
I22
sS'Q0115'
p818
I0
sS'YPR045C'
p819
I25
sS'YPR010C'
p820
I223
sS'YPL231W'
p821
I538
sS'YLR148W'
p822
I45
sS'YMR137C'
p823
I26
sS'YDL082W'
p824
I1496
sS'YKL155C'
p825
I50
sS'YBR162W-A'
p826
I662
sS'YFL042C'
p827
I32
sS'YBL083C'
p828
I0
sS'YDR148C'
p829
I138
sS'YHR052W-A'
p830
I1
sS'YPL096W'
p831
I37
sS'YDR335W'
p832
I96
sS'YPR141C'
p833
I24
sS'YJL067W'
p834
I1
sS'YMR039C'
p835
I161
sS'YNL320W'
p836
I52
sS'YDR443C'
p837
I27
sS'YCR095C'
p838
I37
sS'YLL011W'
p839
I68
sS'YCR077C'
p840
I132
sS'YLR437C'
p841
I54
sS'YFL064C'
p842
I0
sS'YNL191W'
p843
I41
sS'YDR237W'
p844
I36
sS'YJL110C'
p845
I35
sS'YDR540C'
p846
I16
sS'YBR001C'
p847
I26
sS'YPL003W'
p848
I35
sS'YKL108W'
p849
I30
sS'YJR094C'
p850
I12
sS'YJR074W'
p851
I38
sS'YPR127W'
p852
I35
sS'YDL148C'
p853
I72
sS'YAL012W'
p854
I537
sS'YMR288W'
p855
I34
sS'YIL156W'
p856
I41
sS'YBR241C'
p857
I24
sS'YHR063W-A'
p858
I0
sS'YJL212C'
p859
I96
sS'YPL156C'
p860
I52
sS'YNL312W'
p861
I104
sS'YLR187W'
p862
I19
sS'YDR099W'
p863
I187
sS'YKL133C'
p864
I16
sS'YKL188C'
p865
I19
sS'YHR170W'
p866
I180
sS'YDR259C'
p867
I57
sS'YKL068W'
p868
I84
sS'YOR032C'
p869
I24
sS'YMR075C-A'
p870
I6
sS'YMR002W'
p871
I261
sS'YLR261C'
p872
I2
sS'YDL246C'
p873
I13
sS'YER081W'
p874
I173
sS'YPL178W'
p875
I161
sS'YMR172C-A'
p876
I0
sS'YPR202W'
p877
I0
sS'YIL096C'
p878
I38
sS'YOL046C'
p879
I0
sS'YFR011C'
p880
I99
sS'YIL074C'
p881
I129
sS'YHL008C'
p882
I58
sS'YLR457C'
p883
I15
sS'YNL249C'
p884
I23
sS'YGR056W'
p885
I40
sS'YGL065C'
p886
I42
sS'YOR052C'
p887
I199
sS'YBR012C'
p888
I157
sS'YGR116W'
p889
I154
sS'YOR343C'
p890
I5
sS'YGL230C'
p891
I6
sS'YOL159C'
p892
I37
sS'YBR185C'
p893
I43
sS'YOR010C'
p894
I39
sS'YDR290W'
p895
I0
sS'YDR019C'
p896
I143
sS'YBR150C'
p897
I33
sS'YFL031C-A'
p898
I0
sS'YER119C'
p899
I27
sS'YMR196W'
p900
I50
sS'YMR161W'
p901
I72
sS'YCR001W'
p902
I0
sS'YKL068W-A'
p903
I171
sS'YJL133C-A'
p904
I160
sS'YHL046W-A'
p905
I0
sS'YBL093C'
p906
I97
sS'YMR322C'
p907
I0
sS'YLL061W'
p908
I20
sS'YDR110W'
p909
I24
sS'YDR419W'
p910
I20
sS'YOR221C'
p911
I44
sS'YPL214C'
p912
I51
sS'YBL108C-A'
p913
I0
sS'YGL165C'
p914
I1
sS'YOL064C'
p915
I147
sS'YBL023C'
p916
I38
sS'YOR274W'
p917
I36
sS'YHR213W'
p918
I0
sS'YOR329C'
p919
I66
sS'YLR005W'
p920
I42
sS'YDR124W'
p921
I9
sS'YNL267W'
p922
I62
sS'YJL143W'
p923
I146
sS'YLL047W'
p924
I6
sS'YLR461W'
p925
I1
sS'YLR050C'
p926
I62
sS'YNL307C'
p927
I124
sS'YDR067C'
p928
I62
sS'YMR056C'
p929
I21
sS'YHR032W-A'
p930
I9
sS'YJL044C'
p931
I168
sS'YPR164W'
p932
I30
sS'YEL060C'
p933
I141
sS'YHR195W'
p934
I49
sS'YLR101C'
p935
I2
sS'YBL107W-A'
p936
I363
sS'YML026C'
p937
I1402
sS'YPR066W'
p938
I17
sS'YDR073W'
p939
I84
sS'YDR229W'
p940
I45
sS'YDL181W'
p941
I61
sS'YBR022W'
p942
I31
sS'YER177W'
p943
I1404
sS'YML048W'
p944
I220
sS'YBL064C'
p945
I111
sS'YIL045W'
p946
I30
sS'YKL221W'
p947
I3
sS'YGL126W'
p948
I40
sS'YLR167W'
p949
I5508
sS'YMR270C'
p950
I43
sS'YLR293C'
p951
I972
sS'YLR228C'
p952
I42
sS'YJR053W'
p953
I4
sS'YJL171C'
p954
I89
sS'YPL031C'
p955
I42
sS'YKL021C'
p956
I87
sS'YDL167C'
p957
I96
sS'YLR388W'
p958
I139
sS'YLR373C'
p959
I38
sS'YJR035W'
p960
I30
sS'YKR054C'
p961
I47
sS'YIR034C'
p962
I289
sS'YGL013C'
p963
I53
sS'YJR068W'
p964
I61
sS'YGR207C'
p965
I128
sS'YDR212W'
p966
I178
sS'YNL052W'
p967
I179
sS'YGL188C'
p968
I47
sS'YNL025C'
p969
I28
sS'YGR121W-A'
p970
I8
sS'YGR091W'
p971
I23
sS'YDL232W'
p972
I269
sS'YPL119C'
p973
I11
sS'YLR242C'
p974
I34
sS'YMR031W-A'
p975
I0
sS'YJR148W'
p976
I259
sS'YEL010W'
p977
I0
sS'YMR195W'
p978
I311
sS'YOL087C'
p979
I59
sS'YNL134C'
p980
I111
sS'YAL037W'
p981
I10
sS'YGL146C'
p982
I11
sS'YCR051W'
p983
I104
sS'YBR262C'
p984
I121
sS'YPL199C'
p985
I102
sS'YML101C-A'
p986
I0
sS'YFL036W'
p987
I71
sS'YJR133W'
p988
I62
sS'YIL051C'
p989
I416
sS'YPL057C'
p990
I79
sS'YNR010W'
p991
I36
sS'YDR365C'
p992
I150
sS'YLR308W'
p993
I0
sS'YNL169C'
p994
I72
sS'YFR034C'
p995
I27
sS'YHR070W'
p996
I35
sS'YDR460W'
p997
I37
sS'YNL112W'
p998
I407
sS'YHL047C'
p999
I54
sS'YOR360C'
p1000
I89
sS'YOR335C'
p1001
I255
sS'YDR354C-A'
p1002
I0
sS'YKL100W-A'
p1003
I0
sS'YGL251C'
p1004
I11
sS'YER156C'
p1005
I103
sS'YPL255W'
p1006
I26
sS'YOR095C'
p1007
I170
sS'YEL038W'
p1008
I79
sS'YDR420W'
p1009
I65
sS'YOL025W'
p1010
I26
sS'YPL208W'
p1011
I39
sS'YOL147C'
p1012
I54
sS'YNL280C'
p1013
I89
sS'YDR007W'
p1014
I77
sS'YIL160C'
p1015
I0
sS'YPR089W'
p1016
I64
sS'YBR233W'
p1017
I47
sS'YPL122C'
p1018
I38
sS'YDL086W'
p1019
I120
sS'YMR313C'
p1020
I50
sS'YGL179C'
p1021
I47
sS'YGR120C'
p1022
I35
sS'YML001W'
p1023
I147
sS'YLL028W'
p1024
I209
sS'YER016W'
p1025
I50
sS'YDR438W'
p1026
I25
sS'YNL211C'
p1027
I42
sS'YLR124W'
p1028
I3
sS'YML058W-A'
p1029
I25
sS'YLR026C'
p1030
I58
sS'YJR065C'
p1031
I180
sS'YHR094C'
p1032
I72
sS'YMR095C'
p1033
I23
sS'YER138C'
p1034
I235
sS'YDL033C'
p1035
I13
sS'YMR255W'
p1036
I60
sS'YHR209W'
p1037
I26
sS'YGL247W'
p1038
I44
sS'YCR100C'
p1039
I5
sS'YDR516C'
p1040
I161
sS'Q0130'
p1041
I2
sS'YPL233W'
p1042
I19
sS'YOR255W'
p1043
I0
sS'YIL063C'
p1044
I73
sS'YOR200W'
p1045
I0
sS'YGR251W'
p1046
I47
sS'YPR047W'
p1047
I23
sS'YDR246W-A'
p1048
I5
sS'YDR044W'
p1049
I207
sS'YEL016C'
p1050
I34
sS'YOL128C'
p1051
I28
sS'YPL215W'
p1052
I70
sS'YKL153W'
p1053
I0
sS'YFL019C'
p1054
I1
sS'YMR139W'
p1055
I45
sS'YNL296W'
p1056
I0
sS'YOR172W'
p1057
I35
sS'YOR105W'
p1058
I0
sS'YDR541C'
p1059
I29
sS'YPR143W'
p1060
I195
sS'YDR340W'
p1061
I131
sS'YNL322C'
p1062
I112
sS'YPL090C'
p1063
I1733
sS'YPR078C'
p1064
I3
sS'YBL058W'
p1065
I140
sS'YFL062W'
p1066
I0
sS'YNL197C'
p1067
I47
sS'YLR439W'
p1068
I31
sS'YCR020C'
p1069
I21
sS'YDR450W'
p1070
I1858
sS'YCL051W'
p1071
I56
sS'YCR097W'
p1072
I0
sS'YBL039C-A'
p1073
I0
sS'YDR235W'
p1074
I46
sS'YGL194C-A'
p1075
I199
sS'YER038C'
p1076
I28
sS'YPR125W'
p1077
I83
sS'YHR049W'
p1078
I157
sS'YBR007C'
p1079
I23
sS'YPL001W'
p1080
I29
sS'YJL038C'
p1081
I5
sS'YNL319W'
p1082
I6
sS'YPR178W'
p1083
I27
sS'YER079C-A'
p1084
I0
sS'YNL159C'
p1085
I30
sS'YAL014C'
p1086
I71
sS'YCR020W-B'
p1087
I52
sS'YBR243C'
p1088
I51
sS'YLR181C'
p1089
I50
sS'YBL056W'
p1090
I215
sS'YNL075W'
p1091
I96
sS'YPL150W'
p1092
I30
sS'YJL012C'
p1093
I86
sS'YJL065C'
p1094
I75
sS'YKR020W'
p1095
I33
sS'YMR053C'
p1096
I8
sS'YKL066W'
p1097
I38
sS'YMR004W'
p1098
I45
sS'YER083C'
p1099
I116
sS'YHR050W'
p1100
I51
sS'YPL176C'
p1101
I38
sS'YHR172W'
p1102
I16
sS'YLR263W'
p1103
I15
sS'YDL240W'
p1104
I49
sS'YDR401W'
p1105
I8
sS'YFR013W'
p1106
I52
sS'YHR013C'
p1107
I86
sS'YOL040C'
p1108
I4119
sS'YGL045W'
p1109
I17
sS'YCL035C'
p1110
I656
sS'YIL023C'
p1111
I47
sS'YNR073C'
p1112
I13
sS'YPR200C'
p1113
I11
sS'YIL072W'
p1114
I7
sS'YLR327C'
p1115
I120
sS'YBR229C'
p1116
I64
sS'YML133C'
p1117
I52
sS'YOR131C'
p1118
I89
sS'YLR455W'
p1119
I48
sS'YNL247W'
p1120
I198
sS'YOR054C'
p1121
I35
sS'YGL007C-A'
p1122
I12
sS'YFR028C'
p1123
I55
sS'YGR290W'
p1124
I0
sS'YBR152W'
p1125
I8
sS'YOR072W'
p1126
I1
sS'YDR292C'
p1127
I63
sS'YOR161C-C'
p1128
I1
sS'YKR103W'
p1129
I12
sS'YMR194W'
p1130
I1038
sS'YEL063C'
p1131
I125
sS'YMR167W'
p1132
I15
sS'YOR249C'
p1133
I27
sS'YER117W'
p1134
I2306
sS'YOR301W'
p1135
I13
sS'YPL187W'
p1136
I2815
sS'YKL218C'
p1137
I61
sS'YBL107C'
p1138
I89
sS'YLL063C'
p1139
I19
sS'YAR070C'
p1140
I0
sS'YOR276W'
p1141
I315
sS'YMR309C'
p1142
I200
sS'YOR089C'
p1143
I97
sS'YGR258C'
p1144
I36
sS'YNL146C-A'
p1145
I2
sS'YMR180C'
p1146
I39
sS'YGL163C'
p1147
I39
sS'YDR417C'
p1148
I0
sS'YOL131W'
p1149
I0
sS'YOR011W-A'
p1150
I2
sS'YPL283C'
p1151
I141
sS'YBL021C'
p1152
I34
sS'YHR215W'
p1153
I11
sS'YLL045C'
p1154
I1734
sS'YOR209C'
p1155
I162
sS'YLR007W'
p1156
I41
sS'YNL261W'
p1157
I43
sS'YMR054W'
p1158
I84
sS'YDR065W'
p1159
I29
sS'YNL305C'
p1160
I49
sS'YJL046W'
p1161
I25
sS'YKR078W'
p1162
I22
sS'YOR191W'
p1163
I39
sS'YDR272W'
p1164
I91
sS'YGR289C'
p1165
I20
sS'YML020W'
p1166
I20
sS'YLR103C'
p1167
I24
sS'YOR294W'
p1168
I154
sS'YEL062W'
p1169
I21
sS'YPR064W'
p1170
I2
sS'YPR031W'
p1171
I26
sS'YLR038C'
p1172
I289
sS'YNL096C'
p1173
I1281
sS'YDR038C'
p1174
I33
sS'YPR160W-A'
p1175
I0
sS'YDL187C'
p1176
I5
sS'YBR024W'
p1177
I51
sS'YFL039C'
p1178
I1297
sS'YER171W'
p1179
I70
sS'YDL047W'
p1180
I127
sS'YML046W'
p1181
I55
sS'YGL124C'
p1182
I27
sS'YMR276W'
p1183
I168
sS'YEL059W'
p1184
I3
sS'YMR149W'
p1185
I151
sS'YLR165C'
p1186
I29
sS'YCR069W'
p1187
I102
sS'YKL223W'
p1188
I0
sS'YGR146C-A'
p1189
I7
sS'YKL027W'
p1190
I60
sS'YJL173C'
p1191
I134
sS'YDR152W'
p1192
I156
sS'YKL127W'
p1193
I97
sS'YDR309C'
p1194
I266
sS'YLR386W'
p1195
I29
sS'YLR371W'
p1196
I63
sS'YDL169C'
p1197
I14
sS'YLR092W'
p1198
I38
sS'YER044C'
p1199
I149
sS'YMR072W'
p1200
I410
sS'YJR033C'
p1201
I30
sS'YKR056W'
p1202
I73
sS'YGL011C'
p1203
I187
sS'YIR036C'
p1204
I41
sS'YMR123W'
p1205
I108
sS'YGR209C'
p1206
I1666
sS'YJL150W'
p1207
I6
sS'YNL050C'
p1208
I50
sS'YMR304C-A'
p1209
I73
sS'YLR240W'
p1210
I27
sS'YGR093W'
p1211
I49
sS'YDL234C'
p1212
I40
sS'YGR125W'
p1213
I46
sS'YGL080W'
p1214
I121
sS'YNL136W'
p1215
I63
sS'YKL049C'
p1216
I39
sS'YBL002W'
p1217
I1117
sS'YNR038W'
p1218
I51
sS'YGL140C'
p1219
I55
sS'YCL029C'
p1220
I49
sS'YFL038C'
p1221
I358
sS'YJR131W'
p1222
I28
sS'YNR012W'
p1223
I53
sS'YNL110C'
p1224
I253
sS'YAL068C'
p1225
I0
sS'YDR367W'
p1226
I64
sS'YHR072W'
p1227
I76
sS'YPL059W'
p1228
I129
sS'YGL253W'
p1229
I1154
sS'YHL032C'
p1230
I55
sS'YAR002C-A'
p1231
I234
sS'YHL045W'
p1232
I1
sS'YOR337W'
p1233
I42
sS'YOR097C'
p1234
I53
sS'YHR118C'
p1235
I21
sS'YGR024C'
p1236
I99
sS'YOL023W'
p1237
I21
sS'YPL253C'
p1238
I16
sS'YOR259C'
p1239
I218
sS'YER154W'
p1240
I77
sS'YBR300C'
p1241
I1
sS'YEL036C'
p1242
I119
sS'YBR260C'
p1243
I41
sS'YPL124W'
p1244
I14
sS'YAL042W'
p1245
I163
sS'YAL035W'
p1246
I291
sS'YNL286W'
p1247
I29
sS'YDR001C'
p1248
I94
sS'YIL162W'
p1249
I109
sS'YOL141W'
p1250
I13
sS'YHR145C'
p1251
I36
sS'YBR195C'
p1252
I29
sS'YIL039W'
p1253
I78
sS'YGR122W'
p1254
I25
sS'YPL092W'
p1255
I92
sS'YGR161C-C'
p1256
I0
sS'YGR161C-D'
p1257
I156
sS'YMR315W'
p1258
I125
sS'YOR066W'
p1259
I49
sS'YDR384C'
p1260
I100
sS'YML007W'
p1261
I132
sS'YER063W'
p1262
I114
sS'YDR481C'
p1263
I104
sS'YER014W'
p1264
I38
sS'YPR041W'
p1265
I306
sS'YNL213C'
p1266
I54
sS'YKL006C-A'
p1267
I85
sS'YDL159W-A'
p1268
I0
sS'YBR058C'
p1269
I51
sS'YLR024C'
p1270
I25
sS'YLR071C'
p1271
I48
sS'YHR092C'
p1272
I1039
sS'YDL199C'
p1273
I26
sS'YDR434W'
p1274
I73
sS'YER181C'
p1275
I0
sS'YNL228W'
p1276
I4
sS'YDL064W'
p1277
I133
sS'YDL031W'
p1278
I113
sS'YMR257C'
p1279
I15
sS'YBL108W'
p1280
I2
sS'YDR514C'
p1281
I50
sS'YOR253W'
p1282
I58
sS'YOR202W'
p1283
I321
sS'YDR033W'
p1284
I1035
sS'YGL245W'
p1285
I356
sS'YGR006W'
p1286
I12
sS'YGR079W'
p1287
I115
sS'YDL119C'
p1288
I36
sS'YKL151C'
p1289
I60
sS'YGL198W'
p1290
I72
sS'YKL104C'
p1291
I215
sS'YBL091C-A'
p1292
I34
sS'YLR361C-A'
p1293
I88
sS'YBR141W-A'
p1294
I6
sS'YOR170W'
p1295
I4
sS'YOR292C'
p1296
I41
sS'YHR038W'
p1297
I26
sS'YML069W'
p1298
I100
sS'YKR019C'
p1299
I16
sS'YKR047W'
p1300
I18
sS'YGR279C'
p1301
I961
sS'YCR073C'
p1302
I40
sS'YCR022C'
p1303
I8
sS'YLL015W'
p1304
I67
sS'YNL195C'
p1305
I9
sS'YFL060C'
p1306
I12
sS'YDR173C'
p1307
I35
sS'YMR100W'
p1308
I22
sS'YCL057W'
p1309
I251
sS'YOR335W-A'
p1310
I0
sS'YBR072W'
p1311
I52
sS'YBR005W'
p1312
I49
sS'YPR123C'
p1313
I2
sS'YDL173W'
p1314
I99
sS'YJR047C'
p1315
I309
sS'YMR006C'
p1316
I51
sS'YKL145W-A'
p1317
I0
sS'YAL016W'
p1318
I110
sS'YMR292W'
p1319
I227
sS'YDR171W'
p1320
I69
sS'YOR070C'
p1321
I36
sS'YPL152W'
p1322
I23
sS'YLR183C'
p1323
I47
sS'YNL077W'
p1324
I34
sS'YBR109C'
p1325
I343
sS'YBR172C'
p1326
I128
sS'YDR346C'
p1327
I245
sS'YJL010C'
p1328
I63
sS'YOL077W-A'
p1329
I515
sS'YGR213C'
p1330
I16
sS'YBR236C'
p1331
I48
sS'YNL019C'
p1332
I1
sS'YGL193C'
p1333
I19
sS'YDL242W'
p1334
I0
sS'YBR189W'
p1335
I2364
sS'YER085C'
p1336
I0
sS'YKL039W'
p1337
I97
sS'YKL064W'
p1338
I81
sS'YLR265C'
p1339
I54
sS'YKR022C'
p1340
I32
sS'YLR287C'
p1341
I64
sS'YPL174C'
p1342
I22
sS'YHR011W'
p1343
I27
sS'YDR403W'
p1344
I14
sS'YOL093W'
p1345
I49
sS'YOL042W'
p1346
I28
sS'YIL070C'
p1347
I80
sS'YCL037C'
p1348
I4
sS'YIL025C'
p1349
I0
sS'YDR545C-A'
p1350
I0
sS'YNR071C'
p1351
I10
sS'YML131W'
p1352
I29
sS'YNL245C'
p1353
I41
sS'YNR024W'
p1354
I46
sS'YOL108C'
p1355
I37
sS'YLR329W'
p1356
I4
sS'YPL043W'
p1357
I131
sS'YMR294W-A'
p1358
I1
sS'YBR056C-B'
p1359
I0
sS'YKL002W'
p1360
I91
sS'YDR328C'
p1361
I138
sS'YIR009W'
p1362
I15
sS'YBR154C'
p1363
I266
sS'YLR001C'
p1364
I35
sS'YAR035C-A'
p1365
I0
sS'YKR101W'
p1366
I15
sS'YMR230W-A'
p1367
I100
sS'YER115C'
p1368
I28
sS'YHR124W'
p1369
I9
sS'YER148W'
p1370
I166
sS'YCR050C'
p1371
I0
sS'YGL033W'
p1372
I6
sS'YOR303W'
p1373
I536
sS'YIL087C'
p1374
I38
sS'YMR192W'
p1375
I45
sS'YCL074W'
p1376
I0
sS'YMR229C'
p1377
I164
sS'YLL038C'
p1378
I13
sS'YOR056C'
p1379
I77
sS'YFL013W-A'
p1380
I2
sS'YOR270C'
p1381
I320
sS'YPR069C'
p1382
I304
sS'YOL068C'
p1383
I155
sS'YMR182C'
p1384
I40
sS'YBR201W'
p1385
I43
sS'YLL043W'
p1386
I92
sS'YDR415C'
p1387
I39
sS'YGL161C'
p1388
I78
sS'YOL133W'
p1389
I87
sS'YNL263C'
p1390
I78
sS'YHR217C'
p1391
I40
sS'YDR128W'
p1392
I47
sS'YMR274C'
p1393
I30
sS'YER028C'
p1394
I29
sS'YMR052W'
p1395
I27
sS'YIL029W-A'
p1396
I0
sS'YMR203W'
p1397
I224
sS'YKR076W'
p1398
I34
sS'YDR225W'
p1399
I1333
sS'YDR270W'
p1400
I30
sS'YPR033C'
p1401
I315
sS'YGR230W'
p1402
I23
sS'YPR062W'
p1403
I221
sS'YDR528W'
p1404
I15
sS'YER173W'
p1405
I23
sS'YBR026C'
p1406
I74
sS'YDL185W'
p1407
I516
sS'YBR091C'
p1408
I54
sS'YNL094W'
p1409
I42
sS'YGR047C'
p1410
I37
sS'YPL227C'
p1411
I61
sS'YLR222C-A'
p1412
I10
sS'YDL010W'
p1413
I86
sS'YML019W'
p1414
I52
sS'YDL045C'
p1415
I34
sS'YLR163C'
p1416
I55
sS'YPR071W'
p1417
I30
sS'YHL002C-A'
p1418
I2
sS'YJL175W'
p1419
I0
sS'YBL079W'
p1420
I82
sS'YNL056W'
p1421
I67
sS'YOR038C'
p1422
I46
sS'YFL001W'
p1423
I59
sS'YDR150W'
p1424
I79
sS'YKL125W'
p1425
I82
sS'YKL170W'
p1426
I62
sS'YPR157W'
p1427
I15
sS'YPR137C-B'
p1428
I308
sS'YPR137C-A'
p1429
I0
sS'YLR384C'
p1430
I105
sS'YDR307W'
p1431
I34
sS'YML099C'
p1432
I43
sS'YLR421C'
p1433
I210
sS'YLR090W'
p1434
I35
sS'YMR325W'
p1435
I0
sS'YJR064W'
p1436
I212
sS'YML022W'
p1437
I258
sS'YER046W'
p1438
I37
sS'YJR031C'
p1439
I37
sS'YIR030C'
p1440
I15
sS'YKR050W'
p1441
I28
sS'YMR121C'
p1442
I58
sS'YGL017W'
p1443
I28
sS'YDL150W'
p1444
I70
sS'YNL038W'
p1445
I71
sS'YHR001W-A'
p1446
I216
sS'YOL165C'
p1447
I0
sS'YIL139C'
p1448
I35
sS'YLR246W'
p1449
I23
sS'YJR119C'
p1450
I19
sS'YLR359W'
p1451
I353
sS'YLR199C'
p1452
I56
sS'YJL206C'
p1453
I21
sS'YIL142W'
p1454
I190
sS'YGL082W'
p1455
I56
sS'YNL138W'
p1456
I190
sS'YOR133W'
p1457
I653
sS'YDL236W'
p1458
I131
sS'YGL142C'
p1459
I47
sS'YGR179C'
p1460
I31
sS'YJR086W'
p1461
I130
sS'YBR139W'
p1462
I75
sS'YHR188C'
p1463
I79
sS'YKL106C-A'
p1464
I1
sS'YNL116W'
p1465
I34
sS'YNL139C'
p1466
I49
sS'YDR361C'
p1467
I129
sS'YLR445W'
p1468
I0
sS'YGL255W'
p1469
I22
sS'YFR007W'
p1470
I29
sS'YLR333C'
p1471
I434
sS'YHL030W'
p1472
I67
sS'YGL077C'
p1473
I115
sS'YPL204W'
p1474
I163
sS'YLR379W'
p1475
I0
sS'YIL009C-A'
p1476
I52
sS'YBR302C'
p1477
I28
sS'YOR091W'
p1478
I78
sS'YGR026W'
p1479
I122
sS'YAL040C'
p1480
I98
sS'YDR288W'
p1481
I41
sS'YGL208W'
p1482
I13
sS'YNL284C'
p1483
I54
sS'YIL164C'
p1484
I35
sS'YOL143C'
p1485
I278
sS'YBR237W'
p1486
I39
sS'YBR197C'
p1487
I21
sS'YHR147C'
p1488
I66
sS'YJL093C'
p1489
I42
sS'YDR003W'
p1490
I52
sS'YMR317W'
p1491
I4
sS'YOR251C'
p1492
I80
sS'YPR181C'
p1493
I224
sS'YCL008C'
p1494
I47
sS'YEL064C'
p1495
I19
sS'YML005W'
p1496
I31
sS'YNL215W'
p1497
I61
sS'YCR075W-A'
p1498
I53
sS'YDL059C'
p1499
I26
sS'YOR204W'
p1500
I269
sS'YEL012W'
p1501
I66
sS'YBL040C'
p1502
I143
sS'YBR298C-A'
p1503
I0
sS'YDR382W'
p1504
I1860
sS'YDR483W'
p1505
I213
sS'YER061C'
p1506
I27
sS'YLR022C'
p1507
I80
sS'YLR402W'
p1508
I67
sS'YLR073C'
p1509
I11
sS'YER183C'
p1510
I78
sS'YHR090C'
p1511
I37
sS'YOL021C'
p1512
I100
sS'YHR030C'
p1513
I115
sS'YBR295W'
p1514
I19
sS'YKL018W'
p1515
I44
sS'YIL011W'
p1516
I252
sS'YEL034W'
p1517
I2294
sS'YHL015W'
p1518
I2169
sS'YNR050C'
p1519
I670
sS'YDR134C'
p1520
I273
sS'YKL208W'
p1521
I15
sS'YGR004W'
p1522
I23
sS'YML110C'
p1523
I258
sS'YGL048C'
p1524
I230
sS'YGL243W'
p1525
I39
sS'YKL106W'
p1526
I50
sS'YPR029C'
p1527
I59
sS'YJL034W'
p1528
I369
sS'YFL048C'
p1529
I84
sS'YLR117C'
p1530
I48
sS'YOR176W'
p1531
I61
sS'YOR109W'
p1532
I87
sS'YBL089W'
p1533
I30
sS'YDL084W'
p1534
I450
sS'YCL055W'
p1535
I320
sS'YGL116W'
p1536
I63
sS'YNR034W-A'
p1537
I127
sS'YCR024C'
p1538
I22
sS'YIL102C-A'
p1539
I19
sS'YMR102C'
p1540
I155
sS'YCR071C'
p1541
I73
sS'YDR175C'
p1542
I60
sS'YOR189W'
p1543
I47
sS'YOR154W'
p1544
I29
sS'YPR121W'
p1545
I21
sS'YBR070C'
p1546
I29
sS'YOR396C-A'
p1547
I0
sS'YLL017W'
p1548
I1
sS'YDR351W'
p1549
I68
sS'YNL315C'
p1550
I53
sS'YPR174C'
p1551
I19
sS'YJR045C'
p1552
I590
sS'YMR008C'
p1553
I94
sS'YPL026C'
p1554
I64
sS'YDL171C'
p1555
I123
sS'YKL062W'
p1556
I77
sS'YJR010W'
p1557
I64
sS'YJL218W'
p1558
I24
sS'YLR222C'
p1559
I86
sS'YDR093W'
p1560
I110
sS'YMR282C'
p1561
I42
sS'YIL109C'
p1562
I142
sS'YFL022C'
p1563
I264
sS'YPL109C'
p1564
I10
sS'YJL156C'
p1565
I31
sS'YNL071W'
p1566
I643
sS'YMR088C'
p1567
I61
sS'YGR211W'
p1568
I122
sS'YKL139W'
p1569
I39
sS'YJL069C'
p1570
I76
sS'YDR323C'
p1571
I16
sS'YDR344C'
p1572
I4
sS'YJL016W'
p1573
I50
sS'YDR444W'
p1574
I40
sS'YER087W'
p1575
I23
sS'YLR285W'
p1576
I93
sS'YLR267W'
p1577
I10
sS'YDL219W'
p1578
I102
sS'YNL017C'
p1579
I1
sS'YCR024C-A'
p1580
I1326
sS'YCR024C-B'
p1581
I673
sS'YKR024C'
p1582
I72
sS'YKL140W'
p1583
I50
sS'YBR156C'
p1584
I21
sS'YOR076C'
p1585
I26
sS'YEL059C-A'
p1586
I38
sS'YDR405W'
p1587
I61
sS'YOL091W'
p1588
I12
sS'YCL031C'
p1589
I333
sS'YIL027C'
p1590
I119
sS'YLR459W'
p1591
I52
sS'YNL243W'
p1592
I100
sS'YNR026C'
p1593
I45
sS'YHL044W'
p1594
I34
sS'YPR204W'
p1595
I0
sS'YOR311C'
p1596
I88
sS'YHR068W'
p1597
I359
sS'YGR149W'
p1598
I32
sS'YDR458C'
p1599
I46
sS'YKL193C'
p1600
I81
sS'YPR099C'
p1601
I3
sS'YLR310C'
p1602
I83
sS'YNR008W'
p1603
I27
sS'YJR150C'
p1604
I15
sS'YBR301W'
p1605
I1
sS'YFL011W'
p1606
I3
sS'YLR003C'
p1607
I77
sS'YER113C'
p1608
I52
sS'YHR122W'
p1609
I77
sS'YHL017W'
p1610
I40
sS'YJR010C-A'
p1611
I14
sS'YIL085C'
p1612
I80
sS'YMR190C'
p1613
I29
sS'YLR325C'
p1614
I1989
sS'YCR052W'
p1615
I63
sS'YOR272W'
p1616
I100
sS'YMR184W'
p1617
I52
sS'YER172C-A'
p1618
I0
sS'YAL064W-B'
p1619
I3
sS'YDR413C'
p1620
I0
sS'YBR203W'
p1621
I36
sS'YAR029W'
p1622
I0
sS'YNL238W'
p1623
I67
sS'YJL198W'
p1624
I82
sS'YOL135C'
p1625
I16
sS'YOR323C'
p1626
I215
sS'YLL041C'
p1627
I83
sS'YKR074W'
p1628
I138
sS'YOR193W'
p1629
I33
sS'YER026C'
p1630
I85
sS'YMR201C'
p1631
I26
sS'YLR069C'
p1632
I63
sS'YML042W'
p1633
I18
sS'YMR050C'
p1634
I179
sS'YDR069C'
p1635
I23
sS'YGR232W'
p1636
I126
sS'YEL066W'
p1637
I22
sS'YPR035W'
p1638
I1406
sS'YDR542W'
p1639
I9
sS'YDR227W'
p1640
I40
sS'YDL130W-A'
p1641
I228
sS'YKR013W'
p1642
I259
sS'YCR038C'
p1643
I34
sS'YOR157C'
p1644
I208
sS'YNL257C'
p1645
I44
sS'YCL056C'
p1646
I136
sS'YER147C-A'
p1647
I0
sS'YBR093C'
p1648
I5
sS'YBL112C'
p1649
I0
sS'YNL092W'
p1650
I7
sS'YGR045C'
p1651
I5
sS'YAL037C-B'
p1652
I0
sS'YLR134W'
p1653
I14
sS'YLR161W'
p1654
I1
sS'YKL096C-B'
p1655
I1
sS'YPL225W'
p1656
I382
sS'YDL043C'
p1657
I37
sS'YDL012C'
p1658
I113
sS'YDR218C'
p1659
I6
sS'YLR299W'
p1660
I48
sS'YFL003C'
p1661
I8
sS'YGL139W'
p1662
I46
sS'YNL054W'
p1663
I37
sS'YDR156W'
p1664
I154
sS'YPL062W'
p1665
I1
sS'YPR155C'
p1666
I28
sS'YOR137C'
p1667
I35
sS'YKL123W'
p1668
I1
sS'YKL172W'
p1669
I469
sS'YNL336W'
p1670
I22
sS'YDR305C'
p1671
I42
sS'YJR059W'
p1672
I63
sS'YPR100W'
p1673
I141
sS'YDR358W'
p1674
I33
sS'YLR096W'
p1675
I49
sS'YIL104C'
p1676
I34
sS'YKR052C'
p1677
I35
sS'YLR427W'
p1678
I43
sS'YIR032C'
p1679
I14
sS'YGL015C'
p1680
I0
sS'YJR066W'
p1681
I62
sS'YMR127C'
p1682
I23
sS'YIL140W'
p1683
I68
sS'YOL163W'
p1684
I4
sS'YLR197W'
p1685
I1183
sS'YBR213W'
p1686
I15
sS'YAL064W'
p1687
I2
sS'YJL204C'
p1688
I28
sS'YLR244C'
p1689
I221
sS'YJR084W'
p1690
I37
sS'YLR233C'
p1691
I13
sS'YDL238C'
p1692
I8
sS'YGL084C'
p1693
I58
sS'YLR382C'
p1694
I32
sS'YLR154C-H'
p1695
I237
sS'YLR154C-G'
p1696
I259
sS'YLR219W'
p1697
I43
sS'YDR363W'
p1698
I22
sS'YNL114C'
p1699
I2
sS'YNL163C'
p1700
I66
sS'YFR005C'
p1701
I59
sS'YHL036W'
p1702
I19
sS'YFR050C'
p1703
I169
sS'YLR331C'
p1704
I0
sS'YNR069C'
p1705
I12
sS'YGR126W'
p1706
I10
sS'YAR019C'
p1707
I19
sS'YOR024W'
p1708
I0
sS'YGL071W'
p1709
I41
sS'YGL257C'
p1710
I48
sS'YGR020C'
p1711
I336
sS'YOR093C'
p1712
I39
sS'YAL046C'
p1713
I51
sS'YDR198C'
p1714
I35
sS'YAL039C'
p1715
I105
sS'YGR100W'
p1716
I40
sS'YER060W'
p1717
I42
sS'YOL118C'
p1718
I0
sS'YDR286C'
p1719
I49
sS'YHR141C'
p1720
I1442
sS'YPL128C'
p1721
I42
sS'YJL091C'
p1722
I43
sS'YBR191W'
p1723
I1772
sS'YDR380W'
p1724
I309
sS'YGL100W'
p1725
I81
sS'YGL056C'
p1726
I83
sS'YDR485C'
p1727
I47
sS'YPL239W'
p1728
I93
sS'YPR183W'
p1729
I294
sS'YOR206W'
p1730
I155
sS'YBL042C'
p1731
I56
sS'YOR391C'
p1732
I3
sS'YDR525W-A'
p1733
I158
sS'YBR089W'
p1734
I1
sS'YLR075W'
p1735
I3820
sS'YBR054W'
p1736
I74
sS'YLR020C'
p1737
I66
sS'YNL217W'
p1738
I58
sS'YER067W'
p1739
I211
sS'YIL013C'
p1740
I28
sS'YPL206C'
p1741
I59
sS'YDL060W'
p1742
I85
sS'YBR293W'
p1743
I38
sS'YNR052C'
p1744
I66
sS'YHR032W'
p1745
I54
sS'YEL032W'
p1746
I93
sS'YOL076W'
p1747
I44
sS'YDR136C'
p1748
I2
sS'YHR203C'
p1749
I1517
sS'YJL136W-A'
p1750
I0
sS'YML112W'
p1751
I40
sS'YKL207W'
p1752
I146
sS'YGL241W'
p1753
I34
sS'YDL071C'
p1754
I3
sS'YPR176C'
p1755
I50
sS'YDR057W'
p1756
I41
sS'YJL036W'
p1757
I47
sS'YER009W'
p1758
I828
sS'YLR115W'
p1759
I36
sS'YLR140W'
p1760
I0
sS'YGL114W'
p1761
I61
sS'YER167W'
p1762
I99
sS'YMR104C'
p1763
I30
sS'YER185W'
p1764
I12
sS'YDL195W'
p1765
I191
sS'YNL199C'
p1766
I52
sS'YCR026C'
p1767
I39
sS'YBL052C'
p1768
I52
sS'YER159C-A'
p1769
I0
sS'YBR076W'
p1770
I3
sS'YNL317W'
p1771
I31
sS'YLL019C'
p1772
I46
sS'YBR009C'
p1773
I1429
sS'YHR052W'
p1774
I169
sS'YKR026C'
p1775
I101
sS'YJR043C'
p1776
I36
sS'YJR012C'
p1777
I51
sS'YKL060C'
p1778
I7960
sS'YCR044C'
p1779
I46
sS'YDL177C'
p1780
I35
sS'YLR264C-A'
p1781
I1
sS'YNL073W'
p1782
I26
sS'YMR280C'
p1783
I5
sS'YFL020C'
p1784
I2
sS'YNL328C'
p1785
I3
sS'YJL014W'
p1786
I210
sS'YGR217W'
p1787
I35
sS'YOR174W'
p1788
I42
sS'YPR149W'
p1789
I328
sS'YNL015W'
p1790
I201
sS'YCR084C'
p1791
I159
sS'YHR178W'
p1792
I17
sS'YHL050W-A'
p1793
I0
sS'YJL127W-A'
p1794
I0
sS'YLR283W'
p1795
I30
sS'YPL170W'
p1796
I103
sS'YJL221C'
p1797
I4
sS'YDR204W'
p1798
I36
sS'YBR085C-A'
p1799
I203
sS'YDR251W'
p1800
I64
sS'YER089C'
p1801
I54
sS'YML057C-A'
p1802
I0
sS'YOR074C'
p1803
I60
sS'YPL028W'
p1804
I297
sS'YJR152W'
p1805
I13
sS'YKL025C'
p1806
I63
sS'YAR008W'
p1807
I34
sS'YBR158W'
p1808
I174
sS'YOL097C'
p1809
I204
sS'YOR110W'
p1810
I40
sS'YCL033C'
p1811
I96
sS'YNR020C'
p1812
I36
sS'YBR258C'
p1813
I34
sS'YNL146W'
p1814
I21
sS'YAL007C'
p1815
I147
sS'YLR262C-A'
p1816
I1035
sS'YIL115W-A'
p1817
I1
sS'YBR223C'
p1818
I15
sS'YNL241C'
p1819
I195
sS'YJL154C'
p1820
I87
sS'YDR091C'
p1821
I141
sS'YJL123C'
p1822
I99
sS'YHR066W'
p1823
I92
sS'YPL047W'
p1824
I44
sS'YPL188W'
p1825
I51
sS'YLR287C-A'
p1826
I2617
sS'YBR176W'
p1827
I40
sS'YBL071C-B'
p1828
I253
sS'YFR026C'
p1829
I6
sS'YPL036W'
p1830
I10
sS'YGL238W'
p1831
I130
sS'YHR060W'
p1832
I128
sS'YNL128W'
p1833
I13
sS'YLR312C'
p1834
I14
sS'YKL191W'
p1835
I65
sS'YNR006W'
p1836
I52
sS'YHR120W'
p1837
I30
sS'YAR050W'
p1838
I0
sS'YOL137W'
p1839
I40
sS'YDR530C'
p1840
I31
sS'YER111C'
p1841
I17
sS'YER144C'
p1842
I36
sS'YOL039W'
p1843
I1302
sS'YIL083C'
p1844
I61
sS'YHL011C'
p1845
I188
sS'YFR010W-A'
p1846
I2
sS'YGR184C'
p1847
I78
sS'YMR303C'
p1848
I6
sS'YPL060W'
p1849
I17
sS'YDR411C'
p1850
I45
sS'YBR205W'
p1851
I113
sS'YOR321W'
p1852
I39
sS'YMR186W'
p1853
I1377
sS'YJL225C'
p1854
I23
sS'YMR278W'
p1855
I42
sS'YML133W-B'
p1856
I0
sS'YLR136C'
p1857
I29
sS'YML133W-A'
p1858
I0
sS'YGL260W'
p1859
I0
sS'YMR207C'
p1860
I40
sS'YML015C'
p1861
I39
sS'YOR197W'
p1862
I176
sS'YKR089C'
p1863
I62
sS'YDL041W'
p1864
I0
sS'YKR072C'
p1865
I116
sS'YDL014W'
p1866
I642
sS'YML040W'
p1867
I0
sS'YPL114W'
p1868
I7
sS'YER079W'
p1869
I82
sS'YER024W'
p1870
I47
sS'YOR230W'
p1871
I344
sS'YGR234W'
p1872
I314
sS'YMR178W'
p1873
I72
sS'YDR395W'
p1874
I113
sS'YEL068C'
p1875
I42
sS'YNL090W'
p1876
I69
sS'YOR307C'
p1877
I42
sS'YGL052W'
p1878
I8
sS'YBR095C'
p1879
I49
sS'YDR036C'
p1880
I49
sS'YGR043C'
p1881
I33
sS'YPL223C'
p1882
I8
sS'YPL272C'
p1883
I12
sS'YJL222W-A'
p1884
I0
sS'YJL222W-B'
p1885
I0
sS'Q0032'
p1886
I0
sS'YEL032C-A'
p1887
I0
sS'YFL005W'
p1888
I167
sS'YCR010C'
p1889
I3
sS'YMR152W'
p1890
I52
sS'YDR154C'
p1891
I75
sS'YMR125W'
p1892
I107
sS'YMR029C'
p1893
I33
sS'YCL026C-A'
p1894
I23
sS'YCL026C-B'
p1895
I47
sS'YGR118W'
p1896
I1725
sS'YJL055W'
p1897
I143
sS'YPR102C'
p1898
I1934
sS'YNL334C'
p1899
I11
sS'YNL188W'
p1900
I32
sS'YDR303C'
p1901
I58
sS'YPL086C'
p1902
I66
sS'YDR238C'
p1903
I215
sS'YPR153W'
p1904
I12
sS'YBR221W-A'
p1905
I0
sS'YLL003W'
p1906
I27
sS'YER042W'
p1907
I104
sS'YDR109C'
p1908
I26
sS'YDR221W'
p1909
I15
sS'YLR109W'
p1910
I3229
sS'YKR009C'
p1911
I31
sS'YMR078C'
p1912
I30
sS'YLR094C'
p1913
I66
sS'YDL154W'
p1914
I12
sS'YLR041W'
p1915
I1
sS'YJR060W'
p1916
I11
sS'YNL161W'
p1917
I45
sS'YIL146C'
p1918
I14
sS'YLR195C'
p1919
I81
sS'YJL202C'
p1920
I1
sS'YAL066W'
p1921
I0
sS'YCR081C-A'
p1922
I1
sS'YLR231C'
p1923
I54
sS'YKL016C'
p1924
I277
sS'YPL111W'
p1925
I104
sS'YKL174C'
p1926
I42
sS'YKL121W'
p1927
I23
sS'R0040C'
p1928
I217
sS'YLR380W'
p1929
I64
sS'YOR142W-B'
p1930
I284
sS'YOR142W-A'
p1931
I0
sS'YMR012W'
p1932
I173
sS'YER093C'
p1933
I29
sS'YOR032W-A'
p1934
I5
sS'YDL201W'
p1935
I95
sS'YDR468C'
p1936
I62
sS'YFR003C'
p1937
I80
sS'YIL033C'
p1938
I115
sS'YOR368W'
p1939
I24
sS'YGR128C'
p1940
I85
sS'YIL048W'
p1941
I47
sS'YIL142C-A'
p1942
I0
sS'YLR441C'
p1943
I2017
sS'YOL056W'
p1944
I40
sS'YFR052W'
p1945
I201
sS'YGR088W'
p1946
I17
sS'YGL073W'
p1947
I44
sS'YGL259W'
p1948
I0
sS'YGR022C'
p1949
I0
sS'YGR106C'
p1950
I339
sS'YIL168W'
p1951
I6
sS'YGL086W'
p1952
I45
sS'YAL044C'
p1953
I390
sS'YPR081C'
p1954
I26
sS'YBR124W'
p1955
I0
sS'YDR284C'
p1956
I36
sS'YJL097W'
p1957
I180
sS'YOR121C'
p1958
I105
sS'YBR193C'
p1959
I29
sS'YHR143W'
p1960
I259
sS'YMR315W-A'
p1961
I1
sS'YLR157W-E'
p1962
I542
sS'YLR157W-D'
p1963
I0
sS'YPR101W'
p1964
I55
sS'YCL004W'
p1965
I26
sS'YPL042C'
p1966
I37
sS'YBL044W'
p1967
I1
sS'YDR430C'
p1968
I47
sS'YGR193C'
p1969
I97
sS'YDR487C'
p1970
I152
sS'YPR185W'
p1971
I51
sS'YER065C'
p1972
I28
sS'YLR077W'
p1973
I60
sS'YBR056W'
p1974
I68
sS'YLL020C'
p1975
I7
sS'YHR034C'
p1976
I20
sS'YBL019W'
p1977
I16
sS'YOL070C'
p1978
I58
sS'YDL062W'
p1979
I0
sS'YGR150C'
p1980
I46
sS'YPL200W'
p1981
I0
sS'YNR054C'
p1982
I128
sS'YDR130C'
p1983
I16
sS'YIL015W'
p1984
I16
sS'YEL030W'
p1985
I12
sS'YBR291C'
p1986
I154
sS'YPL135C-A'
p1987
I0
sS'YML114C'
p1988
I37
sS'YHR201C'
p1989
I78
sS'YNL299W'
p1990
I33
sS'YGR008C'
p1991
I324
sS'YNL311C'
p1992
I34
sS'YPR170C'
p1993
I10
sS'YJL030W'
p1994
I61
sS'YDR165W'
p1995
I87
sS'YGR248W'
p1996
I10
sS'YBR074W'
p1997
I61
sS'YOR150W'
p1998
I104
sS'YKL102C'
p1999
I2
sS'YML036W'
p2000
I52
sS'YDL088C'
p2001
I64
sS'YLR113W'
p2002
I127
sS'YLR142W'
p2003
I26
sS'YLL058W'
p2004
I21
sS'YDL197C'
p2005
I23
sS'YER130C'
p2006
I90
sS'YER165W'
p2007
I979
sS'YMR106C'
p2008
I17
sS'YER187W'
p2009
I12
sS'YGL112C'
p2010
I82
sS'YMR244W'
p2011
I1
sS'YDL008W'
p2012
I37
sS'YBL050W'
p2013
I135
sS'YGR102C'
p2014
I78
sS'YJR014W'
p2015
I195
sS'YLR281C'
p2016
I2
sS'YPL018W'
p2017
I9
sS'YPL185W'
p2018
I4
sS'YJR041C'
p2019
I44
sS'YDL248W'
p2020
I43
sS'YKR028W'
p2021
I82
sS'YKL037W'
p2022
I8
sS'YMR286W'
p2023
I112
sS'YDL175C'
p2024
I45
sS'YKL168C'
p2025
I32
sS'YFL026W'
p2026
I10
sS'YDL102W'
p2027
I41
sS'YGL029W'
p2028
I143
sS'YDL128W'
p2029
I136
sS'YPL098C'
p2030
I136
sS'YMR033W'
p2031
I79
sS'YPR003C'
p2032
I38
sS'YGR262C'
p2033
I52
sS'YDR202C'
p2034
I34
sS'YGR215W'
p2035
I91
sS'YNL013C'
p2036
I1
sS'YDR253C'
p2037
I18
sS'YCR082W'
p2038
I174
sS'YJL223C'
p2039
I0
sS'YOR001W'
p2040
I78
sS'YKL088W'
p2041
I34
sS'YEL075W-A'
p2042
I9
sS'YLR276C'
p2043
I126
sS'YDL222C'
p2044
I8
sS'YNL140C'
p2045
I0
sS'YOL095C'
p2046
I20
sS'YNR022C'
p2047
I61
sS'YDR409W'
p2048
I32
sS'YBR221C'
p2049
I457
sS'YEL018C-A'
p2050
I1
sS'YDR169C-A'
p2051
I0
sS'YDR097C'
p2052
I47
sS'YNR003W-A'
p2053
I0
sS'YBR174C'
p2054
I0
sS'YJL121C'
p2055
I109
sS'YKL008C'
p2056
I216
sS'YER158W-A'
p2057
I3
sS'YBR103W'
p2058
I26
sS'YNR004W'
p2059
I16
sS'YPL032C'
p2060
I98
sS'YHR064C'
p2061
I351
sS'YKL197C'
p2062
I18
sS'YMR020W'
p2063
I32
sS'YPL172C'
p2064
I30
sS'YDR377W'
p2065
I213
sS'YIR007W'
p2066
I28
sS'YPL045W'
p2067
I36
sS'YLR314C'
p2068
I124
sS'YFR020W'
p2069
I20
sS'YNL126W'
p2070
I37
sS'YOR327C'
p2071
I289
sS'YOL139C'
p2072
I465
sS'YBR207W'
p2073
I77
sS'YNL269W'
p2074
I0
sS'YDR532C'
p2075
I27
sS'YPL283W-A'
p2076
I0
sS'YKL210W'
p2077
I168
sS'YER146W'
p2078
I178
sS'YHR159W'
p2079
I12
sS'YPL132W'
p2080
I44
sS'YIL114C'
p2081
I34
sS'YJL089W'
p2082
I3
sS'YJL052C-A'
p2083
I0
sS'YMR301C'
p2084
I48
sS'YBL029W'
p2085
I25
sS'YMR188C'
p2086
I67
sS'YGR154C'
p2087
I18
sS'YOR389W'
p2088
I28
sS'YLR130C'
p2089
I82
sS'YER022W'
p2090
I30
sS'YBR140C'
p2091
I88
sS'YKR070W'
p2092
I47
sS'YDL016C'
p2093
I23
sS'YMR205C'
p2094
I477
sS'YNL203C'
p2095
I5
sS'YJL185C'
p2096
I12
sS'YNL022C'
p2097
I64
sS'YML017W'
p2098
I10
sS'YKR087C'
p2099
I66
sS'YOR232W'
p2100
I214
sS'YGR281W'
p2101
I563
sS'YGR236C'
p2102
I2
sS'YKR091W'
p2103
I56
sS'YHL013C'
p2104
I71
sS'YOR059C'
p2105
I34
sS'YLR120W-A'
p2106
I20
sS'YOR309C'
p2107
I65
sS'YBR097W'
p2108
I33
sS'YMR227C'
p2109
I32
sS'YDR030C'
p2110
I12
sS'YPL221W'
p2111
I127
sS'YPL274W'
p2112
I34
sS'YEL051W'
p2113
I409
sS'YOL004W'
p2114
I111
sS'YGR014W'
p2115
I195
sS'YGL050W'
p2116
I75
sS'YER179W'
p2117
I7
sS'Q0010'
p2118
I0
sS'Q0017'
p2119
I0
sS'YMR150C'
p2120
I61
sS'YML056C'
p2121
I587
sS'YFL007W'
p2122
I83
sS'YGL182C'
p2123
I3
sS'YCR012W'
p2124
I4093
sS'Q0275'
p2125
I0
sS'YPL084W'
p2126
I42
sS'YDR354W'
p2127
I105
sS'YDR301W'
p2128
I55
sS'YJL053W'
p2129
I56
sS'YPR104C'
p2130
I28
sS'YPR151C'
p2131
I7
sS'YOR381W-A'
p2132
I1
sS'YNL332W'
p2133
I5
sS'YML028W'
p2134
I2410
sS'YLL001W'
p2135
I62
sS'YCL067C'
p2136
I99
sS'YCL001W'
p2137
I138
sS'YGL109W'
p2138
I3
sS'YDR223W'
p2139
I3
sS'YLR043C'
p2140
I933
sS'YJR062C'
p2141
I34
sS'YBR035C'
p2142
I203
sS'YGR010W'
p2143
I30
sS'YNL167C'
p2144
I38
sS'YAL060W'
p2145
I64
sS'YIL144W'
p2146
I26
sS'YPL251W'
p2147
I0
sS'YIL133C'
p2148
I1105
sS'YLR193C'
p2149
I77
sS'YJL200C'
p2150
I289
sS'YBR148W'
p2151
I23
sS'YPL113C'
p2152
I16
sS'YKL041W'
p2153
I66
sS'YML012C-A'
p2154
I1
sS'YNL067W'
p2155
I645
sS'YDR089W'
p2156
I63
sS'YKL014C'
p2157
I86
sS'YLR237W'
p2158
I75
sS'YKL176C'
p2159
I59
sS'YDR249C'
p2160
I37
sS'YER091C'
p2161
I491
sS'YIR024C'
p2162
I28
sS'YJR008W'
p2163
I22
sS'YDL203C'
p2164
I34
sS'YML031W'
p2165
I64
sS'YLR215C'
p2166
I34
sS'YML082W'
p2167
I55
sS'YGL063C-A'
p2168
I0
sS'YOL054W'
p2169
I29
sS'YFR001W'
p2170
I178
sS'YNL109W'
p2171
I19
sS'YFR054C'
p2172
I1
sS'YIL031W'
p2173
I43
sS'YLR203C'
p2174
I75
sS'YLR342W'
p2175
I713
sS'YLR335W'
p2176
I108
sS'YJR102C'
p2177
I31
sS'YOR020C'
p2178
I482
sS'YGL131C'
p2179
I23
sS'YJR088C'
p2180
I64
sS'YGR104C'
p2181
I27
sS'YLR368W'
p2182
I59
sS'YBR268W'
p2183
I121
sS'YPR083W'
p2184
I20
sS'YHL019W-A'
p2185
I1
sS'YGL088W'
p2186
I189
sS'YGR173W'
p2187
I79
sS'YER084W-A'
p2188
I3
sS'YDR282C'
p2189
I12
sS'YDR009W'
p2190
I8
sS'YJL095W'
p2191
I40
sS'YHL048C-A'
p2192
I4
sS'YBR126C'
p2193
I195
sS'YOL149W'
p2194
I75
sS'YGL202W'
p2195
I410
sS'YJR128W'
p2196
I0
sS'YPR187W'
p2197
I329
sS'YEL018W'
p2198
I47
sS'YFL012W-A'
p2199
I22
sS'YDR432W'
p2200
I325
sS'YGR195W'
p2201
I66
sS'YGL104C'
p2202
I20
sS'YIL082W-A'
p2203
I64
sS'YBL046W'
p2204
I32
sS'YHR036W'
p2205
I32
sS'YOL072W'
p2206
I23
sS'YHR131W-A'
p2207
I0
sS'YGL159W'
p2208
I36
sS'YIL017C'
p2209
I25
sS'YOL123W'
p2210
I128
sS'YDR132C'
p2211
I20
sS'YML116W'
p2212
I54
sS'YNR056C'
p2213
I2
sS'YDR185C'
p2214
I17
sS'YBR084C-A'
p2215
I1302
sS'YHR207C'
p2216
I60
sS'YNL220W'
p2217
I385
sS'YGR060W'
p2218
I247
sS'YJL032W'
p2219
I3
sS'YNL313C'
p2220
I57
sS'YPL257W-A'
p2221
I0
sS'YGL031C'
p2222
I550
sS'YOR183W'
p2223
I0
sS'YGR124W'
p2224
I408
sS'YPR172W'
p2225
I39
sS'YDR053W'
p2226
I0
sS'YLR111W'
p2227
I0
sS'YML034W'
p2228
I46
sS'YPR023C'
p2229
I76
sS'YPL126W'
p2230
I127
sS'YLR144C'
p2231
I32
sS'YEL072W'
p2232
I24
sS'YPR058W'
p2233
I96
sS'YDL020C'
p2234
I344
sS'YML061C'
p2235
I36
sS'YBR050C'
p2236
I14
sS'YDL191W'
p2237
I2228
sS'YHR101C'
p2238
I24
sS'YER163C'
p2239
I57
sS'YPL268W'
p2240
I34
sS'YER132C'
p2241
I44
sS'YER039C-A'
p2242
I5
sS'YGL110C'
p2243
I37
sS'YDR179W-A'
p2244
I24
sS'YMR242C'
p2245
I757
sS'YBR079C'
p2246
I228
sS'YBR078W'
p2247
I1427
sS'YPL183C'
p2248
I82
sS'YKL031W'
p2249
I2
sS'YPR118W'
p2250
I104
sS'YHR056C'
p2251
I62
sS'YJL105W'
p2252
I2
sS'YJR016C'
p2253
I212
sS'YDL100C'
p2254
I282
sS'YMR284W'
p2255
I32
sS'YGL032C'
p2256
I9
sS'YMR035W'
p2257
I40
sS'YOR178C'
p2258
I15
sS'YKR011C'
p2259
I39
sS'YOR393W'
p2260
I0
sS'YBR031W'
p2261
I2003
sS'YPR005C'
p2262
I27
sS'YNL044W'
p2263
I155
sS'YDR200C'
p2264
I38
sS'YDR255C'
p2265
I12
sS'YFL002W-A'
p2266
I183
sS'YGR260W'
p2267
I295
sS'YNL011C'
p2268
I34
sS'YKL057C'
p2269
I83
sS'YLR274W'
p2270
I45
sS'YJR156C'
p2271
I19
sS'YOR007C'
p2272
I506
sS'YDL220C'
p2273
I10
sS'YNL142W'
p2274
I25
sS'YHR019C'
p2275
I487
sS'YAL003W'
p2276
I2270
sS'YGR138C'
p2277
I88
sS'YIL078W'
p2278
I479
sS'YFL024C'
p2279
I51
sS'YDR095C'
p2280
I3
sS'YJL127C'
p2281
I13
sS'YBL092W'
p2282
I754
sS'YFL053W'
p2283
I0
sS'YBR201C-A'
p2284
I39
sS'YJL158C'
p2285
I1527
sS'YKL156C-A'
p2286
I0
sS'YDR375C'
p2287
I36
sS'YIR001C'
p2288
I42
sS'YKL195W'
p2289
I149
sS'YNL179C'
p2290
I5
sS'YDR320C'
p2291
I48
sS'YNR002C'
p2292
I8
sS'YPL030W'
p2293
I49
sS'YDR452W'
p2294
I163
sS'YLR316C'
p2295
I39
sS'YFR022W'
p2296
I25
sS'YNL124W'
p2297
I71
sS'YGL225W'
p2298
I306
sS'YAR023C'
p2299
I7
sS'YBR209W'
p2300
I0
sS'YOR325W'
p2301
I0
sS'YDR534C'
p2302
I6
sS'YMR324C'
p2303
I0
sS'YCR018C-A'
p2304
I398
sS'YDR129C'
p2305
I184
sS'YOR069W'
p2306
I39
sS'YGR038W'
p2307
I85
sS'YER140W'
p2308
I29
sS'YFL029C'
p2309
I38
sS'YBR227C'
p2310
I46
sS'YLR378C'
p2311
I316
sS'YHR157W'
p2312
I5
sS'YPL130W'
p2313
I4
sS'YFL031W'
p2314
I161
sS'YIL116W'
p2315
I243
sS'YOL100W'
p2316
I33
sS'YGR156W'
p2317
I39
sS'YFR048W'
p2318
I43
sS'YGL169W'
p2319
I52
sS'YMR307W'
p2320
I1415
sS'YOL006C'
p2321
I66
sS'YDL066W'
p2322
I178
sS'YLR132C'
p2323
I11
sS'YER020W'
p2324
I49
sS'YML011C'
p2325
I27
sS'YNL201C'
p2326
I52
sS'YDR398W'
p2327
I176
sS'YCR028C-A'
p2328
I290
sS'YER075C'
p2329
I48
sS'YJL187C'
p2330
I31
sS'YLR018C'
p2331
I38
sS'YKR085C'
p2332
I63
sS'YLR063W'
p2333
I53
sS'YOR234C'
p2334
I1414
sS'YBR289W'
p2335
I37
sS'YKR093W'
p2336
I84
sS'YKL212W'
p2337
I146
sS'YMR221C'
p2338
I70
sS'Q0070'
p2339
I0
sS'YMR105W-A'
p2340
I2
sS'YOR269W'
p2341
I28
sS'YPL276W'
p2342
I0
sS'YOR212W'
p2343
I143
sS'YDR520C'
p2344
I21
sS'YGR016W'
p2345
I13
sS'YEL053C'
p2346
I53
sS'YPL037C'
p2347
I901
sS'YMR156C'
p2348
I15
sS'YCR014C'
p2349
I17
sS'YGL184C'
p2350
I36
sS'YHR125W'
p2351
I0
sS'YLR158C'
p2352
I182
sS'YMR129W'
p2353
I64
sS'YBL071C'
p2354
I2
sS'YPR106W'
p2355
I34
sS'YER068C-A'
p2356
I0
sS'YDR158W'
p2357
I835
sS'YHR065C'
p2358
I95
sS'YOR164C'
p2359
I111
sS'YPL082C'
p2360
I60
sS'YOL085W-A'
p2361
I5
sS'YGR283C'
p2362
I51
sS'YMR174C'
p2363
I41
sS'YCR049C'
p2364
I0
sS'YLR429W'
p2365
I93
sS'YLL007C'
p2366
I20
sS'YCL065W'
p2367
I6
sS'YCR032W'
p2368
I38
sS'YDR105C'
p2369
I57
sS'YLR045C'
p2370
I33
sS'YNL063W'
p2371
I26
sS'YLR098C'
p2372
I31
sS'YIR038C'
p2373
I38
sS'YDL209C'
p2374
I33
sS'YPL117C'
p2375
I206
sS'YKR058W'
p2376
I56
sS'YBR033W'
p2377
I17
sS'YDR369C'
p2378
I18
sS'YAL062W'
p2379
I30
sS'YLR453C'
p2380
I17
sS'YMR298W'
p2381
I134
sS'YDR350C'
p2382
I36
sS'YNL165W'
p2383
I22
sS'YDR261C'
p2384
I112
sS'YIL131C'
p2385
I41
sS'YBR146W'
p2386
I78
sS'YAL044W-A'
p2387
I70
sS'YKL012W'
p2388
I46
sS'YPL115C'
p2389
I48
sS'YLR235C'
p2390
I0
sS'YJL164C'
p2391
I34
sS'YNL065W'
p2392
I115
sS'YNL030W'
p2393
I1359
sS'YLR191W'
p2394
I32
sS'YJL004C'
p2395
I60
sS'YDR356W'
p2396
I29
sS'YDR426C'
p2397
I7
sS'YJL051W'
p2398
I10
sS'YLR217W'
p2399
I0
sS'YKR032W'
p2400
I0
sS'YGR296C-B'
p2401
I0
sS'YGR296C-A'
p2402
I0
sS'YDL205C'
p2403
I7
sS'YML080W'
p2404
I36
sS'YHR180W'
p2405
I18
sS'YMR016C'
p2406
I85
sS'YER097W'
p2407
I30
sS'YIL037C'
p2408
I16
sS'YOL052C'
p2409
I80
sS'YDR475C'
p2410
I40
sS'YFR056C'
p2411
I0
sS'YER107W-A'
p2412
I0
sS'YJR100C'
p2413
I42
sS'YLR340W'
p2414
I3634
sS'YDL178W'
p2415
I91
sS'YKL043W'
p2416
I73
sS'YJR020W'
p2417
I1
sS'YGR171C'
p2418
I26
sS'YAL048C'
p2419
I17
sS'YPR085C'
p2420
I35
sS'YGL200C'
p2421
I288
sS'YOR019W'
p2422
I19
sS'YOR044W'
p2423
I53
sS'YOR387C'
p2424
I0
sS'YBR120C'
p2425
I38
sS'YDR280W'
p2426
I86
sS'YHR138C'
p2427
I78
sS'YPR189W'
p2428
I57
sS'YEL008C-A'
p2429
I2
sS'YOR008C-A'
p2430
I3
sS'YGR197C'
p2431
I30
sS'YIL099W'
p2432
I8
sS'YLL024C'
p2433
I1798
sS'YHL007C'
p2434
I95
sS'YGL106W'
p2435
I294
sS'YOR375C'
p2436
I208
sS'YBL048W'
p2437
I5
sS'YOR022C'
p2438
I20
sS'YIL019W'
p2439
I25
sS'YMR086C-A'
p2440
I1
sS'YER074W-A'
p2441
I163
sS'YOR099W'
p2442
I174
sS'YOL029C'
p2443
I20
sS'YNL222W'
p2444
I47
sS'YAR068W'
p2445
I21
sS'YML118W'
p2446
I6
sS'YHR205W'
p2447
I67
sS'YDR187C'
p2448
I0
sS'YOL121C'
p2449
I1204
sS'YNR058W'
p2450
I10
sS'YOR394C-A'
p2451
I2
sS'YMR240C'
p2452
I29
sS'YMR215W'
p2453
I135
sS'YDR051C'
p2454
I83
sS'YGR062C'
p2455
I34
sS'YOR181W'
p2456
I71
sS'YPL240C'
p2457
I213
sS'YDL022W'
p2458
I241
sS'YPR021C'
p2459
I32
sS'YGR244C'
p2460
I85
sS'YDR496C'
p2461
I169
sS'YEL070W'
p2462
I8
sS'YML032C'
p2463
I35
sS'YLR146C'
p2464
I49
sS'YGR059W'
p2465
I9
sS'YDR543C'
p2466
I5
sS'YDL193W'
p2467
I45
sS'YER067C-A'
p2468
I1
sS'YBR052C'
p2469
I187
sS'YER134C'
p2470
I51
sS'YNL088W'
p2471
I58
sS'YER161C'
p2472
I45
sS'YBR103C-A'
p2473
I1
sS'YBR083W'
p2474
I90
sS'YHR103W'
p2475
I67
sS'YDR461C-A'
p2476
I25
sS'YBR058C-A'
p2477
I224
sS'YOR042W'
p2478
I78
sS'YCR079W'
p2479
I21
sS'YDR164C'
p2480
I52
sS'YKL033W'
p2481
I24
sS'YNL046W'
p2482
I44
sS'YJL107C'
p2483
I6
sS'YPL181W'
p2484
I52
sS'YHR054C'
p2485
I71
sS'YDL106C'
p2486
I31
sS'YHR081W'
p2487
I125
sS'YPL014W'
p2488
I55
sS'YDL179W'
p2489
I46
sS'YER056C'
p2490
I579
sS'YML063W'
p2491
I1981
sS'YLR417W'
p2492
I24
sS'YBL054W'
p2493
I71
sS'YLR084C'
p2494
I102
sS'YMR080C'
p2495
I78
sS'YMR037C'
p2496
I38
sS'YGL025C'
p2497
I38
sS'YCR102W-A'
p2498
I0
sS'YLR346C'
p2499
I73
sS'YPR007C'
p2500
I4
sS'YMR117C'
p2501
I9
sS'YDL124W'
p2502
I219
sS'YDR257C'
p2503
I36
sS'YGR266W'
p2504
I27
sS'YGR219W'
p2505
I7
sS'YHR163W'
p2506
I143
sS'YJR106W'
p2507
I17
sS'YIL176C'
p2508
I0
sS'YDR261W-A'
p2509
I0
sS'YDR261W-B'
p2510
I112
sS'YLR272C'
p2511
I31
sS'YOR005C'
p2512
I19
sS'YDL226C'
p2513
I132
sS'YKL059C'
p2514
I34
sS'YGL092W'
p2515
I88
sS'YCL039W'
p2516
I118
sS'YER148W-A'
p2517
I12
sS'YGR136W'
p2518
I132
sS'YDR513W'
p2519
I383
sS'YGR070W'
p2520
I23
sS'YKL084W'
p2521
I83
sS'YNL079C'
p2522
I451
sS'YFL051C'
p2523
I1
sS'YJL125C'
p2524
I68
sS'YBR107C'
p2525
I10
sS'YBL090W'
p2526
I62
sS'YPR130C'
p2527
I4
sS'YKL142W'
p2528
I206
sS'YPL049C'
p2529
I121
sS'YNL122C'
p2530
I59
sS'YJL070C'
p2531
I24
sS'YDR373W'
p2532
I120
sS'YIR003W'
p2533
I39
sS'YDR322W'
p2534
I67
sS'YHR073W-A'
p2535
I0
sS'YGL227W'
p2536
I35
sS'YOR350C'
p2537
I16
sS'YHL024W'
p2538
I3
sS'YER142C'
p2539
I61
sS'YGR036C'
p2540
I52
sS'YDR536W'
p2541
I2
sS'YHR199C-A'
p2542
I18
sS'YAL001C'
p2543
I42
sS'YAL054C'
p2544
I38
sS'YHR155W'
p2545
I36
sS'YPL136W'
p2546
I0
sS'YOL102C'
p2547
I40
sS'YBR252W'
p2548
I92
sS'YBR225W'
p2549
I29
sS'YIL110W'
p2550
I55
sS'YBR169C'
p2551
I43
sS'YMR305C'
p2552
I701
sS'YJL085W'
p2553
I33
sS'YDR224C'
p2554
I1477
sS'YEL055C'
p2555
I89
sS'YPR193C'
p2556
I6
sS'YML013W'
p2557
I44
sS'YPL077C'
p2558
I9
sS'YNL207W'
p2559
I78
sS'YDR428C'
p2560
I38
sS'YJL181W'
p2561
I22
sS'YOR210W'
p2562
I279
sS'YBL034C'
p2563
I23
sS'YOL008W'
p2564
I35
sS'YER077C'
p2565
I40
sS'YBR089C-A'
p2566
I55
sS'YLR089C'
p2567
I186
sS'YKR083C'
p2568
I55
sS'YMR209C'
p2569
I32
sS'YER128W'
p2570
I28
sS'YLR061W'
p2571
I1524
sS'YKL214C'
p2572
I42
sS'YOL088C'
p2573
I53
sS'YKR095W'
p2574
I77
sS'YMR223W'
p2575
I32
sS'Q0055'
p2576
I0
sS'Q0050'
p2577
I0
sS'YPR048W'
p2578
I39
sS'YBR109W-A'
p2579
I1
sS'YCR047W-A'
p2580
I0
sS'YBL027W'
p2581
I1708
sS'YER088W-B'
p2582
I2
sS'YCR016W'
p2583
I108
sS'YJL028W'
p2584
I0
sS'YMR154C'
p2585
I12
sS'YGL186C'
p2586
I107
sS'YLR149C-A'
p2587
I0
sS'YGL206C'
p2588
I136
sS'YDL225W'
p2589
I61
sS'YBL073W'
p2590
I0
sS'YML079W'
p2591
I112
sS'YMR049C'
p2592
I102
sS'YFL041W-A'
p2593
I5
sS'YOR166C'
p2594
I51
sS'YPL257W-B'
p2595
I241
sS'YGR285C'
p2596
I529
sS'YPR068C'
p2597
I19
sS'YDR374W-A'
p2598
I75
sS'YCR030C'
p2599
I64
sS'YMR176W'
p2600
I39
sS'YCL063W'
p2601
I93
sS'YER048C'
p2602
I106
sS'YBR064W'
p2603
I0
sS'YDR107C'
p2604
I10
sS'YLL005C'
p2605
I1
sS'YOR148C'
p2606
I62
sS'YLR047C'
p2607
I15
sS'YDL147W'
p2608
I229
sS'YMR063W'
p2609
I7
sS'YMR014W'
p2610
I87
sS'YBL008W-A'
p2611
I2
sS'YHL018W'
p2612
I5
sS'YDR263C'
p2613
I12
sS'YIL137C'
p2614
I52
sS'YBR119W'
p2615
I81
sS'YFL016C'
p2616
I71
sS'YJL162C'
p2617
I28
sS'YBR144C'
p2618
I7
sS'YDR085C'
p2619
I79
sS'YNL032W'
p2620
I44
sS'YPL080C'
p2621
I0
sS'YGR227W'
p2622
I43
sS'YDR070C'
p2623
I21
sS'YJL006C'
p2624
I34
sS'YOR281C'
p2625
I108
sS'YHR023W'
p2626
I48
sS'YER095W'
p2627
I51
sS'YLR170C'
p2628
I85
sS'YML086C'
p2629
I109
sS'YKR030W'
p2630
I65
sS'YDL207W'
p2631
I59
sS'YLR211C'
p2632
I21
sS'YHR182W'
p2633
I22
sS'YBR122C'
p2634
I72
sS'YHR001W'
p2635
I50
sS'YDR477W'
p2636
I71
sS'YBR199W'
p2637
I122
sS'YOL050C'
p2638
I0
sS'YIL042C'
p2639
I27
sS'YIL035C'
p2640
I149
sS'YIL159W'
p2641
I31
sS'YML121W'
p2642
I66
sS'YLR339C'
p2643
I0
sS'YNR061C'
p2644
I88
sS'YKL010C'
p2645
I88
sS'YGR177C'
p2646
I28
sS'YIR019C'
p2647
I43
sS'YKL045W'
p2648
I48
sS'YJR022W'
p2649
I38
sS'YKL185W'
p2650
I78
sS'YPR043W'
p2651
I4291
sS'YLR364W'
p2652
I37
sS'YPR087W'
p2653
I6
sS'YJR124C'
p2654
I56
sS'YNL250W'
p2655
I18
sS'YOR377W'
p2656
I32
sS'YLL026W'
p2657
I232
sS'YCL002C'
p2658
I58
sS'YGL108C'
p2659
I60
sS'YHL005C'
p2660
I0
sS'YDR388W'
p2661
I174
sS'YGR199W'
p2662
I65
sS'YHL050C'
p2663
I1
sS'YGR082W'
p2664
I211
sS'YDR436W'
p2665
I26
sS'YPL189W'
p2666
I12
sS'YKL116C'
p2667
I41
sS'YOR319W'
p2668
I33
sS'YGR119C'
p2669
I82
sS'YAR066W'
p2670
I34
sS'YDR181C'
p2671
I24
sS'YOL127W'
p2672
I1987
sS'YNL224C'
p2673
I29
sS'YAL020C'
p2674
I22
sS'YBR275C'
p2675
I38
sS'YBL013W'
p2676
I3
sS'YOR187W'
p2677
I229
sS'YDR501W'
p2678
I16
sS'YGR064W'
p2679
I3
sS'YMR217W'
p2680
I478
sS'YGL035C'
p2681
I52
sS'YCR086W'
p2682
I24
sS'YDR494W'
p2683
I54
sS'YGR246C'
p2684
I46
sS'YEL076C'
p2685
I0
sS'YPL242C'
p2686
I51
sS'YPR027C'
p2687
I0
sS'YDR206W'
p2688
I52
sS'YDL024C'
p2689
I6
sS'YMR239C'
p2690
I42
sS'YLR028C'
p2691
I159
sS'YBR081C'
p2692
I45
sS'YDR028C'
p2693
I65
sS'YHR105W'
p2694
I7
sS'YHR035W'
p2695
I12
sS'YOR358W'
p2696
I19
sS'YDL079C'
p2697
I19
sS'YGL188C-A'
p2698
I141
sS'YNL180C'
p2699
I112
sS'YDR162C'
p2700
I62
sS'YJL101C'
p2701
I97
sS'YBL069W'
p2702
I54
sS'YNL040W'
p2703
I41
sS'YJL049W'
p2704
I46
sS'YOR129C'
p2705
I19
sS'YMR069W'
p2706
I5
sS'YIL071W-A'
p2707
I2
sS'YBR010W'
p2708
I1639
sS'YDL104C'
p2709
I27
sS'YKL119C'
p2710
I66
sS'YPL016W'
p2711
I45
sS'YIR025W'
p2712
I14
sS'YLR086W'
p2713
I41
sS'YER054C'
p2714
I15
sS'YKR015C'
p2715
I1
sS'YML030W'
p2716
I102
sS'YML065W'
p2717
I32
sS'YMR082C'
p2718
I0
sS'YER001W'
p2719
I68
sS'YLR285C-A'
p2720
I65
sS'YGL023C'
p2721
I54
sS'YPR009W'
p2722
I61
sS'YMR115W'
p2723
I35
sS'YDL126C'
p2724
I577
sS'YGR264C'
p2725
I227
sS'YGL258W-A'
p2726
I0
sS'YIL129C'
p2727
I58
sS'YPL169C'
p2728
I64
sS'YHR161C'
p2729
I70
sS'YIL174W'
p2730
I0
sS'YDL224C'
p2731
I52
sS'YLR225C'
p2732
I90
sS'YGL090W'
p2733
I10
sS'YGR134W'
p2734
I30
sS'YLR270W'
p2735
I81
sS'YGR169C'
p2736
I35
sS'YKL086W'
p2737
I10
sS'YBL096C'
p2738
I1
sS'YOL155W-A'
p2739
I1
sS'YFL057C'
p2740
I6
sS'YFL028C'
p2741
I107
sS'YNL144C'
p2742
I66
sS'YDR371W'
p2743
I43
sS'YDR456W'
p2744
I84
sS'YDR324C'
p2745
I82
sS'YJL072C'
p2746
I34
sS'YOR112W'
p2747
I37
sS'YPR132W'
p2748
I2733
sS'YKL144C'
p2749
I50
sS'YNL175C'
p2750
I166
sS'YNL120C'
p2751
I0
sS'YLR307W'
p2752
I16
sS'YOR356W'
p2753
I71
sS'YGR152C'
p2754
I95
sS'YAR027W'
p2755
I0
sS'YHL026C'
p2756
I35
sS'YGL221C'
p2757
I85
sS'YGR034W'
p2758
I2404
sS'YJR147W'
p2759
I15
sS'YHR128W'
p2760
I226
sS'YDR538W'
p2761
I39
sS'YIL112W'
p2762
I74
sS'YOL104C'
p2763
I6
sS'YOR343W-B'
p2764
I342
sS'YOR343W-A'
p2765
I0
sS'YNR028W'
p2766
I69
sS'YAL056W'
p2767
I49
sS'YBR250W'
p2768
I11
sS'YKL071W'
p2769
I65
sS'YPL134C'
p2770
I41
sS'YJL087C'
p2771
I33
sS'YPL143W'
p2772
I1997
sS'YGL174W'
p2773
I18
sS'YOR120W'
p2774
I62
sS'YEL057C'
p2775
I20
sS'YBL036C'
p2776
I145
sS'YLR358C'
p2777
I0
sS'YGR183C'
p2778
I226
sS'YPR191W'
p2779
I184
sS'YDL049C'
p2780
I32
sS'YBR170C'
p2781
I46
sS'YER071C'
p2782
I44
sS'YNL272C'
p2783
I45
sS'YBR048W'
p2784
I953
sS'YNL205C'
p2785
I0
sS'YKR081C'
p2786
I129
sS'YLR067C'
p2787
I37
sS'YJL183W'
p2788
I65
sS'YNR042W'
p2789
I0
sS'YBL059C-A'
p2790
I63
sS'YHR022C'
p2791
I11
sS'YOL031C'
p2792
I44
sS'YIR041W'
p2793
I0
sS'YNL258C'
p2794
I50
sS'YJR094W-A'
p2795
I1386
sS'YKL216W'
p2796
I189
sS'YMR175W-A'
p2797
I2
sS'YGR012W'
p2798
I49
sS'YPL041C'
p2799
I18
sS'YNL098C'
p2800
I185
sS'YKL023C-A'
p2801
I52
sS'YKR097W'
p2802
I20
sS'YML102W'
p2803
I24
sS'YJL047C-A'
p2804
I58
sS'YCR090C'
p2805
I86
sS'YDR049W'
p2806
I36
sS'YJL020W-A'
p2807
I0
sS'YER100W'
p2808
I103
sS'YLR399W-A'
p2809
I0
sS'YJL026W'
p2810
I260
sS'YCR018C'
p2811
I31
sS'YBL075C'
p2812
I20
sS'YOR160W'
p2813
I44
sS'YGL133W'
p2814
I53
sS'YMR261C'
p2815
I82
sS'YCR036W'
p2816
I67
sS'YGR287C'
p2817
I10
sS'YMR170C'
p2818
I16
sS'YCL061C'
p2819
I71
sS'YOR238W'
p2820
I48
sS'YDR101C'
p2821
I138
sS'YMR158C-A'
p2822
I7
sS'YOR146W'
p2823
I0
sS'YGL083W'
p2824
I30
sS'YLR049C'
p2825
I69
sS'YBR066C'
p2826
I30
sS'YDL022C-A'
p2827
I0
sS'YIL046W-A'
p2828
I1
sS'YMR061W'
p2829
I63
sS'YJR002W'
p2830
I85
sS'YDL145C'
p2831
I174
sS'YNL061W'
p2832
I142
sS'YGR161W-A'
p2833
I0
sS'YGL068W'
p2834
I179
sS'YGR161W-C'
p2835
I63
sS'YGR161W-B'
p2836
I183
sS'YIL135C'
p2837
I48
sS'YER165C-A'
p2838
I0
sS'YDR087C'
p2839
I76
sS'YMR294W'
p2840
I21
sS'YDR265W'
p2841
I34
sS'YER136W'
p2842
I163
sS'YBR131C-A'
p2843
I0
sS'YOR283W'
p2844
I135
sS'YGL211W'
p2845
I40
sS'YER056C-A'
p2846
I1787
sS'YDR352W'
p2847
I44
sS'YKL129C'
p2848
I34
sS'YDR524C-B'
p2849
I9856
sS'YML051W'
p2850
I71
sS'YML084W'
p2851
I2
sS'YHR184W'
p2852
I23
sS'YMR122W-A'
p2853
I1563
sS'YCR098C'
p2854
I7
sS'YDR243C'
p2855
I14
sS'YLR172C'
p2856
I126
sS'YEL076C-A'
p2857
I0
sS'YLR213C'
p2858
I14
sS'YKR036C'
p2859
I37
sS'YPL195W'
p2860
I111
sS'YIL040W'
p2861
I104
sS'YDR471W'
p2862
I1107
sS'YMR173W-A'
p2863
I8
sS'YNL103W-A'
p2864
I0
sS'YOR015W'
p2865
I48
sS'YHR003C'
p2866
I59
sS'YAL019W'
p2867
I56
sS'YLR344W'
p2868
I766
sS'YLL059C'
p2869
I6
sS'YLR449W'
p2870
I176
sS'YNL156C'
p2871
I88
sS'YLR227W-A'
p2872
I0
sS'YBR219C'
p2873
I0
sS'YGR169C-A'
p2874
I169
sS'YML123C'
p2875
I0
sS'YNR063W'
p2876
I7
sS'YLR239C'
p2877
I35
sS'YJL160C'
p2878
I32
sS'YPL075W'
p2879
I49
sS'YJR024C'
p2880
I108
sS'YDL025W-A'
p2881
I25
sS'YJL135W'
p2882
I1
sS'YBR142W'
p2883
I79
sS'YGR175C'
p2884
I307
sS'YIR017C'
p2885
I25
sS'YKL047W'
p2886
I27
sS'YKL187C'
p2887
I8
sS'YJR126C'
p2888
I65
sS'YLR366W'
p2889
I398
sS'YDR012W'
p2890
I1274
sS'YOL152W'
p2891
I14
sS'YOL125W'
p2892
I51
sS'YDR544C'
p2893
I0
sS'YGR203W'
p2894
I22
sS'YHL003C'
p2895
I141
sS'YDR034C-D'
p2896
I38
sS'YOR371C'
p2897
I52
sS'YDR034C-A'
p2898
I9
sS'YDR034C-C'
p2899
I0
sS'YER066C-A'
p2900
I0
sS'YJR104C'
p2901
I1383
sS'YER180C-A'
p2902
I16
sS'YGR080W'
p2903
I100
sS'YBL011W'
p2904
I70
sS'YDR183W'
p2905
I36
sS'YDR138W'
p2906
I29
sS'YOR317W'
p2907
I80
sS'YNL226W'
p2908
I1
sS'YAR064W'
p2909
I0
sS'YAL022C'
p2910
I36
sS'YOL078W'
p2911
I21
sS'YDL002C'
p2912
I75
sS'YBR277C'
p2913
I0
sS'YNL291C'
p2914
I43
sS'YHR218W'
p2915
I0
sS'YOR305W'
p2916
I97
sS'YMR211W'
p2917
I25
sS'YOR185C'
p2918
I91
sS'YOR244W'
p2919
I48
sS'YEL003W'
p2920
I182
sS'YEL074W'
p2921
I26
sS'YGR066C'
p2922
I4
sS'YPL244C'
p2923
I71
sS'YDR492W'
p2924
I173
sS'YGR240C'
p2925
I481
sS'YGL049C'
p2926
I66
sS'YPR052C'
p2927
I502
sS'YPR025C'
p2928
I38
sS'YBR087W'
p2929
I76
sS'YDR330W'
p2930
I51
sS'YMR242W-A'
p2931
I0
sS'YHR107C'
p2932
I112
sS'YAR002W'
p2933
I82
sS'YMR237W'
p2934
I78
sS'YDR365W-A'
p2935
I0
sS'YDR026C'
p2936
I47
sS'YCL075W'
p2937
I0
sS'YEL029C'
p2938
I38
sS'YCL076W'
p2939
I5
sS'YOL012C'
p2940
I116
sS'YPL219W'
p2941
I24
sS'YPL262W'
p2942
I174
sS'YNL182C'
p2943
I68
sS'YPL020C'
p2944
I55
sS'YCR064C'
p2945
I5
sS'YLR289W'
p2946
I13
sS'YCL040W'
p2947
I834
sS'YJL103C'
p2948
I17
sS'YNL042W'
p2949
I38
sS'YNL308C'
p2950
I365
sS'YPL010W'
p2951
I223
sS'YHR058C'
p2952
I23
sS'YJR049C'
p2953
I66
sS'YPR112C'
p2954
I83
sS'YOR102W'
p2955
I31
sS'YPR169W'
p2956
I76
sS'YHR085W'
p2957
I43
sS'YML067C'
p2958
I69
sS'YER052C'
p2959
I401
sS'YLR080W'
p2960
I19
sS'YDL026W'
p2961
I0
sS'YOR058C'
p2962
I32
sS'YKR017C'
p2963
I35
sS'YLR413W'
p2964
I481
sS'YBR029C'
p2965
I106
sS'YOL059W'
p2966
I124
sS'YMR113W'
p2967
I35
sS'YMR084W'
p2968
I1
sS'YPL162C'
p2969
I17
sS'YGL021W'
p2970
I59
sS'YHR021C'
p2971
I5355
sS'YHR072W-A'
p2972
I689
sS'YNL028W'
p2973
I0
sS'YHR167W'
p2974
I43
sS'YIL172C'
p2975
I4
sS'YKL146W'
p2976
I50
sS'YLR227C'
p2977
I22
sS'YKL080W'
p2978
I234
sS'YGL096W'
p2979
I51
sS'YFL055W'
p2980
I10
sS'YLR286W-A'
p2981
I1
sS'YKL160W'
p2982
I141
sS'YBL094C'
p2983
I11
sS'YDL091C'
p2984
I22
sS'YHR198C'
p2985
I44
sS'YJL129C'
p2986
I74
sS'YLR209C'
p2987
I61
sS'YMR026C'
p2988
I35
sS'YJL074C'
p2989
I34
sS'YNL177C'
p2990
I70
sS'YKL162C'
p2991
I14
sS'YOR114W'
p2992
I15
sS'YDR454C'
p2993
I285
sS'YPR134W'
p2994
I24
sS'YFR039C'
p2995
I46
sS'YHL020C'
p2996
I51
sS'YIL009W'
p2997
I101
sS'YFR042W'
p2998
I38
sS'YLR305C'
p2999
I69
sS'YOR063W'
p3000
I4465
sS'YGL223C'
p3001
I51
sS'YOR036W'
p3002
I37
sS'YGR032W'
p3003
I62
sS'YJR145C'
p3004
I1328
sS'YGL076C'
p3005
I1722
sS'YNL148C'
p3006
I15
sS'YOL106W'
p3007
I5
sS'YGL218W'
p3008
I0
sS'YBR256C'
p3009
I446
sS'YGL118C'
p3010
I3
sS'YKL073W'
p3011
I61
sS'YNL130C'
p3012
I58
sS'YPL141C'
p3013
I28
sS'YHR151C'
p3014
I49
sS'YJL081C'
p3015
I61
sS'YOR304C-A'
p3016
I54
sS'YMR318C'
p3017
I223
sS'YCL018W'
p3018
I64
sS'YGR181W'
p3019
I144
sS'YPR197C'
p3020
I0
sS'YOR214C'
p3021
I1
sS'YOR263C'
p3022
I0
sS'YGL176C'
p3023
I25
sS'YML109W'
p3024
I24
sS'YBL030C'
p3025
I817
sS'YPL229W'
p3026
I44
sS'YNL270C'
p3027
I6
sS'YOR195W'
p3028
I32
sS'YLL054C'
p3029
I17
sS'YOR381W'
p3030
I17
sS'YER073W'
p3031
I137
sS'YLR012C'
p3032
I0
sS'YLR065C'
p3033
I149
sS'YBR046C'
p3034
I64
sS'YNR040W'
p3035
I25
sS'YIL067C'
p3036
I34
sS'YHR020W'
p3037
I271
sS'YIL089W'
p3038
I7
sS'YOL033W'
p3039
I24
sS'YBR238C'
p3040
I109
sS'YIL020C-A'
p3041
I0
sS'YGL058W'
p3042
I63
sS'YOR293C-A'
p3043
I5
sS'YKR099W'
p3044
I57
sS'YML100W'
p3045
I84
sS'YOR144C'
p3046
I28
sS'YKL162C-A'
p3047
I6
sS'YMR158W'
p3048
I41
sS'YJL024C'
p3049
I71
sS'YDR519W'
p3050
I134
sS'YER102W'
p3051
I868
sS'YER019W'
p3052
I50
sS'YMR263W'
p3053
I52
sS'YLR415C'
p3054
I1
sS'YLR152C'
p3055
I70
sS'YGL135W'
p3056
I2749
sS'YLR129W'
p3057
I92
sS'YBL077W'
p3058
I0
sS'YNR032C-A'
p3059
I96
sS'YOR298W'
p3060
I10
sS'YMR172W'
p3061
I29
sS'YCR034W'
p3062
I220
sS'YCR043C'
p3063
I133
sS'YLL009C'
p3064
I207
sS'YJL146W'
p3065
I21
sS'YMR258C'
p3066
I47
sS'YBR060C'
p3067
I54
sS'YDR103W'
p3068
I53
sS'YMR018W'
p3069
I4
sS'YIR023W'
p3070
I57
sS'YJL119C'
p3071
I2
sS'YKR043C'
p3072
I203
sS'YLR412C-A'
p3073
I1
sS'YMR067C'
p3074
I58
sS'YHR193C-A'
p3075
I1
sS'YDL143W'
p3076
I206
sS'YKR034W'
p3077
I1
sS'YHR044C'
p3078
I14
sS'YCL021W-A'
p3079
I27
sS'YGL197W'
p3080
I40
sS'YPR060C'
p3081
I92
sS'YNL036W'
p3082
I222
sS'YFL012W'
p3083
I5
sS'YMR296C'
p3084
I222
sS'YDR267C'
p3085
I47
sS'YJL208C'
p3086
I60
sS'YOR162C'
p3087
I19
sS'YMR098C'
p3088
I30
sS'YMR045C'
p3089
I203
sS'YJL002C'
p3090
I185
sS'YPR159W'
p3091
I147
sS'YGR223C'
p3092
I40
sS'YDR074W'
p3093
I106
sS'YPR075C'
p3094
I49
sS'YML053C'
p3095
I122
sS'YER099C'
p3096
I76
sS'YHR186C'
p3097
I46
sS'YLR174W'
p3098
I14
sS'YPL238C'
p3099
I0
sS'YOR205C'
p3100
I44
sS'YJR120W'
p3101
I0
sS'YOR017W'
p3102
I29
sS'YHR005C'
p3103
I158
sS'YDR473C'
p3104
I26
sS'YLR393W'
p3105
I10
sS'YDR310C'
p3106
I81
sS'YBR217W'
p3107
I28
sS'YNL154C'
p3108
I142
sS'YNR065C'
p3109
I26
sS'YIL046W'
p3110
I28
sS'YFR009W'
p3111
I139
sS'YNL101W'
p3112
I50
sS'YDR081C'
p3113
I48
sS'YJL137C'
p3114
I18
sS'YCL009C'
p3115
I551
sS'YJR026W'
p3116
I0
sS'YBR115C'
p3117
I308
sS'YIR015W'
p3118
I10
sS'YDR448W'
p3119
I2
sS'YNR014W'
p3120
I27
sS'YPL073C'
p3121
I0
sS'YLR360W'
p3122
I35
sS'YKL181W'
p3123
I270
sS'YOL150C'
p3124
I1
sS'YPR096C'
p3125
I3
sS'YNL293W'
p3126
I29
sS'YDR010C'
p3127
I0
sS'YAR062W'
p3128
I0
sS'YIL028W'
p3129
I3
sS'YDR526C'
p3130
I0
sS'YGL054C'
p3131
I253
sS'YAL034C-B'
p3132
I0
sS'YML125C'
p3133
I156
sS'YLR251W'
p3134
I25
sS'YDR182W-A'
p3135
I3
sS'YGR086C'
p3136
I374
sS'YPL106C'
p3137
I710
sS'YGL151W'
p3138
I63
sS'YJR091C'
p3139
I58
sS'YBR271W'
p3140
I43
sS'YBL017C'
p3141
I112
sS'YAL024C'
p3142
I24
sS'YOR348C'
p3143
I7
sS'YJL197W'
p3144
I53
sS'YMR213W'
p3145
I30
sS'YBR233W-A'
p3146
I85
sS'YOR218C'
p3147
I6
sS'YDL006W'
p3148
I23
sS'YDR505C'
p3149
I53
sS'YHR132W-A'
p3150
I84
sS'YGR242W'
p3151
I0
sS'YGR068C'
p3152
I28
sS'YOR390W'
p3153
I11
sS'YPL246C'
p3154
I187
sS'YOR246C'
p3155
I94
sS'YGL039W'
p3156
I90
sS'YER066W'
p3157
I8
sS'YPR050C'
p3158
I44
sS'YGR293C'
p3159
I1
sS'YEL001C'
p3160
I259
sS'YML054C-A'
p3161
I0
sS'YMR235C'
p3162
I184
sS'YHR109W'
p3163
I14
sS'YPL270W'
p3164
I72
sS'YHL001W'
p3165
I607
sS'YOR373W'
p3166
I24
sS'YPL260W'
p3167
I76
sS'YOR082C'
p3168
I2
sS'YOL010W'
p3169
I106
sS'YDR024W'
p3170
I141
sS'YOR228C'
p3171
I31
sS'YMR111C'
p3172
I18
sS'YNL184C'
p3173
I2
sS'YMR144W'
p3174
I21
sS'YCR066W'
p3175
I21
sS'YBR105C'
p3176
I220
sS'YCR088W'
p3177
I207
sS'YDR208W'
p3178
I53
sS'YHR087W'
p3179
I103
sS'YBR014C'
p3180
I49
sS'YPL012W'
p3181
I135
sS'YJL191W'
p3182
I286
sS'YDL108W'
p3183
I35
sS'YPR110C'
p3184
I206
sS'YOL103W-B'
p3185
I1683
sS'YOL103W-A'
p3186
I0
sS'YCR073W-A'
p3187
I56
sS'YJL177W'
p3188
I763
sS'YDR119W'
p3189
I107
sS'YLL037W'
p3190
I3
sS'YLR411W'
p3191
I14
sS'YDR490C'
p3192
I32
sS'YER005W'
p3193
I50
sS'YPL034W'
p3194
I18
sS'YDL028C'
p3195
I37
sS'YER050C'
p3196
I91
sS'YCR008W'
p3197
I84
sS'YOR192C-C'
p3198
I107
sS'YOR192C-B'
p3199
I0
sS'YOR192C-A'
p3200
I0
sS'YLR119W'
p3201
I28
sS'YLR082C'
p3202
I21
sS'YER190W'
p3203
I0
sS'YLR035C'
p3204
I16
sS'YDL122W'
p3205
I102
sS'YDL188C'
p3206
I62
sS'YMR086W'
p3207
I40
sS'YNL171C'
p3208
I3
sS'YOR034C-A'
p3209
I4
sS'YIL125W'
p3210
I85
sS'YIL170W'
p3211
I10
sS'YNL097C-B'
p3212
I17
sS'YKL148C'
p3213
I90
sS'YJL076W'
p3214
I99
sS'YHR016C'
p3215
I38
sS'YHR165C'
p3216
I73
sS'YLR450W'
p3217
I64
sS'YKL028W'
p3218
I88
sS'YLR221C'
p3219
I101
sS'YPL165C'
p3220
I8
sS'YDL228C'
p3221
I0
sS'YKL082C'
p3222
I171
sS'YKL166C'
p3223
I120
sS'YDL093W'
p3224
I45
sS'YMR024W'
p3225
I65
sS'YGL123C-A'
p3226
I0
sS'YPL038W'
p3227
I57
sS'YPR136C'
p3228
I0
sS'YOR116C'
p3229
I100
sS'YLR207W'
p3230
I32
sS'YFR040W'
p3231
I91
sS'YLR303W'
p3232
I766
sS'YHL022C'
p3233
I8
sS'YJR143C'
p3234
I172
sS'YGR030C'
p3235
I49
sS'YOR034C'
p3236
I30
sS'YGL094C'
p3237
I39
sS'YJL057C'
p3238
I29
sS'YGR130C'
p3239
I66
sS'YGR165W'
p3240
I46
sS'YGR055W'
p3241
I143
sS'YGR031C-A'
p3242
I0
sS'YBR254C'
p3243
I32
sS'YBR136W'
p3244
I26
sS'YJR105W'
p3245
I361
sS'YPL186C'
p3246
I22
sS'YJL083W'
p3247
I13
sS'YPL138C'
p3248
I38
sS'YJL141C'
p3249
I52
sS'YKL075C'
p3250
I35
sS'YPL147W'
p3251
I13
sS'YLL019W-A'
p3252
I0
sS'YCL011C'
p3253
I145
sS'YPR195C'
p3254
I2
sS'YGR187C'
p3255
I98
sS'YDR508C'
p3256
I260
sS'YDR422C'
p3257
I36
sS'YNL276C'
p3258
I5
sS'YLL056C'
p3259
I22
sS'YBL032W'
p3260
I136
sS'YHL048W'
p3261
I48
sS'YLR010C'
p3262
I29
sS'YNL209W'
p3263
I1410
sS'YIL061C'
p3264
I27
sS'YBL009W'
p3265
I39
sS'YNR046W'
p3266
I163
sS'YOL035C'
p3267
I0
sS'YCL022C'
p3268
I1
sS'YHR026W'
p3269
I386
sS'YER078W-A'
p3270
I1
sS'YNL254C'
p3271
I17
sS'YDR197W'
p3272
I30
sS'YNL289W'
p3273
I99
sS'YML106W'
p3274
I213
sS'YBR062C'
p3275
I40
sS'YJL022W'
p3276
I1
sS'YGL152C'
p3277
I1
sS'YDR098C-B'
p3278
I73
sS'YDR098C-A'
p3279
I0
sS'YBL105C'
p3280
I44
sS'YPL281C'
p3281
I0
sS'YER104W'
p3282
I9
sS'YLR150W'
p3283
I1340
sS'YEL046C'
p3284
I488
sS'YER040W'
p3285
I36
sS'YML008C'
p3286
I326
sS'YDL054C'
p3287
I76
sS'YPR019W'
p3288
I67
sS'YMR265C'
p3289
I12
sS'YML073C'
p3290
I2185
sS'YGL137W'
p3291
I115
sS'YHR143W-A'
p3292
I319
sS'YBR044C'
p3293
I34
sS'YDL152W'
p3294
I0
sS'YER159C'
p3295
I121
sS'YER122C'
p3296
I170
sS'YHR113W'
p3297
I60
sS'YER048W-A'
p3298
I109
sS'YGL041C-B'
p3299
I0
sS'YLR154W-A'
p3300
I0
sS'YLR154W-B'
p3301
I0
sS'YML047W-A'
p3302
I55
sS'YNL227C'
p3303
I85
sS'YLR154W-F'
p3304
I6
sS'YER031C'
p3305
I133
sS'YMR065W'
p3306
I40
sS'YJR006W'
p3307
I42
sS'YIR021W'
p3308
I52
sS'YGL002W'
p3309
I69
sS'YLR430W'
p3310
I99
sS'YJL117W'
p3311
I92
sS'YKR041W'
p3312
I9
sS'YHR046C'
p3313
I74
sS'YMR130W'
p3314
I60
sS'YGL195W'
p3315
I201
sS'YMR290C'
p3316
I166
sS'YDL141W'
p3317
I56
sS'YDR269C'
p3318
I0
sS'YML009C-A'
p3319
I6
sS'YDR076W'
p3320
I11
sS'YOR139C'
p3321
I0
sS'YJL059W'
p3322
I36
sS'YFR036W-A'
p3323
I4
sS'YMR047C'
p3324
I84
sS'YNL338W'
p3325
I0
sS'YGR221C'
p3326
I32
sS'YDR247W'
p3327
I21
sS'YGR274C'
p3328
I40
sS'YML055W'
p3329
I98
sS'YPR077C'
p3330
I0
sS'YML088W'
p3331
I39
sS'YLR176C'
p3332
I26
sS'YLR268W'
p3333
I73
sS'YOR011W'
p3334
I43
sS'YMR323W'
p3335
I0
sS'YBR128C'
p3336
I8
sS'YDL214C'
p3337
I2
sS'YJR122W'
p3338
I30
sS'YNL103W'
p3339
I66
sS'YHR007C'
p3340
I420
sS'YIR004W'
p3341
I63
sS'YLR395C'
p3342
I225
sS'YDR312W'
p3343
I39
sS'YLR348C'
p3344
I64
sS'YBR248C'
p3345
I157
sS'YNR067C'
p3346
I96
sS'YNL152W'
p3347
I46
sS'YHR153C'
p3348
I12
sS'YFL045C'
p3349
I529
sS'YFL010C'
p3350
I117
sS'YDR141C'
p3351
I52
sS'YJL131C'
p3352
I38
sS'YBR117C'
p3353
I2
sS'YJR028W'
p3354
I0
sS'YDR083W'
p3355
I79
sS'YOR123C'
p3356
I132
sS'YIR013C'
p3357
I0
sS'YPL071C'
p3358
I55
sS'YKL183W'
p3359
I37
sS'YLR362W'
p3360
I24
sS'YPL024W'
p3361
I33
sS'YKL134C'
p3362
I18
sS'YBR273C'
p3363
I42
sS'YOR313C'
p3364
I6
sS'YAL026C'
p3365
I102
sS'YFL017W-A'
p3366
I138
sS'YAR060C'
p3367
I2
sS'YGL237C'
p3368
I30
sS'YPR094W'
p3369
I47
sS'YNL295W'
p3370
I29
sS'YAR035W'
p3371
I0
sS'YOL156W'
p3372
I11
sS'YOL129W'
p3373
I202
sS'YDR299W'
p3374
I102
sS'YBR182C'
p3375
I12
sS'YPL040C'
p3376
I21
sS'YIL091C'
p3377
I70
sS'YPL104W'
p3378
I27
sS'YLR253W'
p3379
I39
sS'YBR215W'
p3380
I31
sS'YIL106W'
p3381
I51
sS'YML127W'
p3382
I57
sS'YLR188W'
p3383
I61
sS'YGR084C'
p3384
I82
sS'YGL157W'
p3385
I108
sS'YBL015W'
p3386
I33
sS'YPR145C-A'
p3387
I13
sS'YGR146C'
p3388
I127
sS'YOR136W'
p3389
I462
sS'YNL237W'
p3390
I7
sS'YLL066W-A'
p3391
I0
sS'YLL066W-B'
p3392
I1
sS'YMR251W'
p3393
I4
sS'YJL195C'
p3394
I0
sS'YOR216C'
p3395
I50
sS'YDL073W'
p3396
I55
sS'YDL004W'
p3397
I328
sS'YLR059C'
p3398
I68
sS'YDR507C'
p3399
I64
sS'YDR379C-A'
p3400
I92
sS'YEL007W'
p3401
I114
sS'YGR291C'
p3402
I0
sS'YDR040C'
p3403
I3
sS'YPL248C'
p3404
I21
sS'YMR233W'
p3405
I30
sS'YDR320C-A'
p3406
I206
sS'YNL080C'
p3407
I110
sS'YDR022C'
p3408
I31
sS'YPL266W'
p3409
I87
sS'YLL064C'
p3410
I4
sS'YGR051C'
p3411
I0
sS'YOR080W'
p3412
I38
sS'YGL062W'
p3413
I116
sS'YER169W'
p3414
I57
sS'YOL016C'
p3415
I56
sS'YOR226C'
p3416
I71
sS'YMR238W'
p3417
I122
sS'YNL186W'
p3418
I155
sS'YCL044C'
p3419
I66
sS'YMR146C'
p3420
I314
sS'YHR214C-C'
p3421
I0
sS'YHR214C-B'
p3422
I758
sS'YHR214C-E'
p3423
I2
sS'YHR214C-D'
p3424
I0
sS'YCR060W'
p3425
I81
sS'YBR016W'
p3426
I184
sS'YPR116W'
p3427
I3
sS'YDL247W-A'
p3428
I3
sS'YCL017C'
p3429
I65
sS'YHR165W-A'
p3430
I0
sS'YHR089C'
p3431
I593
sS'YMR168C'
p3432
I14
sS'YLL035W'
p3433
I29
sS'YCR006C'
p3434
I2
sS'YER007W'
p3435
I21
sS'YPR056W'
p3436
I36
sS'YPL237W'
p3437
I585
sS'YDR117C'
p3438
I49
sS'YDR392W'
p3439
I32
sS'YLR037C'
p3440
I9
sS'YMR290W-A'
p3441
I0
sS'YCL001W-A'
p3442
I0
sS'YJL078C'
p3443
I88
sS'YNL173C'
p3444
I94
sS'YGR200C'
p3445
I79
sS'YIL021C-A'
p3446
I0
sS'YIL127C'
p3447
I72
sS'YOR338W'
p3448
I49
sS'YER044C-A'
p3449
I8
sS'YKL165C-A'
p3450
I5
sS'YKL051W'
p3451
I105
sS'YLR294C'
p3452
I47
sS'YPL167C'
p3453
I24
sS'YLR223C'
p3454
I103
sS'YJL178C'
p3455
I105
sS'YPR038W'
p3456
I0
sS'YGR204W'
p3457
I355
sS'YBR200W-A'
p3458
I0
sS'YBL098W'
p3459
I59
sS'YDL095W'
p3460
I182
sS'YOR118W'
p3461
I43
sS'YLR205C'
p3462
I39
sS'YMR022W'
p3463
I101
sS'YFL059W'
p3464
I17
sS'YML094W'
p3465
I63
sS'YKR006C'
p3466
I77
sS'YPR138C'
p3467
I32
sS'YIL005W'
p3468
I56
sS'YHL034W-A'
p3469
I4
sS'YNL119W'
p3470
I45
sS'YHR079C'
p3471
I40
sS'YNR019W'
p3472
I8
sS'YGR158C'
p3473
I65
sS'YKL077W'
p3474
I133
sS'YFR046C'
p3475
I20
sS'YDR467C'
p3476
I3
sS'YIL058W'
p3477
I1
sS'YJR114W'
p3478
I0
sS'YJR141W'
p3479
I26
sS'YLR354C'
p3480
I435
sS'YIL065C'
p3481
I118
sS'YLR301W'
p3482
I110
sS'YGR098C'
p3483
I29
sS'YAL009W'
p3484
I31
sS'YJR054W'
p3485
I49
sS'YDL160C'
p3486
I17
sS'YGR167W'
p3487
I182
sS'YBR134W'
p3488
I0
sS'YBR161W'
p3489
I32
sS'YNL002C'
p3490
I239
sS'YPL145C'
p3491
I86
sS'YHL019C'
p3492
I18
sS'YIL118W'
p3493
I134
sS'YPL190C'
p3494
I93
sS'YGL214W'
p3495
I7
sS'YAL026C-A'
p3496
I4
sS'YGR018C'
p3497
I2
sS'YOR267C'
p3498
I116
sS'YHR009C'
p3499
I78
sS'YOR367W'
p3500
I83
sS'YOR385W'
p3501
I37
sS'YGR185C'
p3502
I386
sS'YJL189W'
p3503
I5081
sS'YLL050C'
p3504
I641
sS'YCL014W'
p3505
I37
sS'YGL172W'
p3506
I57
sS'YNL274C'
p3507
I44
sS'YPL023C'
p3508
I59
sS'YCL020W'
p3509
I0
sS'YGL149W'
p3510
I0
sS'YHR024C'
p3511
I79
sS'YIR030W-A'
p3512
I1
sS'YOL080C'
p3513
I44
sS'YOL037C'
p3514
I1
sS'YOL117W'
p3515
I14
sS'YNL054W-B'
p3516
I190
sS'YNL054W-A'
p3517
I0
sS'YBR283C'
p3518
I452
sS'YLR447C'
p3519
I320
sS'YML104C'
p3520
I36
sS'YDR371C-A'
p3521
I0
sS'YNR033W'
p3522
I36
sS'YNR044W'
p3523
I571
sS'YDR195W'
p3524
I63
sS'YNL256W'
p3525
I60
sS'YOL058W'
p3526
I1479
sS'YGR072W'
p3527
I70
sS'YER106W'
p3528
I7
sS'YCR107W'
p3529
I17
sS'YJL020C'
p3530
I87
sS'YBR039W'
p3531
I238
sS'YNR075C-A'
p3532
I0
sS'YPL234C'
p3533
I344
sS'YDL056W'
p3534
I44
sS'YLR156W'
p3535
I0
sS'YPR017C'
p3536
I37
sS'YEL044W'
p3537
I77
sS'YML071C'
p3538
I52
sS'YLR016C'
p3539
I29
sS'YER120W'
p3540
I313
sS'YBR042C'
p3541
I55
sS'YHR111W'
p3542
I34
sS'YML129C'
p3543
I128
sS'YPR170W-B'
p3544
I223
sS'YPR170W-A'
p3545
I84
sS'YCR047C'
p3546
I48
sS'YDR389W'
p3547
I43
sS'YOR329W-A'
p3548
I0
sS'YDL038C'
p3549
I85
sS'YOR359W'
p3550
I94
sS'YKL205W'
p3551
I75
sS'YER033C'
p3552
I20
sS'YHR040W'
p3553
I45
sS'YML057W'
p3554
I46
sS'YDR178W'
p3555
I143
sS'YKR038C'
p3556
I83
sS'YLR432W'
p3557
I373
sS'YJR004C'
p3558
I935
sS'YIR027C'
p3559
I25
sS'YJL115W'
p3560
I116
sS'YJR073C'
p3561
I86
sS'YGL004C'
p3562
I26
sS'YBL068W-A'
p3563
I0
sS'YMR132C'
p3564
I31
sS'YPL008W'
p3565
I28
sS'YDL116W'
p3566
I52
sS'YMR046W-A'
p3567
I34
sS'YLR435W'
p3568
I79
sS'YLR409C'
p3569
I95
sS'YPL088W'
p3570
I214
sS'YKR065C'
p3571
I91
sS'YMR041C'
p3572
I31
sS'YLR078C'
p3573
I64
sS'YMR267W'
p3574
I60
sS'YDR078C'
p3575
I25
sS'YMR109W'
p3576
I93
sS'YDR232W'
p3577
I105
sS'YDR245W'
p3578
I111
sS'YGR276C'
p3579
I48
sS'YDL138W'
p3580
I20
sS'YOR289W'
p3581
I15
sS'YLR178C'
p3582
I73
sS'YHR175W'
p3583
I123
sS'YOR013W'
p3584
I10
sS'YDL212W'
p3585
I197
sS'YNL150W'
p3586
I0
sS'YNL105W'
p3587
I0
sS'YDR314C'
p3588
I6
sS'YKL098W'
p3589
I37
sS'YMR141W-A'
p3590
I0
sS'YJL133W'
p3591
I73
sS'YNL333W'
p3592
I15
sS'YBL084C'
p3593
I37
sS'YDR143C'
p3594
I76
sS'YBR111C'
p3595
I165
sS'YFL047W'
p3596
I63
sS'YPR144C'
p3597
I68
sS'YKL136W'
p3598
I4
sS'YIL166C'
p3599
I9
sS'YDR349C'
p3600
I84
sS'YIR011C'
p3601
I82
sS'YGL226C-A'
p3602
I209
sS'YBL005W-A'
p3603
I0
sS'YDR332W'
p3604
I28
sS'YOL154W'
p3605
I12
sS'YGL235W'
p3606
I0
sS'YBR130C'
p3607
I67
sS'YNL297C'
p3608
I62
sS'YOR344C'
p3609
I381
sS'YOR002W'
p3610
I93
sS'YDR189W'
p3611
I82
sS'YAL028W'
p3612
I29
sS'YPR092W'
p3613
I0
sS'YOR079C'
p3614
I60
sS'YDR404C'
p3615
I167
sS'YHR132C'
p3616
I96
sS'YOL049W'
p3617
I130
sS'YDR014W'
p3618
I16
sS'YBR180W'
p3619
I2
sS'YIL093C'
p3620
I27
sS'YNL097W-A'
p3621
I8
sS'YLR397C'
p3622
I47
sS'YPL054W'
p3623
I16
sS'YDR194W-A'
p3624
I0
sS'YIL151C'
p3625
I47
sS'YJL215C'
p3626
I1
sS'YPL102C'
p3627
I0
sS'YLR255C'
p3628
I2
sS'YGR144W'
p3629
I27
sS'YGR111W'
p3630
I45
sS'YGL155W'
p3631
I69
sS'YJR095W'
p3632
I3
sS'YOL063C'
p3633
I36
sS'YDR118W-A'
p3634
I1
sS'YLR466W'
p3635
I685
sS'YJL193W'
p3636
I37
sS'YJR140W-A'
p3637
I0
sS'YEL027W'
p3638
I1289
sS'YOL014W'
p3639
I33
sS'YDR123C'
p3640
I13
sS'YNL235C'
p3641
I0
sS'YLR057W'
p3642
I45
sS'YLR320W'
p3643
I28
sS'YFR014C'
p3644
I58
sS'YMR231W'
p3645
I33
sS'YMR247W-A'
p3646
I0
sS'YLR452C'
p3647
I214
sS'YJR160C'
p3648
I3
sS'YOR086C'
p3649
I103
sS'YDR020C'
p3650
I26
sS'YGR053C'
p3651
I12
sS'YPL213W'
p3652
I37
sS'YNL082W'
p3653
I27
sS'YOR279C'
p3654
I29
sS'YPL264C'
p3655
I30
sS'YOR224C'
p3656
I347
sS'YGL060W'
p3657
I30
sS'YCL046W'
p3658
I0
sS'YGL123W'
p3659
I2812
sS'YGR191W'
p3660
I137
sS'YBL061C'
p3661
I80
sS'YMR140W'
p3662
I33
sS'YGL034C'
p3663
I1
sS'YPR114W'
p3664
I126
sS'YOR072W-B'
p3665
I1
sS'YOR072W-A'
p3666
I2
sS'YBR018C'
p3667
I4
sS'YPR163C'
p3668
I405
sS'YEL005C'
p3669
I33
sS'YDR527W'
p3670
I97
sS'YOR242C'
p3671
I12
sS'YCR059C'
p3672
I64
sS'YGR042W'
p3673
I35
sS'YCR004C'
p3674
I283
sS'YDR115W'
p3675
I88
sS'YLL033W'
p3676
I12
sS'YML038C'
p3677
I71
sS'YPR054W'
p3678
I0
sS'YBR098W'
p3679
I10
sS'YLR031W'
p3680
I2
sS'YDL159W'
p3681
I30
sS'YJR038C'
p3682
I1
sS'YGL018C'
p3683
I25
sS'YMR075W'
p3684
I42
sS'YGR202C'
p3685
I76
sS'YDR379W'
p3686
I46
sS'YHR169W'
p3687
I65
sS'YLR296W'
p3688
I0
sS'YDR215C'
p3689
I0
sS'YNL059C'
p3690
I130
sS'YEL049W'
p3691
I1
sS'YPL161C'
p3692
I23
sS'YIL121W'
p3693
I149
sS'YLR278C'
p3694
I44
sS'YOR293W'
p3695
I2744
sS'YGR239C'
p3696
I57
sS'YKL111C'
p3697
I7
sS'YJL041W'
p3698
I109
sS'YDL097C'
p3699
I199
sS'YLR104W'
p3700
I54
sS'YKR004C'
p3701
I30
sS'YML096W'
p3702
I56
sS'YHR192W'
p3703
I31
sS'YPL052W'
p3704
I46
sS'YIL003W'
p3705
I34
sS'YBR163W'
p3706
I43
sS'YDR465C'
p3707
I93
sS'YKL079W'
p3708
I36
sS'YFR044C'
p3709
I381
sS'YLR256W-A'
p3710
I0
sS'YFR033C'
p3711
I325
sS'YJR116W'
p3712
I46
sS'YGL229C'
p3713
I34
sS'YLR356W'
p3714
I60
sS'YHR070C-A'
p3715
I0
sS'YGL098W'
p3716
I33
sS'YJR056C'
p3717
I35
sS'YLR404W'
p3718
I19
sS'YGR161C'
p3719
I235
sS'YDL162C'
p3720
I0
sS'YPL069C'
p3721
I25
sS'YGL216W'
p3722
I26
sS'YPL271W'
p3723
I611
sS'YJR138W'
p3724
I39
sS'YGL210W'
p3725
I65
sS'YJL145W'
p3726
I81
sS'YBR132C'
p3727
I14
sS'YPL192C'
p3728
I52
sS'YNL004W'
p3729
I110
sS'YOR265W'
p3730
I159
sS'YNL067W-A'
p3731
I0
sS'YNL067W-B'
p3732
I0
sS'YJR079W'
p3733
I8
sS'YDR172W'
p3734
I231
sS'YPR199C'
p3735
I41
sS'YPL194W'
p3736
I18
sS'YCL012C'
p3737
I60
sS'YOR365C'
p3738
I5
sS'YDR394W'
p3739
I179
sS'YOR330C'
p3740
I48
sS'YAR014C'
p3741
I75
sS'YLL052C'
p3742
I7
sS'YOL082W'
p3743
I50
sS'YOR030W'
p3744
I23
sS'YOR065W'
p3745
I120
sS'YNL034W'
p3746
I0
sS'YBR267W'
p3747
I99
sS'YBR285W'
p3748
I14
sS'YFL014W'
p3749
I55
sS'YOL115W'
p3750
I62
sS'YDR325W'
p3751
I28
sS'YNR031C'
p3752
I57
sS'YNL131W'
p3753
I191
sS'YEL020W-A'
p3754
I246
sS'YBL005W'
p3755
I28
sS'YDR406W-A'
p3756
I1
sS'YDR193W'
p3757
I0
sS'YDR041W'
p3758
I66
sS'YGL047W'
p3759
I14
sS'YCR105W'
p3760
I6
sS'YBL101C'
p3761
I65
sS'YPL236C'
p3762
I26
sS'YHR139C-A'
p3763
I0
sS'YPL035C'
p3764
I0
sS'YHR123W'
p3765
I37
sS'YPR015C'
p3766
I17
sS'YDR488C'
p3767
I10
sS'YDL050C'
p3768
I5
sS'YLR154C'
p3769
I90
sS'YGR256W'
p3770
I10
sS'YEL042W'
p3771
I135
sS'YLR123C'
p3772
I4
sS'YLR014C'
p3773
I19
sS'YER126C'
p3774
I150
sS'YOR113W'
p3775
I29
sS'YHR117W'
p3776
I59
sS'YBR040W'
p3777
I59
sS'YPL258C'
p3778
I16
sS'YCR045C'
p3779
I1
sS'YKL203C'
p3780
I56
sS'YIL076W'
p3781
I181
sS'YDL036C'
p3782
I24
sS'YCL069W'
p3783
I0
sS'YJL113W'
p3784
I24
sS'YLR434C'
p3785
I1
sS'YML059C'
p3786
I59
sS'YDR072C'
p3787
I274
sS'YKR045C'
p3788
I14
sS'YIL014C-A'
p3789
I24
sS'YFL067W'
p3790
I0
sS'YER035W'
p3791
I69
sS'YPR128C'
p3792
I43
sS'YKL156W'
p3793
I822
sS'YHR148W'
p3794
I67
sS'YDL110C'
p3795
I76
sS'YMR134W'
p3796
I66
sS'YJR071W'
p3797
I0
sS'YHR042W'
p3798
I165
sS'YGR225W'
p3799
I5
sS'YGL006W'
p3800
I73
sS'YPL006W'
p3801
I46
sS'YKR067W'
p3802
I64
sS'YOR168W'
p3803
I265
sS'YMR043W'
p3804
I69
sS'YML077W'
p3805
I57
sS'YER068W'
p3806
I64
sS'YER013W'
p3807
I27
sS'YMR269W'
p3808
I234
sS'YKL053C-A'
p3809
I117
sS'YMR092C'
p3810
I97
sS'YJL008C'
p3811
I194
sS'YGL067W'
p3812
I41
sS'YDR230W'
p3813
I1
sS'YPR073C'
p3814
I88
sS'YER188W'
p3815
I11
sS'YCL010C'
p3816
I41
sS'YDR320W-B'
p3817
I6
sS'YGR270W'
p3818
I74
sS'YHR177W'
p3819
I7
sS'YOR332W'
p3820
I427
sS'YDR046C'
p3821
I184
sS'YDL245C'
p3822
I0
sS'YDR316W'
p3823
I34
sS'YDR524C-A'
p3824
I0
sS'YNL107W'
p3825
I38
sS'YLR227W-B'
p3826
I93
sS'YDL210W'
p3827
I9
sS'YDR479C'
p3828
I32
sS'YKL096W'
p3829
I147
sS'YBR113W'
p3830
I0
sS'YBL086C'
p3831
I37
sS'YNL069C'
p3832
I1774
sS'YGL191W'
p3833
I398
sS'YFL041W'
p3834
I57
sS'YJL168C'
p3835
I44
sS'YDR145W'
p3836
I74
sS'YDR446W'
p3837
I1
sS'YPR146C'
p3838
I4
sS'YJL062W'
p3839
I59
sS'YNL325C'
p3840
I21
sS'YOR128C'
p3841
I134
sS'YLR363W-A'
p3842
I94
sS'YDR509W'
p3843
I0
sS'YKL130C'
p3844
I53
sS'YOR346W'
p3845
I64
sS'YAR031W'
p3846
I0
sS'YGL233W'
p3847
I67
sS'YGR113W'
p3848
I33
sS'YLR319C'
p3849
I32
sS'YOR341W'
p3850
I208
sS'YDR295C'
p3851
I29
sS'YAL063C-A'
p3852
I5
sS'YJR159W'
p3853
I14
sS'YHR134W'
p3854
I25
sS'YLR426W'
p3855
I29
sS'YBR186W'
p3856
I1
sS'YIL153W'
p3857
I40
sS'YLR184W'
p3858
I0
sS'YJL217W'
p3859
I111
sS'YIL102C'
p3860
I0
sS'YLR399C'
p3861
I138
sS'YAL011W'
p3862
I40
sS'YDL155W'
p3863
I43
sS'YBR244W'
p3864
I161
sS'YBR179C'
p3865
I32
sS'YPL155C'
p3866
I19
sS'YJR097W'
p3867
I25
sS'YGR142W'
p3868
I34
sS'YPL100W'
p3869
I34
sS'YLR257W'
p3870
I282
sS'YBL026W'
p3871
I186
sS'YDR121W'
p3872
I72
sS'YNL233W'
p3873
I35
sS'YPL211W'
p3874
I144
sS'YDL077C'
p3875
I32
sS'YOR222W'
p3876
I56
sS'YEL021W'
p3877
I491
sS'YOL061W'
p3878
I135
sS'YLR008C'
p3879
I84
sS'YHR210C'
p3880
I13
sS'YLR464W'
p3881
I0
sS'YPR133W-A'
p3882
I460
sS'YMR219W'
p3883
I47
sS'YLR055C'
p3884
I48
sS'YMR079W'
p3885
I171
sS'YNR076W'
p3886
I15
sS'YFR016C'
p3887
I76
sS'YIL077C'
p3888
I30
sS'YLR322W'
p3889
I0
sS'YDR191W'
p3890
I19
sS'YOR379C'
p3891
I3
sS'YIL095W'
p3892
I30
sS'YOR084W'
p3893
I22
sS'YNL084C'
p3894
I128
sS'YGL066W'
p3895
I41
sS'YOR051C'
p3896
I138
sS'YBR287W'
p3897
I89
sS'YER174C'
p3898
I50
sS'YCL048W'
p3899
I17
sS'YMR142C'
p3900
I1903
sS'YDR119W-A'
p3901
I24
sS'YDL182W'
p3902
I744
sS'YGL121C'
p3903
I18
sS'YOR040W'
p3904
I4
sS'YBL067C'
p3905
I42
sS'YLR168C'
p3906
I69
sS'YDL019C'
p3907
I62
sS'YNL300W'
p3908
I317
sS'YMR273C'
p3909
I43
sS'YDR168W'
p3910
I126
sS'YIR020W-A'
p3911
I0
sS'YGR295C'
p3912
I135
sS'YCR002C'
p3913
I121
sS'YIL177W-A'
p3914
I0
sS'YMR164C'
p3915
I22
sS'YFL021C-A'
p3916
I2
sS'YLR307C-A'
p3917
I8
sS'YDR113C'
p3918
I29
sS'YLL031C'
p3919
I70
sS'YLR033W'
p3920
I72
sS'YLR088W'
p3921
I58
sS'YBR021W'
p3922
I35
sS'YBR230C'
p3923
I154
sS'YMR077C'
p3924
I40
sS'YJR036C'
p3925
I11
sS'YGR204C-A'
p3926
I3
sS'YFR052C-A'
p3927
I34
sS'YFL008W'
p3928
I42
sS'YAL042C-A'
p3929
I0
sS'YDR217C'
p3930
I40
sS'YNL020C'
p3931
I15
sS'YLR290C'
p3932
I68
sS'YPL163C'
p3933
I312
sS'YIL123W'
p3934
I208
sS'YOL052C-A'
p3935
I139
sS'YMR246W'
p3936
I310
sS'YPR161C'
p3937
I40
sS'YOR291W'
p3938
I56
sS'YKL117W'
p3939
I662
sS'YMR059W'
p3940
I28
sS'YDR062W'
p3941
I138
sS'YJL043W'
p3942
I2
sS'YHR190W'
p3943
I178
sS'YLR106C'
p3944
I251
sS'YKR002W'
p3945
I52
sS'YCR095W-A'
p3946
I6
sS'YDR279W'
p3947
I29
sS'YDL099W'
p3948
I262
sS'YLR201C'
p3949
I63
sS'YML090W'
p3950
I0
sS'YJL147C'
p3951
I17
sS'YIL054W'
p3952
I2
sS'YDR463W'
p3953
I59
sS'YIL001W'
p3954
I16
sS'YPL149W'
p3955
I39
sS'YBR165W'
p3956
I40
sS'YHR075C'
p3957
I28
sS'YOR282W'
p3958
I0
sS'YGL041C'
p3959
I18
sS'YFR031C'
p3960
I52
sS'YEL067C'
p3961
I6
sS'YFR012W-A'
p3962
I3
sS'YJR110W'
p3963
I31
sS'YIL149C'
p3964
I67
sS'YNR015W'
p3965
I56
sS'YLR350W'
p3966
I134
sS'YBL103C'
p3967
I46
sS'YGR163W'
p3968
I63
sS'YKL022C'
p3969
I37
sS'YKL055C'
p3970
I6
sS'YDL164C'
p3971
I51
sS'YJR050W'
p3972
I36
sS'YDR177W'
p3973
I211
sS'YNL006W'
p3974
I52
sS'YKL179C'
p3975
I53
sS'YLR376C'
p3976
I20
sS'YAL058W'
p3977
I25
sS'YFL033C'
p3978
I62
sS'YJR136C'
p3979
I28
sS'YJL098W'
p3980
I66
sS'YML108W'
p3981
I52
sS'YMR310C'
p3982
I59
sS'YBL038W'
p3983
I75
sS'YHL039W'
p3984
I54
sS'YGR189C'
p3985
I306
sS'YHL042W'
p3986
I9
sS'YNL278W'
p3987
I32
sS'YDR338C'
p3988
I24
sS'YPL250W-A'
p3989
I1
sS'YOR363C'
p3990
I25
sS'YDR396W'
p3991
I5
sS'YOR067C'
p3992
I85
sS'YGR094W'
p3993
I477
sS'YNR048W'
p3994
I25
sS'YGR109C'
p3995
I8
sS'YHR028C'
p3996
I51
sS'YBR265W'
p3997
I82
sS'YBL007C'
p3998
I128
sS'YNR037C'
p3999
I65
sS'YOL113W'
p4000
I30
sS'YCL024W'
p4001
I51
sS'YOL084W'
p4002
I6
sS'YAL032C'
p4003
I28
sS'YGL145W'
p4004
I54
sS'YNL283C'
p4005
I64
sS'YNL252C'
p4006
I73
sS'YGL248W'
p4007
I45
sS'YOR020W-A'
p4008
I88
sS'YDR511W'
p4009
I44
sS'YKL035W'
p4010
I288
sS'YBR068C'
p4011
I223
sS'YDR043C'
p4012
I38
sS'YGR076C'
p4013
I57
sS'YEL015W'
p4014
I74
sS'YGR254W'
p4015
I793
sS'YEL040W'
p4016
I244
sS'YPR013C'
p4017
I47
sS'YPL230W'
p4018
I17
sS'YKL087C'
p4019
I51
sS'YHR115C'
p4020
I64
sS'YER124C'
p4021
I126
sS'YER153C'
p4022
I6
sS'YNL339W-B'
p4023
I0
sS'YNL339W-A'
p4024
I0
sS'YPL256C'
p4025
I128
sS'YDL034W'
p4026
I0
sS'YKL201C'
p4027
I111
sS'YOL026C'
p4028
I103
sS'YGL204C'
p4029
I12
sS'YDL069C'
p4030
I26
sS'YPL216W'
p4031
I16
sS'YDR236C'
p4032
I60
sS'YER037W'
p4033
I29
sS'YCR092C'
p4034
I27
sS'YDR160W'
p4035
I38
sS'YJL111W'
p4036
I243
sS'YIL066C'
p4037
I16
sS'YNL192W'
p4038
I154
sS'YLL010C'
p4039
I58
sS'YLR436C'
p4040
I68
sS'YJR077C'
p4041
I298
sS'YDL112W'
p4042
I69
sS'YBR002C'
p4043
I54
sS'YKL109W'
p4044
I213
sS'YKL154W'
p4045
I89
sS'YLR035C-A'
p4046
I0
sS'YOL019W'
p4047
I58
sS'Q0105'
p4048
I0
sS'YLR121C'
p4049
I46
sS'YDL052C'
p4050
I129
sS'YKR061W'
p4051
I59
sS'YML075C'
p4052
I102
sS'YML002W'
p4053
I23
sS'YNL265C'
p4054
I52
sS'YER011W'
p4055
I161
sS'YMR090W'
p4056
I41
sS'YDL134C'
p4057
I71
sS'Q0060'
p4058
I0
sS'YKL132C'
p4059
I16
sS'YHR171W'
p4060
I19
sS'YDR258C'
p4061
I74
sS'YKL094W'
p4062
I93
sS'YOL030W'
p4063
I238
sS'YDR318W'
p4064
I22
sS'YER080W'
p4065
I75
sS'YPL179W'
p4066
I139
sS'YDL247W'
p4067
I3
sS'YJR019C'
p4068
I18
sS'YFR032C-A'
p4069
I286
sS'YFR032C-B'
p4070
I579
sS'YDR147W'
p4071
I31
sS'YMR031C'
p4072
I56
sS'YBL080C'
p4073
I15
sS'YMR136W'
p4074
I82
sS'YDL083C'
p4075
I1631
sS'YPL022W'
p4076
I53
sS'YDR440W'
p4077
I41
sS'YBR223W-A'
p4078
I0
sS'YJL060W'
p4079
I77
sS'YOR100C'
p4080
I9
sS'YPL095C'
p4081
I36
sS'YNL327W'
p4082
I329
sS'YPR140W'
p4083
I30
sS'YGL059W'
p4084
I47
sS'YML034C-A'
p4085
I0
sS'YGR115C'
p4086
I0
sS'YJL042W'
p4087
I68
sS'YAR033W'
p4088
I0
sS'YOR340C'
p4089
I149
sS'YGR140W'
p4090
I29
sS'YJL176C'
p4091
I49
sS'YOL158C'
p4092
I133
sS'YOR122C'
p4093
I1080
sS'YBR151W'
p4094
I100
sS'YBR184W'
p4095
I7
sS'YGL231C'
p4096
I193
sS'YHR136C'
p4097
I3
sS'YDR018C'
p4098
I13
sS'YDR297W'
p4099
I233
sS'YFL065C'
p4100
I0
sS'YBR246W'
p4101
I73
sS'YIL100W'
p4102
I4
sS'YLR186W'
p4103
I144
sS'YIL155C'
p4104
I56
sS'YPL065W'
p4105
I33
sS'YJL211C'
p4106
I0
sS'YAL013W'
p4107
I48
sS'YDR098C'
p4108
I164
sS'YJR099W'
p4109
I43
sS'YLR259C'
p4110
I361
sS'YPL157W'
p4111
I43
sS'YKL005C'
p4112
I70
sS'YDR418W'
p4113
I1876
sS'YGL166W'
p4114
I23
sS'YBL024W'
p4115
I101
sS'YOL067C'
p4116
I16
sS'YOR275C'
p4117
I45
sS'YDL075W'
p4118
I2804
sS'YDR127W'
p4119
I219
sS'YGR240C-A'
p4120
I7
sS'YOL018C'
p4121
I52
sS'YOR220W'
p4122
I54
sS'YLL048C'
p4123
I159
sS'YNL264C'
p4124
I47
sS'YHR212C'
p4125
I2
sS'YLR053C'
p4126
I3
sS'YLR462W'
p4127
I0
sS'YPR203W'
p4128
I0
sS'YIL075C'
p4129
I313
sS'YOR134W'
p4130
I8
sS'YIL020C'
p4131
I23
sS'YOL098C'
p4132
I86
sS'YNR074C'
p4133
I62
sS'YHR014W'
p4134
I2
sS'YIL097W'
p4135
I16
sS'YOL045W'
p4136
I51
sS'YFR010W'
p4137
I97
sS'YHL009C'
p4138
I21
sS'YDL007C-A'
p4139
I0
sS'YJL109C'
p4140
I148
sS'YOR053W'
p4141
I67
sS'YJR151W-A'
p4142
I0
sS'YIL008W'
p4143
I97
sS'YPR016W-A'
p4144
I0
sS'YNL048W'
p4145
I49
sS'YNL086W'
p4146
I25
sS'YGL064C'
p4147
I21
sS'YAL059C-A'
p4148
I0
sS'YPR126C'
p4149
I9
sS'YMR119W'
p4150
I64
sS'YER176W'
p4151
I57
sS'YPL279C'
p4152
I20
sS'YDL180W'
p4153
I58
sS'YGL127C'
p4154
I50
sS'YKL220C'
p4155
I9
sS'YLR166C'
p4156
I50
sS'YMR271C'
p4157
I20
sS'YBL065W'
p4158
I0
sS'YPL004C'
p4159
I422
sS'YMR199W'
p4160
I84
sS'YER118C'
p4161
I89
sS'YMR162C'
p4162
I51
sS'YEL009C'
p4163
I519
sS'YKR106W'
p4164
I7
sS'YDR498C'
p4165
I35
sS'YLL066C'
p4166
I9
sS'YDR111C'
p4167
I39
sS'YBR023C'
p4168
I106
sS'YER058W'
p4169
I50
sS'YIL100C-A'
p4170
I2
sS'YJR069C'
p4171
I100
sS'YBR299W'
p4172
I15
sS'YKR055W'
p4173
I19
sS'YIR035C'
p4174
I54
sS'YJR034W'
p4175
I47
sS'YOR003W'
p4176
I41
sS'YNL026W'
p4177
I48
sS'YGR206W'
p4178
I51
sS'YGL189C'
p4179
I792
sS'YPR036W-A'
p4180
I2442
sS'YDR211W'
p4181
I96
sS'YOR125C'
p4182
I44
sS'YDR261C-D'
p4183
I33
sS'YPR167C'
p4184
I59
sS'YJL045W'
p4185
I8
sS'YDR261C-C'
p4186
I0
sS'YMR057C'
p4187
I0
sS'YNL306W'
p4188
I126
sS'YOR297C'
p4189
I64
sS'YKL115C'
p4190
I2
sS'YGL153W'
p4191
I49
sS'YDR407C'
p4192
I52
sS'YHR196W'
p4193
I133
sS'YER014C-A'
p4194
I0
sS'YDR277C'
p4195
I111
sS'YPR067W'
p4196
I56
sS'YML092C'
p4197
I267
sS'YER190C-A'
p4198
I0
sS'YML025C'
p4199
I56
sS'YLR100W'
p4200
I192
sS'YJR134C'
p4201
I68
sS'YBR167C'
p4202
I44
sS'YPL196W'
p4203
I38
sS'YJL149W'
p4204
I28
sS'YNR017W'
p4205
I171
sS'YNL168C'
p4206
I50
sS'YFR037C'
p4207
I256
sS'YDR364C'
p4208
I33
sS'YLR352W'
p4209
I24
sS'YPL056C'
p4210
I13
sS'YIL056W'
p4211
I241
sS'YDR461W'
p4212
I3
sS'YNL113W'
p4213
I126
sS'YLR229C'
p4214
I241
sS'YJR052W'
p4215
I45
sS'YPR109W'
p4216
I51
sS'YLR292C'
p4217
I115
sS'YKL020C'
p4218
I52
sS'YFR019W'
p4219
I53
sS'YLR312W-A'
p4220
I24
sS'YGL120C'
p4221
I172
sS'YDL166C'
p4222
I77
sS'YPL152W-A'
p4223
I1
sS'YGL212W'
p4224
I11
sS'YLR374C'
p4225
I0
sS'YNL008C'
p4226
I41
sS'YOL111C'
p4227
I110
sS'YDR004W'
p4228
I40
sS'YFR034W-A'
p4229
I92
sS'YMR312W'
p4230
I34
sS'YIL161W'
p4231
I34
sS'YOL144W'
p4232
I50
sS'YPL121C'
p4233
I0
sS'YGL178W'
p4234
I53
sS'YGR272C'
p4235
I98
sS'YPL249C-A'
p4236
I2747
sS'YGR121C'
p4237
I14
sS'YHR099W'
p4238
I75
sS'YLR243W'
p4239
I67
sS'YGR096W'
p4240
I17
sS'YIR005W'
p4241
I38
sS'YJR112W'
p4242
I28
sS'YDL231C'
p4243
I58
sS'YMR153C-A'
p4244
I1
sS'YDR503C'
p4245
I29
sS'YIL069C'
p4246
I1018
sS'YJR083C'
p4247
I26
sS'YGL037C'
p4248
I329
sS'YNL135C'
p4249
I633
sS'YAL030W'
p4250
I101
sS'YGL147C'
p4251
I2312
sS'YBR263W'
p4252
I116
sS'YOL086C'
p4253
I10164
sS'YBL001C'
p4254
I322
sS'YNR035C'
p4255
I194
sS'YBR232C'
p4256
I0
sS'YDR381C-A'
p4257
I49
sS'YKL141W'
p4258
I185
sS'YDL032W'
p4259
I0
sS'YMR252C'
p4260
I42
sS'YCR101C'
p4261
I6
sS'YGL246C'
p4262
I80
sS'YDR045C'
p4263
I84
sS'YPL232W'
p4264
I95
sS'YEL017W'
p4265
I59
sS'YGR252W'
p4266
I45
sS'YGR003W'
p4267
I22
sS'YDR517W'
p4268
I86
sS'YGR074W'
p4269
I29
sS'YOR256C'
p4270
I45
sS'YPR011C'
p4271
I35
sS'YPR044C'
p4272
I15
sS'YAR010C'
p4273
I0
sS'YHL040C'
p4274
I78
sS'YOR361C'
p4275
I287
sS'YGR029W'
p4276
I76
sS'YOR334W'
p4277
I32
sS'YGL078C'
p4278
I214
sS'YER151C'
p4279
I86
sS'YOL024W'
p4280
I2
sS'YPL209C'
p4281
I5
sS'YOR382W'
p4282
I176
sS'YEL039C'
p4283
I42
sS'YKL189W'
p4284
I45
sS'YPL254W'
p4285
I58
sS'YFL063W'
p4286
I0
sS'YLL012W'
p4287
I57
sS'YCR076C'
p4288
I47
sS'YLR438W'
p4289
I24
sS'YCR094W'
p4290
I56
sS'YNL190W'
p4291
I424
sS'YDR234W'
p4292
I196
sS'YGL085W'
p4293
I26
sS'YER039C'
p4294
I10
sS'YIR029W'
p4295
I18
sS'YKR049C'
p4296
I22
sS'YPR179C'
p4297
I27
sS'YDL149W'
p4298
I14
sS'YPL002C'
p4299
I54
sS'Q0120'
p4300
I0
sS'YJR075W'
p4301
I143
sS'YPR124W'
p4302
I31
sS'YNL210W'
p4303
I0
sS'YLR127C'
p4304
I30
sS'YER017C'
p4305
I80
sS'YKR063C'
p4306
I28
sS'YLR027C'
p4307
I348
sS'YDL132W'
p4308
I55
sS'YHR097C'
p4309
I59
sS'YMR096W'
p4310
I351
sS'YGR229C'
p4311
I114
sS'YGL175C'
p4312
I5
sS'YDR365W-B'
p4313
I1238
sS'YER082C'
p4314
I67
sS'YKL069W'
p4315
I30
sS'YHR173C'
p4316
I2
sS'YMR003W'
p4317
I27
sS'YPL177C'
p4318
I127
sS'YKL092C'
p4319
I32
sS'YDR322C-A'
p4320
I320
sS'YLR260W'
p4321
I25
sS'YDL241W'
p4322
I34
sS'YKL152C'
p4323
I6383
sS'YNL277W-A'
p4324
I9
sS'YMR001C'
p4325
I48
sS'YBL082C'
p4326
I37
sS'YDL081C'
p4327
I1759
sS'YLR149C'
p4328
I16
sS'YMR138W'
p4329
I18
sS'YFL018C'
p4330
I358
sS'YDR149C'
p4331
I0
sS'YJL139C'
p4332
I29
sS'YPL097W'
p4333
I26
sS'YOR339C'
p4334
I10
sS'YDR442W'
p4335
I0
sS'YLR375W'
p4336
I78
sS'YPR142C'
p4337
I0
sS'YMR038C'
p4338
I124
sS'YJL066C'
p4339
I32
sS'YIR020C-B'
p4340
I0
sS'YNL321W'
p4341
I50
sS'YGR117C'
p4342
I35
sS'YHR033W'
p4343
I7
sS'YOR342C'
p4344
I310
sS'YFR029W'
p4345
I22
sS'YBR153W'
p4346
I41
sS'YOR073W'
p4347
I34
sS'YOR008C'
p4348
I98
sS'YDR291W'
p4349
I32
sS'YMR289W'
p4350
I49
sS'YER070W'
p4351
I273
sS'YAL015C'
p4352
I71
sS'YBR240C'
p4353
I11
sS'YIL157C'
p4354
I63
sS'YOR161W-B'
p4355
I2
sS'YMR030W-A'
p4356
I0
sS'YNL074C'
p4357
I48
sS'YPL151C'
p4358
I37
sS'YKL007W'
p4359
I118
sS'YLR180W'
p4360
I354
sS'YJL213W'
p4361
I23
sS'YLR406C'
p4362
I884
sS'YDR416W'
p4363
I28
sS'YOR277C'
p4364
I14
sS'YGL129C'
p4365
I38
sS'YPR074W-A'
p4366
I0
sS'YOL065C'
p4367
I26
sS'YMR181C'
p4368
I59
sS'YBL022C'
p4369
I93
sS'YGL164C'
p4370
I49
sS'YOL130W'
p4371
I59
sS'YDR125C'
p4372
I11
sS'YHR214W'
p4373
I51
sS'YLR460C'
p4374
I16
sS'YLL046C'
p4375
I8
sS'YMR135W-A'
p4376
I0
sS'YLR051C'
p4377
I119
sS'YBR056W-A'
p4378
I17
sS'YLR004C'
p4379
I13
sS'YFR012W'
p4380
I6
sS'YPR201W'
p4381
I8
sS'YIL073C'
p4382
I5
sS'YOR284W'
p4383
I18
sS'YNR072W'
p4384
I3
sS'YHR180C-B'
p4385
I1
sS'YOL047C'
p4386
I4
sS'YKL113C'
p4387
I59
sS'YHR012W'
p4388
I68
sS'YIL022W'
p4389
I110
sS'YNL248C'
p4390
I146
sS'YDR336W'
p4391
I34
sS'YOR055W'
p4392
I0
sS'YLR326W'
p4393
I32
sS'YML132W'
p4394
I28
sS'YBR025C'
p4395
I574
sS'YDL186W'
p4396
I0
sS'YJL026C-A'
p4397
I0
sS'YER170W'
p4398
I28
sS'YPL096C-A'
p4399
I103
sS'YKL222C'
p4400
I23
sS'YLR139C'
p4401
I27
sS'YMR277W'
p4402
I54
sS'YML049C'
p4403
I66
sS'YCR068W'
p4404
I12
sS'YLR330W'
p4405
I163
sS'YGL125W'
p4406
I34
sS'YLR164W'
p4407
I10
sS'YKR104W'
p4408
I5
sS'YOR248W'
p4409
I3
sS'YER116C'
p4410
I16
sS'YMR160W'
p4411
I17
sS'YCL073C'
p4412
I0
sS'YMR197C'
p4413
I83
sS'YAR071W'
p4414
I0
sS'YLL060C'
p4415
I11
sS'YKL219W'
p4416
I32
sS'YOR188W'
p4417
I45
sS'YJR005C-A'
p4418
I1
sS'YJR032W'
p4419
I63
sS'YIR037W'
p4420
I236
sS'YGL012W'
p4421
I258
sS'YOL057W'
p4422
I94
sS'YMR073C'
p4423
I46
sS'YFR004W'
p4424
I232
sS'YPR158W-A'
p4425
I0
sS'YPR158W-B'
p4426
I555
sS'YDR213W'
p4427
I11
sS'YNL053W'
p4428
I66
sS'YGR208W'
p4429
I96
sS'YNL024C'
p4430
I43
sS'YKR079C'
p4431
I40
sS'YMR055C'
p4432
I16
sS'YDR066C'
p4433
I13
sS'YOR190W'
p4434
I7
sS'YNL304W'
p4435
I17
sS'YPR165W'
p4436
I409
sS'YJL047C'
p4437
I20
sS'YDR275W'
p4438
I41
sS'YEL061C'
p4439
I40
sS'YML027W'
p4440
I46
sS'YML128C'
p4441
I31
sS'YHR194W'
p4442
I31
sS'YGR288W'
p4443
I14
sS'YOR295W'
p4444
I48
sS'YLR102C'
p4445
I20
sS'YPR030W'
p4446
I20
sS'YDL208W'
p4447
I450
sS'YFL037W'
p4448
I334
sS'YJR132W'
p4449
I54
sS'YPL198W'
p4450
I605
sS'YDR366C'
p4451
I296
sS'YFR035C'
p4452
I0
sS'YNL111C'
p4453
I135
sS'YPL058C'
p4454
I105
sS'YNR011C'
p4455
I37
sS'YHR071W'
p4456
I79
sS'YLR309C'
p4457
I56
sS'YDR153C'
p4458
I88
sS'YGL006W-A'
p4459
I10
sS'YPR169W-A'
p4460
I4
sS'YJL170C'
p4461
I1
sS'YKL026C'
p4462
I28
sS'YDR308C'
p4463
I75
sS'YLR372W'
p4464
I516
sS'YLR389C'
p4465
I77
sS'YDL168W'
p4466
I123
sS'YER003C'
p4467
I175
sS'YBR234C'
p4468
I159
sS'YIL163C'
p4469
I1
sS'YBR261C'
p4470
I72
sS'YPR088C'
p4471
I125
sS'YNL253W'
p4472
I33
sS'YNL287W'
p4473
I158
sS'YOL146W'
p4474
I46
sS'YHR144C'
p4475
I62
sS'YDR006C'
p4476
I88
sS'YMR158W-B'
p4477
I0
sS'YGR123C'
p4478
I80
sS'YMR314W'
p4479
I228
sS'YPL118W'
p4480
I98
sS'YLR241W'
p4481
I63
sS'YGR090W'
p4482
I98
sS'YDL233W'
p4483
I24
sS'YNL132W'
p4484
I101
sS'YDL120W'
p4485
I107
sS'YJR149W'
p4486
I35
sS'YKL048C'
p4487
I20
sS'YNL137C'
p4488
I60
sS'YAL036C'
p4489
I201
sS'YBL003C'
p4490
I1090
sS'YHR005C-A'
p4491
I488
sS'YHR208W'
p4492
I244
sS'YDL065C'
p4493
I129
sS'YGL244W'
p4494
I85
sS'YMR254C'
p4495
I1
sS'YNL229C'
p4496
I149
sS'YDL030W'
p4497
I32
sS'YHR218W-A'
p4498
I0
sS'YEL011W'
p4499
I52
sS'YGR001C'
p4500
I152
sS'YGR270C-A'
p4501
I0
sS'YGR250C'
p4502
I57
sS'YDR515W'
p4503
I24
sS'YOR254C'
p4504
I197
sS'YOR201C'
p4505
I62
sS'YHL046C'
p4506
I0
sS'YAR047C'
p4507
I0
sS'YHR119W'
p4508
I50
sS'YHR076W'
p4509
I35
sS'YOR336W'
p4510
I39
sS'YPL252C'
p4511
I136
sS'YOR094W'
p4512
I52
sS'YER157W'
p4513
I40
sS'YOL022C'
p4514
I82
sS'YPL076W'
p4515
I25
sS'YEL037C'
p4516
I175
sS'YBL059W'
p4517
I22
sS'YCR096C'
p4518
I0
sS'YFL061W'
p4519
I0
sS'YNL196C'
p4520
I0
sS'YLL014W'
p4521
I195
sS'YCL050C'
p4522
I454
sS'YCR021C'
p4523
I19
sS'YPR079W'
p4524
I40
sS'YDR170C'
p4525
I135
sS'Q0140'
p4526
I0
sS'Q0143'
p4527
I0
sS'Q0142'
p4528
I0
sS'YPR122W'
p4529
I66
sS'Q0144'
p4530
I0
sS'YHR048W'
p4531
I17
sS'YNL318C'
p4532
I0
sS'YER006C-A'
p4533
I1
sS'YJL039C'
p4534
I85
sS'YBR006W'
p4535
I47
sS'YIR016W'
p4536
I27
sS'YNL212W'
p4537
I67
sS'YDR387C'
p4538
I41
sS'YER015W'
p4539
I15
sS'YMR247C'
p4540
I46
sS'YML006C'
p4541
I49
sS'YAL056C-A'
p4542
I0
sS'YDR439W'
p4543
I25
sS'YPR037C'
p4544
I63
sS'YLR401C'
p4545
I56
sS'YLR125W'
p4546
I6
sS'YHR095W'
p4547
I0
sS'YLR070C'
p4548
I12
sS'YDL130W'
p4549
I2427
sS'YLR025W'
p4550
I110
sS'YER139C'
p4551
I14
sS'YMR094W'
p4552
I7
sS'YML045W-A'
p4553
I0
sS'YJL013C'
p4554
I27
sS'YJL064W'
p4555
I0
sS'YGR174W-A'
p4556
I24
sS'YER019C-A'
p4557
I399
sS'YKR021W'
p4558
I33
sS'YNL018C'
p4559
I1
sS'YKL067W'
p4560
I300
sS'YKL090W'
p4561
I22
sS'YMR005W'
p4562
I73
sS'YLR262C'
p4563
I117
sS'YDL243C'
p4564
I15
sS'YER084W'
p4565
I16
sS'YPL175W'
p4566
I30
sS'YKL105C'
p4567
I30
sS'YDL087C'
p4568
I11
sS'YKL150W'
p4569
I173
sS'YMR225C'
p4570
I91
sS'YOR173W'
p4571
I24
sS'YNL323W'
p4572
I61
sS'YFR031C-A'
p4573
I1413
sS'YPL091W'
p4574
I131
sS'YML068W'
p4575
I20
sS'YGR109W-B'
p4576
I191
sS'YGR109W-A'
p4577
I1
sS'YIR008C'
p4578
I36
sS'YGL205W'
p4579
I3
sS'YPL217C'
p4580
I99
sS'YDR524C'
p4581
I52
sS'YOR333C'
p4582
I0
sS'YDR293C'
p4583
I101
sS'YBR155W'
p4584
I89
sS'YEL023C'
p4585
I17
sS'YBR188C'
p4586
I33
sS'YPL171C'
p4587
I12
sS'YGR028W'
p4588
I43
sS'YAL017W'
p4589
I40
sS'YBR242W'
p4590
I58
sS'YNL158W'
p4591
I23
sS'YBR108W'
p4592
I27
sS'YJL151C'
p4593
I314
sS'YNL076W'
p4594
I34
sS'YLR182W'
p4595
I50
sS'YKL001C'
p4596
I86
sS'YBR173C'
p4597
I173
sS'YHR045W'
p4598
I46
sS'YDR386W'
p4599
I79
sS'YMR308C'
p4600
I166
sS'YGL162W'
p4601
I59
sS'YOR271C'
p4602
I139
sS'YMR183C'
p4603
I98
sS'YDR414C'
p4604
I39
sS'YLL044W'
p4605
I0
sS'YOL132W'
p4606
I6
sS'YPR002C-A'
p4607
I34
sS'YHR216W'
p4608
I284
sS'YNL260C'
p4609
I29
sS'YOL002C'
p4610
I123
sS'YBL020W'
p4611
I53
sS'YDL159C-B'
p4612
I0
sS'YHR010W'
p4613
I1322
sS'YDR400W'
p4614
I52
sS'YNL231C'
p4615
I555
sS'YIL024C'
p4616
I12
sS'YNL218W'
p4617
I22
sS'YOL041C'
p4618
I126
sS'YIL071C'
p4619
I27
sS'YOL109W'
p4620
I859
sS'YNR025C'
p4621
I8
sS'YER060W-A'
p4622
I5
sS'YNR070W'
p4623
I10
sS'YML130C'
p4624
I121
sS'YJL156W-A'
p4625
I7
sS'YLR328W'
p4626
I55
sS'YBR228W'
p4627
I33
sS'YNL246W'
p4628
I52
sS'YGR046W'
p4629
I34
sS'YLR039C'
p4630
I48
sS'YNL097C'
p4631
I24
sS'YDR039C'
p4632
I78
sS'YBR090C'
p4633
I60
sS'YBR027C'
p4634
I7
sS'YGL057C'
p4635
I17
sS'YER172C'
p4636
I60
sS'YDL184C'
p4637
I14151
sS'YDL046W'
p4638
I195
sS'YLR162W'
p4639
I19
sS'YKL224C'
p4640
I0
sS'YDR510C-A'
p4641
I1
sS'YHR056W-A'
p4642
I0
sS'YEL058W'
p4643
I127
sS'YJR001W'
p4644
I97
sS'YMR148W'
p4645
I21
sS'YFL034C-A'
p4646
I589
sS'YFL034C-B'
p4647
I93
sS'YML047C'
p4648
I34
sS'YLR006C'
p4649
I37
sS'YKR102W'
p4650
I13
sS'YER149C'
p4651
I38
sS'Q0085'
p4652
I0
sS'YER114C'
p4653
I38
sS'Q0080'
p4654
I0
sS'YHR127W'
p4655
I63
sS'YOR300W'
p4656
I0
sS'YIL086C'
p4657
I1
sS'YAR073W'
p4658
I0
sS'YMR228W'
p4659
I32
sS'YLL062C'
p4660
I14
sS'YHL014C'
p4661
I26
sS'YAL067W-A'
p4662
I0
sS'YER045C'
p4663
I57
sS'YMR028W'
p4664
I41
sS'YLR422W'
p4665
I45
sS'YLR093C'
p4666
I96
sS'YIR031C'
p4667
I17
sS'YKR051W'
p4668
I42
sS'YJR030C'
p4669
I11
sS'YBR297W'
p4670
I64
sS'YMR030W'
p4671
I28
sS'YDL151C'
p4672
I0
sS'YGL010W'
p4673
I39
sS'YMR122C'
p4674
I4
sS'YHR149C'
p4675
I61
sS'YDR064W'
p4676
I2724
sS'YMR275C'
p4677
I37
sS'YLR456W'
p4678
I23
sS'YOR192C'
p4679
I8
sS'YMR202W'
p4680
I298
sS'YKR077W'
p4681
I31
sS'YDR273W'
p4682
I10
sS'YPR063C'
p4683
I126
sS'YGR231C'
p4684
I183
sS'YAL016C-A'
p4685
I1
sS'YAL016C-B'
p4686
I0
sS'YDR326C'
p4687
I76
sS'YML021C'
p4688
I35
sS'YPR032W'
p4689
I36
sS'YHR050W-A'
p4690
I7
sS'YJR130C'
p4691
I68
sS'YOR135C'
p4692
I0
sS'YPL173W'
p4693
I61
sS'YNL117W'
p4694
I3
sS'YIL052C'
p4695
I1912
sS'YPL064C'
p4696
I51
sS'YNR013C'
p4697
I118
sS'YDR360W'
p4698
I0
sS'YHR073W'
p4699
I78
sS'YCR041W'
p4700
I21
sS'YJL172W'
p4701
I6
sS'YDR151C'
p4702
I77
sS'YBL078C'
p4703
I77
sS'YNL051W'
p4704
I40
sS'Q0250'
p4705
I1
sS'YKL024C'
p4706
I97
sS'YKL126W'
p4707
I119
sS'Q0255'
p4708
I0
sS'YDR306C'
p4709
I40
sS'YER137C-A'
p4710
I0
sS'YPL061W'
p4711
I632
sS'YLR370C'
p4712
I226
sS'YLR387C'
p4713
I103
sS'YAL034C'
p4714
I24
sS'YNR039C'
p4715
I43
sS'YAL043C'
p4716
I44
sS'YIL165C'
p4717
I26
sS'YLR425W'
p4718
I37
sS'YHR146W'
p4719
I189
sS'YPL125W'
p4720
I52
sS'YDR289C'
p4721
I41
sS'YNL285W'
p4722
I82
sS'YNL316C'
p4723
I23
sS'YGL040C'
p4724
I125
sS'YBR194W'
p4725
I25
sS'YOR354C'
p4726
I52
sS'YJL092W'
p4727
I37
sS'YMR316W'
p4728
I41
sS'YIL038C'
p4729
I76
sS'YIL138C'
p4730
I135
sS'YDR034C'
p4731
I64
sS'YIL143C'
p4732
I72
sS'YGR092W'
p4733
I48
sS'YOL166C'
p4734
I3
sS'YJL207C'
p4735
I92
sS'YLR247C'
p4736
I47
sS'YJR090C'
p4737
I48
sS'YDL235C'
p4738
I145
sS'YOR057W'
p4739
I62
sS'YGL081W'
p4740
I11
sS'YGR103W'
p4741
I267
sS'YGR178C'
p4742
I121
sS'YGR057C'
p4743
I33
sS'YNR001W-A'
p4744
I0
sS'YJR087W'
p4745
I3
sS'YGL143C'
p4746
I25
sS'YJR123W'
p4747
I3443
sS'YOL075C'
p4748
I24
sS'YBR294W'
p4749
I3
sS'YDL067C'
p4750
I449
sS'YOL020W'
p4751
I116
sS'YDR135C'
p4752
I100
sS'YOR314W'
p4753
I1
sS'YMR256C'
p4754
I338
sS'YGL242C'
p4755
I85
sS'YBL109W'
p4756
I2
sS'YOR252W'
p4757
I90
sS'YGR078C'
p4758
I116
sS'YPR001W'
p4759
I8
sS'YGR007W'
p4760
I70
sS'YEL053W-A'
p4761
I0
sS'YHL033C'
p4762
I476
sS'YHL006W-A'
p4763
I0
sS'YGL252C'
p4764
I87
sS'YER155C'
p4765
I155
sS'YBR037C'
p4766
I24
sS'YGL074C'
p4767
I0
sS'YOR096W'
p4768
I1424
sS'YEL035C'
p4769
I0
sS'YGR025W'
p4770
I0
sS'YPL205C'
p4771
I13
sS'YPL250C'
p4772
I177
sS'YGR132C'
p4773
I122
sS'YGL119W'
p4774
I34
sS'YMR103C'
p4775
I20
sS'YCR072C'
p4776
I82
sS'YNL194C'
p4777
I2
sS'YCR023C'
p4778
I68
sS'YGR278W'
p4779
I21
sS'YBL057C'
p4780
I57
sS'YBR073W'
p4781
I66
sS'YPR175W'
p4782
I29
sS'Q0160'
p4783
I0
sS'YBR004C'
p4784
I74
sS'YLL016W'
p4785
I22
sS'YPR120C'
p4786
I40
sS'YBL041W'
p4787
I282
sS'YDL058W'
p4788
I52
sS'YNL214W'
p4789
I20
sS'YLR403W'
p4790
I56
sS'YPR180W'
p4791
I35
sS'YOR203W'
p4792
I4
sS'YEL013W'
p4793
I65
sS'YPR040W'
p4794
I39
sS'YDR385W'
p4795
I1572
sS'YOR280C'
p4796
I52
sS'YDR480W'
p4797
I25
sS'YMR182W-A'
p4798
I12
sS'YML004C'
p4799
I316
sS'YHR093W'
p4800
I0
sS'YLR023C'
p4801
I51
sS'YBR059C'
p4802
I66
sS'YHR180W-A'
p4803
I5
sS'YDL198C'
p4804
I297
sS'YLR072W'
p4805
I49
sS'YER180C'
p4806
I18
sS'YGR212W'
p4807
I16
sS'YJL011C'
p4808
I35
sS'YKL138C'
p4809
I54
sS'YPL093W'
p4810
I208
sS'YDR347W'
p4811
I62
sS'YER086W'
p4812
I315
sS'YDR207C'
p4813
I39
sS'YLR264W'
p4814
I334
sS'YKR023W'
p4815
I33
sS'YDL218W'
p4816
I4
sS'YKL038W'
p4817
I36
sS'YDR424C'
p4818
I98
sS'YLR286C'
p4819
I829
sS'YNL016W'
p4820
I279
sS'YHL030W-A'
p4821
I1
sS'YDL118W'
p4822
I0
sS'YGL199C'
p4823
I3
sS'YKL107W'
p4824
I1
sS'YPL079W'
p4825
I1256
sS'YDL085W'
p4826
I4
sS'YFL049W'
p4827
I35
sS'YKR018C'
p4828
I96
sS'YOR171C'
p4829
I53
sS'YKL003C'
p4830
I79
sS'YER046W-A'
p4831
I0
sS'YHR069C'
p4832
I76
sS'YDR329C'
p4833
I37
sS'YFR025C'
p4834
I62
sS'YIR006C'
p4835
I128
sS'YGL249W'
p4836
I2
sS'YKL192C'
p4837
I683
sS'YHR002W'
p4838
I26
sS'YLR311C'
p4839
I2
sS'YPR098C'
p4840
I72
sS'YNR009W'
p4841
I40
sS'YOL161C'
p4842
I0
sS'YDL136W'
p4843
I845
sS'YMR052C-A'
p4844
I1
sS'YJR151C'
p4845
I20
sS'YKL065C'
p4846
I209
sS'YJR046W'
p4847
I69
sS'YMR007W'
p4848
I2
sS'YDL172C'
p4849
I2
sS'YLR315W'
p4850
I7
sS'YFL023W'
p4851
I38
sS'YDR092W'
p4852
I130
sS'YPL108W'
p4853
I18
sS'YBR171W'
p4854
I161
sS'YNL130C-A'
p4855
I0
sS'YJL157C'
p4856
I184
sS'YNL070W'
p4857
I483
sS'YMR185W'
p4858
I42
sS'YOR273C'
p4859
I58
sS'YBR200W'
p4860
I52
sS'YNL262W'
p4861
I87
sS'YAR028W'
p4862
I0
sS'YAR053W'
p4863
I5
sS'YNL133C'
p4864
I34
sS'YOL069W'
p4865
I8
sS'YLL042C'
p4866
I14
sS'YDR412W'
p4867
I74
sS'YGL160W'
p4868
I37
sS'YOL134C'
p4869
I0
sS'YJL199C'
p4870
I18
sS'YBR157C'
p4871
I11
sS'YCL036W'
p4872
I56
sS'YOL092W'
p4873
I136
sS'YOR077W'
p4874
I11
sS'YOL043C'
p4875
I27
sS'YDR402C'
p4876
I3
sS'YIL026C'
p4877
I29
sS'YEL041W'
p4878
I11
sS'YGL042C'
p4879
I1
sS'YBR086C'
p4880
I171
sS'YNL244C'
p4881
I768
sS'YNR027W'
p4882
I53
sS'YLR438C-A'
p4883
I227
sS'YLR458W'
p4884
I0
sS'YGL055W'
p4885
I754
sS'YBR092C'
p4886
I283
sS'YNL095C'
p4887
I12
sS'YDR529C'
p4888
I486
sS'YGR044C'
p4889
I84
sS'YBL113C'
p4890
I0
sS'YOR219C'
p4891
I43
sS'YLR135W'
p4892
I16
sS'YPL226W'
p4893
I240
sS'YML018C'
p4894
I170
sS'YDL044C'
p4895
I24
sS'YLR160C'
p4896
I182
sS'YDL011C'
p4897
I0
sS'YER112W'
p4898
I104
sS'YOR376W-A'
p4899
I3
sS'YKR100C'
p4900
I62
sS'YIL084C'
p4901
I19
sS'YOR302W'
p4902
I5
sS'YAR075W'
p4903
I0
sS'YLR419W'
p4904
I39
sS'YHL016C'
p4905
I17
sS'Q0110'
p4906
I0
sS'YMR193W'
p4907
I39
sS'YLL039C'
p4908
I115
sS'YCR053W'
p4909
I490
sS'YML023C'
p4910
I57
sS'YLR437C-A'
p4911
I0
sS'YMR272W-B'
p4912
I0
sS'YLR091W'
p4913
I17
sS'YMR272W-A'
p4914
I0
sS'YER047C'
p4915
I25
sS'YIL068W-A'
p4916
I1
sS'YKR053C'
p4917
I15
sS'YML098W'
p4918
I55
sS'YLR420W'
p4919
I119
sS'YJR067C'
p4920
I50
sS'YML094C-A'
p4921
I1
sS'YDL153C'
p4922
I112
sS'YMR071C'
p4923
I209
sS'YIR033W'
p4924
I71
sS'YGL016W'
p4925
I55
sS'YDL216C'
p4926
I17
sS'YMR120C'
p4927
I233
sS'YER029C'
p4928
I61
sS'YKR075C'
p4929
I312
sS'YOR194C'
p4930
I101
sS'YML045W'
p4931
I596
sS'YIL105W-A'
p4932
I6
sS'YMR200W'
p4933
I136
sS'YMR051C'
p4934
I0
sS'YAL031W-A'
p4935
I0
sS'YPR034W'
p4936
I66
sS'YGR233C'
p4937
I31
sS'YCR039C'
p4938
I99
sS'YPR061C'
p4939
I21
sS'YDR271C'
p4940
I1
sS'YOR299W'
p4941
I49
sS'YEL065W'
p4942
I75
sS'YHR189W'
p4943
I7
sS'YLR385C'
p4944
I2
sS'YOL124C'
p4945
I146
sS'YDL133C-A'
p4946
I13196
sS'YMR119W-A'
p4947
I9
sS'YDR545W'
p4948
I0
sS'YLR218C'
p4949
I46
sS'YBR138C'
p4950
I13
sS'YNL162W'
p4951
I1383
sS'YDR362C'
p4952
I31
sS'YNL115C'
p4953
I45
sS'YGL138C'
p4954
I0
sS'YJL174W'
p4955
I165
sS'YIR043C'
p4956
I0
sS'YLR298C'
p4957
I53
sS'YNL057W'
p4958
I2
sS'YDR157W'
p4959
I13
sS'YJR058C'
p4960
I70
sS'YPR156C'
p4961
I87
sS'YDR359C'
p4962
I38
sS'YKL124W'
p4963
I33
sS'YDR304C'
p4964
I283
sS'YKL171W'
p4965
I21
sS'YIL066W-A'
p4966
I0
sS'YNL337W'
p4967
I0
sS'YJL056C'
p4968
I22
sS'YPL063W'
p4969
I121
sS'YIL167W'
p4970
I5
sS'YOL142W'
p4971
I85
sS'YDR287W'
p4972
I36
sS'YGL209W'
p4973
I241
sS'YLR400W'
p4974
I0
sS'YLR099W-A'
p4975
I164
sS'YGL041W-A'
p4976
I54
sS'YAL041W'
p4977
I62
sS'YDR199W'
p4978
I1
sS'YHR219C-A'
p4979
I0
sS'YPL127C'
p4980
I128
sS'YJL090C'
p4981
I31
sS'YBR196C'
p4982
I1062
sS'YHR140W'
p4983
I11
sS'YDR002W'
p4984
I543
sS'YOL164W'
p4985
I28
sS'YNL039W'
p4986
I52
sS'YLR198C'
p4987
I12
sS'YJL205C'
p4988
I74
sS'YJR118C'
p4989
I104
sS'YBR072C-A'
p4990
I4
sS'YIL141W'
p4991
I0
sS'YHR028W-A'
p4992
I2
sS'YLR245C'
p4993
I14
sS'YDR342C'
p4994
I820
sS'YGR101W'
p4995
I39
sS'YLR232W'
p4996
I0
sS'YDL237W'
p4997
I73
sS'YJR085C'
p4998
I206
sS'YOL077C'
p4999
I176
sS'YDR137W'
p5000
I35
sS'YHR031C'
p5001
I18
sS'YKL209C'
p5002
I13
sS'YGR049W'
p5003
I52
sS'YDL061C'
p5004
I366
sS'YLR337C'
p5005
I102
sS'YIL010W'
p5006
I90
sS'YEL033W'
p5007
I101
sS'YNR051C'
p5008
I204
sS'YBR292C'
p5009
I6
sS'YGR005C'
p5010
I83
sS'YML111W'
p5011
I50
sS'YBR296C-A'
p5012
I10
sS'YHL034C'
p5013
I485
sS'YGL240W'
p5014
I6
sS'YLR332W'
p5015
I95
sS'YOR392W'
p5016
I0
sS'YGL254W'
p5017
I17
sS'YGR127W'
p5018
I23
sS'YFR006W'
p5019
I118
sS'YHL031C'
p5020
I52
sS'YLR444C'
p5021
I0
sS'YOR026W'
p5022
I35
sS'YER036C'
p5023
I362
sS'YOR090C'
p5024
I47
sS'YPL207W'
p5025
I97
sS'YNL138W-A'
p5026
I25
sS'YGR027C'
p5027
I782
sS'YCL054W'
p5028
I230
sS'YGL117W'
p5029
I228
sS'YER051W'
p5030
I20
sS'YMR105C'
p5031
I80
sS'YER182W'
p5032
I35
sS'YCR025C'
p5033
I5
sS'YDR060W'
p5034
I187
sS'YKR048C'
p5035
I134
sS'YBL055C'
p5036
I31
sS'YBR071W'
p5037
I29
sS'YNL314W'
p5038
I20
sS'YLL018C'
p5039
I284
sS'YDR174W'
p5040
I414
sS'YPR177C'
p5041
I0
sS'YOR155C'
p5042
I45
sS'YGL101W'
p5043
I103
sS'YOR250C'
p5044
I31
sS'YBR121C-A'
p5045
I0
sS'YBL043W'
p5046
I31
sS'YPR042C'
p5047
I49
sS'YDR383C'
p5048
I39
sS'YEL048C'
p5049
I32
sS'YHL029C'
p5050
I60
sS'YGR190C'
p5051
I0
sS'YDR482C'
p5052
I42
sS'YPR182W'
p5053
I139
sS'YLR021W'
p5054
I40
sS'YLR074C'
p5055
I249
sS'YNL216W'
p5056
I56
sS'YLR405W'
p5057
I26
sS'YHR091C'
p5058
I36
sS'YOL013W-A'
p5059
I43
sS'YOL013W-B'
p5060
I2
sS'YMR089C'
p5061
I88
sS'YDR345C'
p5062
I2167
sS'YOR108W'
p5063
I152
sS'YJL068C'
p5064
I86
sS'YGR210C'
p5065
I100
sS'YHR179W'
p5066
I730
sS'YER190C-B'
p5067
I0
sS'YNL049C'
p5068
I58
sS'YDR250C'
p5069
I5
sS'YKR025W'
p5070
I85
sS'YCR087W'
p5071
I2
sS'YDR205W'
p5072
I40
sS'YJL108C'
p5073
I6
sS'YLR266C'
p5074
I35
sS'YER088C'
p5075
I192
sS'YLR284C'
p5076
I17
sS'YNL014W'
p5077
I13
sS'YKL101W'
p5078
I94
sS'YFR009W-A'
p5079
I0
sS'YPR028W'
p5080
I535
sS'YJL035C'
p5081
I22
sS'R0020C'
p5082
I3383
sS'YBL088C'
p5083
I48
sS'YHR039C-A'
p5084
I645
sS'YLR116W'
p5085
I48
sS'YER008C'
p5086
I58
sS'YIR028W'
p5087
I27
sS'YJR155W'
p5088
I23
sS'YOR177C'
p5089
I6
sS'YLR192C'
p5090
I248
sS'YBR177C'
p5091
I65
sS'YJL155C'
p5092
I40
sS'YHR067W'
p5093
I23
sS'YFR027W'
p5094
I15
sS'YJL122W'
p5095
I141
sS'YGR148C'
p5096
I538
sS'YKR069W'
p5097
I41
sS'YDR459C'
p5098
I28
sS'YBR111W-A'
p5099
I86
sS'YLR313C'
p5100
I16
sS'YNR007C'
p5101
I27
sS'YJR153W'
p5102
I0
sS'YKL190W'
p5103
I131
sS'YGL239C'
p5104
I0
sS'YKL063C'
p5105
I104
sS'YDL170W'
p5106
I45
sS'YJR044C'
p5107
I163
sS'YJR011C'
p5108
I24
sS'YMR009W'
p5109
I25
sS'YOR156C'
p5110
I22
sS'YNL072W'
p5111
I29
sS'YFL021W'
p5112
I46
sS'YJL219W'
p5113
I2
sS'YMR283C'
p5114
I18
sS'YDR090C'
p5115
I40
sS'YIL108W'
p5116
I51
sS'YER093C-A'
p5117
I19
sS'YJR135W-A'
p5118
I172
sS'YMR187C'
p5119
I16
sS'YBR202W'
p5120
I78
sS'Q0182'
p5121
I0
sS'YNL239W'
p5122
I101
sS'YDR410C'
p5123
I83
sS'YLL040C'
p5124
I60
sS'YCL032W'
p5125
I58
sS'YOR048C'
p5126
I73
sS'YNL147W'
p5127
I195
sS'YBR159W'
p5128
I217
sS'YOR075W'
p5129
I42
sS'YCL030C'
p5130
I1672
sS'YHR077C'
p5131
I76
sS'YFR018C'
p5132
I43
sS'YKL006W'
p5133
I1804
sS'YNL242W'
p5134
I25
sS'YNL162W-A'
p5135
I24
sS'YOL090W'
p5136
I55
sS'YNL145W'
p5137
I4
sS'YNR021W'
p5138
I210
sS'YBR094W'
p5139
I50
sS'YOR306C'
p5140
I112
sS'YDR035W'
p5141
I459
sS'YGL053W'
p5142
I41
sS'YEL017C-A'
p5143
I1048
sS'YNL093W'
p5144
I3
sS'YOL001W'
p5145
I19
sS'YBL111C'
p5146
I0
sS'YPL224C'
p5147
I31
sS'YLR137W'
p5148
I33
sS'YDL042C'
p5149
I42
sS'YBR096W'
p5150
I120
sS'YDR531W'
p5151
I92
sS'YHR214W-A'
p5152
I90
sS'YOL136C'
p5153
I192
sS'YLR002C'
p5154
I81
sS'YER145C'
p5155
I120
sS'YER110C'
p5156
I186
sS'YOR236W'
p5157
I59
sS'YOR304W'
p5158
I54
sS'YEL050W-A'
p5159
I1
sS'YHL010C'
p5160
I7
sS'YIL082W'
p5161
I1
sS'YMR191W'
p5162
I47
sS'YLR108C'
p5163
I12
sS'YKR008W'
p5164
I64
sS'YDR226W'
p5165
I886
sS'YLR097C'
p5166
I43
sS'YDR108W'
p5167
I29
sS'YER041W'
p5168
I23
sS'YBR036C'
p5169
I107
sS'YBR191W-A'
p5170
I42
sS'YGL102C'
p5171
I0
sS'YJR061W'
p5172
I18
sS'YMR126C'
p5173
I35
sS'YGL014W'
p5174
I94
sS'YML043C'
p5175
I42
sS'YLR068W'
p5176
I65
sS'YMR279C'
p5177
I0
sS'YER027C'
p5178
I65
sS'YKR073C'
p5179
I0
sS'YDL013W'
p5180
I28
sS'YKR088C'
p5181
I77
sS'YMR206W'
p5182
I22
sS'YOR196C'
p5183
I62
sS'YOR231W'
p5184
I40
sS'YPR036W'
p5185
I267
sS'YCR087C-A'
p5186
I75
sS'YGR235C'
p5187
I66
sS'YDR068W'
p5188
I74
sS'YOL159C-A'
p5189
I24
sS'YLR406C-A'
p5190
I1
sS'YKL173W'
p5191
I39
sS'YLR383W'
p5192
I27
sS'YNL219C'
p5193
I76
sS'YDR525W'
p5194
I0
sS'YDR469W'
p5195
I59
sS'YGL051W'
p5196
I2
sS'YNL160W'
p5197
I500
sS'YER053C-A'
p5198
I17
sS'YMR013C'
p5199
I31
sS'YDR219C'
p5200
I29
sS'YCR011C'
p5201
I79
sS'YNL055C'
p5202
I937
sS'YIL134C-A'
p5203
I1
sS'YFL002C'
p5204
I67
sS'YDR155C'
p5205
I2858
sS'YGL181W'
p5206
I74
sS'YKL093W'
p5207
I9
sS'YPL087W'
p5208
I81
sS'YDR302W'
p5209
I77
sS'YJL054W'
p5210
I73
sS'YNL335W'
p5211
I1
sS'YJL225W-A'
p5212
I0
sS'YPR154W'
p5213
I66
sS'YKL122C'
p5214
I306
sS'YAL038W'
p5215
I4645
sS'YAL047C'
p5216
I22
sS'YDR285W'
p5217
I10
sS'YGR107W'
p5218
I2
sS'YAR019W-A'
p5219
I6
sS'YOL119C'
p5220
I113
sS'YIL169C'
p5221
I9
sS'YOR320C'
p5222
I64
sS'YJL096W'
p5223
I76
sS'YHR142W'
p5224
I98
sS'YPL129W'
p5225
I102
sS'YBR190W'
p5226
I10
sS'YOL162W'
p5227
I5
sS'YLR196W'
p5228
I134
sS'YJL203W'
p5229
I30
sS'YAL065C'
p5230
I0
sS'YIL147C'
p5231
I48
sS'YOR107W'
p5232
I29
sS'YDL239C'
p5233
I17
sS'YML081C-A'
p5234
I626
sS'YKL017C'
p5235
I27
sS'YLR230W'
p5236
I0
sS'YPL201C'
p5237
I5
sS'YBL018C'
p5238
I44
sS'YDR131C'
p5239
I16
sS'YIL012W'
p5240
I1
sS'YEL031W'
p5241
I217
sS'YOL071W'
p5242
I62
sS'YNR053C'
p5243
I136
sS'YDL063C'
p5244
I54
sS'YNL298W'
p5245
I42
sS'YBR290W'
p5246
I70
sS'YNR075W'
p5247
I24
sS'YML113W'
p5248
I49
sS'YHR202W'
p5249
I18
sS'YHR008C'
p5250
I266
sS'YLR446W'
p5251
I6
sS'YFR051C'
p5252
I163
sS'YHL037C'
p5253
I0
sS'YHL009W-B'
p5254
I20
sS'YHL009W-A'
p5255
I0
sS'YNR068C'
p5256
I10
sS'YGR129W'
p5257
I26
sS'YAR018C'
p5258
I27
sS'YOR369C'
p5259
I4390
sS'YOR025W'
p5260
I21
sS'YOR092W'
p5261
I51
sS'YGR021W'
p5262
I35
sS'YGL070C'
p5263
I68
sS'YGL256W'
p5264
I60
sS'YOL038C-A'
p5265
I17
sS'YER184C'
p5266
I10
sS'YMR107W'
p5267
I6
sS'YER166W'
p5268
I78
sS'YHR015W'
p5269
I19
sS'YCR027C'
p5270
I45
sS'YDL194W'
p5271
I30
sS'YDL009C'
p5272
I6
sS'YIL021W'
p5273
I130
sS'YNL198C'
p5274
I14
sS'YGL115W'
p5275
I118
sS'YBL053W'
p5276
I9
sS'YBR077C'
p5277
I36
sS'YDR176W'
p5278
I50
sS'YDR381W'
p5279
I225
sS'YGL103W'
p5280
I4454
sS'YDR484W'
p5281
I28
sS'YOR207C'
p5282
I99
sS'YGL128C'
p5283
I18
sS'YGR192C'
p5284
I15909
sS'YBL045C'
p5285
I260
sS'YOR285W'
p5286
I326
sS'YPR184W'
p5287
I43
sS'YER064C'
p5288
I103
sS'YLL021W'
p5289
I79
sS'YLR407W'
p5290
I72
sS'YBR088C'
p5291
I252
sS'YLR076C'
p5292
I0
sS'YBR055C'
p5293
I42
sS'YOR175C'
p5294
I104
sS'YNL329C'
p5295
I37
sS'YJL015C'
p5296
I2
sS'YLL002W'
p5297
I22
sS'YGL028C'
p5298
I236
sS'YGR216C'
p5299
I41
sS'YNL012W'
p5300
I10
sS'YJL220W'
p5301
I0
sS'YHR182C-A'
p5302
I0
sS'YCR085W'
p5303
I3
sS'YPL184C'
p5304
I86
sS'YLR282C'
p5305
I0
sS'YDR203W'
p5306
I0
sS'YDR252W'
p5307
I16
sS'YJL037W'
p5308
I53
sS'YDR054C'
p5309
I82
sS'YBR008C'
p5310
I30
sS'YMR306C-A'
p5311
I6
sS'YPR171W'
p5312
I75
sS'YKL103C'
p5313
I117
sS'YLR114C'
p5314
I57
sS'YML037C'
p5315
I5
sS'YLR141W'
p5316
I18
sS'YDL089W'
p5317
I31
sS'YPL159C'
p5318
I57
sS'YBR102C'
p5319
I36
sS'YNL144W-A'
p5320
I0
sS'YOR008W-B'
p5321
I3
sS'YDR096W'
p5322
I47
sS'YJL120W'
p5323
I0
sS'YDR055W'
p5324
I190
sS'YBR175W'
p5325
I31
sS'YPL046C'
p5326
I26
sS'YIL002W-A'
p5327
I432
sS'YKL196C'
p5328
I221
sS'YNR005C'
p5329
I0
sS'YFR021W'
p5330
I30
sS'YNL129W'
p5331
I138
sS'YJR013W'
p5332
I44
sS'YDL176W'
p5333
I33
sS'YKR027W'
p5334
I43
sS'YHR053C'
p5335
I347
sS'YKL034W'
p5336
I33
sS'YKL061W'
p5337
I37
sS'YJR042W'
p5338
I73
sS'YMR281W'
p5339
I34
sS'YKL169C'
p5340
I2
sS'YDR241W'
p5341
I27
sS'YFL027C'
p5342
I20
sS'YPL133C'
p5343
I25
sS'YMR302C'
p5344
I52
sS'YBR230W-A'
p5345
I23
sS'YMR189W'
p5346
I76
sS'YBR204C'
p5347
I42
sS'YDL223C'
p5348
I16
sS'YNR023W'
p5349
I31
sS'YOL096C'
p5350
I33
sS'YAL004W'
p5351
I0
sS'YBR259W'
p5352
I28
sS'YDR406W'
p5353
I52
sS'YNL240C'
p5354
I46
sS'YBR222C'
p5355
I79
sS'YJL184W'
p5356
I97
sS'YNL091W'
p5357
I166
sS'YER025W'
p5358
I238
sS'YMR226C'
p5359
I137
sS'YHL012W'
p5360
I1
sS'YNL281W'
p5361
I175
sS'YPL273W'
p5362
I243
sS'YGR015C'
p5363
I20
sS'YDR037W'
p5364
I728
sS'YGR040W'
p5365
I31
sS'YER178W'
p5366
I515
sS'YOL003C'
p5367
I28
sS'YPL222W'
p5368
I8
sS'YBR137W'
p5369
I85
sS'YHR121W'
p5370
I151
sS'YOL138C'
p5371
I33
sS'YDR533C'
p5372
I98
sS'YER147C'
p5373
I21
sS'YIL080W'
p5374
I895
sS'YOL038W'
p5375
I237
sS'YDR183C-A'
p5376
I16
sS'YKL211C'
p5377
I95
sS'YDR220C'
p5378
I0
sS'YLR424W'
p5379
I14
sS'YCL066W'
p5380
I75
sS'YER043C'
p5381
I521
sS'YCL059C'
p5382
I305
sS'YLR095C'
p5383
I52
sS'YBR034C'
p5384
I209
sS'YLR040C'
p5385
I431
sS'YJR063W'
p5386
I136
sS'YKR105C'
p5387
I1
sS'YDL157C'
p5388
I143
sS'YLR131C'
p5389
I25
sS'YDL040C'
p5390
I105
sS'YDL015C'
p5391
I203
sS'YLR347W-A'
p5392
I0
sS'YKR086W'
p5393
I45
sS'YML041C'
p5394
I28
sS'YER078C'
p5395
I50
sS'YDR499W'
p5396
I23
sS'R0010W'
p5397
I448
sS'YMR204C'
p5398
I10
sS'YML014W'
p5399
I37
sS'YKR071C'
p5400
I117
sS'YGL261C'
p5401
I0
sS'YOR233W'
p5402
I45
sS'YMR179W'
p5403
I28
sS'YMR013C-A'
p5404
I0
sS'YGR280C'
p5405
I223
sS'YGR237C'
p5406
I26
sS'YEL069C'
p5407
I0
sS'YKL120W'
p5408
I75
sS'YKL175W'
p5409
I92
sS'YLR381W'
p5410
I21
sS'YMR011W'
p5411
I365
sS'YDL200C'
p5412
I41
sS'YJR009C'
p5413
I2349
sS'YER092W'
p5414
I58
sS'YLR214W'
p5415
I39
sS'YCR054C'
p5416
I32
sS'YCR013C'
p5417
I1
sS'YFL004W'
p5418
I96
sS'YIR017W-A'
p5419
I4
sS'YGL183C'
p5420
I1
sS'YMR153W'
p5421
I47
sS'YMR124W'
p5422
I33
sS'YDR003W-A'
p5423
I12
sS'YPR103W'
p5424
I213
sS'YPL085W'
p5425
I58
sS'YPR152C'
p5426
I16
sS'YJL052W'
p5427
I269
sS'YER038W-A'
p5428
I2
sS'YDR355C'
p5429
I0
sS'YDR300C'
p5430
I83
sS'YGL087C'
p5431
I107
sS'YHR007C-A'
p5432
I69
sS'YPR080W'
p5433
I7439
sS'YGR172C'
p5434
I120
sS'YAL045C'
p5435
I1
sS'YOR396W'
p5436
I0
sS'YGR105W'
p5437
I281
sS'YBR269C'
p5438
I72
sS'YDR283C'
p5439
I55
sS'YBR192W'
p5440
I45
sS'YER007C-A'
p5441
I129
sS'YOR049C'
p5442
I118
sS'YER133W-A'
p5443
I0
sS'YBR125C'
p5444
I73
sS'YJL094C'
p5445
I43
sS'YGL043W'
p5446
I80
sS'YNL166C'
p5447
I63
sS'YOL160W'
p5448
I7
sS'YAL067C'
p5449
I16
sS'YIL132C'
p5450
I12
sS'YIL145C'
p5451
I86
sS'YPL189C-A'
p5452
I68
sS'YDR464C-A'
p5453
I0
sS'YLR194C'
p5454
I125
sS'YKL015W'
p5455
I52
sS'YLR236C'
p5456
I0
sS'YJR089W'
p5457
I31
sS'YPL110C'
p5458
I30
sS'YJL201W'
p5459
I40
sS'YLR146W-A'
p5460
I73
sS'YKL040C'
p5461
I65
sS'YCR038W-A'
p5462
I1
sS'YLR249W'
p5463
I2255
sS'YGL158W'
p5464
I3
sS'YOL073C'
p5465
I35
sS'YPL203W'
p5466
I33
sS'YNR055C'
p5467
I66
sS'YIL014W'
p5468
I67
sS'YHR200W'
p5469
I180
sS'YDR184C'
p5470
I66
sS'YDR133C'
p5471
I562
sS'YML115C'
p5472
I80
sS'YNL221C'
p5473
I64
sS'YOR353C'
p5474
I38
sS'YOL055C'
p5475
I30
sS'YIL032C'
p5476
I0
sS'YNL108C'
p5477
I70
sS'YFR053C'
p5478
I544
sS'YHL035C'
p5479
I118
sS'YLR336C'
p5480
I49
sS'YFR002W'
p5481
I71
sS'YBR211C'
p5482
I46
sS'YGR089W'
p5483
I64
sS'YGR023W'
p5484
I30
sS'YGL072C'
p5485
I21
sS'YGL258W'
p5486
I4
sS'YDR056C'
p5487
I148
sS'YDL196W'
p5488
I0
sS'YHR100C'
p5489
I29
sS'YBR057C'
p5490
I66
sS'YPL269W'
p5491
I31
sS'YER186C'
p5492
I53
sS'YER164W'
p5493
I48
sS'YER131W'
p5494
I565
sS'YCL058C'
p5495
I18
sS'YBL051C'
p5496
I143
sS'YHR027C'
p5497
I214
sS'YGL113W'
p5498
I24
sS'YGR009C'
p5499
I67
sS'YCL005W'
p5500
I52
sS'YGL105W'
p5501
I477
sS'YEL019C'
p5502
I5
sS'YPR186C'
p5503
I22
sS'YGR194C'
p5504
I26
sS'YDR486C'
p5505
I67
sS'YBL047C'
p5506
I127
sS'YOR315W'
p5507
I69
sS'YLL023C'
p5508
I118
sS'YMR032W'
p5509
I25
sS'YMR193C-A'
p5510
I1
sS'YDL129W'
p5511
I17
sS'YPL099C'
p5512
I31
sS'YGL026C'
p5513
I397
sS'YDR201W'
p5514
I57
sS'YDR254W'
p5515
I27
sS'YGR263C'
p5516
I28
sS'YNL045W'
p5517
I88
sS'YNL010W'
p5518
I360
sS'YJL222W'
p5519
I21
sS'YGR214W'
p5520
I1362
sS'YPR002W'
p5521
I18
sS'YCR083W'
p5522
I59
sS'YNL310C'
p5523
I37
sS'YDR052C'
p5524
I46
sS'YPR173C'
p5525
I135
sS'YGR249W'
p5526
I4
sS'YJL031C'
p5527
I52
sS'YDL021W'
p5528
I33
sS'YLR143W'
p5529
I48
sS'YEL073C'
p5530
I9
sS'YDR524W-C'
p5531
I0
sS'YBR239C'
p5532
I41
sS'YML035C'
p5533
I59
sS'YFL010W-A'
p5534
I0
sS'YLR112W'
p5535
I14
sS'YFL025C'
p5536
I38
sS'YKL009W'
p5537
I374
sS'YFL052W'
p5538
I17
sS'YOR124C'
p5539
I66
sS'YDR094W'
p5540
I1
sS'YJL126W'
p5541
I24
sS'YJL159W'
p5542
I2836
sS'YHR063C'
p5543
I95
sS'YPL044C'
p5544
I0
sS'YPL033C'
p5545
I9
sS'YLR317W'
p5546
I7
sS'YCL052C'
p5547
I123
sS'YKL138C-A'
p5548
I51
sS'YDR376W'
p5549
I45
sS'YKL194C'
p5550
I23
sS'YFR023W'
p5551
I8
sS'YNL127W'
p5552
I27
sS'YPL182C'
p5553
I0
sS'YLR280C'
p5554
I2
sS'YJR040W'
p5555
I44
sS'YPR119W'
p5556
I27
sS'YJR015W'
p5557
I85
sS'YHR051W'
p5558
I204
sS'YKR029C'
p5559
I27
sS'YKL036C'
p5560
I11
sS'YJL104W'
p5561
I101
sS'YPR010C-A'
p5562
I161
sS'YOR296W'
p5563
I40
sS'YDL174C'
p5564
I59
sS'YMR194C-B'
p5565
I25
sS'YMR194C-A'
p5566
I9
sS'YDL103C'
p5567
I61
sS'YMR287C'
p5568
I29
sS'YOR106W'
p5569
I33
sS'YBR220C'
p5570
I41
sS'YPL131W'
p5571
I2522
sS'YIL115C'
p5572
I89
sS'YOL101C'
p5573
I81
sS'YJL088W'
p5574
I260
sS'YHR158C'
p5575
I54
sS'YKL033W-A'
p5576
I198
sS'YGR155W'
p5577
I716
sS'YMR300C'
p5578
I179
sS'YFR049W'
p5579
I109
sS'YBL028C'
p5580
I191
sS'YDL221W'
p5581
I1
sS'YKL089W'
p5582
I29
sS'YOR006C'
p5583
I79
sS'YLR277C'
p5584
I44
sS'YJR157W'
p5585
I1
sS'YOR028C'
p5586
I9
sS'YOL094C'
p5587
I46
sS'YAL002W'
p5588
I41
sS'YHR018C'
p5589
I393
sS'YDR408C'
p5590
I111
sS'YPL067C'
p5591
I28
sS'YDR274C'
p5592
I0
sS'YKR035W-A'
p5593
I98
sS'YNL141W'
p5594
I120
sS'YKR090W'
p5595
I33
sS'YMR220W'
p5596
I77
sS'YOR108C-A'
p5597
I8
sS'YOL097W-A'
p5598
I13
sS'YOR308C'
p5599
I33
sS'YIL006W'
p5600
I10
sS'YDR523C'
p5601
I9
sS'YPL220W'
p5602
I1253
sS'YPL275W'
p5603
I0
sS'YOR268C'
p5604
I2
sS'YGR017W'
p5605
I143
sS'YDR031W'
p5606
I61
sS'YOL005C'
p5607
I167
sS'YOR213C'
p5608
I29
sS'YEL050C'
p5609
I74
sS'YGL224C'
p5610
I70
sS'YBR206W'
p5611
I11
sS'YNL268W'
p5612
I350
sS'YDR535C'
p5613
I3
sS'YOR068C'
p5614
I0
sS'YGR039W'
p5615
I16
sS'YER141W'
p5616
I102
sS'YKL213C'
p5617
I75
sS'YPR159C-A'
p5618
I1
sS'YLL029W'
p5619
I88
sS'YCL064C'
p5620
I29
sS'YML029W'
p5621
I24
sS'YJR154W'
p5622
I14
sS'YCR048W'
p5623
I38
sS'YCR033W'
p5624
I56
sS'YDL114W-A'
p5625
I1
sS'YDR104C'
p5626
I14
sS'YDR222W'
p5627
I19
sS'YBL039W-B'
p5628
I38
sS'YLR042C'
p5629
I55
sS'YIR039C'
p5630
I13
sS'YKR059W'
p5631
I628
sS'YBR032W'
p5632
I35
sS'YNL202W'
p5633
I7
sS'YJL186W'
p5634
I120
sS'YER023W'
p5635
I279
sS'YDR399W'
p5636
I434
sS'YML016C'
p5637
I79
sS'YOR388C'
p5638
I1
sS'YLR133W'
p5639
I22
sS'YDL017W'
p5640
I25
sS'YOR060C'
p5641
I16
sS'YOR235W'
p5642
I50
sS'YGL263W'
p5643
I0
sS'YKL183C-A'
p5644
I2
sS'YGR282C'
p5645
I629
sS'YJL005W'
p5646
I76
sS'YJL050W'
p5647
I122
sS'YDR170W-A'
p5648
I6
sS'YDR248C'
p5649
I62
sS'YDL202W'
p5650
I61
sS'YML083C'
p5651
I0
sS'YLR216C'
p5652
I272
sS'YMR017W'
p5653
I8
sS'YKR033C'
p5654
I0
sS'YER090W'
p5655
I203
sS'YLR159W'
p5656
I1
sS'YCR015C'
p5657
I41
sS'YDR159W'
p5658
I50
sS'YGL185C'
p5659
I17
sS'YMR151W'
p5660
I4
sS'YBL070C'
p5661
I0
sS'YOR165W'
p5662
I79
sS'YDL086C-A'
p5663
I14
sS'YPR150W'
p5664
I36
sS'YAL005C'
p5665
I908
sS'YPR105C'
p5666
I63
sS'YNL331C'
p5667
I22
sS'YPL083C'
p5668
I24
sS'YDR357C'
p5669
I101
sS'YJR021C'
p5670
I16
sS'YLR369W'
p5671
I35
sS'YPL158C'
p5672
I109
sS'YGR170W'
p5673
I53
sS'YOL148C'
p5674
I36
sS'YPR082C'
p5675
I87
sS'YJR129C'
p5676
I14
sS'YDR281C'
p5677
I8
sS'YGL203C'
p5678
I79
sS'YDR008C'
p5679
I4
sS'YBR127C'
p5680
I578
sS'YOR047C'
p5681
I70
sS'YGL009C'
p5682
I112
sS'YIL130W'
p5683
I69
sS'YDR368W'
p5684
I118
sS'YMR299C'
p5685
I30
sS'YLR234W'
p5686
I3
sS'YJL167W'
p5687
I291
sS'YBR149W'
p5688
I139
sS'YDR088C'
p5689
I55
sS'YCR020C-A'
p5690
I89
sS'YKL042W'
p5691
I37
sS'YNL066W'
p5692
I175
sS'YPL112C'
p5693
I67
sS'YKL013C'
p5694
I165
sS'YLR159C-A'
p5695
I0
sS'YIL016W'
p5696
I85
sS'YOL028C'
p5697
I20
sS'YNR057C'
p5698
I15
sS'YDR186C'
p5699
I99
sS'YML117W'
p5700
I85
sS'YHR206W'
p5701
I58
sS'YOL122C'
p5702
I72
sS'YNL223W'
p5703
I24
sS'YOL053W'
p5704
I36
sS'YFR055W'
p5705
I59
sS'YIL030C'
p5706
I114
sS'YGR027W-B'
p5707
I145
sS'YLR442C'
p5708
I35
sS'YJR103W'
p5709
I80
sS'YLR343W'
p5710
I13
sS'YOR021C'
p5711
I189
sS'YER133W'
p5712
I231
sS'YNL089C'
p5713
I0
sS'YER162C'
p5714
I24
sS'YDL190C'
p5715
I58
sS'YHR102W'
p5716
I31
sS'YBR051W'
p5717
I1
sS'YMR243C'
p5718
I216
sS'YGL111W'
p5719
I71
sS'YMR307C-A'
p5720
I0
sS'YHR139C'
p5721
I3
sS'YOR132W'
p5722
I38
sS'YPR188C'
p5723
I85
sS'YNL284C-A'
p5724
I0
sS'YNL284C-B'
p5725
I160
sS'YOR374W'
p5726
I92
sS'YLL025W'
p5727
I10
sS'YCL007C'
p5728
I12
sS'YGR196C'
p5729
I44
sS'YDR433W'
p5730
I4
sS'YBL062W'
p5731
I0
sS'YBL049W'
p5732
I12
sS'YAL019W-A'
p5733
I0
sS'YER057C'
p5734
I180
sS'YGL024W'
p5735
I3
sS'YKR010C'
p5736
I25
sS'YMR034C'
p5737
I9
sS'YLR085C'
p5738
I31
sS'YOR179C'
p5739
I35
sS'YCR081W'
p5740
I24
sS'YDR423C'
p5741
I30
sS'YPR004C'
p5742
I112
sS'YGR261C'
p5743
I62
sS'YPL228W'
p5744
I42
sS'YJL019W'
p5745
I16
sS'YMR116C'
p5746
I1961
sS'YNL047C'
p5747
I33
sS'YDR256C'
p5748
I9
sS'YNL302C'
p5749
I1741
sS'YGL030W'
p5750
I3232
sS'YJL033W'
p5751
I105
sS'YOR182C'
p5752
I3850
sS'YHR049C-A'
p5753
I4
sS'YDR050C'
p5754
I3428
sS'YGR061C'
p5755
I280
sS'YGR035W-A'
p5756
I0
sS'YOR153W'
p5757
I1705
sS'YPL241C'
p5758
I40
sS'YLR145W'
p5759
I66
sS'YPR059C'
p5760
I8
sS'YPR022C'
p5761
I50
sS'YLR110C'
p5762
I10855
sS'YDL023C'
p5763
I0
sS'YEL071W'
p5764
I364
sS'YML062C'
p5765
I52
sS'YER138W-A'
p5766
I19
sS'YFL050C'
p5767
I16
sS'YBR106W'
p5768
I801
sS'YKR001C'
p5769
I132
sS'YLR390W-A'
p5770
I1049
sS'YLR064W'
p5771
I77
sS'YNL078W'
p5772
I81
sS'YJL124C'
p5773
I135
sS'YPR131C'
p5774
I40
sS'YKL143W'
p5775
I66
sS'YDR374C'
p5776
I5
sS'YHR061C'
p5777
I31
sS'YDR453C'
p5778
I43
sS'YNL125C'
p5779
I89
sS'YDR321W'
p5780
I155
sS'YNR001C'
p5781
I271
sS'YNL178W'
p5782
I1790
sS'YKL030W'
p5783
I2
sS'YDR167W'
p5784
I77
sS'YJR017C'
p5785
I124
sS'YPL180W'
p5786
I28
sS'YHR057C'
p5787
I49
sS'YJL106W'
p5788
I7
sS'YOR380W'
p5789
I20
sS'YBL100W-A'
p5790
I0
sS'YDL101C'
p5791
I24
sS'YBL100W-C'
p5792
I1
sS'YBL100W-B'
p5793
I220
sS'YMR285C'
p5794
I45
sS'YBR226C'
p5795
I0
sS'YLL018C-A'
p5796
I38
sS'YIL117C'
p5797
I131
sS'YAL055W'
p5798
I54
sS'YPL137C'
p5799
I56
sS'YOL103W'
p5800
I127
sS'YHR156C'
p5801
I15
sS'YGR157W'
p5802
I192
sS'YGL168W'
p5803
I4
sS'YJL165C'
p5804
I49
sS'YBR168W'
p5805
I21
sS'YMR306W'
p5806
I9
sS'YMR070W'
p5807
I53
sS'YHR162W'
p5808
I934
sS'YLR275W'
p5809
I48
sS'YOR004W'
p5810
I102
sS'YNL339C'
p5811
I131
sS'YDL227C'
p5812
I101
sS'YGL093W'
p5813
I24
sS'YLR324W'
p5814
I46
sS'YGR139W'
p5815
I1
sS'YNL143C'
p5816
I12
sS'YKL215C'
p5817
I34
sS'YCL042W'
p5818
I11
sS'YDR334W'
p5819
I65
sS'YBR288C'
p5820
I64
sS'YKR092C'
p5821
I219
sS'YMR222C'
p5822
I56
sS'YPL277C'
p5823
I7
sS'YOR211C'
p5824
I63
sS'YGR011W'
p5825
I3
sS'YDR521W'
p5826
I0
sS'YGL226W'
p5827
I19
sS'YOR324C'
p5828
I28
sS'YAR020C'
p5829
I13
sS'YBR208C'
p5830
I38
sS'YHL025W'
p5831
I51
sS'YDR537C'
p5832
I0
sS'YGR037C'
p5833
I609
sS'YBR076C-A'
p5834
I56
sS'YER143W'
p5835
I59
sS'YDR343C'
p5836
I18
sS'YGR284C'
p5837
I104
sS'YER152W-A'
p5838
I0
sS'YCR031C'
p5839
I2564
sS'YDR106W'
p5840
I6
sS'YLL006W'
p5841
I21
sS'YOR237W'
p5842
I6
sS'YIL049W'
p5843
I62
sS'YMR175W'
p5844
I11
sS'YBR030W'
p5845
I33
sS'YLR440C'
p5846
I41
sS'YLR428C'
p5847
I0
sS'Q0065'
p5848
I0
sS'YLR044C'
p5849
I7173
sS'YBR065C'
p5850
I13
sS'YLR099C'
p5851
I341
sS'YOR149C'
p5852
I27
sS'YOR298C-A'
p5853
I238
sS'YOL007C'
p5854
I58
sS'YDR429C'
p5855
I337
sS'YML010W'
p5856
I115
sS'YER074W'
p5857
I2118
sS'YER021W'
p5858
I196
sS'YMR208W'
p5859
I81
sS'YEL052W'
p5860
I59
sS'YOR231C-A'
p5861
I0
sS'YJL180C'
p5862
I38
sS'YNL200C'
p5863
I56
sS'YER129W'
p5864
I45
sS'YLR062C'
p5865
I1
sS'YKR082W'
p5866
I64
sS'YOR027W'
p5867
I254
sS'YLR019W'
p5868
I78
sS'YJL007C'
p5869
I0
sS'YPL081W'
p5870
I409
sS'YGR226C'
p5871
I0
sS'YBL005W-B'
p5872
I420
sS'YHL028W'
p5873
I14
sS'YDL045W-A'
p5874
I114
sS'YLR210W'
p5875
I30
sS'YDL204W'
p5876
I16
sS'YLR171W'
p5877
I3
sS'YKR031C'
p5878
I46
sS'YER119C-A'
p5879
I0
sS'YML081W'
p5880
I74
sS'YHR181W'
p5881
I69
sS'YER096W'
p5882
I4
sS'YMR128W'
p5883
I88
sS'YJL029C'
p5884
I54
sS'YGL130W'
p5885
I38
sS'YMR157C'
p5886
I32
sS'YCL005W-A'
p5887
I520
sS'YCR017C'
p5888
I161
sS'YBL072C'
p5889
I978
sS'YGL187C'
p5890
I63
sS'YJR082C'
p5891
I73
sS'YMR048W'
p5892
I25
sS'YOR167C'
p5893
I4899
sS'YPR107C'
p5894
I38
sS'YMR013W-A'
p5895
I14
sS'YJR023C'
p5896
I1
sS'YGR176W'
p5897
I0
sS'YKL011C'
p5898
I34
sS'YKL044W'
p5899
I42
sS'YAL049C'
p5900
I67
sS'YOR018W'
p5901
I43
sS'YGL201C'
p5902
I50
sS'YPR084W'
p5903
I28
sS'YBR121C'
p5904
I509
sS'YDL146W'
p5905
I27
sS'YMR062C'
p5906
I231
sS'YMR015C'
p5907
I133
sS'YHL015W-A'
p5908
I0
sS'YGL262W'
p5909
I0
sS'YAL063C'
p5910
I3
sS'YDR260C'
p5911
I37
sS'YBR147W'
p5912
I97
sS'YNL064C'
p5913
I394
sS'YNL031C'
p5914
I1542
sS'YIL136W'
p5915
I43
sS'YLR190W'
p5916
I35
sS'YOR023C'
p5917
I63
sS'YOR098C'
p5918
I67
sS'YIL018W'
p5919
I2376
sS'YCL016C'
p5920
I21
sS'YHR039C'
p5921
I105
sS'YBR274W'
p5922
I55
sS'YML119W'
p5923
I35
sS'YBL012C'
p5924
I0
sS'YHR204W'
p5925
I53
sS'YNL225C'
p5926
I31
sS'YAR069C'
p5927
I0
sS'YOR318C'
p5928
I18
sS'YNR059W'
p5929
I23
sS'YDR180W'
p5930
I34
sS'YOL120C'
p5931
I3350
sS'YIL036W'
p5932
I56
sS'YOL051W'
p5933
I80
sS'YFR057W'
p5934
I0
sS'YOR045W'
p5935
I238
sS'YDR476C'
p5936
I99
sS'YGR268C'
p5937
I24
sS'YPL183W-A'
p5938
I93
sS'YIL158W'
p5939
I55
sS'YJR101W'
p5940
I80
sS'YKR095W-A'
p5941
I22
sS'YMR245W'
p5942
I13
sS'YLR341W'
p5943
I2
sS'YDR029W'
p5944
I0
sS'YGR058W'
p5945
I25
sS'YBR053C'
p5946
I59
sS'YDL192W'
p5947
I873
sS'YLR029C'
p5948
I1698
sS'YBR082C'
p5949
I546
sS'YER160C'
p5950
I65
sS'YER135C'
p5951
I0
sS'YHR104W'
p5952
I102
sS'YDL003W'
p5953
I55
sS'YDR363W-A'
p5954
I303
sS'YDL078C'
p5955
I105
sS'YOR258W'
p5956
I12
sS'YDR435C'
p5957
I40
sS'YOR376W'
p5958
I0
sS'YIL098C'
p5959
I42
sS'YLL027W'
p5960
I90
sS'YOR322C'
p5961
I59
sS'YHL006C'
p5962
I25
sS'YGR198W'
p5963
I73
sS'YAR007C'
p5964
I44
sS'YHR073C-B'
p5965
I0
sS'YML064C'
p5966
I39
sS'YLR414C'
p5967
I87
sS'YLR087C'
p5968
I38
sS'YKR012C'
p5969
I3
sS'YBR085W'
p5970
I50
sS'YMR036C'
p5971
I26
sS'YMR081C'
p5972
I20
sS'YGR218W'
p5973
I116
sS'YPL283W-B'
p5974
I0
sS'YGR267C'
p5975
I228
sS'YDL125C'
p5976
I326
sS'YPR006C'
p5977
I33
sS'YMR114C'
p5978
I26
sS'YGL022W'
p5979
I268
sS'YJL153C'
p5980
I9
sS'YDR431W'
p5981
I0
sS'YEL034C-A'
p5982
I4
sS'YMR214W'
p5983
I53
sS'YMR241W'
p5984
I260
sS'YDR500C'
p5985
I1823
sS'YGR063C'
p5986
I85
sS'YPR020W'
p5987
I253
sS'YEL077C'
p5988
I0
sS'YGR245C'
p5989
I101
sS'YKL053W'
p5990
I5
sS'YPL243W'
p5991
I136
sS'YDR497C'
p5992
I237
sS'YDL025C'
p5993
I48
sS'YLR147C'
p5994
I88
sS'YFL056C'
p5995
I8
sS'YBR104W'
p5996
I86
sS'YBL091C'
p5997
I362
sS'YER091C-A'
p5998
I2
sS'YPL048W'
p5999
I282
sS'YPR133C'
p6000
I79
sS'YJL071W'
p6001
I34
sS'YNL123W'
p6002
I135
sS'YDR372C'
p6003
I80
sS'YKL145W'
p6004
I209
sS'YOR111W'
p6005
I23
sS'YDR451C'
p6006
I50
sS'YKL198C'
p6007
I33
sS'YNL041C'
p6008
I54
sS'YDR522C'
p6009
I0
sS'YJL100W'
p6010
I21
sS'YKL032C'
p6011
I119
sS'YHR055C'
p6012
I347
sS'YKL118W'
p6013
I2
sS'YHR080C'
p6014
I41
sS'YKL163W'
p6015
I46
sS'YPL015C'
p6016
I74
sS'YOL019W-A'
p6017
I2
sS'YDL107W'
p6018
I23
sS'YNR029C'
p6019
I61
sS'YKR040C'
p6020
I5
sS'YOL105C'
p6021
I32
sS'YBR253W'
p6022
I80
sS'YBR224W'
p6023
I0
sS'YIL111W'
p6024
I143
sS'YPL142C'
p6025
I0
sS'YDR210C-C'
p6026
I0
sS'YDR210C-D'
p6027
I161
sS'YJL084C'
p6028
I45
sS'YHR154W'
p6029
I56
sS'YPL135W'
p6030
I232
sS'YGR151C'
p6031
I0
sS'YMR304W'
p6032
I43
sS'YGR041W'
p6033
I31
sS'YPL168W'
p6034
I25
sS'YIL177C'
p6035
I20
sS'YHR160C'
p6036
I2
sS'YHR213W-A'
p6037
I0
sS'YHR213W-B'
p6038
I0
sS'YLR273C'
p6039
I18
sS'YGR137W'
p6040
I30
sS'YHR047C'
p6041
I114
sS'YGL091C'
p6042
I44
sS'YCL038C'
p6043
I75
sS'YML099W-A'
p6044
I0
sS'YKL058W'
p6045
I162
sS'YKL085W'
p6046
I346
sS'YNR043W'
p6047
I145
sS'YIR040C'
p6048
I0
sS'YOL089C'
p6049
I29
sS'YIL064W'
p6050
I58
sS'YPR158C-D'
p6051
I265
sS'YKL217W'
p6052
I25
sS'YKR094C'
p6053
I988
sS'YPR158C-C'
p6054
I0
sS'YGR013W'
p6055
I35
sS'YML103C'
p6056
I96
sS'YFL015W-A'
p6057
I0
sS'YLR306W'
p6058
I25
sS'YPL038W-A'
p6059
I0
sS'YGL220W'
p6060
I154
sS'YOR351C'
p6061
I0
sS'YNL266W'
p6062
I5
sS'YDL115C'
p6063
I50
sS'YHL027W'
p6064
I68
sS'YGR035C'
p6065
I882
sS'YJR146W'
p6066
I0
sS'YDR539W'
p6067
I51
sS'YMR177W'
p6068
I57
sS'YCL048W-A'
p6069
I11
sS'YGR286C'
p6070
I44
sS'YCR037C'
p6071
I50
sS'YOR239W'
p6072
I212
sS'YHR054W-A'
p6073
I1
sS'YOR147W'
p6074
I72
sS'Q0045'
p6075
I0
sS'YLR046C'
p6076
I24
sS'YBR067C'
p6077
I167
sS'YDR100W'
p6078
I123
sS'YLL004W'
p6079
I31
sS'YER049W'
p6080
I148
sS'YEL054C'
p6081
I1080
sS'YML012W'
p6082
I251
sS'YOL009C'
p6083
I30
sS'YPR192W'
p6084
I1
sS'YOR217W'
p6085
I54
sS'YBL035C'
p6086
I30
sS'YNL206C'
p6087
I68
sS'YLR060W'
p6088
I316
sS'YER076C'
p6089
I13
sS'YJL182C'
p6090
I0
sS'YBR049C'
p6091
I69
sS'YKR080W'
p6092
I206
sS'YPR148C'
p6093
I81
sS'YGR224W'
p6094
I0
sS'YDR071C'
p6095
I231
sS'YPL066W'
p6096
I67
sS'YML124C'
p6097
I139
sS'YDR353W'
p6098
I419
sS'YJL001W'
p6099
I320
sS'YHR183W'
p6100
I804
sS'YDL085C-A'
p6101
I68
sS'YCR099C'
p6102
I6
sS'YML087C'
p6103
I12
sS'YDL206W'
p6104
I27
sS'YER094C'
p6105
I234
sS'YLR173W'
p6106
I16
sS'YKR037C'
p6107
I24
sS'YLR212C'
p6108
I43
sS'YER101C'
p6109
I22
sS'YMR155W'
p6110
I23
sS'YCR019W'
p6111
I26
sS'YJL027C'
p6112
I0
sS'YGL132W'
p6113
I0
sS'YIL007C'
p6114
I25
sS'YBL074C'
p6115
I9
sS'YMR260C'
p6116
I844
sS'YOR161C'
p6117
I13
sS'YML078W'
p6118
I151
sS'YMR001C-A'
p6119
I23
sS'YIR018W'
p6120
I3
sS'YPL074W'
p6121
I30
sS'YJR025C'
p6122
I126
sS'YKL046C'
p6123
I249
sS'YBR145W'
p6124
I196
sS'YDR339C'
p6125
I148
sS'YOR151C'
p6126
I158
sS'YGR174C'
p6127
I51
sS'YGL207W'
p6128
I143
sS'YLR454W'
p6129
I63
sS'YER188C-A'
p6130
I9
sS'YKL184W'
p6131
I98
sS'YLR365W'
p6132
I1
sS'YPR086W'
p6133
I90
sS'YJR125C'
p6134
I68
sS'YMR060C'
p6135
I55
sS'YJR003C'
p6136
I68
sS'YDL144C'
p6137
I45
sS'YJR078W'
p6138
I20
sS'YNL033W'
p6139
I3
sS'YNL062C'
p6140
I41
sS'YMR295C'
p6141
I253
sS'YPL116W'
p6142
I33
sS'YLR238W'
p6143
I25
sS'YBR118W'
p6144
I6204
sS'YFL017C'
p6145
I85
sS'YDR262W'
p6146
I99
sS'YIL134W'
p6147
I29
sS'YJL163C'
p6148
I21
sS'YDR084C'
p6149
I71
sS'YOR061W'
p6150
I111
sS'YGR083C'
p6151
I115
sS'YBL006W-A'
p6152
I1
sS'YDR014W-A'
p6153
I2
sS'YDR182W'
p6154
I86
sS'YNL290W'
p6155
I66
sS'YBL010C'
p6156
I23
sS'YAL064C-A'
p6157
I0
sS'YDR139C'
p6158
I172
sS'YBR276C'
p6159
I61
sS'YOL079W'
p6160
I0
sS'YAL021C'
p6161
I47
sS'YOL126C'
p6162
I100
sS'YOR316C'
p6163
I57
sS'YBR298C'
p6164
I39
sS'YBR123C'
p6165
I38
sS'YBR198C'
p6166
I56
sS'YOR043W'
p6167
I82
sS'YDR470C'
p6168
I25
sS'YIL034C'
p6169
I152
sS'YIL043C'
p6170
I283
sS'YLR338W'
p6171
I0
sS'YMR042W'
p6172
I26
sS'YLR347C'
p6173
I80
sS'YJR107W'
p6174
I12
sS'YNL157W'
p6175
I83
sS'YML060W'
p6176
I28
sS'YBR218C'
p6177
I160
sS'YNR060W'
p6178
I6
sS'YML120C'
p6179
I54
sS'YHR106W'
p6180
I35
sS'YDL156W'
p6181
I9
sS'YBR080C'
p6182
I90
sS'YER137C'
p6183
I19
sS'YDR027C'
p6184
I43
sS'YGL069C'
p6185
I0
sS'YPL263C'
p6186
I73
sS'YDL001W'
p6187
I39
sS'YOL013C'
p6188
I24
sS'YPL218W'
p6189
I292
sS'YKL128C'
p6190
I87
sS'YEL028W'
p6191
I6
sS'YHR137C-A'
p6192
I0
sS'YHL004W'
p6193
I58
sS'YOR370C'
p6194
I131
sS'YDR437W'
p6195
I9
sS'YDL027C'
p6196
I44
sS'YER053C'
p6197
I118
sS'YPL051W'
p6198
I41
sS'YDL217C'
p6199
I45
sS'YLR081W'
p6200
I8
sS'YML066C'
p6201
I2
sS'YKR014C'
p6202
I217
sS'YGL008C'
p6203
I2474
sS'YLR412W'
p6204
I68
sS'YER002W'
p6205
I150
sS'YDL127W'
p6206
I68
sS'YGR265W'
p6207
I0
sS'YPR008W'
p6208
I72
sS'YGL020C'
p6209
I103
sS'YMR083W'
p6210
I497
sS'YMR112C'
p6211
I34
sS'YOR186W'
p6212
I3
sS'YMR216C'
p6213
I58
sS'YHR004C'
p6214
I37
sS'YDR502C'
p6215
I162
sS'YGR065C'
p6216
I56
sS'YGR247W'
p6217
I3
sS'YPR026W'
p6218
I23
sS'YEL002C'
p6219
I147
sS'YEL075C'
p6220
I0
sS'YPL245W'
p6221
I69
sS'YDR495C'
p6222
I37
sS'YGL027C'
p6223
I82
sS'YPR160C-A'
p6224
I0
sS'YHR199C'
p6225
I45
sS'YDL090C'
p6226
I36
sS'YFL054C'
p6227
I16
sS'YJL128C'
p6228
I70
sS'YBL097W'
p6229
I0
sS'YBR126W-B'
p6230
I127
sS'YBR126W-A'
p6231
I127
sS'YDR457W'
p6232
I109
sS'YJL073W'
p6233
I29
sS'YNL174W'
p6234
I0
sS'YDR370C'
p6235
I47
sS'YNL121C'
p6236
I167
sS'YPR135W'
p6237
I35
sS'YJL166W'
p6238
I427
sS'YLR248W'
p6239
I86
sS'YJL102W'
p6240
I18
sS'YNL043C'
p6241
I2
sS'YNL181W'
p6242
I44
sS'YBL068W'
p6243
I75
sS'YDR163W'
p6244
I37
sS'YDL105W'
p6245
I4
sS'YBR011C'
p6246
I736
sS'YHR082C'
p6247
I70
sS'YFR008W'
p6248
I17
sS'YPL017C'
p6249
I2
sS'YPR168W'
p6250
I10
sS'YJL048C'
p6251
I53
sS'YPR113W'
p6252
I271
sS'YKL161C'
p6253
I11
sS'YBR251W'
p6254
I45
sS'YIL113W'
p6255
I6
sS'YMR099C'
p6256
I158
sS'YOL107W'
p6257
I27
sS'YGR135W'
p6258
I299
sS'YGL219C'
p6259
I54
sS'YAL051W'
p6260
I33
sS'YCR057C'
p6261
I106
sS'YNR003C'
p6262
I48
sS'YPL140C'
p6263
I25
sS'YKL070W'
p6264
I6
sS'YJL086C'
p6265
I0
sS'YHR152W'
p6266
I132
sS'YIL175W'
p6267
I0
sS'YKL147C'
p6268
I1
sS'YNL029C'
p6269
I31
sS'YHR166C'
p6270
I23
sS'YIL128W'
p6271
I41
sS'YGL097W'
p6272
I77
sS'YLR224W'
p6273
I82
sS'YLR271W'
p6274
I14
sS'YGR168C'
p6275
I32
sS'YOR261C'
p6276
I315
sS'YIR042C'
p6277
I0
sS'YIL088C'
p6278
I101
sS'YGL170C'
p6279
I2
sS'YNR041C'
p6280
I37
sS'YNL259C'
p6281
I370
sS'YML101C'
p6282
I31
sS'YLR466C-B'
p6283
I2
sS'YCL058W-A'
p6284
I103
sS'YLR466C-A'
p6285
I0
sS'YNL099C'
p6286
I68
sS'YGR048W'
p6287
I66
sS'YKR096W'
p6288
I63
sS'YDR390C'
p6289
I70
sS'YFR043C'
p6290
I29
sS'YHL021C'
p6291
I54
sS'YLR304C'
p6292
I470
sS'YOR357C'
p6293
I78
sS'YGR153W'
p6294
I17
sS'YFR038W'
p6295
I57
sS'YOR037W'
p6296
I20
sS'YGL222C'
p6297
I2
sS'YHR129C'
p6298
I20
sS'YBR255C-A'
p6299
I71
sS'YGR033C'
p6300
I89
sS'YJR144W'
p6301
I84
sS'YOR383C'
p6302
I252
sS'YER137W-A'
p6303
I0
sS'YMR171C'
p6304
I76
sS'YCR042C'
p6305
I59
sS'YCR035C'
p6306
I80
sS'YPL019C'
p6307
I34
sS'YLR048W'
p6308
I1388
sS'YDR102C'
p6309
I2
sS'YMR259C'
p6310
I58
sS'YBR061C'
p6311
I65
sS'YOR145C'
p6312
I120
sS'YCL019W'
p6313
I124
sS'YBL037W'
p6314
I38
sS'YPR190C'
p6315
I57
sS'YOR215C'
p6316
I79
sS'YGR182C'
p6317
I72
sS'YOR262W'
p6318
I61
sS'YDL048C'
p6319
I315
sS'YEL056W'
p6320
I59
sS'YNL204C'
p6321
I6
sS'YLR066W'
p6322
I157
sS'YBR047W'
p6323
I64
sS'YNL273W'
p6324
I26
sS'YOR140W'
p6325
I27
sS'YMR010W'
p6326
I74
sS'YOR312C'
p6327
I946
sS'YJL003W'
p6328
I55
sS'YKR057W'
p6329
I1480
sS'YGR222W'
p6330
I50
sS'YOR163W'
p6331
I53
sS'YMR044W'
p6332
I46
sS'YJL077W-A'
p6333
I30
sS'YJL077W-B'
p6334
I4
sS'YML050W'
p6335
I19
sS'YPR074C'
p6336
I521
sS'YDR239C'
p6337
I32
sS'YDL080C'
p6338
I35
sS'YML085C'
p6339
I264
sS'YLL067W-A'
p6340
I0
sS'YHR185C'
p6341
I24
sS'YDR242W'
p6342
I37
sS'YLR175W'
p6343
I681
sS'YHR071C-A'
p6344
I2
sS'YDR048C'
p6345
I0
sS'YJL138C'
p6346
I835
sS'YER103W'
p6347
I38
sS'YJL025W'
p6348
I21
sS'YMR262W'
p6349
I26
sS'YLR153C'
p6350
I260
sS'YBL076C'
p6351
I398
sS'YPL222C-A'
p6352
I6
sS'YGL134W'
p6353
I31
sS'YLR128W'
p6354
I11
sS'YKR068C'
p6355
I96
sS'YJR027W'
p6356
I946
sS'YBR143C'
p6357
I360
sS'YDR086C'
p6358
I684
sS'YJL062W-A'
p6359
I138
sS'YPL072W'
p6360
I21
sS'YJL134W'
p6361
I83
sS'YJL161W'
p6362
I17
sS'YDR449C'
p6363
I102
sS'YOR186C-A'
p6364
I3
sS'YLR367W'
p6365
I134
sS'YKL186C'
p6366
I79
sS'YIR022W'
p6367
I106
sS'YKR035C'
p6368
I2
sS'YKR042W'
p6369
I1741
sS'YIL171W-A'
p6370
I0
sS'YDL142C'
p6371
I26
sS'YMR066W'
p6372
I31
sS'YMR019W'
p6373
I43
sS'YGL196W'
p6374
I62
sS'YJL209W'
p6375
I40
sS'YDR264C'
p6376
I109
sS'YNL035C'
p6377
I39
sS'YFL015C'
p6378
I0
sS'YMR297W'
p6379
I268
sS'YLR250W'
p6380
I121
sS'YML122C'
p6381
I0
sS'YBR281C'
p6382
I33
sS'YCR075C'
p6383
I20
sS'YGR081C'
p6384
I69
sS'YBL016W'
p6385
I96
sS'YGL150C'
p6386
I71
sS'YOR349W'
p6387
I27
sS'YNL292W'
p6388
I44
sS'YCL057C-A'
p6389
I416
sS'YBR270C'
p6390
I14
sS'YAL023C'
p6391
I185
sS'YJR127C'
p6392
I75
sS'YOR041C'
p6393
I1
sS'YOR014W'
p6394
I76
sS'YLR390W'
p6395
I81
sS'YLR345W'
p6396
I47
sS'YLR448W'
p6397
I786
sS'YDR311W'
p6398
I32
sS'YIL041W'
p6399
I260
sS'YDR472W'
p6400
I63
sS'YNR062C'
p6401
I2
sS'YNL155W'
p6402
I144
sS'YAL018C'
p6403
I1
sS'YNL100W'
p6404
I79
sS'YBR216C'
p6405
I27
sS'YOR372C'
p6406
I42
sS'YCR009C'
p6407
I170
sS'YHR108W'
p6408
I143
sS'YDR025W'
p6409
I1657
sS'YBL071W-A'
p6410
I95
sS'YAR003W'
p6411
I34
sS'YMR236W'
p6412
I120
sS'YOR127W'
p6413
I51
sS'YOL011W'
p6414
I195
sS'YPL261C'
p6415
I0
sS'YLR443W'
p6416
I33
sS'YLL013C'
p6417
I9
sS'YCR045W-A'
p6418
I5
sS'YDR013W'
p6419
I56
sS'YOL153C'
p6420
I10
sS'YHR021W-A'
p6421
I3
sS'YHL002W'
p6422
I68
sS'YER090C-A'
p6423
I0
sS'YLR410W'
p6424
I69
sS'YDR228C'
p6425
I45
sS'YER004W'
p6426
I93
sS'YOR142W'
p6427
I213
sS'YKR016W'
p6428
I49
sS'YLL036C'
p6429
I56
sS'YDL029W'
p6430
I208
sS'YDR210W-A'
p6431
I0
sS'YDR210W-B'
p6432
I196
sS'YLR034C'
p6433
I103
sS'YLR083C'
p6434
I174
sS'YBR028C'
p6435
I61
sS'YDL121C'
p6436
I118
sS'YMR085W'
p6437
I4
sS'YHR219W'
p6438
I0
sS'YBR182C-A'
p6439
I1
sS'YPR065W'
p6440
I105
sS'YOR184W'
p6441
I256
sS'YDL007W'
p6442
I236
sS'YHR022C-A'
p6443
I6
sS'YER088C-A'
p6444
I18
sS'YMR210W'
p6445
I22
sS'YDR504C'
p6446
I20
sS'YGR067C'
p6447
I12
sS'YOR158W'
p6448
I77
sS'YPR024W'
p6449
I69
sS'YDR493W'
p6450
I32
sS'YGR241C'
p6451
I56
sS'YGL036W'
p6452
I57
sS'YPL247C'
p6453
I34
sS'YOR245C'
p6454
I44
sS'YPR053C'
p6455
I55
sS'YKL167C'
p6456
I76
sS'YBL095W'
p6457
I40
sS'YDL092W'
p6458
I160
sS'YML116W-A'
p6459
I11
sS'YPR137W'
p6460
I75
sS'YMR027W'
p6461
I87
sS'YOR115C'
p6462
I57
sS'YDR327W'
p6463
I0
sS'YLR208W'
p6464
I184
sS'YDR455C'
p6465
I0
sS'YJL075C'
p6466
I0
sS'YMR145C'
p6467
I266
sS'YDR161W'
p6468
I69
sS'YMR110C'
p6469
I62
sS'YCL041C'
p6470
I9
sS'YNL183C'
p6471
I40
sS'YDR209C'
p6472
I0
sS'YCR065W'
p6473
I41
sS'YLR288C'
p6474
I20
sS'YIR036W-A'
p6475
I0
sS'YHR059W'
p6476
I48
sS'YBR013C'
p6477
I28
sS'YPL011C'
p6478
I46
sS'YNL309W'
p6479
I22
sS'YJR048W'
p6480
I178
sS'YPR111W'
p6481
I27
sS'YHR084W'
p6482
I166
sS'YAL053W'
p6483
I111
sS'YNL149C'
p6484
I187
sS'YGL095C'
p6485
I57
sS'YBR257W'
p6486
I33
sS'YLL006W-A'
p6487
I0
sS'YHR079C-A'
p6488
I1
sS'YIL079C'
p6489
I52
sS'YGR133W'
p6490
I29
sS'YJL140W'
p6491
I175
sS'YPL146C'
p6492
I163
sS'YKL072W'
p6493
I29
sS'YPL139C'
p6494
I52
sS'YNL001W'
p6495
I77
sS'YJL080C'
p6496
I247
sS'YHR150W'
p6497
I24
sS'YNL176C'
p6498
I69
sS'YIL173W'
p6499
I21
sS'YKL149C'
p6500
I39
sS'YJL152W'
p6501
I0
sS'YER087C-A'
p6502
I10
sS'YHR164C'
p6503
I32
sS'YKL081W'
p6504
I2100
sS'YOR046C'
p6505
I144
sS'YPL164C'
p6506
I24
sS'YLR226W'
p6507
I34
sS'YDL229W'
p6508
I2081
sS'YOL032W'
p6509
I25
sS'YML031C-A'
p6510
I0
sS'YIR044C'
p6511
I0
sS'YNR047W'
p6512
I22
sS'YIL060W'
p6513
I5
sS'YDR079C-A'
p6514
I59
sS'YML107C'
p6515
I32
sS'YKR098C'
p6516
I48
sS'YFR041C'
p6517
I40
sS'YIL050W'
p6518
I46
sS'YKL100C'
p6519
I89
sS'YOR355W'
p6520
I89
sS'YGL180W'
p6521
I27
sS'YLR302C'
p6522
I0
sS'YAL034W-A'
p6523
I23
sS'YOR316C-A'
p6524
I3
sS'YHL023C'
p6525
I34
sS'YGR031W'
p6526
I31
sS'YOR035C'
p6527
I22
sS'YJR142W'
p6528
I56
sS'YER158C'
p6529
I45
sS'YMR173W'
p6530
I152
sS'YCR040W'
p6531
I75
sS'YMR250W'
p6532
I37
sS'YDR058C'
p6533
I14
sS'YER123W'
p6534
I54
sS'YLL008W'
p6535
I132
sS'YKL206C'
p6536
I56
sS'YAL047W-A'
p6537
I3
sS'YLR154W-C'
p6538
I3
sS'YLR154W-E'
p6539
I3
sS'YMR319C'
p6540
I51
sS'YGL177W'
p6541
I17
sS'YER055C'
p6542
I351
sS'YBL031W'
p6543
I19
sS'YDR391C'
p6544
I45
sS'YGR180C'
p6545
I567
sS'YOR260W'
p6546
I127
sS'YPR196W'
p6547
I16
sS'YHL049C'
p6548
I0
sS'YLR013W'
p6549
I0
sS'YNL271C'
p6550
I73
sS'YBR045C'
p6551
I12
sS'YLL055W'
p6552
I21
sS'YER072W'
p6553
I283
sS'YMR046C'
p6554
I0
sS'YOR138C'
p6555
I66
sS'YPR158W'
p6556
I37
sS'YJL058C'
p6557
I18
sS'YDR075W'
p6558
I65
sS'YLR177W'
p6559
I53
sS'YGR220C'
p6560
I81
sS'YML052W'
p6561
I130
sS'YHR187W'
p6562
I47
sS'YGR275W'
p6563
I88
sS'YOR286W'
p6564
I97
sS'YDR240C'
p6565
I26
sS'YPR076W'
p6566
I0
sS'YLL022C'
p6567
I33
sS'YOR143C'
p6568
I47
sS'YBR063C'
p6569
I20
sS'YER105C'
p6570
I65
sS'YJL023C'
p6571
I27
sS'YBL104C'
p6572
I27
sS'YFL058W'
p6573
I7
sS'YDR518W'
p6574
I84
sS'YMR159C'
p6575
I6
sS'YLR151C'
p6576
I23
sS'YMR264W'
p6577
I106
sS'YGL136C'
p6578
I23
sS'YPR018W'
p6579
I37
sS'R0030W'
p6580
I975
sS'YER018C'
p6581
I20
sS'YJR029W'
p6582
I71
sS'YBR141C'
p6583
I33
sS'YJL136C'
p6584
I1021
sS'YDR140W'
p6585
I47
sS'YDL094C'
p6586
I0
sS'YDR080W'
p6587
I79
sS'YBR114W'
p6588
I50
sS'YPL025C'
p6589
I3
sS'YCR097W-A'
p6590
I0
sS'YIR014W'
p6591
I5
sS'YPL070W'
p6592
I41
sS'YLR361C'
p6593
I27
sS'YJL197C-A'
p6594
I0
sS'YPL202C'
p6595
I43
sS'YKL180W'
p6596
I1944
sS'YMR064W'
p6597
I45
sS'YJR007W'
p6598
I285
sS'YER098W'
p6599
I21
sS'YIR020C'
p6600
I3
sS'YJL118W'
p6601
I26
sS'YIR002C'
p6602
I36
sS'YGL001C'
p6603
I104
sS'YMR291W'
p6604
I72
sS'YDL140C'
p6605
I235
sS'YOR073W-A'
p6606
I0
sS'YDR266C'
p6607
I72
sS'YGL194C'
p6608
I3
sS'YKL091C'
p6609
I37
sS'YNL037C'
p6610
I312
sS'YFL013C'
p6611
I50
sS'YGL014C-A'
p6612
I0
sS'YPL107W'
p6613
I32
sS'YIL107C'
p6614
I90
sS'YLR252W'
p6615
I5
sS'YOR029W'
p6616
I0
sS'YOR326W'
p6617
I323
sS'YGR087C'
p6618
I5
sS'YGL156W'
p6619
I12
sS'YDL114W'
p6620
I2
sS'YGR147C'
p6621
I66
sS'YJR092W'
p6622
I54
sS'YAL025C'
p6623
I148
sS'YBL014C'
p6624
I38
sS'YMR320W'
p6625
I2
sS'YHR069C-A'
p6626
I0
sS'YLR269C'
p6627
I0
sS'YOR016C'
p6628
I72
sS'YJR121W'
p6629
I604
sS'YDR313C'
p6630
I24
sS'YIL047C'
p6631
I149
sS'YNL153C'
p6632
I142
sS'YBR214W'
p6633
I57
sS'YNR064C'
p6634
I1
sS'YMR224C'
p6635
I29
sS'YBR249C'
p6636
I708
sS'YLR392C'
p6637
I30
sS'YNL102W'
p6638
I50
sS'YDR047W'
p6639
I88
sS'YMR234W'
p6640
I40
sS'YOL086W-A'
p6641
I66
sS'YBR084W'
p6642
I163
sS'YDL131W'
p6643
I423
sS'YNL081C'
p6644
I74
sS'YPL267W'
p6645
I38
sS'YOR229W'
p6646
I40
sS'YEL024W'
p6647
I97
sS'YOL017W'
p6648
I27
sS'YPL123C'
p6649
I22
sS'YOR083W'
p6650
I12
sS'YDR023W'
p6651
I437
sS'YNL294C'
p6652
I61
sS'YBR272C'
p6653
I34
sS'YDR298C'
p6654
I260
sS'YDR011W'
p6655
I573
sS'YCR067C'
p6656
I68
sS'YPR097W'
p6657
I68
sS'YOL151W'
p6658
I116
sS'YHR131C'
p6659
I41
sS'YIL029C'
p6660
I14
sS'YDR491C'
p6661
I0
sS'YDR118W'
p6662
I16
sS'YMR169C'
p6663
I18
sS'YPR070W'
p6664
I40
sS'YLR118C'
p6665
I72
sS'YER006W'
p6666
I191
sS'YPR051W'
p6667
I71
sS'YLL034C'
p6668
I60
sS'YMR251W-A'
p6669
I2002
sS'YLR036C'
p6670
I49
sS'YDL189W'
p6671
I77
sS'YDL123W'
p6672
I85
sS'YGR068W-A'
p6673
I0
sS'YMR087W'
p6674
I20
sS'YNL236W'
p6675
I48
sS'YOR287C'
p6676
I55
sS'YBR279W'
p6677
I107
sS'YDL072C'
p6678
I254
sS'YOR328W'
p6679
I32
sS'YDL005C'
p6680
I57
sS'YMR212C'
p6681
I71
sS'YOR152C'
p6682
I53
sS'YJL196C'
p6683
I245
sS'YLR058C'
p6684
I837
sS'YOR247W'
p6685
I1349
sS'YGR292W'
p6686
I15
sS'YEL006W'
p6687
I49
sS'YGR243W'
p6688
I69
sS'YDR506C'
p6689
I14
sS'YGL038C'
p6690
I58
sS'YGR069W'
p6691
I6
sS'YPL249C'
p6692
I21
sS'YDL109C'
p6693
I9
sS'YKL165C'
p6694
I54
sS'YKL112W'
p6695
I62
sS'YML095C'
p6696
I9
sS'YOR117W'
p6697
I168
sS'YMR025W'
p6698
I13
sS'YLR206W'
p6699
I97
sS'YPR139C'
p6700
I83
sS'YML009W-B'
p6701
I5
sS'YNL185C'
p6702
I68
sS'YCL043C'
p6703
I904
sS'YGR269W'
p6704
I5
sS'YMR147W'
p6705
I18
sS'YCR089W'
p6706
I296
sS'YPR117W'
p6707
I56
sS'YHR086W'
p6708
I53
sS'YBR015C'
p6709
I130
sS'YPL013C'
p6710
I359
sS'YHR083W'
p6711
I70
s.