(dp1
S'YBR177C'
p2
I3
sS'YIL140W'
p3
I2
sS'YLR268W'
p4
I3
sS'YOR011W'
p5
I1
sS'YLR357W'
p6
I3
sS'YJL155C'
p7
I1
sS'YHR067W'
p8
I1
sS'YAL008W'
p9
I1
sS'YOR043W'
p10
I3
sS'YBR255W'
p11
I1
sS'YFR027W'
p12
I1
sS'YBR128C'
p13
I0
sS'YCR093W'
p14
I2
sS'YAL056W'
p15
I0
sS'YJR122W'
p16
I1
sS'YFR043C'
p17
I1
sS'YDR459C'
p18
I0
sS'YLR244C'
p19
I6
sS'YNL003C'
p20
I1
sS'YJR084W'
p21
I1
sS'YBR135W'
p22
I2
sS'YLR233C'
p23
I0
sS'YBR160W'
p24
I1
sS'YBR070C'
p25
I1
sS'YLR313C'
p26
I1
sS'YDL238C'
p27
I1
sS'YJL082W'
p28
I1
sS'YHR007C'
p29
I15
sS'YIL095W'
p30
I1
sS'YIR004W'
p31
I1
sS'YPL191C'
p32
I1
sS'YKL190W'
p33
I6
sS'YLR182W'
p34
I2
sS'YGL084C'
p35
I2
sS'YLR348C'
p36
I5
sS'YBR248C'
p37
I2
sS'YNR067C'
p38
I4
sS'YNL152W'
p39
I1
sS'YLR382C'
p40
I1
sS'YCL043C'
p41
I20
sS'YKL063C'
p42
I3
sS'YFL045C'
p43
I18
sS'YFL010C'
p44
I4
sS'YDR141C'
p45
I1
sS'YJL131C'
p46
I1
sS'YDL170W'
p47
I1
sS'YIL124W'
p48
I2
sS'YER113C'
p49
I1
sS'YJR044C'
p50
I2
sS'YJR011C'
p51
I1
sS'YPL039W'
p52
I1
sS'YLR129W'
p53
I3
sS'YGL141W'
p54
I2
sS'YMR009W'
p55
I2
sS'YDR168W'
p56
I2
sS'YJL179W'
p57
I3
sS'YJL122W'
p58
I4
sS'YKL183W'
p59
I1
sS'YDR363W'
p60
I1
sS'YFL021W'
p61
I0
sS'YPL194W'
p62
I1
sS'YLR362W'
p63
I1
sS'YKL126W'
p64
I2
sS'YMR283C'
p65
I1
sS'YPL024W'
p66
I1
sS'YKL134C'
p67
I1
sS'YER105C'
p68
I1
sS'YDR090C'
p69
I0
sS'YJR112WA'
p70
I0
sS'YCL017C'
p71
I2
sS'YIL108W'
p72
I1
sS'YPL166W'
p73
I1
sS'YKL052C'
p74
I0
sS'YBR273C'
p75
I1
sS'YFR005C'
p76
I2
sS'YHL036W'
p77
I0
sS'YDR329C'
p78
I1
sS'YAL026C'
p79
I2
sS'YOL034W'
p80
I0
sS'YFR050C'
p81
I5
sS'YBL008W'
p82
I1
sS'YLR079W'
p83
I2
sS'YLR447C'
p84
I8
sS'YGL237C'
p85
I1
sS'YGR126W'
p86
I0
sS'YIL062C'
p87
I4
sS'YNL295W'
p88
I1
sS'YAR035W'
p89
I0
sS'YOL126C'
p90
I2
sS'YAR019C'
p91
I1
sS'YDR299W'
p92
I1
sS'YOL116W'
p93
I0
sS'YGL255W'
p94
I1
sS'YJL149W'
p95
I1
sS'YML129C'
p96
I2
sS'YGL257C'
p97
I2
sS'YDR196C'
p98
I1
sS'YBR202W'
p99
I3
sS'YER023W'
p100
I9
sS'YNL239W'
p101
I2
sS'YDR410C'
p102
I1
sS'YBR280C'
p103
I1
sS'YGR020C'
p104
I6
sS'YNR045W'
p105
I0
sS'YKL148C'
p106
I1
sS'YML105C'
p107
I4
sS'YBR026C'
p108
I1
sS'YNL288W'
p109
I1
sS'YIL091C'
p110
I1
sS'YOR322C'
p111
I2
sS'YKR061W'
p112
I1
sS'YBR193C'
p113
I2
sS'YPL104W'
p114
I1
sS'YNL103W'
p115
I1
sS'YAL046C'
p116
I2
sS'YDR198C'
p117
I1
sS'YAL039C'
p118
I1
sS'YNR018W'
p119
I5
sS'YKL059C'
p120
I1
sS'YCR034W'
p121
I8
sS'YFR047C'
p122
I3
sS'YBR215W'
p123
I1
sS'YIL106W'
p124
I2
sS'YPL252C'
p125
I2
sS'YPL183WA'
p126
I2
sS'YBR159W'
p127
I7
sS'YCL039W'
p128
I0
sS'YML127W'
p129
I1
sS'YDR404C'
p130
I2
sS'YHR078W'
p131
I2
sS'YGR084C'
p132
I1
sS'YDR286C'
p133
I1
sS'YFR018C'
p134
I3
sS'YDR399W'
p135
I9
sS'YGR028W'
p136
I1
sS'YAL036C'
p137
I4
sS'YER042W'
p138
I4
sS'YLR455W'
p139
I1
sS'YGL157W'
p140
I2
sS'YGR099W'
p141
I1
sS'YBL015W'
p142
I0
sS'YGR128C'
p143
I2
sS'YOL090W'
p144
I2
sS'YLR300W'
p145
I10
sS'YNL145W'
p146
I14
sS'YJL091C'
p147
I1
sS'YJR140C'
p148
I1
sS'YGR146C'
p149
I1
sS'YOR033C'
p150
I0
sS'YOR062C'
p151
I1
sS'YAL034WA'
p152
I0
sS'YNR021W'
p153
I6
sS'YBR043C'
p154
I1
sS'YDR380W'
p155
I1
sS'YGL100W'
p156
I4
sS'YBR094W'
p157
I2
sS'YMR244CA'
p158
I2
sS'YHR112C'
p159
I1
sS'YGR142W'
p160
I1
sS'YNR007C'
p161
I1
sS'YDR527W'
p162
I1
sS'YGR042W'
p163
I1
sS'YDR485C'
p164
I0
sS'YLR011W'
p165
I1
sS'YIL044C'
p166
I2
sS'YPL239W'
p167
I3
sS'YPR183W'
p168
I5
sS'YOR206W'
p169
I4
sS'YDL073W'
p170
I1
sS'YBL042C'
p171
I2
sS'YCR046C'
p172
I3
sS'YLR059C'
p173
I1
sS'YER082C'
p174
I3
sS'YOL001W'
p175
I1
sS'YLR187W'
p176
I1
sS'YBR054W'
p177
I2
sS'YDR059C'
p178
I1
sS'YPL224C'
p179
I1
sS'YLR137W'
p180
I0
sS'YLR020C'
p181
I1
sS'YNL217W'
p182
I4
sS'YKL204W'
p183
I1
sS'YER067W'
p184
I0
sS'YDL042C'
p185
I1
sS'YMR226C'
p186
I9
sS'YPL248C'
p187
I1
sS'YDR531W'
p188
I1
sS'YFR024CA'
p189
I4
sS'YIL013C'
p190
I0
sS'YMR233W'
p191
I1
sS'YPL206C'
p192
I1
sS'YOL136C'
p193
I2
sS'YDL060W'
p194
I1
sS'YLR002C'
p195
I2
sS'YPR084W'
p196
I1
sS'YDR393W'
p197
I1
sS'YBR293W'
p198
I1
sS'YGL215W'
p199
I4
sS'YNR052C'
p200
I1
sS'YGR019W'
p201
I2
sS'YGL194CA'
p202
I1
sS'YEL032W'
p203
I1
sS'YOL076W'
p204
I1
sS'YER145C'
p205
I7
sS'YER110C'
p206
I9
sS'YHR123W'
p207
I3
sS'YBL033C'
p208
I1
sS'YDR022C'
p209
I1
sS'YPL266W'
p210
I1
sS'YJL157C'
p211
I1
sS'YOR304W'
p212
I2
sS'YDL010W'
p213
I1
sS'YML112W'
p214
I1
sS'YHL010C'
p215
I0
sS'YBR296C'
p216
I0
sS'YER169W'
p217
I1
sS'YOL016C'
p218
I1
sS'YOR226C'
p219
I4
sS'YGL241W'
p220
I0
sS'YEL025C'
p221
I0
sS'YLR108C'
p222
I1
sS'YDL146W'
p223
I2
sS'YNL186W'
p224
I3
sS'YPR176C'
p225
I1
sS'YCL044C'
p226
I1
sS'YKR008W'
p227
I1
sS'YLR017W'
p228
I5
sS'YMR146C'
p229
I9
sS'YDR226W'
p230
I32
sS'YMR266W'
p231
I3
sS'YDR057W'
p232
I1
sS'YKR064W'
p233
I1
sS'YLR097C'
p234
I1
sS'YCR060W'
p235
I2
sS'YJL036W'
p236
I1
sS'YER041W'
p237
I1
sS'YEL059CA'
p238
I1
sS'YBR016W'
p239
I4
sS'YER009W'
p240
I18
sS'YBR036C'
p241
I3
sS'YLR292C'
p242
I2
sS'YDL139C'
p243
I1
sS'YDR246W'
p244
I1
sS'YOR288C'
p245
I1
sS'YDL045C'
p246
I1
sS'YGR241C'
p247
I1
sS'YMR079W'
p248
I8
sS'YLR115W'
p249
I1
sS'YOL077WA'
p250
I4
sS'YMR126C'
p251
I1
sS'YHR089C'
p252
I5
sS'YGL014W'
p253
I2
sS'YGL036W'
p254
I1
sS'YMR168C'
p255
I1
sS'YML043C'
p256
I2
sS'YLL035W'
p257
I2
sS'YOR245C'
p258
I1
sS'YER007W'
p259
I0
sS'YGL114W'
p260
I0
sS'YER027C'
p261
I1
sS'YER167W'
p262
I1
sS'YDL013W'
p263
I1
sS'YBL106C'
p264
I1
sS'YMR104C'
p265
I2
sS'YGL044C'
p266
I1
sS'YER107C'
p267
I1
sS'YDL195W'
p268
I4
sS'YBR038W'
p269
I2
sS'YLR219W'
p270
I1
sS'YDR117C'
p271
I2
sS'YGR282C'
p272
I22
sS'YCR026C'
p273
I1
sS'YBL052C'
p274
I1
sS'YDL198C'
p275
I1
sS'YEL047C'
p276
I5
sS'YLR285W'
p277
I1
sS'YPR036W'
p278
I11
sS'YKL218C'
p279
I2
sS'YPR016C'
p280
I8
sS'YNL317W'
p281
I1
sS'YLL019C'
p282
I2
sS'YGR235C'
p283
I3
sS'YDR068W'
p284
I1
sS'YDR109C'
p285
I2
sS'YBR228W'
p286
I1
sS'YDL055C'
p287
I38
sS'YBL020W'
p288
I1
sS'YDR177W'
p289
I4
sS'YOR349W'
p290
I0
sS'YML009C'
p291
I3
sS'YLR337C'
p292
I2
sS'YML072C'
p293
I6
sS'YHR052W'
p294
I3
sS'YKL167C'
p295
I1
sS'YDR142C'
p296
I1
sS'YKR026C'
p297
I3
sS'YFL044C'
p298
I2
sS'YJR043C'
p299
I1
sS'YEL011W'
p300
I0
sS'YJR012C'
p301
I0
sS'YJL130C'
p302
I10
sS'YJL078C'
p303
I3
sS'YKL060C'
p304
I314
sS'YBL085W'
p305
I1
sS'YKL173W'
p306
I1
sS'YGR212W'
p307
I1
sS'YGR200C'
p308
I2
sS'YBR056W'
p309
I2
sS'YLR383W'
p310
I0
sS'YDL177C'
p311
I2
sS'YIL127C'
p312
I2
sS'YDR082W'
p313
I0
sS'YBL095W'
p314
I1
sS'YDR348C'
p315
I3
sS'YKL182W'
p316
I18
sS'YDR469W'
p317
I2
sS'YDR333C'
p318
I1
sS'YKL051W'
p319
I1
sS'YMR013C'
p320
I0
sS'YPL167C'
p321
I1
sS'YLR223C'
p322
I1
sS'YIR012W'
p323
I6
sS'YDR326C'
p324
I1
sS'YLR363C'
p325
I1
sS'YER019W'
p326
I3
sS'YNL328C'
p327
I1
sS'YJL014W'
p328
I8
sS'YDR219C'
p329
I1
sS'YCR011C'
p330
I4
sS'YLL063C'
p331
I0
sS'YLR431C'
p332
I1
sS'YKR046C'
p333
I1
sS'YGR204W'
p334
I7
sS'YJR005W'
p335
I2
sS'YGR217W'
p336
I1
sS'YNL072W'
p337
I2
sS'YBL098W'
p338
I1
sS'YDL095W'
p339
I8
sS'YBL068W'
p340
I1
sS'YOR174W'
p341
I1
sS'YER030W'
p342
I3
sS'YFL002C'
p343
I0
sS'YDR155C'
p344
I77
sS'YPR149W'
p345
I15
sS'YGL181W'
p346
I2
sS'YJL176C'
p347
I2
sS'YJR072C'
p348
I4
sS'YLR151C'
p349
I1
sS'YKR039W'
p350
I1
sS'YPL087W'
p351
I2
sS'YNL015W'
p352
I4
sS'YCR084C'
p353
I3
sS'YDR302W'
p354
I1
sS'YGL003C'
p355
I0
sS'YJL054W'
p356
I4
sS'YHR178W'
p357
I0
sS'YOR118W'
p358
I0
sS'YLR205C'
p359
I1
sS'YDR268W'
p360
I2
sS'YLR283W'
p361
I1
sS'YPL170W'
p362
I1
sS'YOR254C'
p363
I7
sS'YML094W'
p364
I2
sS'YKR006C'
p365
I2
sS'YDL117W'
p366
I1
sS'YDR204W'
p367
I2
sS'YDR251W'
p368
I2
sS'YMR293C'
p369
I0
sS'YPR138C'
p370
I1
sS'YAL038W'
p371
I224
sS'YIL105C'
p372
I1
sS'YNL162WA'
p373
I1
sS'YNL119W'
p374
I1
sS'YOR090C'
p375
I2
sS'YOR074C'
p376
I2
sS'YLR189C'
p377
I2
sS'YIL150C'
p378
I1
sS'YDR285W'
p379
I0
sS'YNR019W'
p380
I2
sS'YGR158C'
p381
I2
sS'YKL077W'
p382
I5
sS'YFR046C'
p383
I1
sS'YBR212W'
p384
I1
sS'YJR109C'
p385
I2
sS'YLR254C'
p386
I0
sS'YFR014C'
p387
I1
sS'YBR158W'
p388
I7
sS'YPL150W'
p389
I1
sS'YPL105C'
p390
I2
sS'YHR121W'
p391
I4
sS'YOL097C'
p392
I5
sS'YNL122C'
p393
I1
sS'YJL096W'
p394
I3
sS'YJR141W'
p395
I1
sS'YDR407C'
p396
I2
sS'YHR143WA'
p397
I5
sS'YJR094C'
p398
I0
sS'YGL245W'
p399
I19
sS'YNR020C'
p400
I0
sS'YBR258C'
p401
I1
sS'YLR301W'
p402
I6
sS'YAL007C'
p403
I4
sS'YIL136W'
p404
I1
sS'YHR142W'
p405
I2
sS'YPL129W'
p406
I4
sS'YBR223C'
p407
I0
sS'YOR264W'
p408
I1
sS'YGL154C'
p409
I0
sS'YJL154C'
p410
I1
sS'YDR091C'
p411
I6
sS'YJL123C'
p412
I4
sS'YOL031C'
p413
I0
sS'YIR034C'
p414
I0
sS'YIR005W'
p415
I0
sS'YJL203W'
p416
I0
sS'YAL009W'
p417
I1
sS'YBR011C'
p418
I39
sS'YJR054W'
p419
I1
sS'YBR129C'
p420
I1
sS'YDL160C'
p421
I4
sS'YBR176W'
p422
I0
sS'YDR207C'
p423
I1
sS'YDL215C'
p424
I1
sS'YGR167W'
p425
I7
sS'YOL010W'
p426
I1
sS'YKL099C'
p427
I2
sS'YDR315C'
p428
I1
sS'YJL143W'
p429
I3
sS'YBR161W'
p430
I1
sS'YGL238W'
p431
I2
sS'YKL029C'
p432
I4
sS'YNL104C'
p433
I6
sS'YPL145C'
p434
I4
sS'YIL118W'
p435
I3
sS'YNL151C'
p436
I2
sS'YKL191W'
p437
I4
sS'YNR006W'
p438
I1
sS'YHR006W'
p439
I1
sS'YHR120W'
p440
I2
sS'YDL020C'
p441
I3
sS'YOL111C'
p442
I2
sS'YDR084C'
p443
I2
sS'YHR025W'
p444
I7
sS'YNL083W'
p445
I1
sS'YDR217C'
p446
I1
sS'YGL163C'
p447
I1
sS'YBL018C'
p448
I3
sS'YDR004W'
p449
I1
sS'YOL137W'
p450
I1
sS'YDR530C'
p451
I1
sS'YDR131C'
p452
I1
sS'YER111C'
p453
I1
sS'YEL031W'
p454
I6
sS'YOL071W'
p455
I1
sS'YNR053C'
p456
I2
sS'YDL063C'
p457
I2
sS'YER144C'
p458
I0
sS'YOR367W'
p459
I3
sS'YOR385W'
p460
I0
sS'YCR042C'
p461
I1
sS'YGR185C'
p462
I12
sS'YJL189W'
p463
I162
sS'YER087CB'
p464
I8
sS'YER168C'
p465
I2
sS'YPL265W'
p466
I5
sS'YIL083C'
p467
I1
sS'YOR081C'
p468
I2
sS'YEL026W'
p469
I14
sS'YNL298W'
p470
I1
sS'YDR392W'
p471
I1
sS'YBR290W'
p472
I1
sS'YDR172W'
p473
I8
sS'YNL274C'
p474
I2
sS'YGL227W'
p475
I2
sS'YML113W'
p476
I2
sS'YDR021W'
p477
I0
sS'YGL063W'
p478
I0
sS'YPL212C'
p479
I2
sS'YLR208W'
p480
I3
sS'YOR101W'
p481
I2
sS'YGL002W'
p482
I3
sS'YBR291C'
p483
I1
sS'YGR081C'
p484
I2
sS'YLR330W'
p485
I4
sS'YGR122W'
p486
I1
sS'YBL059W'
p487
I1
sS'YPR095C'
p488
I2
sS'YOR310C'
p489
I9
sS'YFR051C'
p490
I3
sS'YHR024C'
p491
I2
sS'YDR188W'
p492
I8
sS'YAL027W'
p493
I0
sS'YGL236C'
p494
I1
sS'YGR129W'
p495
I1
sS'YAR018C'
p496
I1
sS'YHR133C'
p497
I3
sS'YDR541C'
p498
I1
sS'YOL080C'
p499
I1
sS'YOR369C'
p500
I138
sS'YNL241C'
p501
I10
sS'YOL117W'
p502
I0
sS'YOR092W'
p503
I1
sS'YGR021W'
p504
I1
sS'YDR411C'
p505
I1
sS'YBR283C'
p506
I8
sS'YIL090W'
p507
I1
sS'YBR205W'
p508
I3
sS'YOR321W'
p509
I3
sS'YDL160CA'
p510
I2
sS'YML104C'
p511
I2
sS'YBR183W'
p512
I1
sS'YDL004W'
p513
I6
sS'YNR044W'
p514
I1
sS'YDR195W'
p515
I1
sS'YKL087C'
p516
I1
sS'YOL048C'
p517
I1
sS'YER026C'
p518
I6
sS'YNL256W'
p519
I1
sS'YOL058W'
p520
I1
sS'YMR278W'
p521
I2
sS'YGR072W'
p522
I1
sS'YIL076W'
p523
I4
sS'YLR136C'
p524
I1
sS'YGL010W'
p525
I1
sS'YMR207C'
p526
I0
sS'YML015C'
p527
I0
sS'YOR197W'
p528
I5
sS'YCR007C'
p529
I1
sS'YDR347W'
p530
I1
sS'YDR016C'
p531
I2
sS'YEL004W'
p532
I0
sS'YBR255CA'
p533
I0
sS'YDL014W'
p534
I12
sS'YHL008C'
p535
I1
sS'YLL032C'
p536
I1
sS'YCR027C'
p537
I0
sS'YDL194W'
p538
I1
sS'YDR422C'
p539
I2
sS'YBR039W'
p540
I4
sS'YER024W'
p541
I0
sS'YDR116C'
p542
I1
sS'YGR258C'
p543
I1
sS'YOR230W'
p544
I11
sS'YER053CA'
p545
I0
sS'YAL044WA'
p546
I5
sS'YDL056W'
p547
I1
sS'YGR234W'
p548
I19
sS'YDL165W'
p549
I2
sS'YJL112W'
p550
I2
sS'YMR178W'
p551
I2
sS'YCL005WA'
p552
I7
sS'YPR017C'
p553
I1
sS'YGL115W'
p554
I2
sS'YNL299W'
p555
I0
sS'YOL129W'
p556
I5
sS'YEL044W'
p557
I2
sS'YMR247C'
p558
I1
sS'YPR037C'
p559
I3
sS'YML071C'
p560
I2
sS'YBR077C'
p561
I2
sS'YDR176W'
p562
I1
sS'YOR352W'
p563
I1
sS'YDR122W'
p564
I1
sS'YER120W'
p565
I7
sS'YNL090W'
p566
I2
sS'YBR042C'
p567
I1
sS'YOL062C'
p568
I1
sS'YDR381W'
p569
I17
sS'YGL103W'
p570
I153
sS'YDR484W'
p571
I2
sS'YJL194W'
p572
I2
sS'YNL183C'
p573
I1
sS'YOL022C'
p574
I2
sS'YBR095C'
p575
I2
sS'YPR036WA'
p576
I8
sS'YHR111W'
p577
I1
sS'YBL045C'
p578
I2
sS'YBR182C'
p579
I0
sS'YDR524C'
p580
I1
sS'YGR043C'
p581
I0
sS'YPR184W'
p582
I0
sS'YOR224C'
p583
I6
sS'YDL070W'
p584
I3
sS'YGL185C'
p585
I1
sS'YCR047C'
p586
I1
sS'YMR187C'
p587
I1
sS'YDR287W'
p588
I1
sS'YHR204W'
p589
I0
sS'YEL037C'
p590
I5
sS'YDR454C'
p591
I8
sS'YBR217W'
p592
I1
sS'YER064C'
p593
I1
sS'YOR241W'
p594
I2
sS'YBR203W'
p595
I0
sS'YOL002C'
p596
I2
sS'YCR065W'
p597
I1
sS'YOR359W'
p598
I1
sS'YLL021W'
p599
I3
sS'YKL205W'
p600
I3
sS'YLR407W'
p601
I1
sS'YBR088C'
p602
I4
sS'YBR055C'
p603
I1
sS'YOR175C'
p604
I3
sS'YER033C'
p605
I1
sS'YNL329C'
p606
I0
sS'YFL005W'
p607
I4
sS'YOL124C'
p608
I3
sS'YKL110C'
p609
I0
sS'YHR040W'
p610
I1
sS'YMR152W'
p611
I1
sS'YML057W'
p612
I1
sS'YDR178W'
p613
I1
sS'YKR038C'
p614
I2
sS'YGL028C'
p615
I5
sS'YMR029C'
p616
I2
sS'YGL180W'
p617
I1
sS'YJL115W'
p618
I1
sS'YJR073C'
p619
I1
sS'YGL004C'
p620
I1
sS'YLR204W'
p621
I2
sS'YML097C'
p622
I0
sS'YKR007W'
p623
I2
sS'YJL055W'
p624
I5
sS'YHR193C'
p625
I33
sS'YMR292W'
p626
I2
sS'YBL099W'
p627
I9
sS'YMR132C'
p628
I1
sS'YDR303C'
p629
I2
sS'YPL008W'
p630
I1
sS'YJR035W'
p631
I1
sS'YNL305C'
p632
I0
sS'YDL116W'
p633
I2
sS'YPL184C'
p634
I2
sS'YGL027C'
p635
I3
sS'YPR153W'
p636
I0
sS'YMR042W'
p637
I1
sS'YDR252W'
p638
I1
sS'YOR119C'
p639
I1
sS'YLL003W'
p640
I0
sS'YJR076C'
p641
I3
sS'YLR425W'
p642
I0
sS'YLR409C'
p643
I1
sS'YNL316C'
p644
I1
sS'YMR268C'
p645
I1
sS'YCL045C'
p646
I5
sS'YPL088W'
p647
I1
sS'YKR065C'
p648
I5
sS'YMR041C'
p649
I1
sS'YDR221W'
p650
I1
sS'YMR267W'
p651
I1
sS'YLL040C'
p652
I2
sS'YKR009C'
p653
I1
sS'YKL049C'
p654
I1
sS'YDR078C'
p655
I1
sS'YKL103C'
p656
I2
sS'YCR061W'
p657
I1
sS'YMR109W'
p658
I2
sS'YMR078C'
p659
I1
sS'YLR094C'
p660
I1
sS'YDL154W'
p661
I1
sS'YDR232W'
p662
I5
sS'YNL262W'
p663
I2
sS'YDR245W'
p664
I3
sS'YHR088W'
p665
I1
sS'YGR276C'
p666
I1
sS'YBR017C'
p667
I4
sS'YER100W'
p668
I3
sS'YML037C'
p669
I0
sS'YDL138W'
p670
I1
sS'YJR060W'
p671
I1
sS'YLR141W'
p672
I0
sS'YPR162C'
p673
I1
sS'YDL089W'
p674
I1
sS'YPR071W'
p675
I1
sS'YHR175W'
p676
I1
sS'YGR166W'
p677
I1
sS'YMR305C'
p678
I9
sS'YDL161W'
p679
I2
sS'YAL001C'
p680
I1
sS'YDL212W'
p681
I9
sS'YER098W'
p682
I0
sS'YER104W'
p683
I1
sS'YNL161W'
p684
I1
sS'YJR055W'
p685
I1
sS'YDR096W'
p686
I1
sS'YLR197W'
p687
I13
sS'YBR175W'
p688
I1
sS'YPL046C'
p689
I1
sS'YDR390C'
p690
I1
sS'YGL099W'
p691
I3
sS'YIL119C'
p692
I1
sS'YLR315W'
p693
I0
sS'YPL193W'
p694
I1
sS'YKL196C'
p695
I7
sS'YDR314C'
p696
I1
sS'YJL144W'
p697
I1
sS'YLR231C'
p698
I3
sS'YPR105C'
p699
I2
sS'YFR021W'
p700
I0
sS'YKL098W'
p701
I0
sS'YJR139C'
p702
I19
sS'YKL016C'
p703
I5
sS'YBR133C'
p704
I2
sS'YFL049W'
p705
I1
sS'YBR162C'
p706
I9
sS'YIL004C'
p707
I2
sS'YDR279W'
p708
I1
sS'YKL174C'
p709
I1
sS'YJR013W'
p710
I3
sS'YJL133W'
p711
I3
sS'YKR035WA'
p712
I2
sS'YDR143C'
p713
I2
sS'YDL176W'
p714
I1
sS'YBR111C'
p715
I3
sS'YKL121W'
p716
I1
sS'YMR108W'
p717
I6
sS'YKR027W'
p718
I2
sS'YFL047W'
p719
I1
sS'YGR201C'
p720
I0
sS'YDR272W'
p721
I1
sS'YLR380W'
p722
I4
sS'YKL034W'
p723
I0
sS'YKL061W'
p724
I2
sS'YJR042W'
p725
I2
sS'YMR281W'
p726
I1
sS'YMR012W'
p727
I9
sS'YPL160W'
p728
I13
sS'YGR100W'
p729
I1
sS'YKR087C'
p730
I0
sS'YNL023C'
p731
I1
sS'YDR349C'
p732
I2
sS'YIR011C'
p733
I3
sS'YJR048W'
p734
I2
sS'YDR214W'
p735
I7
sS'YIL126W'
p736
I3
sS'YLR201C'
p737
I2
sS'YLR295C'
p738
I2
sS'YDL201W'
p739
I2
sS'YDR468C'
p740
I1
sS'YJL133CA'
p741
I3
sS'YDR332W'
p742
I1
sS'YHR168W'
p743
I0
sS'YJR112W'
p744
I1
sS'YOR064C'
p745
I1
sS'YGR268C'
p746
I2
sS'YOR159C'
p747
I1
sS'YBR130C'
p748
I3
sS'YFR003C'
p749
I2
sS'YNL297C'
p750
I2
sS'YOL081W'
p751
I2
sS'YIL033C'
p752
I3
sS'YOL036W'
p753
I1
sS'YGL148W'
p754
I11
sS'YOR002W'
p755
I3
sS'YJR065C'
p756
I5
sS'YDR023W'
p757
I15
sS'YPL133C'
p758
I0
sS'YIL048W'
p759
I1
sS'YDR189W'
p760
I2
sS'YAL028W'
p761
I1
sS'YOL056W'
p762
I0
sS'YBR225W'
p763
I0
sS'YFR052W'
p764
I2
sS'YMR302C'
p765
I2
sS'YBR282W'
p766
I2
sS'YOR079C'
p767
I0
sS'YCL030C'
p768
I6
sS'YHR132C'
p769
I3
sS'YGR088W'
p770
I1
sS'YMR083W'
p771
I15
sS'YLR188W'
p772
I2
sS'YGL073W'
p773
I1
sS'YBR257W'
p774
I1
sS'YDR194C'
p775
I4
sS'YOL049W'
p776
I5
sS'YDR515W'
p777
I1
sS'YDR014W'
p778
I1
sS'YJR031C'
p779
I2
sS'YNL257C'
p780
I2
sS'YNR030W'
p781
I2
sS'YHL029C'
p782
I2
sS'YIL093C'
p783
I1
sS'YBR204C'
p784
I1
sS'YFL034CB'
p785
I1
sS'YBR111WA'
p786
I3
sS'YIL158W'
p787
I1
sS'YGR106C'
p788
I5
sS'YLR397C'
p789
I1
sS'YGR065C'
p790
I1
sS'YDR463W'
p791
I2
sS'YFR045W'
p792
I0
sS'YKL138CA'
p793
I1
sS'YIL104C'
p794
I1
sS'YIL151C'
p795
I2
sS'YIL002C'
p796
I1
sS'YGL086W'
p797
I1
sS'YGR159C'
p798
I8
sS'YDL223C'
p799
I0
sS'YAL044C'
p800
I9
sS'YBR213W'
p801
I0
sS'YKL081W'
p802
I40
sS'YLR355C'
p803
I51
sS'YLR398C'
p804
I1
sS'YPR081C'
p805
I1
sS'YNL118C'
p806
I2
sS'YML101C'
p807
I4
sS'YNR023W'
p808
I1
sS'YOL096C'
p809
I0
sS'YGL228W'
p810
I4
sS'YDR284C'
p811
I1
sS'YJR117W'
p812
I5
sS'YJL097W'
p813
I4
sS'YBR259W'
p814
I0
sS'YGR111W'
p815
I1
sS'YGL155W'
p816
I1
sS'YNL135C'
p817
I26
sS'YJR135WA'
p818
I3
sS'YOR301W'
p819
I3
sS'YOL019W'
p820
I2
sS'YDR406W'
p821
I1
sS'YOR048C'
p822
I2
sS'YAL030W'
p823
I2
sS'YNL147W'
p824
I3
sS'YDR233C'
p825
I8
sS'YHR143W'
p826
I11
sS'YOL041C'
p827
I2
sS'YBR222C'
p828
I2
sS'YLR131C'
p829
I1
sS'YER034W'
p830
I1
sS'YER127W'
p831
I2
sS'YNL091W'
p832
I2
sS'YOL063C'
p833
I1
sS'YCL004W'
p834
I0
sS'YPL128C'
p835
I1
sS'YBR096W'
p836
I3
sS'YPL042C'
p837
I1
sS'YJL193W'
p838
I1
sS'YJR093C'
p839
I1
sS'YEL027W'
p840
I30
sS'YDL015C'
p841
I4
sS'YOL086C'
p842
I230
sS'YDR123C'
p843
I1
sS'YHR110W'
p844
I3
sS'YBR041W'
p845
I1
sS'YDR430C'
p846
I2
sS'YGR193C'
p847
I1
sS'YPR185W'
p848
I1
sS'YNL327W'
p849
I5
sS'YGR015C'
p850
I1
sS'YBR185C'
p851
I1
sS'YLR406C'
p852
I26
sS'YDR387C'
p853
I2
sS'YLR077W'
p854
I1
sS'YCR044C'
p855
I2
sS'YNL219C'
p856
I2
sS'YDR037W'
p857
I16
sS'YGR040W'
p858
I1
sS'YER178W'
p859
I23
sS'YLR057W'
p860
I1
sS'YOL003C'
p861
I0
sS'YPL222W'
p862
I0
sS'YLR320W'
p863
I1
sS'YHR005C'
p864
I2
sS'YAR008W'
p865
I2
sS'YOR320C'
p866
I2
sS'YHR034C'
p867
I2
sS'YBL019W'
p868
I0
sS'YMR231W'
p869
I1
sS'YOL070C'
p870
I2
sS'YOL138C'
p871
I1
sS'YNL138WA'
p872
I1
sS'YGR150C'
p873
I1
sS'YDR533C'
p874
I1
sS'YLR452C'
p875
I6
sS'YML103C'
p876
I3
sS'YNR054C'
p877
I1
sS'YKL192C'
p878
I6
sS'YER147C'
p879
I0
sS'YDR130C'
p880
I1
sS'YIL015W'
p881
I3
sS'YFR031C'
p882
I1
sS'YGR184C'
p883
I2
sS'YOL038W'
p884
I3
sS'YNL275W'
p885
I1
sS'YAR015W'
p886
I5
sS'YOR384W'
p887
I1
sS'YCR020CA'
p888
I2
sS'YDR020C'
p889
I1
sS'YHR201C'
p890
I1
sS'YPL213W'
p891
I1
sS'YNL082W'
p892
I2
sS'YLL051C'
p893
I1
sS'YDR427W'
p894
I3
sS'YOR279C'
p895
I1
sS'YPL264C'
p896
I1
sS'YGR008C'
p897
I3
sS'YGL172W'
p898
I2
sS'YKL211C'
p899
I2
sS'YGL060W'
p900
I1
sS'YNL311C'
p901
I1
sS'YLL002W'
p902
I0
sS'YJL030W'
p903
I1
sS'YLR424W'
p904
I0
sS'YDR165W'
p905
I2
sS'YLR408C'
p906
I1
sS'YGL123W'
p907
I87
sS'YBR249C'
p908
I11
sS'YKR066C'
p909
I4
sS'YDR079W'
p910
I1
sS'YGR248W'
p911
I1
sS'YER043C'
p912
I28
sS'YBR074W'
p913
I1
sS'YGR191W'
p914
I4
sS'YOR150W'
p915
I2
sS'YDR281C'
p916
I2
sS'YPL096CA'
p917
I0
sS'YMR106C'
p918
I0
sS'YDR310C'
p919
I3
sS'YDR055W'
p920
I2
sS'YBL061C'
p921
I2
sS'YGL203C'
p922
I1
sS'YMR140W'
p923
I1
sS'YGL070C'
p924
I3
sS'YLR095C'
p925
I1
sS'YBR034C'
p926
I5
sS'YML036W'
p927
I2
sS'YLR040C'
p928
I1
sS'YCR091W'
p929
I0
sS'YER062C'
p930
I3
sS'YDR244W'
p931
I1
sS'YHR122W'
p932
I1
sS'YDL088C'
p933
I1
sS'YJR063W'
p934
I2
sS'YLR113W'
p935
I3
sS'YML013W'
p936
I1
sS'YDL157C'
p937
I5
sS'YPR163C'
p938
I12
sS'YJL184W'
p939
I2
sS'YER025W'
p940
I7
sS'YDR035W'
p941
I4
sS'YMR315W'
p942
I6
sS'YCR059C'
p943
I1
sS'YML041C'
p944
I1
sS'YDL197C'
p945
I1
sS'YER078C'
p946
I1
sS'YER130C'
p947
I1
sS'YDR115W'
p948
I3
sS'YMR166C'
p949
I1
sS'YGR071C'
p950
I1
sS'YCR106W'
p951
I0
sS'YER165W'
p952
I27
sS'YGL082W'
p953
I1
sS'YML038C'
p954
I2
sS'YCL059C'
p955
I4
sS'YML014W'
p956
I1
sS'YLR437C'
p957
I1
sS'YFR009W'
p958
I4
sS'YKR071C'
p959
I3
sS'YER156C'
p960
I3
sS'YDR489W'
p961
I1
sS'YOR233W'
p962
I1
sS'YPR049C'
p963
I1
sS'YDL057W'
p964
I1
sS'YGR257C'
p965
I3
sS'YMR179W'
p966
I1
sS'YPL235W'
p967
I1
sS'YDL008W'
p968
I3
sS'YBL050W'
p969
I4
sS'YLR350W'
p970
I1
sS'YGR280C'
p971
I0
sS'YGR237C'
p972
I1
sS'YDL159W'
p973
I1
sS'YJR014W'
p974
I5
sS'YJL132W'
p975
I0
sS'YGL190C'
p976
I2
sS'YBR110W'
p977
I0
sS'YDR144C'
p978
I2
sS'YML091C'
p979
I1
sS'YPL018W'
p980
I1
sS'YGL018C'
p981
I1
sS'YMR075W'
p982
I1
sS'YGR202C'
p983
I1
sS'YKL120W'
p984
I4
sS'YJR041C'
p985
I1
sS'YKL175W'
p986
I1
sS'YKR028W'
p987
I1
sS'YFL046W'
p988
I1
sS'YDR379W'
p989
I0
sS'YLR381W'
p990
I0
sS'YKL065C'
p991
I3
sS'YHR169W'
p992
I1
sS'YMR074C'
p993
I4
sS'YOR103C'
p994
I2
sS'YMR011W'
p995
I7
sS'YCR087CA'
p996
I3
sS'YAL061W'
p997
I1
sS'YGR178C'
p998
I2
sS'YNL059C'
p999
I1
sS'YDL200C'
p1000
I1
sS'YDL102W'
p1001
I1
sS'YPR145W'
p1002
I11
sS'YIL121W'
p1003
I2
sS'YLR214W'
p1004
I5
sS'YEL002C'
p1005
I6
sS'YIR010W'
p1006
I2
sS'YDR331W'
p1007
I2
sS'YLR176C'
p1008
I0
sS'YOR293W'
p1009
I79
sS'YML056C'
p1010
I8
sS'YKR044W'
p1011
I1
sS'YGL029W'
p1012
I2
sS'YFL004W'
p1013
I7
sS'YBR115C'
p1014
I4
sS'YCR069W'
p1015
I5
sS'YDL128W'
p1016
I3
sS'YLR433C'
p1017
I2
sS'YMR068W'
p1018
I1
sS'YPL098C'
p1019
I4
sS'YMR153W'
p1020
I4
sS'YGR239C'
p1021
I0
sS'YMR124W'
p1022
I0
sS'YDL040C'
p1023
I4
sS'YER032W'
p1024
I1
sS'YJR070C'
p1025
I5
sS'YDR448W'
p1026
I2
sS'YPL189CA'
p1027
I1
sS'YDL097C'
p1028
I4
sS'YPR003C'
p1029
I0
sS'YGL005C'
p1030
I1
sS'YGR262C'
p1031
I1
sS'YIR024C'
p1032
I0
sS'YDL111C'
p1033
I4
sS'YLR049C'
p1034
I2
sS'YDR202C'
p1035
I1
sS'YPL007C'
p1036
I1
sS'YDR495C'
p1037
I1
sS'YLR104W'
p1038
I1
sS'YKL159C'
p1039
I1
sS'YGR215W'
p1040
I4
sS'YJR046W'
p1041
I3
sS'YDR253C'
p1042
I1
sS'YDR507C'
p1043
I1
sS'YML096W'
p1044
I1
sS'YHR192W'
p1045
I2
sS'YCR082W'
p1046
I4
sS'YDR300C'
p1047
I2
sS'YBR101C'
p1048
I3
sS'YGL087C'
p1049
I2
sS'YPL052W'
p1050
I0
sS'YIL003W'
p1051
I1
sS'YBR245C'
p1052
I2
sS'YBR163W'
p1053
I2
sS'YDR465C'
p1054
I1
sS'YLR276C'
p1055
I3
sS'YER019CA'
p1056
I12
sS'YKL079W'
p1057
I2
sS'YFR044C'
p1058
I11
sS'YBR210W'
p1059
I2
sS'YPL103C'
p1060
I1
sS'YIL103W'
p1061
I1
sS'YBR269C'
p1062
I1
sS'YFR033C'
p1063
I3
sS'YDR283C'
p1064
I2
sS'YJR096W'
p1065
I1
sS'YAL010C'
p1066
I1
sS'YBR192W'
p1067
I1
sS'YNL188W'
p1068
I1
sS'YJR116W'
p1069
I1
sS'YJL013C'
p1070
I1
sS'YGR143W'
p1071
I1
sS'YGR112W'
p1072
I1
sS'YNR022C'
p1073
I4
sS'YGL229C'
p1074
I0
sS'YOR130C'
p1075
I1
sS'YBR125C'
p1076
I1
sS'YLR356W'
p1077
I1
sS'YBR221C'
p1078
I15
sS'YJL173C'
p1079
I3
sS'YJL094C'
p1080
I1
sS'YGL043W'
p1081
I4
sS'YNL166C'
p1082
I2
sS'YGL098W'
p1083
I1
sS'YJR056C'
p1084
I1
sS'YDR097C'
p1085
I1
sS'YKR069W'
p1086
I1
sS'YLR404W'
p1087
I1
sS'YJL121C'
p1088
I5
sS'YGR161C'
p1089
I1
sS'YGR186W'
p1090
I3
sS'YHR062C'
p1091
I1
sS'YPL069C'
p1092
I1
sS'YDL213C'
p1093
I4
sS'YIL132C'
p1094
I0
sS'YIL145C'
p1095
I2
sS'YBR149W'
p1096
I5
sS'YGL216W'
p1097
I2
sS'YDR317W'
p1098
I0
sS'YFL031W'
p1099
I25
sS'YDR478W'
p1100
I0
sS'YHR064C'
p1101
I23
sS'YKL015W'
p1102
I1
sS'YGL210W'
p1103
I2
sS'YMR020W'
p1104
I1
sS'YJR089W'
p1105
I1
sS'YJL145W'
p1106
I4
sS'YDR377W'
p1107
I4
sS'YIR007W'
p1108
I1
sS'YJL201W'
p1109
I2
sS'YLR314C'
p1110
I5
sS'YNL126W'
p1111
I1
sS'YBR132C'
p1112
I1
sS'YKL040C'
p1113
I2
sS'YPR114W'
p1114
I4
sS'YLR249W'
p1115
I119
sS'YNL004W'
p1116
I1
sS'YOR327C'
p1117
I5
sS'YHR039CA'
p1118
I20
sS'YOR378W'
p1119
I0
sS'YFR015C'
p1120
I1
sS'YOR265W'
p1121
I4
sS'YOL139C'
p1122
I13
sS'YIL092W'
p1123
I0
sS'YDR379CA'
p1124
I2
sS'YKL006CA'
p1125
I1
sS'YLR321C'
p1126
I1
sS'YOR266W'
p1127
I1
sS'YPL203W'
p1128
I2
sS'YNR055C'
p1129
I2
sS'YDR532C'
p1130
I1
sS'YIL014W'
p1131
I1
sS'YML098W'
p1132
I1
sS'YGR052W'
p1133
I0
sS'YCL012C'
p1134
I0
sS'YDR184C'
p1135
I2
sS'YKL210W'
p1136
I11
sS'YNL221C'
p1137
I1
sS'YOR278W'
p1138
I1
sS'YER146W'
p1139
I7
sS'YNL085W'
p1140
I6
sS'YGL061C'
p1141
I1
sS'YDR394W'
p1142
I4
sS'YPL210C'
p1143
I3
sS'YOR330C'
p1144
I1
sS'YAR014C'
p1145
I1
sS'YOR087W'
p1146
I2
sS'YKL057C'
p1147
I1
sS'YHR159W'
p1148
I1
sS'YPL132W'
p1149
I1
sS'YIL114C'
p1150
I1
sS'YGL226CA'
p1151
I2
sS'YGL234W'
p1152
I7
sS'YOL055C'
p1153
I1
sS'YPR093C'
p1154
I1
sS'YOL082W'
p1155
I1
sS'YAL029C'
p1156
I1
sS'YDR452W'
p1157
I3
sS'YNL108C'
p1158
I3
sS'YDR421W'
p1159
I2
sS'YLR239C'
p1160
I1
sS'YOR065W'
p1161
I0
sS'YHL035C'
p1162
I1
sS'YMR301C'
p1163
I1
sS'YGL171W'
p1164
I0
sS'YDR294C'
p1165
I3
sS'YAL049C'
p1166
I2
sS'YFR002W'
p1167
I1
sS'YBR267W'
p1168
I2
sS'YNL250W'
p1169
I0
sS'YDL175C'
p1170
I1
sS'YGR089W'
p1171
I1
sS'YBL029W'
p1172
I0
sS'YDR457W'
p1173
I4
sS'YGR023W'
p1174
I0
sS'YHL028W'
p1175
I1
sS'YNL131W'
p1176
I9
sS'YLR386W'
p1177
I1
sS'YKL095W'
p1178
I0
sS'YKL137W'
p1179
I2
sS'YBL005W'
p1180
I1
sS'YGL197W'
p1181
I2
sS'YNL048W'
p1182
I1
sS'YDR056C'
p1183
I2
sS'YOR243C'
p1184
I1
sS'YLR130C'
p1185
I2
sS'YER022W'
p1186
I1
sS'YBR057C'
p1187
I1
sS'YPL269W'
p1188
I0
sS'YDR041W'
p1189
I2
sS'YGL047W'
p1190
I1
sS'YMR165C'
p1191
I2
sS'YKR070W'
p1192
I2
sS'YKR096W'
p1193
I1
sS'YKL168C'
p1194
I1
sS'YMR205C'
p1195
I21
sS'YGL225W'
p1196
I7
sS'YCR005C'
p1197
I4
sS'YJL185C'
p1198
I0
sS'YER164W'
p1199
I2
sS'YBL101C'
p1200
I1
sS'YPR055W'
p1201
I2
sS'YML017W'
p1202
I4
sS'YHR037W'
p1203
I2
sS'YLR032W'
p1204
I1
sS'YGL078C'
p1205
I2
sS'YHR069C'
p1206
I2
sS'YCR067C'
p1207
I3
sS'YBL051C'
p1208
I3
sS'YGR281W'
p1209
I3
sS'YLR089C'
p1210
I2
sS'YER092W'
p1211
I2
sS'YDR488C'
p1212
I1
sS'YJL063C'
p1213
I2
sS'YGR256W'
p1214
I0
sS'YEL042W'
p1215
I3
sS'YPR048W'
p1216
I1
sS'YEL020C'
p1217
I1
sS'YHL013C'
p1218
I2
sS'YOL060C'
p1219
I2
sS'YGR009C'
p1220
I2
sS'YNL208W'
p1221
I12
sS'YNR047W'
p1222
I1
sS'YCL005W'
p1223
I1
sS'YGL105W'
p1224
I16
sS'YBR097W'
p1225
I1
sS'YLR014C'
p1226
I0
sS'YFR017C'
p1227
I0
sS'YDL076C'
p1228
I1
sS'YDR120C'
p1229
I1
sS'YER126C'
p1230
I4
sS'YMR227C'
p1231
I1
sS'YPR186C'
p1232
I1
sS'YNL121C'
p1233
I4
sS'YGR194C'
p1234
I1
sS'YDR486C'
p1235
I1
sS'YJL192C'
p1236
I3
sS'YHR117W'
p1237
I2
sS'YDR030C'
p1238
I0
sS'YBL029CA'
p1239
I1
sS'YPL274W'
p1240
I2
sS'YFL022C'
p1241
I5
sS'YBL047C'
p1242
I3
sS'YOR315W'
p1243
I2
sS'YEL051W'
p1244
I12
sS'YDR265W'
p1245
I1
sS'YLL023C'
p1246
I2
sS'YKL203C'
p1247
I1
sS'YOL004W'
p1248
I3
sS'YLR005W'
p1249
I1
sS'YDR439W'
p1250
I0
sS'YGR014W'
p1251
I3
sS'YLR278C'
p1252
I1
sS'YDL036C'
p1253
I1
sS'YDR125C'
p1254
I1
sS'YKL171W'
p1255
I1
sS'YAR027W'
p1256
I2
sS'YMR032W'
p1257
I1
sS'YMR150C'
p1258
I1
sS'YFL007W'
p1259
I3
sS'YML059C'
p1260
I2
sS'YDL129W'
p1261
I1
sS'YDR063W'
p1262
I2
sS'YKR045C'
p1263
I1
sS'YPL099C'
p1264
I1
sS'YHR087W'
p1265
I3
sS'YGR238C'
p1266
I1
sS'YCR012W'
p1267
I223
sS'YER035W'
p1268
I2
sS'YDL084W'
p1269
I19
sS'YDR201W'
p1270
I1
sS'YOR177C'
p1271
I1
sS'YDR254W'
p1272
I0
sS'YPR128C'
p1273
I2
sS'YGR263C'
p1274
I1
sS'YKL156W'
p1275
I24
sS'YHR148W'
p1276
I2
sS'YHR191C'
p1277
I1
sS'YDL110C'
p1278
I2
sS'YDL098C'
p1279
I1
sS'YDR301W'
p1280
I2
sS'YJL053W'
p1281
I2
sS'YPR104C'
p1282
I1
sS'YMR069W'
p1283
I0
sS'YIR025W'
p1284
I1
sS'YPR002W'
p1285
I0
sS'YGL006W'
p1286
I1
sS'YPL006W'
p1287
I2
sS'YBL040C'
p1288
I2
sS'YCR083W'
p1289
I4
sS'YKR067W'
p1290
I1
sS'YNL310C'
p1291
I1
sS'YML028W'
p1292
I62
sS'YCR063W'
p1293
I1
sS'YLL001W'
p1294
I2
sS'YOR168W'
p1295
I6
sS'YDR052C'
p1296
I1
sS'YCL001W'
p1297
I3
sS'YER040W'
p1298
I1
sS'YMR043W'
p1299
I2
sS'YPR173C'
p1300
I2
sS'YCL047C'
p1301
I1
sS'YJL031C'
p1302
I1
sS'YML077W'
p1303
I1
sS'YDR322CA'
p1304
I1
sS'YER068W'
p1305
I1
sS'YER013W'
p1306
I0
sS'YMR269W'
p1307
I0
sS'YDL123W'
p1308
I1
sS'YMR092C'
p1309
I3
sS'YDL021W'
p1310
I1
sS'YLR143W'
p1311
I0
sS'YLR043C'
p1312
I20
sS'YJL008C'
p1313
I7
sS'YDL018C'
p1314
I2
sS'YML060W'
p1315
I0
sS'YJR062C'
p1316
I1
sS'YGL067W'
p1317
I1
sS'YDR461CA'
p1318
I1
sS'YBR035C'
p1319
I5
sS'YPR160W'
p1320
I1
sS'YMR191W'
p1321
I1
sS'YBL060W'
p1322
I1
sS'YML035C'
p1323
I3
sS'YJR033C'
p1324
I1
sS'YGR216C'
p1325
I1
sS'YLR050C'
p1326
I3
sS'YDR424C'
p1327
I5
sS'YNL277W'
p1328
I1
sS'YDL085CA'
p1329
I3
sS'YCR090C'
p1330
I3
sS'YNL167C'
p1331
I1
sS'YAL060W'
p1332
I3
sS'YLR099WA'
p1333
I2
sS'YFL025C'
p1334
I1
sS'YKL009W'
p1335
I5
sS'YLR178C'
p1336
I1
sS'YIL144W'
p1337
I1
sS'YNL307C'
p1338
I3
sS'YBR156C'
p1339
I1
sS'YNL278W'
p1340
I1
sS'YPL068C'
p1341
I1
sS'YLR075W'
p1342
I137
sS'YJR057W'
p1343
I1
sS'YJL126W'
p1344
I1
sS'YGL011C'
p1345
I6
sS'YIL133C'
p1346
I49
sS'YHR063C'
p1347
I2
sS'YJL200C'
p1348
I4
sS'YBR148W'
p1349
I0
sS'YGL211W'
p1350
I2
sS'YDR316W'
p1351
I1
sS'YMR093W'
p1352
I2
sS'YML023C'
p1353
I0
sS'YPL113C'
p1354
I0
sS'YCL052C'
p1355
I1
sS'YPL195W'
p1356
I3
sS'YNL107W'
p1357
I0
sS'YDR352W'
p1358
I1
sS'YNR003C'
p1359
I2
sS'YBL063W'
p1360
I0
sS'YDR479C'
p1361
I0
sS'YAL059W'
p1362
I4
sS'YMR033W'
p1363
I1
sS'YNL007C'
p1364
I7
sS'YKL157W'
p1365
I3
sS'YKL096W'
p1366
I5
sS'YDR089W'
p1367
I2
sS'YKL014C'
p1368
I2
sS'YLR237W'
p1369
I1
sS'YMR021C'
p1370
I2
sS'YJR040W'
p1371
I1
sS'YPR119W'
p1372
I1
sS'YPR103W'
p1373
I7
sS'YDR378C'
p1374
I5
sS'YER140W'
p1375
I1
sS'YBL086C'
p1376
I1
sS'YKL176C'
p1377
I2
sS'YKR029C'
p1378
I1
sS'YDR249C'
p1379
I1
sS'YDL108W'
p1380
I1
sS'YBR281C'
p1381
I0
sS'YGL191W'
p1382
I8
sS'YJL104W'
p1383
I2
sS'YPL019C'
p1384
I15
sS'YFL041W'
p1385
I2
sS'YJL168C'
p1386
I0
sS'YDR145W'
p1387
I2
sS'YDL174C'
p1388
I1
sS'YER091C'
p1389
I14
sS'YJL062W'
p1390
I1
sS'YPL085W'
p1391
I3
sS'YNL325C'
p1392
I1
sS'YLR297W'
p1393
I2
sS'YDL203C'
p1394
I1
sS'YHR132WA'
p1395
I3
sS'YGR105W'
p1396
I3
sS'YLR087C'
p1397
I0
sS'YLR215C'
p1398
I1
sS'YML082W'
p1399
I1
sS'YKL100C'
p1400
I3
sS'YDR216W'
p1401
I1
sS'YKL130C'
p1402
I1
sS'YOR106W'
p1403
I1
sS'YPL162C'
p1404
I1
sS'YOL054W'
p1405
I1
sS'YFR001W'
p1406
I2
sS'YPR152C'
p1407
I1
sS'YBR220C'
p1408
I1
sS'YPL131W'
p1409
I106
sS'YIL115C'
p1410
I2
sS'YGL233W'
p1411
I1
sS'YCL027W'
p1412
I1
sS'YGR113W'
p1413
I2
sS'YLR251W'
p1414
I1
sS'YLR319C'
p1415
I1
sS'YGL186C'
p1416
I2
sS'YBR278W'
p1417
I1
sS'YHR029C'
p1418
I2
sS'YGR209C'
p1419
I20
sS'YDR234W'
p1420
I3
sS'YIL031W'
p1421
I1
sS'YDR295C'
p1422
I1
sS'YAL033W'
p1423
I1
sS'YLR203C'
p1424
I4
sS'YGR155W'
p1425
I19
sS'YBR157C'
p1426
I2
sS'YFR049W'
p1427
I2
sS'YBR284W'
p1428
I0
sS'YNR036C'
p1429
I5
sS'YDR108W'
p1430
I1
sS'YNR049C'
p1431
I2
sS'YDR192C'
p1432
I1
sS'YOL112W'
p1433
I1
sS'YKR004C'
p1434
I0
sS'YML109W'
p1435
I0
sS'YLR342W'
p1436
I12
sS'YOL083W'
p1437
I0
sS'YLR335W'
p1438
I3
sS'YNL251C'
p1439
I1
sS'YJR102C'
p1440
I1
sS'YPL089C'
p1441
I0
sS'YHR134W'
p1442
I0
sS'YOR020C'
p1443
I20
sS'YBL028C'
p1444
I4
sS'YER123W'
p1445
I1
sS'YLR426W'
p1446
I1
sS'YBR164C'
p1447
I3
sS'YIL153W'
p1448
I1
sS'YOL092W'
p1449
I4
sS'YJR088C'
p1450
I4
sS'YHR074W'
p1451
I3
sS'YJL217W'
p1452
I9
sS'YLR368W'
p1453
I1
sS'YGR277C'
p1454
I4
sS'YFR030W'
p1455
I2
sS'YKL089W'
p1456
I1
sS'YOR006C'
p1457
I2
sS'YOR341W'
p1458
I8
sS'YBR131W'
p1459
I0
sS'YLR277C'
p1460
I1
sS'YAL011W'
p1461
I1
sS'YDL155W'
p1462
I1
sS'YBR244W'
p1463
I4
sS'YIL055C'
p1464
I0
sS'YPL053C'
p1465
I3
sS'YGL243W'
p1466
I1
sS'YGR086C'
p1467
I14
sS'YBR179C'
p1468
I0
sS'YDR282C'
p1469
I0
sS'YPL155C'
p1470
I1
sS'YJR097W'
p1471
I1
sS'YJR090C'
p1472
I1
sS'YLR351C'
p1473
I4
sS'YOL094C'
p1474
I1
sS'YPR116W'
p1475
I0
sS'YAL002W'
p1476
I0
sS'YJL095W'
p1477
I1
sS'YHR018C'
p1478
I3
sS'YDR408C'
p1479
I3
sS'YPL100W'
p1480
I1
sS'YOL149W'
p1481
I1
sS'YPL067C'
p1482
I1
sS'YNR014W'
p1483
I1
sS'YOR077W'
p1484
I1
sS'YOR046C'
p1485
I6
sS'YNL141W'
p1486
I1
sS'YBL026W'
p1487
I4
sS'YMR220W'
p1488
I3
sS'YPR187W'
p1489
I6
sS'YEL018W'
p1490
I1
sS'YDR121W'
p1491
I1
sS'YER125W'
p1492
I6
sS'YDR009W'
p1493
I0
sS'YDR432W'
p1494
I8
sS'YGR195W'
p1495
I2
sS'YPL211W'
p1496
I5
sS'YDL077C'
p1497
I1
sS'YOR222W'
p1498
I2
sS'YDL001W'
p1499
I1
sS'YOL061W'
p1500
I3
sS'YAL014C'
p1501
I3
sS'YGL104C'
p1502
I0
sS'YER152C'
p1503
I4
sS'YLR015W'
p1504
I0
sS'YHR116W'
p1505
I1
sS'YPL259C'
p1506
I1
sS'YGR094W'
p1507
I13
sS'YDL059C'
p1508
I0
sS'YIL050W'
p1509
I1
sS'YLR008C'
p1510
I3
sS'YER099C'
p1511
I2
sS'YPL002C'
p1512
I2
sS'YMR219W'
p1513
I1
sS'YLR055C'
p1514
I1
sS'YGR017W'
p1515
I2
sS'YDR031W'
p1516
I0
sS'YCR028C'
p1517
I1
sS'YOL005C'
p1518
I5
sS'YOR213C'
p1519
I0
sS'YGR093W'
p1520
I1
sS'YEL050C'
p1521
I1
sS'YHR036W'
p1522
I1
sS'YIL077C'
p1523
I1
sS'YOL072W'
p1524
I1
sS'YLR450W'
p1525
I1
sS'YLR442C'
p1526
I1
sS'YPL202C'
p1527
I1
sS'YDR191W'
p1528
I1
sS'YGL224C'
p1529
I1
sS'YIL017C'
p1530
I1
sS'YNL268W'
p1531
I1
sS'YOR307C'
p1532
I0
sS'YLR396C'
p1533
I2
sS'YOL123W'
p1534
I3
sS'YDR132C'
p1535
I0
sS'YML116W'
p1536
I1
sS'YNL084C'
p1537
I3
sS'YGL066W'
p1538
I1
sS'YBR265W'
p1539
I2
sS'YIL088C'
p1540
I1
sS'YDR185C'
p1541
I0
sS'YLR179C'
p1542
I10
sS'YOR386W'
p1543
I0
sS'YAR042W'
p1544
I1
sS'YJR075W'
p1545
I3
sS'YHR207C'
p1546
I1
sS'YLL048C'
p1547
I3
sS'YBR162WA'
p1548
I5
sS'YOR051C'
p1549
I2
sS'YGR075C'
p1550
I0
sS'YDR425W'
p1551
I0
sS'YNL220W'
p1552
I5
sS'YBL007C'
p1553
I5
sS'YGR060W'
p1554
I12
sS'YCL064C'
p1555
I9
sS'YML076C'
p1556
I1
sS'YER174C'
p1557
I1
sS'YML029W'
p1558
I1
sS'YBL107C'
p1559
I1
sS'YDR151C'
p1560
I1
sS'YDR179WA'
p1561
I0
sS'YOR152C'
p1562
I1
sS'YCR073WA'
p1563
I2
sS'YGR285C'
p1564
I14
sS'YNL076W'
p1565
I2
sS'YEL017CA'
p1566
I38
sS'YCR033W'
p1567
I1
sS'YER069W'
p1568
I1
sS'YMR091C'
p1569
I2
sS'YER012W'
p1570
I8
sS'YDR104C'
p1571
I0
sS'YDR222W'
p1572
I0
sS'YBL067C'
p1573
I2
sS'YJR001W'
p1574
I2
sS'YHR098C'
p1575
I4
sS'YDL019C'
p1576
I1
sS'YML034W'
p1577
I2
sS'YDL045WA'
p1578
I3
sS'YPR023C'
p1579
I3
sS'YLR042C'
p1580
I1
sS'YNL300W'
p1581
I3
sS'YLR144C'
p1582
I2
sS'YBL017C'
p1583
I4
sS'YIL152W'
p1584
I1
sS'YPR058W'
p1585
I1
sS'YLR068W'
p1586
I0
sS'YOR123C'
p1587
I1
sS'YJR007W'
p1588
I10
sS'YML061C'
p1589
I1
sS'YAL019W'
p1590
I3
sS'YNL202W'
p1591
I1
sS'YJL186W'
p1592
I4
sS'YHR101C'
p1593
I1
sS'YER163C'
p1594
I1
sS'YPL268W'
p1595
I1
sS'YER132C'
p1596
I1
sS'YCR002C'
p1597
I1
sS'YML016C'
p1598
I1
sS'YGR077C'
p1599
I1
sS'YLR133W'
p1600
I1
sS'YDL017W'
p1601
I1
sS'YDR512C'
p1602
I1
sS'YDR113C'
p1603
I1
sS'YLL031C'
p1604
I2
sS'YLR033W'
p1605
I2
sS'YLR088W'
p1606
I2
sS'YBR021W'
p1607
I1
sS'YBR230C'
p1608
I2
sS'YGR255C'
p1609
I1
sS'YDR525WA'
p1610
I2
sS'YGL110C'
p1611
I2
sS'YDL051W'
p1612
I7
sS'YKL074C'
p1613
I1
sS'YBL102W'
p1614
I3
sS'YNL252C'
p1615
I2
sS'YPL237W'
p1616
I8
sS'YLR120C'
p1617
I2
sS'YBR187W'
p1618
I2
sS'YHR005CA'
p1619
I9
sS'YEL043W'
p1620
I2
sS'YMR077C'
p1621
I1
sS'YPL183C'
p1622
I2
sS'YDR166C'
p1623
I1
sS'YKR088C'
p1624
I1
sS'YHR001WA'
p1625
I2
sS'YPR118W'
p1626
I5
sS'YBR198C'
p1627
I1
sS'YJR036C'
p1628
I0
sS'YGL248W'
p1629
I1
sS'YBL002W'
p1630
I20
sS'YJL005W'
p1631
I2
sS'YJL050W'
p1632
I2
sS'YDL192W'
p1633
I24
sS'YOL095C'
p1634
I0
sS'YDR146C'
p1635
I2
sS'YER177W'
p1636
I25
sS'YPL158C'
p1637
I1
sS'YDR248C'
p1638
I1
sS'YJR016C'
p1639
I15
sS'YDL202W'
p1640
I2
sS'YDL100C'
p1641
I8
sS'YFL008W'
p1642
I2
sS'YDR337W'
p1643
I1
sS'YGL055W'
p1644
I6
sS'YJL061W'
p1645
I2
sS'YOR049C'
p1646
I1
sS'YLR216C'
p1647
I12
sS'YPR147C'
p1648
I1
sS'YGL032C'
p1649
I5
sS'YDR441C'
p1650
I4
sS'YPL094C'
p1651
I3
sS'YNL020C'
p1652
I0
sS'YPL023C'
p1653
I1
sS'YLR290C'
p1654
I2
sS'YPL163C'
p1655
I3
sS'YIL123W'
p1656
I7
sS'YCL029C'
p1657
I2
sS'YMR246W'
p1658
I9
sS'YDL236W'
p1659
I3
sS'YMR035W'
p1660
I1
sS'YPR161C'
p1661
I2
sS'YOR291W'
p1662
I2
sS'YKL117W'
p1663
I8
sS'YCR015C'
p1664
I1
sS'YHR152W'
p1665
I3
sS'YKR011C'
p1666
I1
sS'YDR159W'
p1667
I1
sS'YML005W'
p1668
I0
sS'YNL193W'
p1669
I1
sS'YMR059W'
p1670
I1
sS'YDR062W'
p1671
I5
sS'YML058W'
p1672
I13
sS'YML123C'
p1673
I25
sS'YLR435W'
p1674
I3
sS'YOR165W'
p1675
I1
sS'YHR190W'
p1676
I4
sS'YLR106C'
p1677
I4
sS'YPR005C'
p1678
I0
sS'YNL044W'
p1679
I2
sS'YKR002W'
p1680
I2
sS'YNL016W'
p1681
I11
sS'YBR003W'
p1682
I1
sS'YDR200C'
p1683
I2
sS'YDR255C'
p1684
I2
sS'YPR129W'
p1685
I4
sS'YGR260W'
p1686
I5
sS'YNL011C'
p1687
I2
sS'YDR357C'
p1688
I1
sS'YDL099W'
p1689
I1
sS'YPL005W'
p1690
I0
sS'YEL012W'
p1691
I1
sS'YJL147C'
p1692
I0
sS'YJL109C'
p1693
I3
sS'YJR021C'
p1694
I1
sS'YOL030W'
p1695
I5
sS'YLR274W'
p1696
I1
sS'YBR247C'
p1697
I1
sS'YLR185W'
p1698
I83
sS'YJL210W'
p1699
I1
sS'YIL001W'
p1700
I1
sS'YLR369W'
p1701
I1
sS'YIL154C'
p1702
I1
sS'YPL149W'
p1703
I1
sS'YBR102C'
p1704
I1
sS'YOR007C'
p1705
I14
sS'YJR143C'
p1706
I6
sS'YIL101C'
p1707
I1
sS'YBR165W'
p1708
I0
sS'YHR097C'
p1709
I1
sS'YDL220C'
p1710
I1
sS'YGR170W'
p1711
I2
sS'YHR075C'
p1712
I1
sS'YKL004W'
p1713
I3
sS'YOR208W'
p1714
I0
sS'YNL142W'
p1715
I0
sS'YOL148C'
p1716
I1
sS'YPR082C'
p1717
I1
sS'YPL154C'
p1718
I10
sS'YHR019C'
p1719
I15
sS'YJR129C'
p1720
I1
sS'YML055W'
p1721
I2
sS'YKL033WA'
p1722
I5
sS'YJR110W'
p1723
I1
sS'YIL149C'
p1724
I1
sS'YGR169CA'
p1725
I1
sS'YPL101W'
p1726
I2
sS'YLR258W'
p1727
I2
sS'YIL023C'
p1728
I1
sS'YNR015W'
p1729
I1
sS'YJR098C'
p1730
I0
sS'YBR127C'
p1731
I19
sS'YOR047C'
p1732
I0
sS'YFL024C'
p1733
I1
sS'YLR047C'
p1734
I1
sS'YGL009C'
p1735
I18
sS'YHR176W'
p1736
I1
sS'YGR163W'
p1737
I1
sS'YJL127C'
p1738
I1
sS'YKL022C'
p1739
I1
sS'YEL040W'
p1740
I6
sS'YKL055C'
p1741
I0
sS'YOR012W'
p1742
I1
sS'YBL092W'
p1743
I122
sS'YEL065W'
p1744
I5
sS'YDR368W'
p1745
I2
sS'YJL158C'
p1746
I13
sS'YGR229C'
p1747
I3
sS'YDL164C'
p1748
I1
sS'YJR050W'
p1749
I1
sS'YNR016C'
p1750
I13
sS'YJL101C'
p1751
I2
sS'YDL211C'
p1752
I1
sS'YLR234W'
p1753
I1
sS'YIR001C'
p1754
I2
sS'YKL195W'
p1755
I2
sS'YKL179C'
p1756
I2
sS'YDR088C'
p1757
I1
sS'YDR320C'
p1758
I1
sS'YKL042W'
p1759
I0
sS'YLR376C'
p1760
I0
sS'YNL066W'
p1761
I10
sS'YPL112C'
p1762
I2
sS'YPL030W'
p1763
I0
sS'YAL058W'
p1764
I1
sS'YKL013C'
p1765
I5
sS'YLR316C'
p1766
I1
sS'YDR319C'
p1767
I2
sS'YFR022W'
p1768
I1
sS'YNL124W'
p1769
I1
sS'YJR136C'
p1770
I1
sS'YIL094C'
p1771
I6
sS'YGL164C'
p1772
I1
sS'YIL016W'
p1773
I3
sS'YJL098W'
p1774
I2
sS'YLR451W'
p1775
I1
sS'YER090W'
p1776
I3
sS'YML108W'
p1777
I2
sS'YHR017W'
p1778
I1
sS'YBL054W'
p1779
I1
sS'YOL044W'
p1780
I1
sS'YDR534C'
p1781
I0
sS'YMR310C'
p1782
I2
sS'YLR323C'
p1783
I1
sS'YOL028C'
p1784
I1
sS'YNR057C'
p1785
I0
sS'YDR186C'
p1786
I2
sS'YBR103W'
p1787
I1
sS'YBL038W'
p1788
I0
sS'YML117W'
p1789
I1
sS'YGR054W'
p1790
I3
sS'YCL010C'
p1791
I2
sS'YGR189C'
p1792
I5
sS'YOR246C'
p1793
I2
sS'YOR332W'
p1794
I17
sS'YIR003W'
p1795
I1
sS'YOR069W'
p1796
I1
sS'YGR038W'
p1797
I2
sS'YBR078W'
p1798
I27
sS'YOL122C'
p1799
I1
sS'YOR363C'
p1800
I1
sS'YNL087W'
p1801
I3
sS'YIL128W'
p1802
I2
sS'YJR111C'
p1803
I1
sS'YBR104W'
p1804
I2
sS'YNL223W'
p1805
I1
sS'YBR227C'
p1806
I1
sS'YLR318W'
p1807
I0
sS'YOL053W'
p1808
I1
sS'YFR055W'
p1809
I2
sS'YOR067C'
p1810
I1
sS'YDR296W'
p1811
I2
sS'YGL232W'
p1812
I4
sS'YML124C'
p1813
I4
sS'YPR091C'
p1814
I2
sS'YGR141W'
p1815
I1
sS'YNL173C'
p1816
I2
sS'YIL116W'
p1817
I3
sS'YPL032C'
p1818
I1
sS'YOL100W'
p1819
I1
sS'YDL122W'
p1820
I3
sS'YLR194C'
p1821
I1
sS'YNR048W'
p1822
I1
sS'YGR109C'
p1823
I1
sS'YJR103W'
p1824
I2
sS'YHR028C'
p1825
I2
sS'YGR156W'
p1826
I1
sS'YFR048W'
p1827
I1
sS'YGL169W'
p1828
I2
sS'YNR037C'
p1829
I5
sS'YBR136W'
p1830
I1
sS'YOL113W'
p1831
I0
sS'YCL024W'
p1832
I1
sS'YMR307W'
p1833
I27
sS'YAL032C'
p1834
I1
sS'YGL145W'
p1835
I1
sS'YGL112C'
p1836
I3
sS'YHR137W'
p1837
I2
sS'YOR021C'
p1838
I3
sS'YNL283C'
p1839
I1
sS'YOL086WA'
p1840
I3
sS'YMR014W'
p1841
I1
sS'YER133W'
p1842
I9
sS'YMR198W'
p1843
I1
sS'YKL197C'
p1844
I0
sS'YOL006C'
p1845
I2
sS'YCR003W'
p1846
I1
sS'YLR132C'
p1847
I0
sS'YER020W'
p1848
I1
sS'YER162C'
p1849
I1
sS'YNL255C'
p1850
I14
sS'YDR511W'
p1851
I3
sS'YML011C'
p1852
I2
sS'YKL035W'
p1853
I9
sS'YNL201C'
p1854
I1
sS'YBR068C'
p1855
I4
sS'YHR102W'
p1856
I1
sS'YER112W'
p1857
I2
sS'YDR043C'
p1858
I1
sS'YMR250W'
p1859
I1
sS'YER075C'
p1860
I1
sS'YJL187C'
p1861
I1
sS'YEL015W'
p1862
I2
sS'YBL103C'
p1863
I0
sS'YLR018C'
p1864
I2
sS'YKR085C'
p1865
I1
sS'YMR319C'
p1866
I1
sS'YPL045W'
p1867
I2
sS'YLR418C'
p1868
I1
sS'YJL062WA'
p1869
I4
sS'YPR013C'
p1870
I1
sS'YLR063W'
p1871
I0
sS'YER059W'
p1872
I1
sS'YMR243C'
p1873
I6
sS'YGL111W'
p1874
I2
sS'YNL110C'
p1875
I4
sS'YBR289W'
p1876
I1
sS'YGR161WC'
p1877
I1
sS'YOR132W'
p1878
I2
sS'YBL025W'
p1879
I1
sS'YPL048W'
p1880
I12
sS'YOL066C'
p1881
I0
sS'YDR126W'
p1882
I1
sS'YLR388W'
p1883
I58
sS'YKL212W'
p1884
I4
sS'YJL071W'
p1885
I0
sS'YPL216W'
p1886
I0
sS'YGR104C'
p1887
I1
sS'YHR115C'
p1888
I1
sS'YBL091CA'
p1889
I1
sS'YER124C'
p1890
I7
sS'YEL022W'
p1891
I3
sS'YBL031W'
p1892
I1
sS'YPR188C'
p1893
I1
sS'YIL053W'
p1894
I42
sS'YDL074C'
p1895
I3
sS'YNL073W'
p1896
I1
sS'YOR374W'
p1897
I4
sS'YJL190C'
p1898
I89
sS'YMR218C'
p1899
I1
sS'YNL265C'
p1900
I2
sS'YGR196C'
p1901
I2
sS'YOR269W'
p1902
I1
sS'YOR212W'
p1903
I4
sS'YPL256C'
p1904
I2
sS'YLR281C'
p1905
I1
sS'YKL201C'
p1906
I1
sS'YLL049W'
p1907
I2
sS'YMR221C'
p1908
I2
sS'YOL026C'
p1909
I5
sS'YNL106C'
p1910
I1
sS'YGL198W'
p1911
I2
sS'YNR032W'
p1912
I2
sS'YGL167C'
p1913
I3
sS'YEL053C'
p1914
I0
sS'YFR053C'
p1915
I8
sS'YMR280C'
p1916
I0
sS'YDR236C'
p1917
I1
sS'YJL042W'
p1918
I1
sS'YER037W'
p1919
I1
sS'YDR372C'
p1920
I5
sS'YER057C'
p1921
I5
sS'YCR092C'
p1922
I0
sS'YDR160W'
p1923
I0
sS'YMR156C'
p1924
I2
sS'YKL145W'
p1925
I8
sS'YJL111W'
p1926
I4
sS'YOR223W'
p1927
I1
sS'YHR021C'
p1928
I63
sS'YKR010C'
p1929
I1
sS'YDL043C'
p1930
I1
sS'YNL192W'
p1931
I2
sS'YLL010C'
p1932
I2
sS'YNL160W'
p1933
I2
sS'YLR436C'
p1934
I2
sS'YCL026CB'
p1935
I1
sS'YOR290C'
p1936
I2
sS'YKL114C'
p1937
I1
sS'YER093CA'
p1938
I1
sS'YML093W'
p1939
I1
sS'YJR077C'
p1940
I5
sS'YHR197W'
p1941
I2
sS'YCR081W'
p1942
I1
sS'YBR002C'
p1943
I2
sS'YDR423C'
p1944
I1
sS'YPR106W'
p1945
I1
sS'YPR004C'
p1946
I5
sS'YDR276C'
p1947
I15
sS'YLR200W'
p1948
I2
sS'YKL154W'
p1949
I2
sS'YKR003W'
p1950
I3
sS'YDR158W'
p1951
I14
sS'YKL092C'
p1952
I0
sS'YMR116C'
p1953
I99
sS'YPL004C'
p1954
I5
sS'YHR065C'
p1955
I2
sS'YML081CA'
p1956
I4
sS'YLR107W'
p1957
I1
sS'YNL047C'
p1958
I0
sS'YER153C'
p1959
I0
sS'YDR451C'
p1960
I2
sS'YGL030W'
p1961
I65
sS'YGR283C'
p1962
I1
sS'YDL052C'
p1963
I3
sS'YER175C'
p1964
I1
sS'YJL178C'
p1965
I4
sS'YMR174C'
p1966
I0
sS'YJL033W'
p1967
I2
sS'YLR429W'
p1968
I3
sS'YDL183C'
p1969
I1
sS'YDR032C'
p1970
I8
sS'YNL074C'
p1971
I3
sS'YDR050C'
p1972
I147
sS'YGR061C'
p1973
I9
sS'YLL007C'
p1974
I0
sS'YLR052W'
p1975
I2
sS'YCR032W'
p1976
I1
sS'YNL312W'
p1977
I3
sS'YDR105C'
p1978
I0
sS'YGL117W'
p1979
I1
sS'YOR271C'
p1980
I2
sS'YBL066C'
p1981
I0
sS'YPL241C'
p1982
I1
sS'YGL107C'
p1983
I1
sS'YLR145W'
p1984
I0
sS'YLR045C'
p1985
I2
sS'YDR169C'
p1986
I1
sS'YLR098C'
p1987
I0
sS'YOL125W'
p1988
I0
sS'YPR022C'
p1989
I2
sS'YLR110C'
p1990
I181
sS'YIR038C'
p1991
I2
sS'YHR099W'
p1992
I1
sS'YEL071W'
p1993
I10
sS'YKR058W'
p1994
I0
sS'YBR098W'
p1995
I1
sS'YML062C'
p1996
I1
sS'YPR108W'
p1997
I3
sS'YKL152C'
p1998
I242
sS'YDR369C'
p1999
I0
sS'YBR106W'
p2000
I26
sS'YOL073C'
p2001
I1
sS'YBL093C'
p2002
I1
sS'YKL054C'
p2003
I9
sS'YLR453C'
p2004
I1
sS'YHR171W'
p2005
I1
sS'YGR162W'
p2006
I9
sS'YMR298W'
p2007
I3
sS'YDR350C'
p2008
I1
sS'YNL078W'
p2009
I1
sS'YDR520C'
p2010
I1
sS'YJL124C'
p2011
I4
sS'YGR245C'
p2012
I3
sS'YDR179C'
p2013
I1
sS'YLR253W'
p2014
I1
sS'YKL023W'
p2015
I3
sS'YNL165W'
p2016
I1
sS'YJR051W'
p2017
I2
sS'YKL094W'
p2018
I2
sS'YNL022C'
p2019
I2
sS'YPR131C'
p2020
I1
sS'YIL131C'
p2021
I2
sS'YKL143W'
p2022
I2
sS'YBR146W'
p2023
I1
sS'YDR318W'
p2024
I1
sS'YFL034W'
p2025
I1
sS'YPL031C'
p2026
I1
sS'YHR061C'
p2027
I0
sS'YDR453C'
p2028
I1
sS'YER080W'
p2029
I4
sS'YJL164C'
p2030
I2
sS'YNL125C'
p2031
I1
sS'YNL065W'
p2032
I1
sS'YJR019C'
p2033
I0
sS'YJR135C'
p2034
I0
sS'YDR321W'
p2035
I7
sS'YNR001C'
p2036
I3
sS'YNL178W'
p2037
I122
sS'YKL184W'
p2038
I2
sS'YDR147W'
p2039
I1
sS'YHR200W'
p2040
I6
sS'YMR031C'
p2041
I3
sS'YBL080C'
p2042
I0
sS'YMR076C'
p2043
I1
sS'YGR205W'
p2044
I1
sS'YDL069C'
p2045
I1
sS'YMR136W'
p2046
I0
sS'YDR167W'
p2047
I1
sS'YDR239C'
p2048
I1
sS'YJL051W'
p2049
I1
sS'YEL005C'
p2050
I1
sS'YGR016W'
p2051
I0
sS'YJR017C'
p2052
I3
sS'YPL180W'
p2053
I1
sS'YJL116C'
p2054
I0
sS'YNL227C'
p2055
I1
sS'YMR183C'
p2056
I2
sS'YLL055W'
p2057
I1
sS'YNL027W'
p2058
I2
sS'YPL022W'
p2059
I0
sS'YDR336W'
p2060
I1
sS'YJL060W'
p2061
I2
sS'YDL101C'
p2062
I2
sS'YER072W'
p2063
I30
sS'YDL205C'
p2064
I3
sS'YKL018CA'
p2065
I1
sS'YML080W'
p2066
I1
sS'YPL095C'
p2067
I0
sS'YMR285C'
p2068
I1
sS'YLR291C'
p2069
I4
sS'YDR210W'
p2070
I8
sS'YIL122W'
p2071
I1
sS'YDL230W'
p2072
I2
sS'YPR166C'
p2073
I1
sS'YML115C'
p2074
I2
sS'YJR113C'
p2075
I1
sS'YBR279W'
p2076
I1
sS'YGL075C'
p2077
I1
sS'YOR281C'
p2078
I3
sS'YIL117C'
p2079
I1
sS'YAL055W'
p2080
I1
sS'YHR041C'
p2081
I2
sS'YOL052C'
p2082
I2
sS'YGR140W'
p2083
I0
sS'YDR475C'
p2084
I1
sS'YPL137C'
p2085
I1
sS'YOL158C'
p2086
I6
sS'YGR097W'
p2087
I2
sS'YHR156C'
p2088
I1
sS'YBR151W'
p2089
I2
sS'YCL025C'
p2090
I0
sS'YBR184W'
p2091
I0
sS'YGL231C'
p2092
I3
sS'YBR199W'
p2093
I3
sS'YHR136C'
p2094
I4
sS'YNL282W'
p2095
I2
sS'YBR286W'
p2096
I17
sS'YJL127CB'
p2097
I2
sS'YGL144C'
p2098
I0
sS'YBR168W'
p2099
I1
sS'YDR297W'
p2100
I3
sS'YAL031C'
p2101
I1
sS'YML070W'
p2102
I4
sS'YBL006C'
p2103
I3
sS'YLR340W'
p2104
I102
sS'YKL082C'
p2105
I0
sS'YGR108W'
p2106
I1
sS'YMR070W'
p2107
I1
sS'YBR264C'
p2108
I1
sS'YKL165C'
p2109
I2
sS'YBR231C'
p2110
I1
sS'YHR162W'
p2111
I7
sS'YBR246W'
p2112
I1
sS'YOR204W'
p2113
I16
sS'YPL110C'
p2114
I1
sS'YFL017WA'
p2115
I1
sS'YDL178W'
p2116
I1
sS'YLR275W'
p2117
I1
sS'YOR004W'
p2118
I2
sS'YER095W'
p2119
I1
sS'YLR186W'
p2120
I5
sS'YDR462W'
p2121
I2
sS'YKL043W'
p2122
I2
sS'YIL155C'
p2123
I1
sS'YGR171C'
p2124
I1
sS'YDL227C'
p2125
I4
sS'YPL065W'
p2126
I1
sS'YAL048C'
p2127
I1
sS'YPL055C'
p2128
I2
sS'YAL013W'
p2129
I1
sS'YOR298CA'
p2130
I25
sS'YGL093W'
p2131
I1
sS'YDR098C'
p2132
I4
sS'YLR324W'
p2133
I1
sS'YHR011W'
p2134
I1
sS'YGL200C'
p2135
I10
sS'YJR099W'
p2136
I1
sS'YOR044W'
p2137
I0
sS'YLR259C'
p2138
I21
sS'YML086C'
p2139
I3
sS'YGL184C'
p2140
I0
sS'YFR036W'
p2141
I2
sS'YGR231C'
p2142
I5
sS'YPL157W'
p2143
I2
sS'YKL005C'
p2144
I2
sS'YBR120C'
p2145
I0
sS'YLR085C'
p2146
I1
sS'YLR312WA'
p2147
I2
sS'YDR280W'
p2148
I3
sS'YMR058W'
p2149
I18
sS'YKL215C'
p2150
I3
sS'YDR067C'
p2151
I1
sS'YGL166W'
p2152
I1
sS'YDR061W'
p2153
I1
sS'YHR138C'
p2154
I1
sS'YMR022W'
p2155
I3
sS'YMR241W'
p2156
I6
sS'YPR189W'
p2157
I2
sS'YGL079W'
p2158
I1
sS'YDL075W'
p2159
I81
sS'YER150W'
p2160
I0
sS'YBL071WA'
p2161
I2
sS'YNL279W'
p2162
I0
sS'YDR400W'
p2163
I1
sS'YDR118W'
p2164
I0
sS'YOL018C'
p2165
I1
sS'YBR288C'
p2166
I3
sS'YDL003W'
p2167
I1
sS'YOR220W'
p2168
I1
sS'YKR092C'
p2169
I5
sS'YOR259C'
p2170
I5
sS'YNL231C'
p2171
I4
sS'YMR284W'
p2172
I1
sS'YNL264C'
p2173
I1
sS'YGR117C'
p2174
I1
sS'YDR208W'
p2175
I1
sS'YBL105C'
p2176
I2
sS'YDR434W'
p2177
I2
sS'YGL106W'
p2178
I8
sS'YOL027C'
p2179
I3
sS'YOR211C'
p2180
I2
sS'YPL257W'
p2181
I1
sS'YOR347C'
p2182
I2
sS'YPL120W'
p2183
I1
sS'YIL075C'
p2184
I8
sS'YOL145C'
p2185
I1
sS'YGL226W'
p2186
I2
sS'YIL019W'
p2187
I0
sS'YJL099W'
p2188
I1
sS'YHR149C'
p2189
I1
sS'YIL020C'
p2190
I1
sS'YDR395W'
p2191
I6
sS'YOR353C'
p2192
I2
sS'YNR074C'
p2193
I1
sS'YDR005C'
p2194
I1
sS'YHL025W'
p2195
I1
sS'YIL097W'
p2196
I1
sS'YOL045W'
p2197
I2
sS'YFR010W'
p2198
I5
sS'YHL009C'
p2199
I1
sS'YDL112W'
p2200
I3
sS'YHL021C'
p2201
I2
sS'YPR101W'
p2202
I2
sS'YLR390WA'
p2203
I7
sS'YGL041WA'
p2204
I1
sS'YHR205W'
p2205
I2
sS'YGR037C'
p2206
I25
sS'YIL008W'
p2207
I3
sS'YNL273W'
p2208
I2
sS'YOR236W'
p2209
I1
sS'YBL039C'
p2210
I6
sS'YGR188C'
p2211
I1
sS'YER143W'
p2212
I1
sS'YER089C'
p2213
I3
sS'YNL086W'
p2214
I1
sS'YGL064C'
p2215
I1
sS'YOR030W'
p2216
I1
sS'YGR284C'
p2217
I3
sS'YDL053C'
p2218
I3
sS'YJR005CA'
p2219
I0
sS'YCL050C'
p2220
I5
sS'YOR122C'
p2221
I24
sS'YFR038W'
p2222
I0
sS'YMR240C'
p2223
I1
sS'YIL005W'
p2224
I1
sS'YKL109W'
p2225
I0
sS'YKR062W'
p2226
I1
sS'YBR235W'
p2227
I1
sS'YMR119W'
p2228
I2
sS'YPR069C'
p2229
I14
sS'YGR261C'
p2230
I3
sS'YMR215W'
p2231
I3
sS'YDR051C'
p2232
I2
sS'YGR062C'
p2233
I1
sS'YER010C'
p2234
I1
sS'YER176W'
p2235
I1
sS'YIL049W'
p2236
I1
sS'YML003W'
p2237
I0
sS'YDL180W'
p2238
I0
sS'YGL127C'
p2239
I1
sS'YBR030W'
p2240
I1
sS'YLR336C'
p2241
I1
sS'YDL133W'
p2242
I1
sS'YBR122C'
p2243
I2
sS'YJL019W'
p2244
I1
sS'YDL022W'
p2245
I6
sS'YPR021C'
p2246
I0
sS'YLR044C'
p2247
I428
sS'YGR244C'
p2248
I3
sS'YIR033W'
p2249
I3
sS'YBR065C'
p2250
I1
sS'YLR099C'
p2251
I1
sS'YOR149C'
p2252
I1
sS'YML126C'
p2253
I10
sS'YML032C'
p2254
I2
sS'YLR146C'
p2255
I1
sS'YGR271W'
p2256
I3
sS'YHR135C'
p2257
I2
sS'YDR429C'
p2258
I7
sS'YAL047C'
p2259
I1
sS'YDL035C'
p2260
I0
sS'YER118C'
p2261
I1
sS'YML010W'
p2262
I4
sS'YBR119W'
p2263
I1
sS'YMR253C'
p2264
I1
sS'YOR164C'
p2265
I3
sS'YER021W'
p2266
I5
sS'YMR208W'
p2267
I1
sS'YER134C'
p2268
I3
sS'YEL052W'
p2269
I1
sS'YMR162C'
p2270
I0
sS'YEL009C'
p2271
I15
sS'YER161C'
p2272
I3
sS'YBR083W'
p2273
I1
sS'YHR103W'
p2274
I1
sS'YLL034C'
p2275
I1
sS'YOR001W'
p2276
I2
sS'YNL200C'
p2277
I1
sS'YDR498C'
p2278
I1
sS'YNL240C'
p2279
I1
sS'YOR257W'
p2280
I1
sS'YHR202W'
p2281
I0
sS'YPL082C'
p2282
I3
sS'YGR002C'
p2283
I1
sS'YEL041W'
p2284
I1
sS'YER129W'
p2285
I1
sS'YGR004W'
p2286
I1
sS'YDL044C'
p2287
I2
sS'YDR111C'
p2288
I2
sS'YOL159CA'
p2289
I1
sS'YGR253C'
p2290
I4
sS'YDR510W'
p2291
I14
sS'YKR082W'
p2292
I2
sS'YOL115W'
p2293
I1
sS'YPL050C'
p2294
I3
sS'YCR079W'
p2295
I1
sS'YPR045C'
p2296
I2
sS'YER058W'
p2297
I1
sS'YPR010C'
p2298
I6
sS'YPL231W'
p2299
I18
sS'YLR148W'
p2300
I2
sS'YMR137C'
p2301
I1
sS'YDR164C'
p2302
I1
sS'YKL155C'
p2303
I0
sS'YKL178C'
p2304
I1
sS'YJR069C'
p2305
I5
sS'YKL033W'
p2306
I1
sS'YCR020WB'
p2307
I1
sS'YCL055W'
p2308
I1
sS'YNR031C'
p2309
I2
sS'YKR055W'
p2310
I1
sS'YNL046W'
p2311
I2
sS'YDR351W'
p2312
I1
sS'YJL107C'
p2313
I0
sS'YOL119C'
p2314
I1
sS'YMR188C'
p2315
I3
sS'YDR148C'
p2316
I3
sS'YPL181W'
p2317
I0
sS'YJR034W'
p2318
I1
sS'YLR121C'
p2319
I1
sS'YOR003W'
p2320
I0
sS'YLR210W'
p2321
I1
sS'YDR490C'
p2322
I1
sS'YPL096W'
p2323
I0
sS'YDL204W'
p2324
I0
sS'YDL106C'
p2325
I1
sS'YFR029W'
p2326
I0
sS'YDR335W'
p2327
I2
sS'YPR141C'
p2328
I1
sS'YAL022C'
p2329
I2
sS'YHR081W'
p2330
I2
sS'YGL056C'
p2331
I1
sS'YKR031C'
p2332
I2
sS'YMR039C'
p2333
I2
sS'YIL035C'
p2334
I2
sS'YPL014W'
p2335
I1
sS'YML081W'
p2336
I3
sS'YHR181W'
p2337
I3
sS'YIL002WA'
p2338
I6
sS'YDL179W'
p2339
I0
sS'YDR211W'
p2340
I5
sS'YCR095C'
p2341
I1
sS'YMR128W'
p2342
I1
sS'YDR381CA'
p2343
I1
sS'YCR077C'
p2344
I2
sS'YJR144W'
p2345
I3
sS'YJL029C'
p2346
I1
sS'YER056C'
p2347
I4
sS'YGL130W'
p2348
I1
sS'YMR157C'
p2349
I1
sS'YJL180C'
p2350
I1
sS'YER036C'
p2351
I10
sS'YLR417W'
p2352
I0
sS'YNL306W'
p2353
I4
sS'YML075C'
p2354
I2
sS'YNL191W'
p2355
I1
sS'YDR237W'
p2356
I1
sS'YOR297C'
p2357
I0
sS'YDR060W'
p2358
I3
sS'YDR540C'
p2359
I1
sS'YMR080C'
p2360
I3
sS'YKR013W'
p2361
I3
sS'YCR024C'
p2362
I0
sS'YBR001C'
p2363
I1
sS'YGL153W'
p2364
I1
sS'YPL003W'
p2365
I0
sS'YGR145W'
p2366
I2
sS'YCL036W'
p2367
I1
sS'YHR196W'
p2368
I2
sS'YLR354C'
p2369
I20
sS'YMR048W'
p2370
I0
sS'YHR035W'
p2371
I0
sS'YDR277C'
p2372
I1
sS'YPR067W'
p2373
I1
sS'YML092C'
p2374
I5
sS'YOR167C'
p2375
I50
sS'YML025C'
p2376
I1
sS'YDL124W'
p2377
I6
sS'YDR257C'
p2378
I2
sS'YJR074W'
p2379
I1
sS'YPR127W'
p2380
I2
sS'YGR266W'
p2381
I1
sS'YDL148C'
p2382
I2
sS'YJL167W'
p2383
I9
sS'YPL076W'
p2384
I1
sS'YAL012W'
p2385
I16
sS'YHR163W'
p2386
I5
sS'YCR071C'
p2387
I1
sS'YKL011C'
p2388
I1
sS'YDR079CA'
p2389
I0
sS'YBR167C'
p2390
I1
sS'YIL156W'
p2391
I1
sS'YBR241C'
p2392
I1
sS'YDR499W'
p2393
I1
sS'YPL196W'
p2394
I0
sS'YDR518W'
p2395
I1
sS'YLR272C'
p2396
I1
sS'YOR005C'
p2397
I0
sS'YDL226C'
p2398
I6
sS'YBR140C'
p2399
I1
sS'YNR017W'
p2400
I2
sS'YNL168C'
p2401
I3
sS'YGL092W'
p2402
I3
sS'YDR364C'
p2403
I1
sS'YLR352W'
p2404
I1
sS'YJL212C'
p2405
I3
sS'YGR136W'
p2406
I3
sS'YML007W'
p2407
I1
sS'YPL156C'
p2408
I0
sS'YOR018W'
p2409
I1
sS'YIL056W'
p2410
I1
sS'YDR461W'
p2411
I11
sS'YGL201C'
p2412
I2
sS'YGR070W'
p2413
I1
sS'YNL113W'
p2414
I4
sS'YBR121C'
p2415
I17
sS'YLR229C'
p2416
I5
sS'YKL133C'
p2417
I1
sS'YJR052W'
p2418
I1
sS'YNL079C'
p2419
I13
sS'YMR062C'
p2420
I1
sS'YMR015C'
p2421
I4
sS'YKL020C'
p2422
I1
sS'YHR170W'
p2423
I5
sS'YJL125C'
p2424
I1
sS'YBR107C'
p2425
I1
sS'YBL090W'
p2426
I4
sS'YDR259C'
p2427
I0
sS'YBR207W'
p2428
I3
sS'YGL120C'
p2429
I4
sS'YKL068W'
p2430
I1
sS'YGR098C'
p2431
I0
sS'YOR027W'
p2432
I12
sS'YDL166C'
p2433
I2
sS'YDR260C'
p2434
I1
sS'YNR039C'
p2435
I1
sS'YKL142W'
p2436
I4
sS'YPL049C'
p2437
I1
sS'YLR035C'
p2438
I0
sS'YNL064C'
p2439
I18
sS'YOR110W'
p2440
I1
sS'YER081W'
p2441
I2
sS'YJL070C'
p2442
I1
sS'YPL178W'
p2443
I3
sS'YGL057C'
p2444
I1
sS'YDR373W'
p2445
I2
sS'YLR190W'
p2446
I1
sS'YDR322W'
p2447
I2
sS'YNL008C'
p2448
I2
sS'YOR023C'
p2449
I2
sS'YOR098C'
p2450
I1
sS'YDL120W'
p2451
I0
sS'YIL096C'
p2452
I1
sS'YOR350C'
p2453
I0
sS'YFR011C'
p2454
I1
sS'YIL074C'
p2455
I3
sS'YMR312W'
p2456
I1
sS'YCL033C'
p2457
I1
sS'YIL161W'
p2458
I2
sS'YGL173C'
p2459
I5
sS'YLR395C'
p2460
I3
sS'YHR015W'
p2461
I1
sS'YLR457C'
p2462
I0
sS'YHR039C'
p2463
I2
sS'YBR274W'
p2464
I1
sS'YER131W'
p2465
I45
sS'YDL190C'
p2466
I1
sS'YNL249C'
p2467
I0
sS'YMR090W'
p2468
I1
sS'YKL088W'
p2469
I1
sS'YER142C'
p2470
I0
sS'YML119W'
p2471
I1
sS'YGR056W'
p2472
I1
sS'YGR036C'
p2473
I1
sS'YNL225C'
p2474
I1
sS'YGR121C'
p2475
I1
sS'YCR035C'
p2476
I2
sS'YDR182W'
p2477
I2
sS'YGL065C'
p2478
I2
sS'YNR059W'
p2479
I0
sS'YDR180W'
p2480
I0
sS'YOR052C'
p2481
I2
sS'YLR243W'
p2482
I1
sS'YGR096W'
p2483
I1
sS'YLR196W'
p2484
I3
sS'YIL036W'
p2485
I1
sS'YPL047W'
p2486
I1
sS'YMR135C'
p2487
I1
sS'YCR009C'
p2488
I3
sS'YPL236C'
p2489
I0
sS'YHR155W'
p2490
I1
sS'YOR045W'
p2491
I7
sS'YDR476C'
p2492
I3
sS'YDL046W'
p2493
I4
sS'YOL102C'
p2494
I1
sS'YDL231C'
p2495
I1
sS'YBR252W'
p2496
I5
sS'YGR116W'
p2497
I5
sS'YIL110W'
p2498
I1
sS'YGL128C'
p2499
I0
sS'YNR032CA'
p2500
I1
sS'YIL147C'
p2501
I1
sS'YJR083C'
p2502
I1
sS'YOL159C'
p2503
I1
sS'YBR169C'
p2504
I0
sS'YKR084C'
p2505
I2
sS'YJR101W'
p2506
I2
sS'YBR263W'
p2507
I8
sS'YNL281W'
p2508
I7
sS'YBL001C'
p2509
I8
sS'YNR035C'
p2510
I5
sS'YDR019C'
p2511
I4
sS'YLL058W'
p2512
I1
sS'YOR232W'
p2513
I9
sS'YJL085W'
p2514
I0
sS'YDL209C'
p2515
I0
sS'YPR174C'
p2516
I1
sS'YLR064W'
p2517
I2
sS'YEL055C'
p2518
I3
sS'YER119C'
p2519
I1
sS'YDR477W'
p2520
I3
sS'YGR058W'
p2521
I1
sS'YGL129C'
p2522
I2
sS'YMR196W'
p2523
I1
sS'YBR053C'
p2524
I1
sS'YMR161W'
p2525
I1
sS'YKL045W'
p2526
I1
sS'YNL207W'
p2527
I2
sS'YDR428C'
p2528
I2
sS'YJL181W'
p2529
I1
sS'YOR210W'
p2530
I8
sS'YBL034C'
p2531
I1
sS'YMR252C'
p2532
I1
sS'YIL157C'
p2533
I2
sS'YOL008W'
p2534
I1
sS'YER077C'
p2535
I0
sS'YGL246C'
p2536
I1
sS'YCR054C'
p2537
I1
sS'YDR045C'
p2538
I1
sS'YPL232W'
p2539
I4
sS'YKR083C'
p2540
I1
sS'YMR209C'
p2541
I2
sS'YEL017W'
p2542
I1
sS'YGR252W'
p2543
I1
sS'YJR010CA'
p2544
I2
sS'YER128W'
p2545
I1
sS'YJR123W'
p2546
I139
sS'YIL125W'
p2547
I5
sS'YDL078C'
p2548
I2
sS'YGR003W'
p2549
I1
sS'YDR517W'
p2550
I3
sS'YGR074W'
p2551
I0
sS'YOR256C'
p2552
I1
sS'YPR011C'
p2553
I0
sS'YKR057W'
p2554
I43
sS'YLL061W'
p2555
I1
sS'YDR110W'
p2556
I1
sS'YLR061W'
p2557
I77
sS'YKL214C'
p2558
I1
sS'YOL088C'
p2559
I4
sS'YHL040C'
p2560
I1
sS'YOR361C'
p2561
I5
sS'YOR221C'
p2562
I1
sS'YGL113W'
p2563
I0
sS'YKR095W'
p2564
I3
sS'YOR258W'
p2565
I1
sS'YPL214C'
p2566
I1
sS'YGR029W'
p2567
I2
sS'YBR061C'
p2568
I2
sS'YOR334W'
p2569
I1
sS'YOL064C'
p2570
I5
sS'YLR154C'
p2571
I2
sS'YBL023C'
p2572
I1
sS'YNR010W'
p2573
I1
sS'YOR274W'
p2574
I1
sS'YML058WA'
p2575
I1
sS'YOR329C'
p2576
I2
sS'YDR435C'
p2577
I1
sS'YER151C'
p2578
I4
sS'YKL207W'
p2579
I7
sS'YIL098C'
p2580
I1
sS'YPL209C'
p2581
I1
sS'YLL027W'
p2582
I2
sS'YDR365C'
p2583
I1
sS'YDL171C'
p2584
I6
sS'YOR382W'
p2585
I7
sS'YOR253W'
p2586
I4
sS'YNL267W'
p2587
I1
sS'YHL006C'
p2588
I0
sS'YGR198W'
p2589
I2
sS'YDR258C'
p2590
I2
sS'YGR147C'
p2591
I4
sS'YAR007C'
p2592
I1
sS'YPL254W'
p2593
I2
sS'YGR010W'
p2594
I1
sS'YML064C'
p2595
I1
sS'YKR091W'
p2596
I0
sS'YER055C'
p2597
I12
sS'YOR124C'
p2598
I4
sS'YCR016W'
p2599
I2
sS'YLL012W'
p2600
I2
sS'YCR076C'
p2601
I2
sS'YLR438W'
p2602
I5
sS'YDL234C'
p2603
I0
sS'YOR296W'
p2604
I0
sS'YJR010W'
p2605
I1
sS'YML031W'
p2606
I2
sS'YJL044C'
p2607
I1
sS'YMR154C'
p2608
I0
sS'YCR094W'
p2609
I1
sS'YBR085W'
p2610
I1
sS'YMR036C'
p2611
I1
sS'YPR164W'
p2612
I3
sS'YGL085W'
p2613
I1
sS'YEL066W'
p2614
I2
sS'YGL131C'
p2615
I0
sS'YGR218W'
p2616
I3
sS'YEL060C'
p2617
I3
sS'YKR049C'
p2618
I3
sS'YPR179C'
p2619
I1
sS'YHR195W'
p2620
I1
sS'YGR267C'
p2621
I5
sS'YDL149W'
p2622
I0
sS'YDL125C'
p2623
I9
sS'YPR006C'
p2624
I1
sS'YMR114C'
p2625
I1
sS'YPR066W'
p2626
I1
sS'YGL022W'
p2627
I4
sS'YHL038C'
p2628
I1
sS'YML079W'
p2629
I4
sS'YDR073W'
p2630
I1
sS'YKL017C'
p2631
I0
sS'YMR049C'
p2632
I1
sS'YDR229W'
p2633
I2
sS'YOR166C'
p2634
I0
sS'YPR124W'
p2635
I8
sS'YLL029W'
p2636
I3
sS'YDL181W'
p2637
I1
sS'YLR127C'
p2638
I1
sS'YNL232W'
p2639
I1
sS'YGL254W'
p2640
I1
sS'YER017C'
p2641
I2
sS'YBR022W'
p2642
I1
sS'YMR214W'
p2643
I1
sS'YCR030C'
p2644
I2
sS'YNR066C'
p2645
I0
sS'YLR438CA'
p2646
I1
sS'YKR063C'
p2647
I1
sS'YDR500C'
p2648
I58
sS'YGR063C'
p2649
I2
sS'YMR176W'
p2650
I1
sS'YCL063W'
p2651
I1
sS'YER048C'
p2652
I2
sS'YPR020W'
p2653
I1
sS'YML048W'
p2654
I3
sS'YKL085W'
p2655
I3
sS'YLR027C'
p2656
I10
sS'YDR107C'
p2657
I2
sS'YDL132W'
p2658
I3
sS'YBL064C'
p2659
I4
sS'YIL014CA'
p2660
I1
sS'YIL045W'
p2661
I0
sS'YOR148C'
p2662
I1
sS'YPL243W'
p2663
I4
sS'YGL126W'
p2664
I1
sS'YDL025C'
p2665
I1
sS'YLR147C'
p2666
I1
sS'YMR288W'
p2667
I0
sS'YER063W'
p2668
I3
sS'YMR270C'
p2669
I1
sS'YLR293C'
p2670
I31
sS'YLR228C'
p2671
I1
sS'YBR058CA'
p2672
I3
sS'YJR053W'
p2673
I1
sS'YFL029C'
p2674
I1
sS'YJL171C'
p2675
I4
sS'YBL091C'
p2676
I5
sS'YMR237W'
p2677
I2
sS'YMR063W'
p2678
I1
sS'YKL021C'
p2679
I1
sS'YKL012W'
p2680
I1
sS'YNL242W'
p2681
I0
sS'YDL167C'
p2682
I1
sS'YPR133C'
p2683
I2
sS'YJR094WA'
p2684
I69
sS'YKL069W'
p2685
I4
sS'YNL123W'
p2686
I4
sS'YMR003W'
p2687
I1
sS'YPL037C'
p2688
I32
sS'YPL177C'
p2689
I4
sS'YPL179W'
p2690
I2
sS'YDL031W'
p2691
I1
sS'YLR373C'
p2692
I0
sS'YOR111W'
p2693
I1
sS'YFL016C'
p2694
I2
sS'YDR323C'
p2695
I0
sS'YJL162C'
p2696
I1
sS'YKL198C'
p2697
I1
sS'YLR260W'
p2698
I1
sS'YDL241W'
p2699
I2
sS'YPL117C'
p2700
I4
sS'YPR109W'
p2701
I1
sS'YNL041C'
p2702
I2
sS'YKR001C'
p2703
I6
sS'YGR227W'
p2704
I1
sS'YJL100W'
p2705
I0
sS'YKR054C'
p2706
I1
sS'YMR001C'
p2707
I1
sS'YPL221W'
p2708
I1
sS'YPR199C'
p2709
I2
sS'YDR346C'
p2710
I5
sS'YBL082C'
p2711
I2
sS'YDL081C'
p2712
I78
sS'YDR206W'
p2713
I1
sS'YLR149C'
p2714
I1
sS'YMR138W'
p2715
I1
sS'YKL032C'
p2716
I1
sS'YHL030W'
p2717
I4
sS'YGL013C'
p2718
I1
sS'YLR191W'
p2719
I2
sS'YFL018C'
p2720
I8
sS'YOR093C'
p2721
I1
sS'YJL139C'
p2722
I0
sS'YGR207C'
p2723
I4
sS'YDR212W'
p2724
I6
sS'YLR456W'
p2725
I1
sS'YHR080C'
p2726
I1
sS'YNL052W'
p2727
I3
sS'YPL097W'
p2728
I1
sS'YDL207W'
p2729
I1
sS'YCL058WA'
p2730
I1
sS'YDR334W'
p2731
I1
sS'YOR227W'
p2732
I1
sS'YPL015C'
p2733
I2
sS'YLR211C'
p2734
I1
sS'YGL213C'
p2735
I1
sS'YDR231C'
p2736
I1
sS'YMR038C'
p2737
I5
sS'YGL251C'
p2738
I0
sS'YNL304W'
p2739
I0
sS'YJL066C'
p2740
I1
sS'YDR506C'
p2741
I1
sS'YHR182W'
p2742
I1
sS'YNL321W'
p2743
I1
sS'YNR029C'
p2744
I1
sS'YDL153C'
p2745
I1
sS'YEL029C'
p2746
I2
sS'YGR091W'
p2747
I1
sS'YDL232W'
p2748
I4
sS'YDL130WA'
p2749
I2
sS'YHR001W'
p2750
I2
sS'YKL135C'
p2751
I1
sS'YGR223C'
p2752
I1
sS'YJL010C'
p2753
I2
sS'YLR146WA'
p2754
I1
sS'YOL105C'
p2755
I1
sS'YPL119C'
p2756
I1
sS'YBR196C'
p2757
I47
sS'YLR242C'
p2758
I0
sS'YOR342C'
p2759
I1
sS'YJR148W'
p2760
I14
sS'YBR253W'
p2761
I2
sS'YIL042C'
p2762
I1
sS'YGL045W'
p2763
I0
sS'YJL006C'
p2764
I1
sS'YIL111W'
p2765
I5
sS'YIL159W'
p2766
I1
sS'YHR186C'
p2767
I1
sS'YBR153W'
p2768
I1
sS'YMR195W'
p2769
I1
sS'YOR073W'
p2770
I1
sS'YOL087C'
p2771
I1
sS'YJL004C'
p2772
I1
sS'YJR106W'
p2773
I1
sS'YJL084C'
p2774
I1
sS'YHR154W'
p2775
I1
sS'YOR008C'
p2776
I2
sS'YNL024CA'
p2777
I3
sS'YHR199CA'
p2778
I1
sS'YDR291W'
p2779
I1
sS'YCR051W'
p2780
I5
sS'YBR262C'
p2781
I2
sS'YMR304W'
p2782
I1
sS'YGL050W'
p2783
I1
sS'YKL010C'
p2784
I2
sS'YJR138W'
p2785
I1
sS'YPL255W'
p2786
I1
sS'YMR289W'
p2787
I1
sS'YOL012C'
p2788
I5
sS'YPL168W'
p2789
I0
sS'YBR023C'
p2790
I2
sS'YAL015C'
p2791
I1
sS'YFL036W'
p2792
I1
sS'YGR177C'
p2793
I1
sS'YJR133W'
p2794
I2
sS'YPL077C'
p2795
I1
sS'YJR022W'
p2796
I1
sS'YLR273C'
p2797
I1
sS'YML068W'
p2798
I0
sS'YGR203W'
p2799
I1
sS'YIL051C'
p2800
I24
sS'YPL057C'
p2801
I3
sS'YCR004C'
p2802
I5
sS'YDR356W'
p2803
I1
sS'YPL151C'
p2804
I1
sS'YKL007W'
p2805
I3
sS'YNL169C'
p2806
I1
sS'YFR034C'
p2807
I2
sS'YKL185W'
p2808
I2
sS'YGL091C'
p2809
I1
sS'YCL038C'
p2810
I1
sS'YLR180W'
p2811
I12
sS'YDR460W'
p2812
I2
sS'YOL025W'
p2813
I1
sS'YLR364W'
p2814
I1
sS'YKL058W'
p2815
I2
sS'YCR088W'
p2816
I6
sS'YNL112W'
p2817
I5
sS'YJR124C'
p2818
I2
sS'YHL047C'
p2819
I2
sS'YOR360C'
p2820
I1
sS'YOR335C'
p2821
I10
sS'YHL018W'
p2822
I1
sS'YOL089C'
p2823
I1
sS'YDR416W'
p2824
I1
sS'YNL182C'
p2825
I1
sS'YHR023W'
p2826
I2
sS'YOL065C'
p2827
I1
sS'YMR181C'
p2828
I1
sS'YER051W'
p2829
I1
sS'YBL022C'
p2830
I3
sS'YPL215W'
p2831
I2
sS'YOL130W'
p2832
I2
sS'YLL050C'
p2833
I28
sS'YGR013W'
p2834
I2
sS'YHR057C'
p2835
I2
sS'YOR095C'
p2836
I3
sS'YEL038W'
p2837
I2
sS'YCL014W'
p2838
I1
sS'YOR377W'
p2839
I1
sS'YLL026W'
p2840
I5
sS'YCL002C'
p2841
I1
sS'YGL108C'
p2842
I1
sS'YPL040C'
p2843
I1
sS'YLR051C'
p2844
I1
sS'YDR388W'
p2845
I7
sS'YGR199W'
p2846
I0
sS'YLR289W'
p2847
I1
sS'YPL208W'
p2848
I2
sS'YLR306W'
p2849
I1
sS'YOL147C'
p2850
I2
sS'YNL280C'
p2851
I4
sS'YDR007W'
p2852
I2
sS'YGL083W'
p2853
I1
sS'YGR222W'
p2854
I1
sS'YGL220W'
p2855
I4
sS'YPR089W'
p2856
I2
sS'YBR233W'
p2857
I1
sS'YPL122C'
p2858
I1
sS'YNL032W'
p2859
I1
sS'YOR328W'
p2860
I1
sS'YGR082W'
p2861
I3
sS'YDL115C'
p2862
I1
sS'YKL113C'
p2863
I3
sS'YDL086W'
p2864
I2
sS'YHR012W'
p2865
I2
sS'YDR436W'
p2866
I1
sS'YHL027W'
p2867
I1
sS'YKL116C'
p2868
I1
sS'YHL011C'
p2869
I4
sS'YOR319W'
p2870
I1
sS'YGR119C'
p2871
I3
sS'YIR035C'
p2872
I1
sS'YGR035C'
p2873
I2
sS'YDR440W'
p2874
I2
sS'YOL127W'
p2875
I141
sS'YMR228W'
p2876
I1
sS'YLR326W'
p2877
I1
sS'YNL224C'
p2878
I1
sS'YAL020C'
p2879
I0
sS'YBR275C'
p2880
I1
sS'YDR539W'
p2881
I1
sS'YCR075WA'
p2882
I1
sS'YBL013W'
p2883
I0
sS'YDR304C'
p2884
I11
sS'YBR025C'
p2885
I22
sS'YMR177W'
p2886
I2
sS'YLL028W'
p2887
I2
sS'YOR187W'
p2888
I7
sS'YDR437W'
p2889
I1
sS'YER016W'
p2890
I2
sS'YDR501W'
p2891
I1
sS'YGR286C'
p2892
I1
sS'YCR037C'
p2893
I3
sS'YMR044W'
p2894
I1
sS'YMR217W'
p2895
I17
sS'YNL211C'
p2896
I1
sS'YOR239W'
p2897
I3
sS'YER170W'
p2898
I0
sS'YHR003C'
p2899
I1
sS'YCR086W'
p2900
I1
sS'YKL222C'
p2901
I1
sS'YML110C'
p2902
I4
sS'YDR494W'
p2903
I2
sS'YLR026C'
p2904
I1
sS'YKR086W'
p2905
I1
sS'YGL026C'
p2906
I8
sS'YHR094C'
p2907
I5
sS'YHR008C'
p2908
I6
sS'YMR277W'
p2909
I1
sS'YPL242C'
p2910
I2
sS'YML049C'
p2911
I2
sS'YBR067C'
p2912
I5
sS'YLR387C'
p2913
I1
sS'YCR068W'
p2914
I1
sS'YLL004W'
p2915
I1
sS'YER049W'
p2916
I2
sS'YGL125W'
p2917
I2
sS'YDL033C'
p2918
I1
sS'YOL144W'
p2919
I1
sS'YMR239C'
p2920
I1
sS'YLR028C'
p2921
I6
sS'YER136W'
p2922
I4
sS'YGL247W'
p2923
I0
sS'YER116C'
p2924
I1
sS'YML012W'
p2925
I12
sS'YOL009C'
p2926
I2
sS'YDR028C'
p2927
I1
sS'YML050W'
p2928
I0
sS'YOR217W'
p2929
I3
sS'YBL035C'
p2930
I1
sS'YPL010W'
p2931
I6
sS'YCR057C'
p2932
I2
sS'YNL206C'
p2933
I1
sS'YHR105W'
p2934
I1
sS'YLR060W'
p2935
I14
sS'YDR516C'
p2936
I3
sS'YOR179C'
p2937
I1
sS'YPL233W'
p2938
I2
sS'YIL063C'
p2939
I2
sS'YPR140W'
p2940
I1
sS'YGR251W'
p2941
I1
sS'YLR105C'
p2942
I0
sS'YPR047W'
p2943
I0
sS'YEL020WA'
p2944
I4
sS'YNL045W'
p2945
I2
sS'YLR353W'
p2946
I1
sS'YBR049C'
p2947
I3
sS'YDR044W'
p2948
I2
sS'YOR193W'
p2949
I1
sS'YKR080W'
p2950
I3
sS'YDL104C'
p2951
I0
sS'YNL010W'
p2952
I13
sS'YKL078W'
p2953
I0
sS'YOL128C'
p2954
I1
sS'YLR078C'
p2955
I2
sS'YDR354W'
p2956
I3
sS'YJR032W'
p2957
I2
sS'YIR037W'
p2958
I5
sS'YDR071C'
p2959
I5
sS'YDR162C'
p2960
I1
sS'YMR134W'
p2961
I1
sS'YGL012W'
p2962
I9
sS'YBR137W'
p2963
I1
sS'YPL066W'
p2964
I1
sS'YOL057W'
p2965
I3
sS'YOR076C'
p2966
I1
sS'YKL160W'
p2967
I5
sS'YMR073C'
p2968
I1
sS'YFR004W'
p2969
I4
sS'YDR353W'
p2970
I9
sS'YMR139W'
p2971
I0
sS'YJL001W'
p2972
I4
sS'YDL080C'
p2973
I1
sS'YJL049W'
p2974
I0
sS'YHR183W'
p2975
I23
sS'YDR017C'
p2976
I1
sS'YOR129C'
p2977
I0
sS'YDR213W'
p2978
I1
sS'YKL068WA'
p2979
I2
sS'YML085C'
p2980
I9
sS'YPR167C'
p2981
I0
sS'YNL053W'
p2982
I0
sS'YDL206W'
p2983
I1
sS'YHR060W'
p2984
I2
sS'YER094C'
p2985
I4
sS'YML069W'
p2986
I3
sS'YIL010W'
p2987
I2
sS'YIL022W'
p2988
I2
sS'YNL322C'
p2989
I3
sS'YKR037C'
p2990
I1
sS'YNL024C'
p2991
I0
sS'YKL119C'
p2992
I3
sS'YLR212C'
p2993
I2
sS'YGR214W'
p2994
I52
sS'YCR075C'
p2995
I1
sS'YER101C'
p2996
I1
sS'YMR155W'
p2997
I0
sS'YKR079C'
p2998
I1
sS'YNL248C'
p2999
I3
sS'YNL197C'
p3000
I2
sS'YLR086W'
p3001
I0
sS'YMR055C'
p3002
I0
sS'YLR439W'
p3003
I1
sS'YOR025W'
p3004
I3
sS'YML030W'
p3005
I1
sS'YCL051W'
p3006
I1
sS'YML065W'
p3007
I1
sS'YCR097W'
p3008
I4
sS'YER001W'
p3009
I2
sS'YKR072C'
p3010
I3
sS'YPR165W'
p3011
I11
sS'YJL047C'
p3012
I1
sS'YMR313C'
p3013
I1
sS'YBL074C'
p3014
I1
sS'YDR275W'
p3015
I2
sS'YGL023C'
p3016
I2
sS'YHR049W'
p3017
I1
sS'YJR082C'
p3018
I1
sS'YEL061C'
p3019
I1
sS'YBR007C'
p3020
I1
sS'YMR115W'
p3021
I1
sS'YDL126C'
p3022
I14
sS'YML128C'
p3023
I1
sS'YHR194W'
p3024
I0
sS'YGR288W'
p3025
I0
sS'YOR295W'
p3026
I1
sS'YOR340C'
p3027
I2
sS'YMR260C'
p3028
I24
sS'YLR102C'
p3029
I0
sS'YOR161C'
p3030
I2
sS'YML078W'
p3031
I6
sS'YLR142W'
p3032
I0
sS'YOR158W'
p3033
I2
sS'YPR178W'
p3034
I1
sS'YDR181C'
p3035
I1
sS'YIR018W'
p3036
I1
sS'YPL074W'
p3037
I1
sS'YIL129C'
p3038
I2
sS'YKL046C'
p3039
I3
sS'YBR145W'
p3040
I1
sS'YDR339C'
p3041
I5
sS'YOR151C'
p3042
I5
sS'YDR307W'
p3043
I1
sS'YFL037W'
p3044
I10
sS'YJR132W'
p3045
I2
sS'YOR075W'
p3046
I1
sS'YPL169C'
p3047
I1
sS'YHR161C'
p3048
I1
sS'YBR243C'
p3049
I1
sS'YNL199C'
p3050
I1
sS'YDL224C'
p3051
I1
sS'YLR181C'
p3052
I2
sS'YLR225C'
p3053
I2
sS'YNL134C'
p3054
I2
sS'YGL207W'
p3055
I4
sS'YGL090W'
p3056
I1
sS'YNL111C'
p3057
I4
sS'YPL058C'
p3058
I2
sS'YLR454W'
p3059
I3
sS'YGR134W'
p3060
I1
sS'YBL056W'
p3061
I4
sS'YLR270W'
p3062
I1
sS'YNR011C'
p3063
I2
sS'YOL103W'
p3064
I1
sS'YHR071W'
p3065
I3
sS'YGR169C'
p3066
I0
sS'YLR309C'
p3067
I2
sS'YBR069C'
p3068
I5
sS'YPR086W'
p3069
I4
sS'YKL086W'
p3070
I0
sS'YGL256W'
p3071
I2
sS'YIL068C'
p3072
I1
sS'YMR060C'
p3073
I1
sS'YNL189W'
p3074
I4
sS'YDR153C'
p3075
I2
sS'YJL065C'
p3076
I3
sS'YLR459W'
p3077
I2
sS'YDR320CA'
p3078
I3
sS'YGR120C'
p3079
I1
sS'YJR003C'
p3080
I0
sS'YNR034W'
p3081
I1
sS'YJL170C'
p3082
I0
sS'YDL144C'
p3083
I1
sS'YFL028C'
p3084
I1
sS'YJR078W'
p3085
I1
sS'YNL144C'
p3086
I0
sS'YLR080W'
p3087
I0
sS'YLR262CA'
p3088
I17
sS'YKR020W'
p3089
I0
sS'YMR053C'
p3090
I1
sS'YDR371W'
p3091
I0
sS'YDR456W'
p3092
I2
sS'YDR308C'
p3093
I3
sS'YLR372W'
p3094
I9
sS'YDL140C'
p3095
I6
sS'YNL062C'
p3096
I3
sS'YMR295C'
p3097
I11
sS'YER083C'
p3098
I1
sS'YHR050W'
p3099
I2
sS'YPL176C'
p3100
I1
sS'YDR324C'
p3101
I2
sS'YLR389C'
p3102
I1
sS'YJL072C'
p3103
I1
sS'YDR374WA'
p3104
I2
sS'YHR172W'
p3105
I1
sS'YOR112W'
p3106
I2
sS'YGR157W'
p3107
I12
sS'YDL168W'
p3108
I3
sS'YDR262W'
p3109
I2
sS'YIL134W'
p3110
I0
sS'YJL163C'
p3111
I0
sS'YNL175C'
p3112
I4
sS'YGR173W'
p3113
I2
sS'YDL240W'
p3114
I1
sS'YBR234C'
p3115
I4
sS'YOR061W'
p3116
I3
sS'YOR356W'
p3117
I2
sS'YFR013W'
p3118
I0
sS'YBR261C'
p3119
I3
sS'YPR088C'
p3120
I4
sS'YNL326C'
p3121
I1
sS'YHR013C'
p3122
I6
sS'YHR072W'
p3123
I1
sS'YGR083C'
p3124
I2
sS'YOL040C'
p3125
I114
sS'YER184C'
p3126
I1
sS'YCL035C'
p3127
I6
sS'YHL026C'
p3128
I0
sS'YHR209W'
p3129
I1
sS'YOL146W'
p3130
I1
sS'YGL221C'
p3131
I3
sS'YHR144C'
p3132
I1
sS'YDR006C'
p3133
I2
sS'YGR034W'
p3134
I79
sS'YBR229C'
p3135
I2
sS'YMR100W'
p3136
I1
sS'YDR190C'
p3137
I4
sS'YNL290W'
p3138
I3
sS'YBL010C'
p3139
I1
sS'YJR100C'
p3140
I1
sS'YDR139C'
p3141
I3
sS'YGR123C'
p3142
I4
sS'YJR147W'
p3143
I2
sS'YMR314W'
p3144
I6
sS'YJL025W'
p3145
I2
sS'YAL021C'
p3146
I1
sS'YNL247W'
p3147
I5
sS'YOR035C'
p3148
I0
sS'YHR128W'
p3149
I8
sS'YDR538W'
p3150
I1
sS'YOR316C'
p3151
I2
sS'YMR184W'
p3152
I2
sS'YBR123C'
p3153
I1
sS'YIL112W'
p3154
I1
sS'YPL118W'
p3155
I2
sS'YLR241W'
p3156
I0
sS'YGR090W'
p3157
I3
sS'YDL233W'
p3158
I1
sS'YML121W'
p3159
I1
sS'YMR204C'
p3160
I1
sS'YPL001W'
p3161
I1
sS'YNR028W'
p3162
I2
sS'YDR470C'
p3163
I1
sS'YIL034C'
p3164
I2
sS'YIL043C'
p3165
I9
sS'YHR153C'
p3166
I0
sS'YDR386W'
p3167
I1
sS'YKL048C'
p3168
I0
sS'YKR089C'
p3169
I1
sS'YBR152W'
p3170
I1
sS'YJL087C'
p3171
I1
sS'YLR347C'
p3172
I4
sS'YKL181W'
p3173
I7
sS'YDR292C'
p3174
I2
sS'YHR206W'
p3175
I1
sS'YPL143W'
p3176
I71
sS'YBL014C'
p3177
I1
sS'YNL137C'
p3178
I1
sS'YDR306C'
p3179
I1
sS'YNR060W'
p3180
I1
sS'YCL028W'
p3181
I3
sS'YML120C'
p3182
I2
sS'YGL174W'
p3183
I1
sS'YHR106W'
p3184
I0
sS'YOR216C'
p3185
I2
sS'YGL094C'
p3186
I1
sS'YNL164C'
p3187
I2
sS'YHR208W'
p3188
I18
sS'YPR057W'
p3189
I1
sS'YDL065C'
p3190
I1
sS'YGL244W'
p3191
I3
sS'YDL156W'
p3192
I1
sS'YGL035C'
p3193
I1
sS'YBL036C'
p3194
I3
sS'YOR249C'
p3195
I1
sS'YGR183C'
p3196
I3
sS'YBR080C'
p3197
I3
sS'YPR191W'
p3198
I5
sS'YJL020C'
p3199
I2
sS'YER137C'
p3200
I0
sS'YDL030W'
p3201
I1
sS'YNR033W'
p3202
I2
sS'YDR027C'
p3203
I2
sS'YHL039W'
p3204
I2
sS'YBR170C'
p3205
I2
sS'YER071C'
p3206
I1
sS'YNL272C'
p3207
I1
sS'YMR238W'
p3208
I1
sS'YPR073C'
p3209
I3
sS'YKR081C'
p3210
I3
sS'YPL263C'
p3211
I4
sS'YGR001C'
p3212
I5
sS'YLR446W'
p3213
I0
sS'YOR140W'
p3214
I1
sS'YLR067C'
p3215
I1
sS'YOL013C'
p3216
I1
sS'YJL183W'
p3217
I3
sS'YPL218W'
p3218
I15
sS'YKL128C'
p3219
I4
sS'YGR250C'
p3220
I1
sS'YDR047W'
p3221
I3
sS'YMR194CB'
p3222
I1
sS'YOR201C'
p3223
I1
sS'YOR276W'
p3224
I9
sS'YMR309C'
p3225
I5
sS'YGL178W'
p3226
I1
sS'YOR089C'
p3227
I1
sS'YIL065C'
p3228
I3
sS'YKL189W'
p3229
I1
sS'YMR167W'
p3230
I1
sS'YBR071W'
p3231
I1
sS'YHR119W'
p3232
I2
sS'YOR209C'
p3233
I6
sS'YHL019C'
p3234
I2
sS'YBR166C'
p3235
I1
sS'YJL166W'
p3236
I3
sS'YMR180C'
p3237
I1
sS'YNL258C'
p3238
I1
sS'YPL234C'
p3239
I10
sS'YOR336W'
p3240
I1
sS'YKL216W'
p3241
I10
sS'YGR012W'
p3242
I1
sS'YBL021C'
p3243
I1
sS'YHL004W'
p3244
I2
sS'YGR124W'
p3245
I17
sS'YJL205C'
p3246
I2
sS'YLR007W'
p3247
I1
sS'YDL147W'
p3248
I7
sS'YOR147W'
p3249
I1
sS'YML102W'
p3250
I1
sS'YBR109C'
p3251
I11
sS'YER157W'
p3252
I2
sS'YOR370C'
p3253
I3
sS'YGR270W'
p3254
I2
sS'YNL261W'
p3255
I1
sS'YDR389W'
p3256
I3
sS'YBR141C'
p3257
I0
sS'YMR054W'
p3258
I2
sS'YDR065W'
p3259
I0
sS'YML001W'
p3260
I5
sS'YDL027C'
p3261
I1
sS'YER053C'
p3262
I1
sS'YOR126C'
p3263
I1
sS'YPL051W'
p3264
I1
sS'YDL217C'
p3265
I2
sS'YLL014W'
p3266
I3
sS'YJL046W'
p3267
I1
sS'YGR047C'
p3268
I1
sS'YCR021C'
p3269
I0
sS'YDR049W'
p3270
I1
sS'YJL148W'
p3271
I4
sS'YKR014C'
p3272
I6
sS'YMR251WA'
p3273
I16
sS'YKR078W'
p3274
I1
sS'YPR079W'
p3275
I1
sS'YGL008C'
p3276
I104
sS'YOR191W'
p3277
I1
sS'YLR412W'
p3278
I1
sS'YER002W'
p3279
I3
sS'YCR018C'
p3280
I1
sS'YDL127W'
p3281
I1
sS'YPR122W'
p3282
I1
sS'YHR048W'
p3283
I1
sS'YPR008W'
p3284
I1
sS'YML020W'
p3285
I0
sS'YGL020C'
p3286
I3
sS'YGR206W'
p3287
I1
sS'YLR103C'
p3288
I0
sS'YDR266C'
p3289
I1
sS'YOR294W'
p3290
I4
sS'YEL062W'
p3291
I0
sS'YMR261C'
p3292
I2
sS'YMR112C'
p3293
I1
sS'YDR100W'
p3294
I2
sS'YPR031W'
p3295
I0
sS'YBR006W'
p3296
I1
sS'YLR038C'
p3297
I2
sS'YPR085C'
p3298
I1
sS'YNL212W'
p3299
I1
sS'YCR036W'
p3300
I2
sS'YER015W'
p3301
I1
sS'YMR216C'
p3302
I3
sS'YML006C'
p3303
I0
sS'YPR046W'
p3304
I0
sS'YHR004C'
p3305
I0
sS'YNL102W'
p3306
I2
sS'YBR024W'
p3307
I0
sS'YDR173C'
p3308
I1
sS'YDR502C'
p3309
I8
sS'YOR238W'
p3310
I1
sS'YLR401C'
p3311
I3
sS'YER171W'
p3312
I2
sS'YDL047W'
p3313
I3
sS'YGR247W'
p3314
I1
sS'YDR101C'
p3315
I2
sS'YHR079C'
p3316
I1
sS'YPR026W'
p3317
I0
sS'YML046W'
p3318
I1
sS'YGL124C'
p3319
I0
sS'YLR070C'
p3320
I0
sS'YDL130W'
p3321
I74
sS'YMR276W'
p3322
I7
sS'YMR149W'
p3323
I3
sS'YLR165C'
p3324
I1
sS'YLR025W'
p3325
I2
sS'YER139C'
p3326
I0
sS'YPR170WB'
p3327
I10
sS'YPL245W'
p3328
I1
sS'YBR066C'
p3329
I2
sS'YLR138W'
p3330
I2
sS'YLR016C'
p3331
I1
sS'YDR341C'
p3332
I9
sS'YKL027W'
p3333
I1
sS'YJL058C'
p3334
I1
sS'YBR079C'
p3335
I9
sS'YFL039C'
p3336
I57
sS'YDR449C'
p3337
I3
sS'YHR199C'
p3338
I1
sS'YDR152W'
p3339
I2
sS'YDL090C'
p3340
I1
sS'YBR214W'
p3341
I1
sS'YFL054C'
p3342
I1
sS'YMR255W'
p3343
I2
sS'YJL128C'
p3344
I2
sS'YJR002W'
p3345
I4
sS'YDL145C'
p3346
I5
sS'YBL097W'
p3347
I1
sS'YKL127W'
p3348
I5
sS'YDR309C'
p3349
I1
sS'YNL061W'
p3350
I4
sS'YKR021W'
p3351
I1
sS'YDR398W'
p3352
I1
sS'YNL234W'
p3353
I0
sS'YFL014W'
p3354
I1
sS'YDR325W'
p3355
I1
sS'YKL056C'
p3356
I97
sS'YJL073W'
p3357
I1
sS'YLR371W'
p3358
I2
sS'YDR261C'
p3359
I1
sS'YMR005W'
p3360
I3
sS'YDR370C'
p3361
I1
sS'YJL146W'
p3362
I1
sS'YFL034CA'
p3363
I8
sS'YLR262C'
p3364
I3
sS'YOR207C'
p3365
I2
sS'YOR113W'
p3366
I1
sS'YDR087C'
p3367
I1
sS'YMR294W'
p3368
I0
sS'YPR135W'
p3369
I0
sS'YBR081C'
p3370
I1
sS'YPL175W'
p3371
I0
sS'YNR008W'
p3372
I1
sS'YLR092W'
p3373
I0
sS'YLR193C'
p3374
I2
sS'YDR072C'
p3375
I1
sS'YER044C'
p3376
I2
sS'YMR072W'
p3377
I5
sS'YMR197C'
p3378
I1
sS'YLR248W'
p3379
I2
sS'YOR283W'
p3380
I3
sS'YJL102W'
p3381
I0
sS'YJL141C'
p3382
I1
sS'YKL105C'
p3383
I1
sS'YMR160W'
p3384
I1
sS'YLR009W'
p3385
I4
sS'YNL181W'
p3386
I2
sS'YDL087C'
p3387
I1
sS'YKR056W'
p3388
I2
sS'YKL150W'
p3389
I2
sS'YMR225C'
p3390
I3
sS'YHL023C'
p3391
I1
sS'YIR036C'
p3392
I2
sS'YKL129C'
p3393
I1
sS'YDR163W'
p3394
I1
sS'YMR123W'
p3395
I3
sS'YDR238C'
p3396
I6
sS'YOR173W'
p3397
I1
sS'YHR184W'
p3398
I0
sS'YNL323W'
p3399
I2
sS'YOR128C'
p3400
I3
sS'YPL026C'
p3401
I1
sS'YLR220W'
p3402
I3
sS'YDR243C'
p3403
I1
sS'YLR172C'
p3404
I6
sS'YPL091W'
p3405
I4
sS'YIL030C'
p3406
I2
sS'YPL017C'
p3407
I1
sS'YPR168W'
p3408
I1
sS'YJL048C'
p3409
I1
sS'YPR113W'
p3410
I7
sS'YLR213C'
p3411
I1
sS'YNL050C'
p3412
I2
sS'YKR036C'
p3413
I2
sS'YAL042W'
p3414
I5
sS'YBR251W'
p3415
I2
sS'YKL041W'
p3416
I1
sS'YIL113W'
p3417
I0
sS'YMR099C'
p3418
I7
sS'YMR234W'
p3419
I1
sS'YIR008C'
p3420
I1
sS'YLR240W'
p3421
I1
sS'YOL107W'
p3422
I1
sS'YBR085CA'
p3423
I5
sS'YIL040W'
p3424
I2
sS'YDR471W'
p3425
I42
sS'YGR135W'
p3426
I6
sS'YPL217C'
p3427
I3
sS'YGL219C'
p3428
I1
sS'YOR040W'
p3429
I1
sS'YAL051W'
p3430
I1
sS'YDR036C'
p3431
I1
sS'YHR114W'
p3432
I1
sS'YGL080W'
p3433
I1
sS'YPL140C'
p3434
I0
sS'YLR449W'
p3435
I4
sS'YNL136W'
p3436
I1
sS'YNL156C'
p3437
I2
sS'YDR293C'
p3438
I4
sS'YHR031C'
p3439
I1
sS'YBR155W'
p3440
I2
sS'YJR080C'
p3441
I1
sS'YNR038W'
p3442
I2
sS'YMR094W'
p3443
I1
sS'YNL080C'
p3444
I2
sS'YGL140C'
p3445
I1
sS'YPL161C'
p3446
I1
sS'YLR195C'
p3447
I1
sS'YBL024W'
p3448
I4
sS'YOR071C'
p3449
I1
sS'YLR346C'
p3450
I0
sS'YNR063W'
p3451
I1
sS'YOL067C'
p3452
I2
sS'YKL194C'
p3453
I1
sS'YPL075W'
p3454
I1
sS'YAL017W'
p3455
I2
sS'YJR024C'
p3456
I4
sS'YFL038C'
p3457
I14
sS'YBR242W'
p3458
I1
sS'YLR083C'
p3459
I5
sS'YNL029C'
p3460
I0
sS'YBR142W'
p3461
I1
sS'YOR231W'
p3462
I1
sS'YNL077W'
p3463
I1
sS'YHR166C'
p3464
I1
sS'YGR175C'
p3465
I10
sS'YJR131W'
p3466
I2
sS'YDR127W'
p3467
I3
sS'YIR017C'
p3468
I1
sS'YNL158W'
p3469
I2
sS'YER076C'
p3470
I1
sS'YNL127W'
p3471
I1
sS'YBR108W'
p3472
I1
sS'YJR137C'
p3473
I3
sS'YNR012W'
p3474
I2
sS'YGL097W'
p3475
I2
sS'YBR028C'
p3476
I1
sS'YHR073W'
p3477
I2
sS'YJL151C'
p3478
I4
sS'YLR224W'
p3479
I2
sS'YLR271W'
p3480
I0
sS'YPL153C'
p3481
I1
sS'YDR367W'
p3482
I2
sS'YJR126C'
p3483
I1
sS'YKL001C'
p3484
I2
sS'YBR173C'
p3485
I4
sS'YGR264C'
p3486
I10
sS'YIL064W'
p3487
I2
sS'YOR261C'
p3488
I5
sS'YLR367W'
p3489
I18
sS'YHR045W'
p3490
I1
sS'YIL066C'
p3491
I0
sS'YGL253W'
p3492
I34
sS'YBR276C'
p3493
I1
sS'YHL032C'
p3494
I2
sS'YMR308C'
p3495
I6
sS'YGL250W'
p3496
I0
sS'YGL162W'
p3497
I0
sS'YOL152W'
p3498
I1
sS'YGR187C'
p3499
I1
sS'YNR041C'
p3500
I1
sS'YDR444W'
p3501
I0
sS'YGR127W'
p3502
I1
sS'YDR414C'
p3503
I1
sS'YNL259C'
p3504
I2
sS'YOR337W'
p3505
I1
sS'YMR010W'
p3506
I2
sS'YKL219W'
p3507
I0
sS'YOR097C'
p3508
I2
sS'YCR024CB'
p3509
I23
sS'YHR118C'
p3510
I1
sS'YPR094W'
p3511
I2
sS'YMR034C'
p3512
I1
sS'YNL099C'
p3513
I1
sS'YGR048W'
p3514
I3
sS'YJR015W'
p3515
I1
sS'YGR024C'
p3516
I3
sS'YOL023W'
p3517
I0
sS'YPL253C'
p3518
I1
sS'YMR222C'
p3519
I1
sS'YHR051W'
p3520
I3
sS'YHL003C'
p3521
I3
sS'YER154W'
p3522
I2
sS'YOR371C'
p3523
I1
sS'YBR208C'
p3524
I1
sS'YEL036C'
p3525
I2
sS'YBR260C'
p3526
I3
sS'YHR010W'
p3527
I82
sS'YCL034W'
p3528
I4
sS'YJR104C'
p3529
I36
sS'YGR197C'
p3530
I0
sS'YPL124W'
p3531
I1
sS'YIL024C'
p3532
I0
sS'YLR056W'
p3533
I13
sS'YLR304C'
p3534
I12
sS'YOR357C'
p3535
I1
sS'YNL069C'
p3536
I99
sS'YIL071C'
p3537
I1
sS'YNL286W'
p3538
I1
sS'YDR001C'
p3539
I2
sS'YIL162W'
p3540
I2
sS'YNR061C'
p3541
I5
sS'YGR080W'
p3542
I1
sS'YOR037W'
p3543
I1
sS'YBL011W'
p3544
I2
sS'YBR195C'
p3545
I1
sS'YDR183W'
p3546
I0
sS'YGL222C'
p3547
I1
sS'YDR138W'
p3548
I1
sS'YHR129C'
p3549
I1
sS'YOR317W'
p3550
I2
sS'YEL016C'
p3551
I1
sS'YGR033C'
p3552
I1
sS'YJL110C'
p3553
I1
sS'YGL049C'
p3554
I2
sS'YML130C'
p3555
I3
sS'YOL078W'
p3556
I1
sS'YLR328W'
p3557
I3
sS'YPL271W'
p3558
I5
sS'YNL246W'
p3559
I1
sS'YNL291C'
p3560
I1
sS'YGR046W'
p3561
I1
sS'YDR384C'
p3562
I3
sS'YLR039C'
p3563
I2
sS'YNL097C'
p3564
I1
sS'YOL017W'
p3565
I1
sS'YJL206C'
p3566
I1
sS'YDR481C'
p3567
I5
sS'YER014W'
p3568
I1
sS'YMR171C'
p3569
I2
sS'YPR041W'
p3570
I7
sS'YMR190C'
p3571
I1
sS'YER172C'
p3572
I1
sS'YCR019W'
p3573
I1
sS'YNL180C'
p3574
I1
sS'YMR211W'
p3575
I1
sS'YNL213C'
p3576
I1
sS'YOR185C'
p3577
I2
sS'YOR244W'
p3578
I1
sS'YEL003W'
p3579
I4
sS'YDR503C'
p3580
I0
sS'YGL037C'
p3581
I8
sS'YBR058C'
p3582
I2
sS'YPL244C'
p3583
I1
sS'YDR492W'
p3584
I1
sS'YLR024C'
p3585
I1
sS'YLR411W'
p3586
I1
sS'YLR071C'
p3587
I1
sS'YGR240C'
p3588
I20
sS'YEL058W'
p3589
I2
sS'YMR259C'
p3590
I2
sS'YKL024C'
p3591
I7
sS'YMR148W'
p3592
I0
sS'YDL199C'
p3593
I1
sS'YHL007C'
p3594
I1
sS'YOR145C'
p3595
I3
sS'YPL043W'
p3596
I4
sS'YPR052C'
p3597
I10
sS'YPR025C'
p3598
I1
sS'YBR087W'
p3599
I1
sS'YLR006C'
p3600
I1
sS'YDR330W'
p3601
I1
sS'YER149C'
p3602
I1
sS'YBL037W'
p3603
I2
sS'YER114C'
p3604
I2
sS'YOR375C'
p3605
I11
sS'YPR190C'
p3606
I2
sS'YOR215C'
p3607
I1
sS'YOR306C'
p3608
I1
sS'YHR107C'
p3609
I4
sS'YAR002W'
p3610
I2
sS'YHR127W'
p3611
I2
sS'YOR153W'
p3612
I31
sS'YGL175C'
p3613
I1
sS'YOR262W'
p3614
I1
sS'YDL048C'
p3615
I0
sS'YDL064W'
p3616
I3
sS'YEL056W'
p3617
I1
sS'YMR257C'
p3618
I1
sS'YDR026C'
p3619
I1
sS'YMR272C'
p3620
I1
sS'YLR209C'
p3621
I1
sS'YLR066W'
p3622
I3
sS'YBR047W'
p3623
I0
sS'YDR514C'
p3624
I1
sS'YDL103C'
p3625
I3
sS'YDL113C'
p3626
I1
sS'YMR125W'
p3627
I2
sS'YOR202W'
p3628
I3
sS'YDR033W'
p3629
I25
sS'YLL062C'
p3630
I1
sS'YMR286W'
p3631
I2
sS'YHL014C'
p3632
I0
sS'YJR008W'
p3633
I0
sS'YPL219W'
p3634
I0
sS'YPL262W'
p3635
I5
sS'YGR006W'
p3636
I0
sS'YMR002W'
p3637
I9
sS'YGR079W'
p3638
I1
sS'YDL189W'
p3639
I1
sS'YDL119C'
p3640
I1
sS'YJL003W'
p3641
I1
sS'YPL020C'
p3642
I1
sS'YBL069W'
p3643
I1
sS'YER045C'
p3644
I0
sS'YKL151C'
p3645
I2
sS'YMR028W'
p3646
I1
sS'YNL040W'
p3647
I1
sS'YOR284W'
p3648
I1
sS'YKL104C'
p3649
I3
sS'YOR163W'
p3650
I2
sS'YLR422W'
p3651
I2
sS'YLR093C'
p3652
I2
sS'YNR075W'
p3653
I1
sS'YJL103C'
p3654
I0
sS'YKR051W'
p3655
I0
sS'YNL042W'
p3656
I0
sS'YJR030C'
p3657
I2
sS'YNL063W'
p3658
I1
sS'YKR093W'
p3659
I4
sS'YNL308C'
p3660
I3
sS'YMR030W'
p3661
I0
sS'YPR074C'
p3662
I20
sS'YOR022C'
p3663
I1
sS'YOR198C'
p3664
I9
sS'YHR058C'
p3665
I1
sS'YER074WA'
p3666
I5
sS'YJR049C'
p3667
I2
sS'YPR112C'
p3668
I3
sS'YHR038W'
p3669
I1
sS'YMR287C'
p3670
I1
sS'YKR019C'
p3671
I1
sS'YOR324C'
p3672
I2
sS'YPR169W'
p3673
I2
sS'YLR175W'
p3674
I13
sS'YPL174C'
p3675
I0
sS'YGR279C'
p3676
I15
sS'YOR172W'
p3677
I1
sS'YML114C'
p3678
I1
sS'YDR064W'
p3679
I107
sS'YMR275C'
p3680
I0
sS'YGL240W'
p3681
I1
sS'YCR073C'
p3682
I1
sS'YML067C'
p3683
I2
sS'YER052C'
p3684
I3
sS'YNL260C'
p3685
I1
sS'YOL098C'
p3686
I3
sS'YMR202W'
p3687
I11
sS'YJL074C'
p3688
I1
sS'YER003C'
p3689
I6
sS'YHR104W'
p3690
I2
sS'YPL115C'
p3691
I1
sS'YKR077W'
p3692
I0
sS'YNL006W'
p3693
I2
sS'YOR058C'
p3694
I1
sS'YCL057W'
p3695
I4
sS'YKR017C'
p3696
I1
sS'YLR413W'
p3697
I6
sS'YBR072W'
p3698
I2
sS'YBR005W'
p3699
I0
sS'YBR029C'
p3700
I3
sS'YMR262W'
p3701
I2
sS'YDR273W'
p3702
I0
sS'YPR063C'
p3703
I3
sS'YLR153C'
p3704
I10
sS'YEL063C'
p3705
I3
sS'YBL076C'
p3706
I16
sS'YMR113W'
p3707
I1
sS'YFR006W'
p3708
I2
sS'YGL134W'
p3709
I1
sS'YNL021W'
p3710
I1
sS'YLR128W'
p3711
I0
sS'YKR068C'
p3712
I2
sS'YOR099W'
p3713
I5
sS'YML021C'
p3714
I1
sS'YGL021W'
p3715
I1
sS'YPR032W'
p3716
I2
sS'YER158C'
p3717
I1
sS'YDL173W'
p3718
I1
sS'YNL245C'
p3719
I0
sS'YBR143C'
p3720
I13
sS'YDR086C'
p3721
I18
sS'YMR006C'
p3722
I2
sS'YOR346W'
p3723
I1
sS'YJR130C'
p3724
I1
sS'YPL072W'
p3725
I1
sS'YAL016W'
p3726
I2
sS'YLL015W'
p3727
I3
sS'YHR167W'
p3728
I0
sS'YJL134W'
p3729
I2
sS'YJR006W'
p3730
I1
sS'YKL146W'
p3731
I2
sS'YDR171W'
p3732
I1
sS'YML051W'
p3733
I2
sS'YJR039W'
p3734
I0
sS'YKL080W'
p3735
I9
sS'YPL152W'
p3736
I1
sS'YLR183C'
p3737
I1
sS'YKL186C'
p3738
I2
sS'YPL064C'
p3739
I2
sS'YHR070W'
p3740
I2
sS'YNR013C'
p3741
I2
sS'YMR311C'
p3742
I3
sS'YJL026W'
p3743
I13
sS'YIL146C'
p3744
I1
sS'YBR172C'
p3745
I2
sS'YIR022W'
p3746
I4
sS'YJL172W'
p3747
I4
sS'YKL019W'
p3748
I2
sS'YBL078C'
p3749
I1
sS'YLR173W'
p3750
I1
sS'YNL222W'
p3751
I2
sS'YGR095C'
p3752
I1
sS'YMR163C'
p3753
I1
sS'YPL086C'
p3754
I1
sS'YPR010CA'
p3755
I1
sS'YFR039C'
p3756
I1
sS'YKR042W'
p3757
I21
sS'YGR208W'
p3758
I2
sS'YPL092W'
p3759
I1
sS'YER007CA'
p3760
I4
sS'YPL029W'
p3761
I1
sS'YBR236C'
p3762
I2
sS'YDL091C'
p3763
I0
sS'YDL142C'
p3764
I1
sS'YJL088W'
p3765
I0
sS'YMR066W'
p3766
I0
sS'YHR198C'
p3767
I2
sS'YMR019W'
p3768
I0
sS'YGL196W'
p3769
I2
sS'YMR023C'
p3770
I1
sS'YJL129C'
p3771
I1
sS'YGR041W'
p3772
I3
sS'YHR158C'
p3773
I2
sS'YJL209W'
p3774
I1
sS'YDR264C'
p3775
I4
sS'YKL039W'
p3776
I3
sS'YCL037C'
p3777
I6
sS'YKL064W'
p3778
I1
sS'YLR265C'
p3779
I1
sS'YKR022C'
p3780
I2
sS'YNL035C'
p3781
I1
sS'YMR026C'
p3782
I2
sS'YJL165C'
p3783
I1
sS'YOL052CA'
p3784
I1
sS'YPL061W'
p3785
I40
sS'YLR370C'
p3786
I3
sS'YNL177C'
p3787
I2
sS'YKL162C'
p3788
I1
sS'YOR114W'
p3789
I0
sS'YMR297W'
p3790
I7
sS'YPR134W'
p3791
I1
sS'YLR250W'
p3792
I3
sS'YAL034C'
p3793
I1
sS'YKL122C'
p3794
I3
sS'YOR070C'
p3795
I0
sS'YAL043C'
p3796
I1
sS'YOL093W'
p3797
I1
sS'YIL078W'
p3798
I17
sS'YOL042W'
p3799
I1
sS'YDR054C'
p3800
I4
sS'YHR146W'
p3801
I3
sS'YPL125W'
p3802
I3
sS'YIL070C'
p3803
I1
sS'YCL049C'
p3804
I0
sS'YHL020C'
p3805
I2
sS'YIL009W'
p3806
I2
sS'YDR289C'
p3807
I2
sS'YFR042W'
p3808
I1
sS'YHR076W'
p3809
I1
sS'YOR066W'
p3810
I0
sS'YOR063W'
p3811
I149
sS'YOL140W'
p3812
I1
sS'YJL039C'
p3813
I2
sS'YOR036W'
p3814
I1
sS'YBL016W'
p3815
I1
sS'YML131W'
p3816
I1
sS'YGR032W'
p3817
I0
sS'YDL107W'
p3818
I1
sS'YLR170C'
p3819
I1
sS'YGL040C'
p3820
I5
sS'YNL292W'
p3821
I1
sS'YLR305C'
p3822
I1
sS'YIL137C'
p3823
I1
sS'YBR194W'
p3824
I1
sS'YGR179C'
p3825
I2
sS'YOR354C'
p3826
I2
sS'YOL108C'
p3827
I1
sS'YJL092W'
p3828
I1
sS'YIL039W'
p3829
I3
sS'YMR316W'
p3830
I1
sS'YER070W'
p3831
I6
sS'YIL038C'
p3832
I1
sS'YGR027C'
p3833
I113
sS'YNL148C'
p3834
I0
sS'YIL138C'
p3835
I4
sS'YDR066C'
p3836
I1
sS'YJR127C'
p3837
I2
sS'YGL223C'
p3838
I1
sS'YIL143C'
p3839
I2
sS'YGR092W'
p3840
I1
sS'YKR030W'
p3841
I2
sS'YFR008W'
p3842
I0
sS'YKL002W'
p3843
I2
sS'YDR328C'
p3844
I6
sS'YLR247C'
p3845
I1
sS'YOR038C'
p3846
I1
sS'YOR014W'
p3847
I4
sS'YOR057W'
p3848
I3
sS'YIR009W'
p3849
I1
sS'YDR513W'
p3850
I7
sS'YLR390W'
p3851
I3
sS'YAL041W'
p3852
I1
sS'YLR345W'
p3853
I1
sS'YKL073W'
p3854
I3
sS'YGR103W'
p3855
I6
sS'YNL130C'
p3856
I5
sS'YPL141C'
p3857
I2
sS'YHR151C'
p3858
I1
sS'YDR311W'
p3859
I1
sS'YIL041W'
p3860
I7
sS'YDR472W'
p3861
I1
sS'YGR057C'
p3862
I1
sS'YNL155W'
p3863
I2
sS'YNL100W'
p3864
I0
sS'YPR171W'
p3865
I1
sS'YBR154C'
p3866
I4
sS'YOR292C'
p3867
I1
sS'YGL150C'
p3868
I1
sS'YGL143C'
p3869
I1
sS'YLR001C'
p3870
I1
sS'YLR126C'
p3871
I2
sS'YMR318C'
p3872
I7
sS'YGR181W'
p3873
I6
sS'YBR062C'
p3874
I2
sS'YHR108W'
p3875
I3
sS'YGR125W'
p3876
I2
sS'YDL067C'
p3877
I3
sS'YLR109W'
p3878
I108
sS'YGL176C'
p3879
I0
sS'YHR009C'
p3880
I3
sS'YDR135C'
p3881
I4
sS'YAR003W'
p3882
I1
sS'YBL030C'
p3883
I12
sS'YMR256C'
p3884
I4
sS'YPL229W'
p3885
I1
sS'YMR236W'
p3886
I3
sS'YOR127W'
p3887
I1
sS'YER148W'
p3888
I2
sS'YGL242C'
p3889
I4
sS'YHL015W'
p3890
I94
sS'YEL048C'
p3891
I1
sS'YOR303W'
p3892
I2
sS'YIL087C'
p3893
I1
sS'YER048WA'
p3894
I3
sS'YLL054C'
p3895
I1
sS'YLR443W'
p3896
I0
sS'YDR235W'
p3897
I1
sS'YDR313C'
p3898
I1
sS'YNR024W'
p3899
I1
sS'YMR192W'
p3900
I2
sS'YNL218W'
p3901
I0
sS'YOR104W'
p3902
I1
sS'YML074C'
p3903
I6
sS'YOR141C'
p3904
I3
sS'YER073W'
p3905
I6
sS'YER038C'
p3906
I1
sS'YLL038C'
p3907
I1
sS'YBR046C'
p3908
I1
sS'YOR056C'
p3909
I2
sS'YDR013W'
p3910
I0
sS'YDR003W'
p3911
I1
sS'YPR125W'
p3912
I1
sS'YNR040W'
p3913
I0
sS'YOR086C'
p3914
I4
sS'YIL067C'
p3915
I1
sS'YNL051W'
p3916
I1
sS'YOR270C'
p3917
I8
sS'YHR020W'
p3918
I13
sS'YLL006W'
p3919
I2
sS'YGL252C'
p3920
I1
sS'YOL033W'
p3921
I1
sS'YBR201W'
p3922
I1
sS'YBL004W'
p3923
I5
sS'YLL043W'
p3924
I1
sS'YDR415C'
p3925
I1
sS'YGL161C'
p3926
I4
sS'YER182W'
p3927
I1
sS'YIR026C'
p3928
I1
sS'YOL133W'
p3929
I2
sS'YBR037C'
p3930
I1
sS'YGL179C'
p3931
I0
sS'YGL058W'
p3932
I3
sS'YAL023C'
p3933
I5
sS'YPR009W'
p3934
I2
sS'YLR139C'
p3935
I1
sS'YNL263C'
p3936
I3
sS'YML027W'
p3937
I1
sS'YKR099W'
p3938
I0
sS'YOR096W'
p3939
I74
sS'YPR115W'
p3940
I1
sS'YDR128W'
p3941
I1
sS'YGR132C'
p3942
I3
sS'YLR410W'
p3943
I2
sS'YDR228C'
p3944
I1
sS'YER004W'
p3945
I2
sS'YOR144C'
p3946
I1
sS'YER028C'
p3947
I0
sS'YMR052W'
p3948
I0
sS'YCR072C'
p3949
I1
sS'YKR016W'
p3950
I1
sS'YMR158W'
p3951
I2
sS'YLR114C'
p3952
I1
sS'YJL161W'
p3953
I0
sS'YLL036C'
p3954
I2
sS'YCR023C'
p3955
I1
sS'YDR519W'
p3956
I3
sS'YGR278W'
p3957
I1
sS'YDL029W'
p3958
I8
sS'YKR076W'
p3959
I1
sS'YDR069C'
p3960
I0
sS'YBL057C'
p3961
I1
sS'YFR037C'
p3962
I3
sS'YBR073W'
p3963
I1
sS'YLR034C'
p3964
I2
sS'YMR122WA'
p3965
I22
sS'YDR419W'
p3966
I1
sS'YOR042W'
p3967
I2
sS'YEL064C'
p3968
I0
sS'YMR263W'
p3969
I1
sS'YDR270W'
p3970
I0
sS'YDR458C'
p3971
I1
sS'YLR152C'
p3972
I1
sS'YBR004C'
p3973
I1
sS'YDL121C'
p3974
I2
sS'YMR299C'
p3975
I0
sS'YPR033C'
p3976
I10
sS'YBR211C'
p3977
I1
sS'YPL134C'
p3978
I1
sS'YGR230W'
p3979
I2
sS'YBL079W'
p3980
I2
sS'YPR120C'
p3981
I1
sS'YPR062W'
p3982
I5
sS'YBL041W'
p3983
I6
sS'YMR097C'
p3984
I0
sS'YDR528W'
p3985
I2
sS'YDL058W'
p3986
I3
sS'YPR065W'
p3987
I2
sS'YPR056W'
p3988
I0
sS'YGR232W'
p3989
I1
sS'YLR399C'
p3990
I5
sS'YMR172W'
p3991
I1
sS'YNL214W'
p3992
I1
sS'YDL185W'
p3993
I19
sS'YLR403W'
p3994
I1
sS'YBR268W'
p3995
I2
sS'YPR180W'
p3996
I0
sS'YEL013W'
p3997
I3
sS'YDL007W'
p3998
I6
sS'YPR083W'
p3999
I0
sS'YNL094W'
p4000
I1
sS'YPR040W'
p4001
I2
sS'YKL047W'
p4002
I0
sS'YDR480W'
p4003
I1
sS'YML004C'
p4004
I3
sS'YMR210W'
p4005
I1
sS'YBR138C'
p4006
I1
sS'YBR256C'
p4007
I2
sS'YOR289W'
p4008
I0
sS'YPL227C'
p4009
I3
sS'YLR023C'
p4010
I2
sS'YMR024W'
p4011
I1
sS'YLL009C'
p4012
I2
sS'YBR059C'
p4013
I2
sS'YML019W'
p4014
I1
sS'YPR024W'
p4015
I2
sS'YDR493W'
p4016
I2
sS'YMR129W'
p4017
I0
sS'YLR163C'
p4018
I1
sS'YGR172C'
p4019
I2
sS'YPL247C'
p4020
I1
sS'YMR258C'
p4021
I0
sS'YJL207C'
p4022
I1
sS'YBR060C'
p4023
I1
sS'YDR103W'
p4024
I1
sS'YLR072W'
p4025
I1
sS'YER060W'
p4026
I1
sS'YPL159C'
p4027
I1
sS'YOR181W'
p4028
I1
sS'YIR023W'
p4029
I0
sS'YOL109W'
p4030
I61
sS'YDL092W'
p4031
I3
sS'YKR043C'
p4032
I6
sS'YPL084W'
p4033
I2
sS'YLR166C'
p4034
I1
sS'YMR067C'
p4035
I1
sS'YJL011C'
p4036
I1
sS'YDL143W'
p4037
I6
sS'YKL138C'
p4038
I3
sS'YDL208W'
p4039
I8
sS'YNL056W'
p4040
I2
sS'YPL093W'
p4041
I7
sS'YPL028W'
p4042
I11
sS'YFL001W'
p4043
I1
sS'YKL025C'
p4044
I1
sS'YIL135C'
p4045
I1
sS'YGL206C'
p4046
I8
sS'YPL188W'
p4047
I1
sS'YMR027W'
p4048
I3
sS'YPL173W'
p4049
I1
sS'YNL132W'
p4050
I3
sS'YKL125W'
p4051
I1
sS'YLR264W'
p4052
I34
sS'YKL170W'
p4053
I0
sS'YKR023W'
p4054
I0
sS'YNL036W'
p4055
I3
sS'YOR115C'
p4056
I2
sS'YKL038W'
p4057
I1
sS'YPR157W'
p4058
I1
sS'YJR025C'
p4059
I4
sS'YMR296C'
p4060
I5
sS'YDR267C'
p4061
I0
sS'YLR286C'
p4062
I16
sS'YGR246C'
p4063
I1
sS'YJL208C'
p4064
I1
sS'YLR384C'
p4065
I5
sS'YPL060W'
p4066
I2
sS'YPL071C'
p4067
I0
sS'YOR304CA'
p4068
I1
sS'YPR019W'
p4069
I1
sS'YML099C'
p4070
I1
sS'YOR162C'
p4071
I0
sS'YLR421C'
p4072
I3
sS'YMR145C'
p4073
I5
sS'YDR161W'
p4074
I4
sS'YMR110C'
p4075
I1
sS'YDR376W'
p4076
I2
sS'YAR002CA'
p4077
I5
sS'YJR064W'
p4078
I9
sS'YMR098C'
p4079
I1
sS'YDR496C'
p4080
I3
sS'YOR285W'
p4081
I9
sS'YHR077C'
p4082
I1
sS'YJL002C'
p4083
I7
sS'YML022W'
p4084
I9
sS'YGL081W'
p4085
I1
sS'YNL159C'
p4086
I1
sS'YER046W'
p4087
I1
sS'YKL096WA'
p4088
I49
sS'YLR288C'
p4089
I1
sS'YPR159W'
p4090
I3
sS'YIR030C'
p4091
I1
sS'YDR074W'
p4092
I2
sS'YKR050W'
p4093
I0
sS'YAL035W'
p4094
I8
sS'YHR059W'
p4095
I2
sS'YPR075C'
p4096
I3
sS'YBR013C'
p4097
I1
sS'YGL137W'
p4098
I8
sS'YDR375C'
p4099
I1
sS'YML053C'
p4100
I1
sS'YPL011C'
p4101
I1
sS'YGL017W'
p4102
I1
sS'YKR018C'
p4103
I2
sS'YNL309W'
p4104
I0
sS'YLL033W'
p4105
I1
sS'YDL150W'
p4106
I1
sS'YOR171C'
p4107
I1
sS'YPR111W'
p4108
I1
sS'YHR084W'
p4109
I2
sS'YNL038W'
p4110
I2
sS'YKL003C'
p4111
I3
sS'YAL053W'
p4112
I3
sS'YNL149C'
p4113
I6
sS'YGL095C'
p4114
I1
sS'YOL007C'
p4115
I2
sS'YBR188C'
p4116
I1
sS'YCR024CA'
p4117
I56
sS'YIL139C'
p4118
I1
sS'YLR246W'
p4119
I0
sS'YJR119C'
p4120
I0
sS'YJR120W'
p4121
I2
sS'YIL079C'
p4122
I1
sS'YLR199C'
p4123
I2
sS'YGR133W'
p4124
I2
sS'YIL142W'
p4125
I6
sS'YFR025C'
p4126
I3
sS'YIR006C'
p4127
I3
sS'YOR017W'
p4128
I2
sS'YMR199W'
p4129
I1
sS'YJL140W'
p4130
I4
sS'YDR473C'
p4131
I1
sS'YCR028CA'
p4132
I6
sS'YNL009W'
p4133
I0
sS'YLR393W'
p4134
I1
sS'YHR002W'
p4135
I1
sS'YPL146C'
p4136
I1
sS'YKL072W'
p4137
I1
sS'YPL139C'
p4138
I1
sS'YNL138W'
p4139
I5
sS'YNL154C'
p4140
I2
sS'YPR098C'
p4141
I1
sS'YNL001W'
p4142
I3
sS'YNR009W'
p4143
I2
sS'YJL080C'
p4144
I9
sS'YIL046W'
p4145
I1
sS'YGR174C'
p4146
I1
sS'YGL142C'
p4147
I1
sS'YJR068W'
p4148
I2
sS'YNL101W'
p4149
I2
sS'YHR150W'
p4150
I0
sS'YJR086W'
p4151
I3
sS'YDR081C'
p4152
I1
sS'YJL137C'
p4153
I1
sS'YDR383C'
p4154
I1
sS'YNL176C'
p4155
I1
sS'YDL072C'
p4156
I5
sS'YBR139W'
p4157
I2
sS'YBR233WA'
p4158
I2
sS'YKL149C'
p4159
I1
sS'YIR015W'
p4160
I1
sS'YJR150C'
p4161
I0
sS'YBR189W'
p4162
I91
sS'YGL202W'
p4163
I7
sS'YMR061W'
p4164
I1
sS'YHR085W'
p4165
I1
sS'YHR188C'
p4166
I4
sS'YBR052C'
p4167
I5
sS'YER122C'
p4168
I4
sS'YFL023W'
p4169
I0
sS'YBL058W'
p4170
I4
sS'YLR360W'
p4171
I1
sS'YHR164C'
p4172
I1
sS'YNL116W'
p4173
I1
sS'YDR092W'
p4174
I3
sS'YBR216C'
p4175
I1
sS'YPL108W'
p4176
I1
sS'YDR361C'
p4177
I1
sS'YPL164C'
p4178
I0
sS'YBR171W'
p4179
I2
sS'YNL005C'
p4180
I1
sS'YER173W'
p4181
I1
sS'YNL088W'
p4182
I3
sS'YMR274C'
p4183
I0
sS'YLR226W'
p4184
I1
sS'YNL070W'
p4185
I4
sS'YOR120W'
p4186
I1
sS'YCR043C'
p4187
I4
sS'YDR482C'
p4188
I1
sS'YGR153W'
p4189
I1
sS'YOL032W'
p4190
I1
sS'YML063W'
p4191
I87
sS'YGR271CA'
p4192
I2
sS'YHR027C'
p4193
I6
sS'YMR185W'
p4194
I0
sS'YBR082C'
p4195
I13
sS'YFR007W'
p4196
I0
sS'YNL293W'
p4197
I1
sS'YKR090W'
p4198
I2
sS'YLR333C'
p4199
I46
sS'YKL084W'
p4200
I2
sS'YOL075C'
p4201
I2
sS'YOR273C'
p4202
I2
sS'YBR200W'
p4203
I1
sS'YDR240C'
p4204
I0
sS'YAR028W'
p4205
I2
sS'YBR239C'
p4206
I1
sS'YML107C'
p4207
I1
sS'YDR034C'
p4208
I1
sS'YGL077C'
p4209
I3
sS'YGR168C'
p4210
I1
sS'YDL193W'
p4211
I2
sS'YOR131C'
p4212
I2
sS'YKR098C'
p4213
I1
sS'YOL069W'
p4214
I1
sS'YPR072W'
p4215
I2
sS'YDR412W'
p4216
I2
sS'YGL160W'
p4217
I1
sS'YOL011W'
p4218
I1
sS'YNL133C'
p4219
I0
sS'YLR359W'
p4220
I6
sS'YOR091W'
p4221
I5
sS'YKR101W'
p4222
I0
sS'YGR026W'
p4223
I3
sS'YNL129W'
p4224
I2
sS'YML125C'
p4225
I6
sS'YAL040C'
p4226
I1
sS'YGL071W'
p4227
I1
sS'YDR288W'
p4228
I1
sS'YGL208W'
p4229
I0
sS'YNL233W'
p4230
I1
sS'YNL284C'
p4231
I2
sS'YFR041C'
p4232
I1
sS'YLR363WA'
p4233
I2
sS'YOR355W'
p4234
I4
sS'YOR028C'
p4235
I1
sS'YPL111W'
p4236
I4
sS'YPL106C'
p4237
I32
sS'YGR031W'
p4238
I0
sS'YOL143C'
p4239
I8
sS'YKL180W'
p4240
I69
sS'YIL006W'
p4241
I0
sS'YOL043C'
p4242
I1
sS'YOR308C'
p4243
I1
sS'YBR237W'
p4244
I1
sS'YIL026C'
p4245
I1
sS'YGL151W'
p4246
I2
sS'YBR197C'
p4247
I1
sS'YCL057CA'
p4248
I4
sS'YHR147C'
p4249
I3
sS'YJR091C'
p4250
I2
sS'YOR080W'
p4251
I0
sS'YJL204C'
p4252
I0
sS'YOL020W'
p4253
I1
sS'YJL093C'
p4254
I1
sS'YPL126W'
p4255
I3
sS'YBR086C'
p4256
I3
sS'YNL244C'
p4257
I18
sS'YNR027W'
p4258
I1
sS'YMR117C'
p4259
I1
sS'YAL024C'
p4260
I1
sS'YJR125C'
p4261
I1
sS'YJR142W'
p4262
I1
sS'YFL026W'
p4263
I11
sS'YER115C'
p4264
I2
sS'YJL197W'
p4265
I1
sS'YMR213W'
p4266
I1
sS'YPL199C'
p4267
I2
sS'YOR251C'
p4268
I2
sS'YPR181C'
p4269
I7
sS'YCL008C'
p4270
I2
sS'YEL006W'
p4271
I1
sS'YOL141W'
p4272
I0
sS'YNL095C'
p4273
I0
sS'YNL215W'
p4274
I1
sS'YDR529C'
p4275
I4
sS'YGR044C'
p4276
I2
sS'YER103W'
p4277
I1
sS'YGR076C'
p4278
I2
sS'YLR090W'
p4279
I2
sS'YMR223W'
p4280
I0
sS'YDL006W'
p4281
I1
sS'YFR032CA'
p4282
I90
sS'YJL012C'
p4283
I13
sS'YPR043W'
p4284
I91
sS'YDR382W'
p4285
I90
sS'YDR524CB'
p4286
I89
sS'YDR483W'
p4287
I6
sS'YLL008W'
p4288
I2
sS'YOR219C'
p4289
I1
sS'YDR505C'
p4290
I2
sS'YKL206C'
p4291
I2
sS'YER061C'
p4292
I0
sS'YLR135W'
p4293
I0
sS'YMR300C'
p4294
I4
sS'YER088C'
p4295
I1
sS'YLR022C'
p4296
I0
sS'YGR068C'
p4297
I1
sS'YDL237W'
p4298
I3
sS'YPL246C'
p4299
I4
sS'YLR257W'
p4300
I3
sS'YPL226W'
p4301
I4
sS'YDR397C'
p4302
I3
sS'YLR073C'
p4303
I1
sS'YLR375W'
p4304
I2
sS'YGL039W'
p4305
I2
sS'YNR004W'
p4306
I0
sS'YER183C'
p4307
I2
sS'YML018C'
p4308
I1
sS'YEL001C'
p4309
I5
sS'YHR090C'
p4310
I1
sS'YOL021C'
p4311
I2
sS'YHR030C'
p4312
I1
sS'YDR443C'
p4313
I1
sS'YBR295W'
p4314
I1
sS'YMR235C'
p4315
I4
sS'YHR109W'
p4316
I1
sS'YKL018W'
p4317
I2
sS'YIL011W'
p4318
I1
sS'YEL034W'
p4319
I77
sS'YOR039W'
p4320
I4
sS'YNR050C'
p4321
I3
sS'YLR019W'
p4322
I2
sS'YHR082C'
p4323
I2
sS'YKR100C'
p4324
I3
sS'YKL208W'
p4325
I0
sS'YJL079C'
p4326
I1
sS'YDR391C'
p4327
I1
sS'YGR180C'
p4328
I17
sS'YOR260W'
p4329
I5
sS'YGL101W'
p4330
I0
sS'YPL260W'
p4331
I2
sS'YIL084C'
p4332
I1
sS'YAL003W'
p4333
I97
sS'YPR144C'
p4334
I1
sS'YOR362C'
p4335
I4
sS'YKR095WA'
p4336
I2
sS'YOR302W'
p4337
I1
sS'YNL271C'
p4338
I3
sS'YCR048W'
p4339
I2
sS'YLR419W'
p4340
I2
sS'YGL048C'
p4341
I6
sS'YOR083W'
p4342
I0
sS'YOR228C'
p4343
I1
sS'YMR193W'
p4344
I2
sS'YCR053W'
p4345
I10
sS'YOR380W'
p4346
I0
sS'YPR143W'
p4347
I2
sS'YMR111C'
p4348
I1
sS'YDR129C'
p4349
I5
sS'YGL019W'
p4350
I3
sS'YLR091W'
p4351
I1
sS'YNL330C'
p4352
I2
sS'YER047C'
p4353
I1
sS'YOR138C'
p4354
I0
sS'YKL008C'
p4355
I3
sS'YPR029C'
p4356
I3
sS'YMR144W'
p4357
I1
sS'YCR066W'
p4358
I1
sS'YBR105C'
p4359
I1
sS'YJL034W'
p4360
I13
sS'YLR420W'
p4361
I1
sS'YJR067C'
p4362
I1
sS'YOR252W'
p4363
I2
sS'YPR158W'
p4364
I2
sS'YBR091C'
p4365
I2
sS'YDR075W'
p4366
I0
sS'YLR177W'
p4367
I1
sS'YFL048C'
p4368
I2
sS'YLR117C'
p4369
I1
sS'YGR220C'
p4370
I4
sS'YBR014C'
p4371
I2
sS'YML052W'
p4372
I4
sS'YPL012W'
p4373
I2
sS'YLR299W'
p4374
I1
sS'YOR176W'
p4375
I3
sS'YHR187W'
p4376
I1
sS'YOR109W'
p4377
I2
sS'YNL172W'
p4378
I0
sS'YGR275W'
p4379
I3
sS'YMR071C'
p4380
I2
sS'YOR286W'
p4381
I4
sS'YBL089W'
p4382
I1
sS'YPR110C'
p4383
I9
sS'YGL016W'
p4384
I2
sS'YDL216C'
p4385
I1
sS'YPL059W'
p4386
I5
sS'YMR120C'
p4387
I6
sS'YBL046W'
p4388
I0
sS'YOR143C'
p4389
I1
sS'YER029C'
p4390
I2
sS'YDR119W'
p4391
I3
sS'YGR102C'
p4392
I2
sS'YKL141W'
p4393
I3
sS'YER005W'
p4394
I1
sS'YGL116W'
p4395
I1
sS'YKR075C'
p4396
I1
sS'YPL034W'
p4397
I1
sS'YDL105W'
p4398
I1
sS'YDL028C'
p4399
I1
sS'YJL023C'
p4400
I1
sS'YER050C'
p4401
I3
sS'YCR008W'
p4402
I2
sS'YBL104C'
p4403
I1
sS'YMR102C'
p4404
I1
sS'YMR200W'
p4405
I4
sS'YER093C'
p4406
I1
sS'YLR119W'
p4407
I1
sS'YDR175C'
p4408
I2
sS'YLR082C'
p4409
I1
sS'YMR229C'
p4410
I9
sS'YPR034W'
p4411
I2
sS'YMR159C'
p4412
I0
sS'YOR189W'
p4413
I2
sS'YFL042C'
p4414
I1
sS'YOR154W'
p4415
I1
sS'YGR233C'
p4416
I3
sS'YMR264W'
p4417
I4
sS'YGL136C'
p4418
I1
sS'YJR066W'
p4419
I1
sS'YDR508C'
p4420
I6
sS'YPR018W'
p4421
I0
sS'YGL139W'
p4422
I1
sS'YLR065C'
p4423
I3
sS'YPR061C'
p4424
I1
sS'YOR280C'
p4425
I2
sS'YMR086W'
p4426
I1
sS'YGR007W'
p4427
I3
sS'YNL315C'
p4428
I2
sS'YER018C'
p4429
I2
sS'YOR299W'
p4430
I1
sS'YDR224C'
p4431
I21
sS'YMR189W'
p4432
I5
sS'YJR045C'
p4433
I25
sS'YHR189W'
p4434
I1
sS'YLR385C'
p4435
I1
sS'YDL002C'
p4436
I3
sS'YOR020WA'
p4437
I0
sS'YMR004W'
p4438
I1
sS'YMR008C'
p4439
I2
sS'YJL136C'
p4440
I70
sS'YPL116W'
p4441
I2
sS'YDR140W'
p4442
I0
sS'YJL117W'
p4443
I5
sS'YJL076W'
p4444
I5
sS'YKL062W'
p4445
I1
sS'YLR238W'
p4446
I1
sS'YDR080W'
p4447
I1
sS'YLR218C'
p4448
I0
sS'YHR016C'
p4449
I2
sS'YBR114W'
p4450
I2
sS'YNL054W'
p4451
I1
sS'YNR043W'
p4452
I3
sS'YHR165C'
p4453
I2
sS'YJL218W'
p4454
I1
sS'YNL075W'
p4455
I3
sS'YKL028W'
p4456
I2
sS'YLR222C'
p4457
I3
sS'YLR221C'
p4458
I3
sS'YDR093W'
p4459
I2
sS'YMR282C'
p4460
I1
sS'YIL109C'
p4461
I4
sS'YGR210C'
p4462
I2
sS'YMR016C'
p4463
I2
sS'YIR014W'
p4464
I0
sS'YPL070W'
p4465
I1
sS'YLR361C'
p4466
I2
sS'YOR085W'
p4467
I2
sS'YDR362C'
p4468
I1
sS'YGL159W'
p4469
I1
sS'YKL053CA'
p4470
I2
sS'YPL109C'
p4471
I0
sS'YOL101C'
p4472
I1
sS'YJL156C'
p4473
I1
sS'YNL253W'
p4474
I1
sS'YNL115C'
p4475
I1
sS'YNL071W'
p4476
I8
sS'YOR094W'
p4477
I0
sS'YMR064W'
p4478
I2
sS'YKL166C'
p4479
I3
sS'YMR088C'
p4480
I1
sS'YGR211W'
p4481
I3
sS'YJL174W'
p4482
I5
sS'YDL093W'
p4483
I1
sS'YJL069C'
p4484
I1
sS'YFL017C'
p4485
I2
sS'YLR168C'
p4486
I1
sS'YLR298C'
p4487
I1
sS'YFL027C'
p4488
I1
sS'YPL078C'
p4489
I4
sS'YJL118W'
p4490
I1
sS'YIR002C'
p4491
I1
sS'YHR042W'
p4492
I4
sS'YHR179W'
p4493
I15
sS'YPR137W'
p4494
I3
sS'YJL016W'
p4495
I1
sS'YGL001C'
p4496
I6
sS'YJR058C'
p4497
I1
sS'YDR464W'
p4498
I1
sS'YKL144C'
p4499
I1
sS'YMR291W'
p4500
I2
sS'YER087W'
p4501
I1
sS'YNR034WA'
p4502
I1
sS'YDR359C'
p4503
I2
sS'YKL124W'
p4504
I1
sS'YLR267W'
p4505
I0
sS'YNL026W'
p4506
I1
sS'YDL219W'
p4507
I3
sS'YPL038W'
p4508
I1
sS'YDR363WA'
p4509
I8
sS'YOR136W'
p4510
I7
sS'YPL204W'
p4511
I2
sS'YGL194C'
p4512
I0
sS'YPL172C'
p4513
I0
sS'YJL056C'
p4514
I1
sS'YKL091C'
p4515
I1
sS'YOR116C'
p4516
I3
sS'YGL195W'
p4517
I11
sS'YLR207W'
p4518
I1
sS'YNL037C'
p4519
I7
sS'YFL013C'
p4520
I1
sS'YPL063W'
p4521
I4
sS'YKL140W'
p4522
I1
sS'YFR040W'
p4523
I1
sS'YPL107W'
p4524
I1
sS'YIL107C'
p4525
I0
sS'YOL142W'
p4526
I1
sS'YLL018CA'
p4527
I0
sS'YGL209W'
p4528
I1
sS'YNL229C'
p4529
I2
sS'YOR326W'
p4530
I4
sS'YDR405W'
p4531
I0
sS'YIL007C'
p4532
I0
sS'YHR047C'
p4533
I2
sS'YGR055W'
p4534
I5
sS'YCL031C'
p4535
I3
sS'YIL027C'
p4536
I1
sS'YKR025W'
p4537
I1
sS'YPL127C'
p4538
I2
sS'YIL009CA'
p4539
I1
sS'YNL243W'
p4540
I3
sS'YGR152C'
p4541
I1
sS'YNL025C'
p4542
I1
sS'YJL090C'
p4543
I1
sS'YJR061W'
p4544
I0
sS'YNR026C'
p4545
I2
sS'YHL044W'
p4546
I0
sS'YPL144W'
p4547
I2
sS'YGL059W'
p4548
I1
sS'YHR140W'
p4549
I1
sS'YDR002W'
p4550
I14
sS'YJR092W'
p4551
I2
sS'YOR311C'
p4552
I3
sS'YGR030C'
p4553
I1
sS'YAL025C'
p4554
I1
sS'YOR034C'
p4555
I1
sS'YDR046C'
p4556
I2
sS'YDR305C'
p4557
I1
sS'YBR126C'
p4558
I4
sS'YOL164W'
p4559
I1
sS'YNL039W'
p4560
I2
sS'YHR068W'
p4561
I9
sS'YGR149W'
p4562
I1
sS'YJL057C'
p4563
I1
sS'YJL177W'
p4564
I35
sS'YGR130C'
p4565
I1
sS'YOR368W'
p4566
I1
sS'YPL041C'
p4567
I1
sS'YJR118C'
p4568
I2
sS'YOR016C'
p4569
I1
sS'YJR121W'
p4570
I15
sS'YGR165W'
p4571
I1
sS'YBR238C'
p4572
I2
sS'YOR344C'
p4573
I2
sS'YER166W'
p4574
I3
sS'YNL139C'
p4575
I2
sS'YBR254C'
p4576
I2
sS'YOR234C'
p4577
I30
sS'YIL047C'
p4578
I2
sS'YLR245C'
p4579
I2
sS'YKL193C'
p4580
I1
sS'YNL153C'
p4581
I3
sS'YNL320W'
p4582
I1
sS'YJL083W'
p4583
I0
sS'YCL056C'
p4584
I1
sS'YGR101W'
p4585
I1
sS'YLR310C'
p4586
I3
sS'YOR060C'
p4587
I1
sS'YLR287C'
p4588
I2
sS'YPL138C'
p4589
I1
sS'YMR224C'
p4590
I1
sS'YER155C'
p4591
I4
sS'YKL075C'
p4592
I0
sS'YNL287W'
p4593
I7
sS'YLR392C'
p4594
I1
sS'YDL235C'
p4595
I3
sS'YPL147W'
p4596
I1
sS'YOR125C'
p4597
I2
sS'YOL077C'
p4598
I6
sS'YDR137W'
p4599
I1
sS'YDR497C'
p4600
I4
sS'YDR085C'
p4601
I0
sS'YKL209C'
p4602
I3
sS'YBR084W'
p4603
I6
sS'YLR003C'
p4604
I1
sS'YGR049W'
p4605
I1
sS'YLR441C'
p4606
I56
sS'YLL011W'
p4607
I3
sS'YCL011C'
p4608
I4
sS'YNR051C'
p4609
I3
sS'YCR017C'
p4610
I4
sS'YJR085C'
p4611
I3
sS'YHL002W'
p4612
I1
sS'YNL081C'
p4613
I3
sS'YCL016C'
p4614
I1
sS'YER180CA'
p4615
I2
sS'YPL267W'
p4616
I1
sS'YOR229W'
p4617
I2
sS'YDR338C'
p4618
I1
sS'YPR198W'
p4619
I0
sS'YEL024W'
p4620
I2
sS'YHL017W'
p4621
I2
sS'YOR383C'
p4622
I8
sS'YOR194C'
p4623
I3
sS'YOR305W'
p4624
I1
sS'YLR378C'
p4625
I8
sS'YER086W'
p4626
I6
sS'YPL123C'
p4627
I1
sS'YGR005C'
p4628
I2
sS'YBL032W'
p4629
I3
sS'YML111W'
p4630
I1
sS'YLR325C'
p4631
I90
sS'YHL034C'
p4632
I11
sS'YHR032W'
p4633
I2
sS'YPL135W'
p4634
I2
sS'YCR052W'
p4635
I3
sS'YNL294C'
p4636
I1
sS'YLR332W'
p4637
I2
sS'YKL067W'
p4638
I6
sS'YBR272C'
p4639
I1
sS'YLR327C'
p4640
I2
sS'YDR298C'
p4641
I4
sS'YDR011W'
p4642
I6
sS'YIL061C'
p4643
I1
sS'YBL009W'
p4644
I0
sS'YOR272W'
p4645
I4
sS'YNR046W'
p4646
I4
sS'YOL059W'
p4647
I5
sS'YPR097W'
p4648
I2
sS'YBR287W'
p4649
I1
sS'YML100W'
p4650
I2
sS'YGL068W'
p4651
I4
sS'YOL151W'
p4652
I3
sS'YHR131C'
p4653
I1
sS'YKL213C'
p4654
I1
sS'YHR026W'
p4655
I6
sS'YNL002C'
p4656
I4
sS'YOR275C'
p4657
I1
sS'YOL039W'
p4658
I74
sS'YOR026W'
p4659
I1
sS'YOR358W'
p4660
I1
sS'YCL032W'
p4661
I0
sS'YNL238W'
p4662
I2
sS'YBR271W'
p4663
I0
sS'YNL254C'
p4664
I1
sS'YJL198W'
p4665
I2
sS'YPL207W'
p4666
I1
sS'YDR197W'
p4667
I1
sS'YPL250C'
p4668
I1
sS'YNL289W'
p4669
I2
sS'YOL135C'
p4670
I0
sS'YOR323C'
p4671
I6
sS'YLL041C'
p4672
I1
sS'YML106W'
p4673
I12
sS'YKR074W'
p4674
I3
sS'YCL054W'
p4675
I1
sS'YOR195W'
p4676
I1
sS'YPR070W'
p4677
I1
sS'YLR118C'
p4678
I2
sS'YER006W'
p4679
I4
sS'YLR084C'
p4680
I1
sS'YKL106W'
p4681
I1
sS'YMR201C'
p4682
I1
sS'YPR068C'
p4683
I0
sS'YMR105C'
p4684
I2
sS'YPR051W'
p4685
I1
sS'YLR069C'
p4686
I1
sS'YML042W'
p4687
I0
sS'YOR142W'
p4688
I8
sS'YOR196C'
p4689
I2
sS'YKR060W'
p4690
I1
sS'YPL228W'
p4691
I2
sS'YOL110W'
p4692
I1
sS'YKR048C'
p4693
I6
sS'YGL119W'
p4694
I0
sS'YLR150W'
p4695
I61
sS'YLR036C'
p4696
I1
sS'YEL046C'
p4697
I11
sS'YBL055C'
p4698
I1
sS'YPR035W'
p4699
I14
sS'YOR188W'
p4700
I2
sS'YNL314W'
p4701
I1
sS'YLL018C'
p4702
I9
sS'YOL114C'
p4703
I0
sS'YDR227W'
p4704
I1
sS'YPR060C'
p4705
I3
sS'YML008C'
p4706
I10
sS'YPL013C'
p4707
I1
sS'YDL054C'
p4708
I1
sS'YMR037C'
p4709
I2
sS'YCL061C'
p4710
I1
sS'YDR174W'
p4711
I5
sS'YLR100W'
p4712
I7
sS'YOR160W'
p4713
I2
sS'YMR265C'
p4714
I1
sS'YML073C'
p4715
I63
sS'YMR087W'
p4716
I1
sS'YOR157C'
p4717
I3
sS'YOR155C'
p4718
I1
sS'YNL236W'
p4719
I1
sS'YOR250C'
p4720
I1
sS'YOR205C'
p4721
I0
sS'YBR230WA'
p4722
I1
sS'YBR044C'
p4723
I1
sS'YGR221C'
p4724
I1
sS'YJR105W'
p4725
I13
sS'YCL009C'
p4726
I10
sS'YLL022C'
p4727
I1
sS'YER159C'
p4728
I1
sS'YDL005C'
p4729
I2
sS'YGL212W'
p4730
I1
sS'YHR113W'
p4731
I1
sS'YMR212C'
p4732
I2
sS'YNL237W'
p4733
I1
sS'YNL313C'
p4734
I1
sS'YPR182W'
p4735
I4
sS'YJL196C'
p4736
I6
sS'YDR247W'
p4737
I0
sS'YNL092W'
p4738
I0
sS'YGL054C'
p4739
I6
sS'YNL055C'
p4740
I22
sS'YGL025C'
p4741
I1
sS'YNL230C'
p4742
I0
sS'YLR021W'
p4743
I1
sS'YOR054C'
p4744
I1
sS'YLR058C'
p4745
I15
sS'YOR247W'
p4746
I6
sS'YNL068C'
p4747
I1
sS'YGR243W'
p4748
I0
sS'YDR058C'
p4749
I1
sS'YGL038C'
p4750
I2
sS'YLR074C'
p4751
I2
sS'YNL216W'
p4752
I1
sS'YMR203W'
p4753
I4
sS'YLR405W'
p4754
I1
sS'YGL133W'
p4755
I1
sS'YPL225W'
p4756
I11
sS'YPL270W'
p4757
I2
sS'YHR091C'
p4758
I1
sS'YDL012C'
p4759
I2
sS'YPL249C'
p4760
I1
sS'YJL024C'
p4761
I3
sS'YPR148C'
p4762
I4
sS'YKR024C'
p4763
I1
sS'YEL019C'
p4764
I2
sS'YBR015C'
p4765
I3
sS'YER031C'
p4766
I3
sS'YDL109C'
p4767
I0
sS'YMR089C'
p4768
I4
sS'YGL187C'
p4769
I4
sS'YIR021W'
p4770
I1
sS'YDL066W'
p4771
I12
sS'YLL013C'
p4772
I2
sS'YLR430W'
p4773
I1
sS'YOR108W'
p4774
I4
sS'YDR466W'
p4775
I0
sS'YJL068C'
p4776
I0
sS'YKL112W'
p4777
I1
sS'YKR041W'
p4778
I0
sS'YOR237W'
p4779
I0
sS'YKL108W'
p4780
I1
sS'YHR046C'
p4781
I1
sS'YDR156W'
p4782
I3
sS'YMR130W'
p4783
I1
sS'YPR155C'
p4784
I1
sS'YML095C'
p4785
I1
sS'YOR117W'
p4786
I5
sS'YOR137C'
p4787
I1
sS'YNL049C'
p4788
I2
sS'YMR025W'
p4789
I1
sS'YGL156W'
p4790
I0
sS'YKL172W'
p4791
I3
sS'YPR172W'
p4792
I2
sS'YMR290C'
p4793
I3
sS'YLR423C'
p4794
I1
sS'YDL141W'
p4795
I2
sS'YDR205W'
p4796
I1
sS'YJR059W'
p4797
I1
sS'YPR100W'
p4798
I3
sS'YLR266C'
p4799
I1
sS'YLR206W'
p4800
I4
sS'YPR139C'
p4801
I2
sS'YLR284C'
p4802
I1
sS'YDR358W'
p4803
I0
sS'YDR076W'
p4804
I0
sS'YFR028C'
p4805
I2
sS'YKL101W'
p4806
I2
sS'YPR028W'
p4807
I9
sS'YNL185C'
p4808
I3
sS'YLR096W'
p4809
I1
sS'YJL059W'
p4810
I1
sS'YJL035C'
p4811
I1
sS'YPR133WA'
p4812
I10
sS'YKR052C'
p4813
I1
sS'YMR047C'
p4814
I3
sS'YMR147W'
p4815
I0
sS'YPR107C'
p4816
I1
sS'YLR427W'
p4817
I0
sS'YCR089W'
p4818
I0
sS'YOR287C'
p4819
I2
sS'YBL088C'
p4820
I1
sS'YPR117W'
p4821
I0
sS'YHR086W'
p4822
I1
sS'YGR274C'
p4823
I1
sS'YIL021W'
p4824
I2
sS'YNL163C'
p4825
I2
sS'YBL059CA'
p4826
I2
sS'YML088W'
p4827
I1
sS'YGR078C'
p4828
I3
sS'YPR175W'
p4829
I0
sS'YHL031C'
p4830
I1
sS'YLR116W'
p4831
I1
sS'YER008C'
p4832
I1
sS'YJL081C'
p4833
I2
sS'YMR127C'
p4834
I0
sS'YDL225W'
p4835
I2
sS'YLR440C'
p4836
I1
sS'YHR083W'
p4837
I4
sS'YDL135C'
p4838
I4
sS'YHR072WA'
p4839
I12
sS'YLR192C'
p4840
I8
s.