(dp1
S'YBR177C'
p2
I4
sS'YIL140W'
p3
I1
sS'YLR268W'
p4
I10
sS'YLR197W'
p5
I53
sS'YAL008W'
p6
I3
sS'YNR028W'
p7
I11
sS'YJL122W'
p8
I21
sS'YNL300W'
p9
I13
sS'YLR244C'
p10
I19
sS'YPL144W'
p11
I7
sS'YJR084W'
p12
I3
sS'YBR135W'
p13
I8
sS'YDR172W'
p14
I18
sS'YBR160W'
p15
I5
sS'YHR007C'
p16
I23
sS'YIR004W'
p17
I8
sS'YKL190W'
p18
I21
sS'YLR395C'
p19
I17
sS'YLR348C'
p20
I22
sS'YBR248C'
p21
I18
sS'YNR067C'
p22
I9
sS'YKL063C'
p23
I13
sS'YFL045C'
p24
I78
sS'YFL010C'
p25
I22
sS'YIL124W'
p26
I12
sS'YJR044C'
p27
I7
sS'YMR009W'
p28
I6
sS'YJL179W'
p29
I12
sS'YKL183W'
p30
I3
sS'YLR362W'
p31
I2
sS'YNL163C'
p32
I5
sS'YBR273C'
p33
I5
sS'YFR005C'
p34
I5
sS'YHR009C'
p35
I8
sS'YFR050C'
p36
I15
sS'YLR447C'
p37
I35
sS'YIL062C'
p38
I33
sS'YDR016C'
p39
I13
sS'YOL129W'
p40
I20
sS'YDR299W'
p41
I7
sS'YML129C'
p42
I14
sS'YDR196C'
p43
I6
sS'YBR202W'
p44
I4
sS'YNL239W'
p45
I8
sS'YDR410C'
p46
I9
sS'YNL255C'
p47
I76
sS'YGR020C'
p48
I34
sS'YML105C'
p49
I14
sS'YNL288W'
p50
I3
sS'YIL091C'
p51
I10
sS'YOR322C'
p52
I6
sS'YNL103W'
p53
I7
sS'YAL046C'
p54
I5
sS'YIL004C'
p55
I9
sS'YNR018W'
p56
I16
sS'YKL059C'
p57
I4
sS'YCR034W'
p58
I18
sS'YFR047C'
p59
I10
sS'YGR100W'
p60
I4
sS'YNL147W'
p61
I20
sS'YOR002W'
p62
I7
sS'YML127W'
p63
I5
sS'YDR404C'
p64
I14
sS'YLR188W'
p65
I9
sS'YGR084C'
p66
I6
sS'YFR018C'
p67
I6
sS'YDR399W'
p68
I33
sS'YLR355C'
p69
I99
sS'YGL157W'
p70
I5
sS'YJR007W'
p71
I21
sS'YOL090W'
p72
I5
sS'YLR300W'
p73
I16
sS'YNL145W'
p74
I36
sS'YJL091C'
p75
I4
sS'YGR146C'
p76
I4
sS'YNR021W'
p77
I22
sS'YDR380W'
p78
I3
sS'YGL100W'
p79
I12
sS'YBR094W'
p80
I6
sS'YHR112C'
p81
I3
sS'YDR035W'
p82
I18
sS'YIL044C'
p83
I12
sS'YPL239W'
p84
I15
sS'YPR183W'
p85
I12
sS'YOR206W'
p86
I16
sS'YDL073W'
p87
I5
sS'YDL004W'
p88
I22
sS'YCR046C'
p89
I11
sS'YLR059C'
p90
I5
sS'YLR075W'
p91
I608
sS'YLR020C'
p92
I7
sS'YNL217W'
p93
I14
sS'YPL271W'
p94
I31
sS'YBR096W'
p95
I8
sS'YDR531W'
p96
I12
sS'YMR233W'
p97
I7
sS'YPL206C'
p98
I6
sS'YDL060W'
p99
I6
sS'YLR002C'
p100
I2
sS'YGL171W'
p101
I14
sS'YGL215W'
p102
I5
sS'YNR052C'
p103
I2
sS'YGR019W'
p104
I5
sS'YHR032W'
p105
I3
sS'YOL076W'
p106
I4
sS'YER145C'
p107
I28
sS'YER110C'
p108
I12
sS'YHR123W'
p109
I6
sS'YNL208W'
p110
I26
sS'YKL074C'
p111
I4
sS'YPL266W'
p112
I15
sS'YOR304W'
p113
I8
sS'YBR296C'
p114
I1
sS'YER169W'
p115
I1
sS'YOL016C'
p116
I15
sS'YOR226C'
p117
I17
sS'YMR191W'
p118
I12
sS'YBR080C'
p119
I6
sS'YPR176C'
p120
I9
sS'YMR146C'
p121
I42
sS'YDR226W'
p122
I92
sS'YMR266W'
p123
I10
sS'YKL100C'
p124
I6
sS'YBR192W'
p125
I8
sS'YBR016W'
p126
I9
sS'YER009W'
p127
I95
sS'YBR036C'
p128
I6
sS'YLR292C'
p129
I15
sS'YOR288C'
p130
I3
sS'YOR198C'
p131
I28
sS'YLR115W'
p132
I2
sS'YHR089C'
p133
I51
sS'YGL014W'
p134
I4
sS'YLR068W'
p135
I17
sS'YMR258C'
p136
I5
sS'YGL114W'
p137
I4
sS'YER027C'
p138
I5
sS'YER167W'
p139
I2
sS'YGL044C'
p140
I6
sS'YKR088C'
p141
I15
sS'YPL237W'
p142
I80
sS'YNL199C'
p143
I12
sS'YOR196C'
p144
I7
sS'YMR246W'
p145
I21
sS'YEL047C'
p146
I8
sS'YPR036W'
p147
I30
sS'YPR016C'
p148
I34
sS'YGR235C'
p149
I6
sS'YDR068W'
p150
I10
sS'YDL055C'
p151
I111
sS'YDR177W'
p152
I15
sS'YML009C'
p153
I15
sS'YHR052W'
p154
I20
sS'YKR026C'
p155
I19
sS'YKL019W'
p156
I4
sS'YJL130C'
p157
I11
sS'YJR126C'
p158
I8
sS'YKL060C'
p159
I1015
sS'YBL085W'
p160
I2
sS'YGR200C'
p161
I9
sS'YBR056W'
p162
I7
sS'YKL035W'
p163
I15
sS'YIL127C'
p164
I17
sS'YLR388W'
p165
I174
sS'YKL182W'
p166
I13
sS'YDR333C'
p167
I8
sS'YLR223C'
p168
I1
sS'YIR012W'
p169
I17
sS'YLR363C'
p170
I4
sS'YJL014W'
p171
I20
sS'YDR219C'
p172
I4
sS'YCR011C'
p173
I8
sS'YNL055C'
p174
I44
sS'YJR005W'
p175
I6
sS'YMR031C'
p176
I3
sS'YBL098W'
p177
I2
sS'YKL113C'
p178
I12
sS'YER030W'
p179
I27
sS'YFL002C'
p180
I6
sS'YDR155C'
p181
I237
sS'YPR149W'
p182
I27
sS'YIR026C'
p183
I5
sS'YJR072C'
p184
I11
sS'YPL087W'
p185
I5
sS'YNL015W'
p186
I7
sS'YDR302W'
p187
I10
sS'YDL166C'
p188
I22
sS'YOR118W'
p189
I5
sS'YMR022W'
p190
I21
sS'YPL170W'
p191
I5
sS'YDL117W'
p192
I5
sS'YDR204W'
p193
I9
sS'YKL122C'
p194
I33
sS'YNL048W'
p195
I4
sS'YAL038W'
p196
I513
sS'YIL105C'
p197
I4
sS'YNL119W'
p198
I5
sS'YML126C'
p199
I17
sS'YDR347W'
p200
I7
sS'YGR158C'
p201
I7
sS'YKL077W'
p202
I10
sS'YPL050C'
p203
I14
sS'YOL119C'
p204
I2
sS'YBR158W'
p205
I11
sS'YPL105C'
p206
I7
sS'YHR121W'
p207
I14
sS'YOL097C'
p208
I24
sS'YJL096W'
p209
I8
sS'YGR145W'
p210
I9
sS'YLR354C'
p211
I51
sS'YGL245W'
p212
I42
sS'YNR020C'
p213
I6
sS'YLR301W'
p214
I39
sS'YAL007C'
p215
I27
sS'YHR142W'
p216
I10
sS'YPL129W'
p217
I24
sS'YNL241C'
p218
I13
sS'YJL154C'
p219
I3
sS'YDR091C'
p220
I5
sS'YJL123C'
p221
I14
sS'YLR196W'
p222
I15
sS'YER086W'
p223
I13
sS'YIL147C'
p224
I5
sS'YBR129C'
p225
I6
sS'YDL160C'
p226
I1
sS'YJR123W'
p227
I449
sS'YGR167W'
p228
I38
sS'YDR054C'
p229
I3
sS'YKL099C'
p230
I14
sS'YJL143W'
p231
I22
sS'YNL002C'
p232
I48
sS'YHR060W'
p233
I17
sS'YNL104C'
p234
I13
sS'YPL145C'
p235
I12
sS'YIL118W'
p236
I14
sS'YNL151C'
p237
I14
sS'YKL191W'
p238
I3
sS'YKL052C'
p239
I3
sS'YHR006W'
p240
I7
sS'YOL111C'
p241
I8
sS'YKL021C'
p242
I12
sS'YHR025W'
p243
I29
sS'YDR217C'
p244
I4
sS'YBL018C'
p245
I12
sS'YEL031W'
p246
I10
sS'YNR053C'
p247
I17
sS'YDL063C'
p248
I8
sS'YOL039W'
p249
I338
sS'YGR185C'
p250
I35
sS'YJL189W'
p251
I812
sS'YER168C'
p252
I6
sS'YPL265W'
p253
I14
sS'YIL083C'
p254
I5
sS'YEL026W'
p255
I107
sS'YLL050C'
p256
I118
sS'YBR290W'
p257
I7
sS'YML113W'
p258
I2
sS'YDR021W'
p259
I5
sS'YHL011C'
p260
I19
sS'YPL212C'
p261
I9
sS'YLR208W'
p262
I28
sS'YPL023C'
p263
I6
sS'YHR008C'
p264
I4
sS'YPR095C'
p265
I1
sS'YOR310C'
p266
I39
sS'YOR063W'
p267
I563
sS'YDR188W'
p268
I12
sS'YOL057W'
p269
I6
sS'YFR004W'
p270
I19
sS'YHR133C'
p271
I20
sS'YDR017C'
p272
I5
sS'YOL080C'
p273
I5
sS'YOR369C'
p274
I887
sS'YOR025W'
p275
I7
sS'YDR411C'
p276
I7
sS'YBR283C'
p277
I19
sS'YIL090W'
p278
I8
sS'YBR205W'
p279
I13
sS'YGL070C'
p280
I12
sS'YDR195W'
p281
I3
sS'YNL256W'
p282
I4
sS'YMR278W'
p283
I4
sS'YGR072W'
p284
I6
sS'YPR094W'
p285
I7
sS'YML015C'
p286
I4
sS'YOR197W'
p287
I11
sS'YDL014W'
p288
I64
sS'YGL084C'
p289
I7
sS'YBL107C'
p290
I5
sS'YDR116C'
p291
I7
sS'YLR325C'
p292
I501
sS'YPL234C'
p293
I41
sS'YLR090W'
p294
I3
sS'YDL056W'
p295
I5
sS'YOR209C'
p296
I17
sS'YMR178W'
p297
I6
sS'YGL115W'
p298
I16
sS'YML102W'
p299
I9
sS'YEL044W'
p300
I12
sS'YDR395W'
p301
I9
sS'YBR077C'
p302
I12
sS'YDR176W'
p303
I5
sS'YER120W'
p304
I47
sS'YNL090W'
p305
I11
sS'YBR042C'
p306
I5
sS'YOL062C'
p307
I10
sS'YDR381W'
p308
I39
sS'YOR307C'
p309
I6
sS'YDR484W'
p310
I4
sS'YJL194W'
p311
I3
sS'YMR225C'
p312
I5
sS'YOR370C'
p313
I10
sS'YBR095C'
p314
I3
sS'YHR111W'
p315
I6
sS'YBL045C'
p316
I7
sS'YDR036C'
p317
I9
sS'YOR224C'
p318
I33
sS'YDL070W'
p319
I13
sS'YCR047C'
p320
I9
sS'YNL261W'
p321
I6
sS'YER064C'
p322
I12
sS'YOR241W'
p323
I7
sS'YOL002C'
p324
I8
sS'YLR056W'
p325
I38
sS'YKL205W'
p326
I4
sS'YLR407W'
p327
I6
sS'YBR088C'
p328
I24
sS'YBR055C'
p329
I5
sS'YOR175C'
p330
I9
sS'YFL005W'
p331
I25
sS'YKL110C'
p332
I10
sS'YMR125W'
p333
I4
sS'YKR038C'
p334
I8
sS'YGL028C'
p335
I5
sS'YMR029C'
p336
I7
sS'YLR204W'
p337
I5
sS'YML097C'
p338
I6
sS'YJL055W'
p339
I15
sS'YHR193C'
p340
I162
sS'YMR292W'
p341
I12
sS'YBL099W'
p342
I26
sS'YDR303C'
p343
I4
sS'YPL086C'
p344
I14
sS'YDL116W'
p345
I4
sS'YPL184C'
p346
I8
sS'YLR435W'
p347
I15
sS'YOR119C'
p348
I9
sS'YER042W'
p349
I8
sS'YLR409C'
p350
I8
sS'YOR157C'
p351
I27
sS'YCL045C'
p352
I3
sS'YKR065C'
p353
I16
sS'YLR078C'
p354
I14
sS'YMR267W'
p355
I4
sS'YLR109W'
p356
I439
sS'YER043C'
p357
I32
sS'YDR232W'
p358
I7
sS'YDR245W'
p359
I14
sS'YHR088W'
p360
I16
sS'YLR114C'
p361
I3
sS'YBR017C'
p362
I7
sS'YKR014C'
p363
I17
sS'YJR060W'
p364
I9
sS'YHR175W'
p365
I6
sS'YNL044W'
p366
I13
sS'YJL178C'
p367
I14
sS'YDL212W'
p368
I27
sS'YHR065C'
p369
I5
sS'YPL193W'
p370
I4
sS'YKL196C'
p371
I28
sS'YLR231C'
p372
I5
sS'YNL129W'
p373
I8
sS'YJR139C'
p374
I50
sS'YKL016C'
p375
I21
sS'YPL111W'
p376
I10
sS'YGL017W'
p377
I5
sS'YBR162C'
p378
I10
sS'YKL174C'
p379
I5
sS'YJR013W'
p380
I6
sS'YBR034C'
p381
I10
sS'YBR111C'
p382
I22
sS'YGL019W'
p383
I12
sS'YKL061W'
p384
I7
sS'YJR042W'
p385
I2
sS'YMR012W'
p386
I7
sS'YPL160W'
p387
I10
sS'YDR349C'
p388
I5
sS'YIR011C'
p389
I7
sS'YJR048W'
p390
I10
sS'YDR214W'
p391
I17
sS'YLR222C'
p392
I8
sS'YLR295C'
p393
I18
sS'YDL201W'
p394
I13
sS'YDR468C'
p395
I10
sS'YOL102C'
p396
I7
sS'YOR159C'
p397
I9
sS'YBR130C'
p398
I13
sS'YFR003C'
p399
I6
sS'YOR311C'
p400
I6
sS'YGR183C'
p401
I6
sS'YOL081W'
p402
I2
sS'YOL036W'
p403
I2
sS'YGR128C'
p404
I5
sS'YBR159W'
p405
I21
sS'YDR189W'
p406
I4
sS'YLR441C'
p407
I152
sS'YOL056W'
p408
I4
sS'YOR075W'
p409
I6
sS'YFR052W'
p410
I26
sS'YBR282W'
p411
I4
sS'YOR079C'
p412
I10
sS'YCL030C'
p413
I20
sS'YHR132C'
p414
I8
sS'YDR194C'
p415
I5
sS'YOL049W'
p416
I15
sS'YNL257C'
p417
I3
sS'YNR030W'
p418
I4
sS'YMR189W'
p419
I5
sS'YIL093C'
p420
I7
sS'YBR204C'
p421
I3
sS'YGR106C'
p422
I50
sS'YLR397C'
p423
I6
sS'YIL104C'
p424
I3
sS'YGL086W'
p425
I10
sS'YGR159C'
p426
I35
sS'YAL044C'
p427
I51
sS'YNL118C'
p428
I16
sS'YGL228W'
p429
I1
sS'YDR284C'
p430
I9
sS'YJR117W'
p431
I9
sS'YJL097W'
p432
I18
sS'YGR111W'
p433
I3
sS'YLR357W'
p434
I5
sS'YNL240C'
p435
I3
sS'YPR163C'
p436
I41
sS'YHR143W'
p437
I14
sS'YOL041C'
p438
I15
sS'YER127W'
p439
I11
sS'YHR069C'
p440
I10
sS'YER025W'
p441
I17
sS'YMR226C'
p442
I25
sS'YJL193W'
p443
I3
sS'YEL027W'
p444
I150
sS'YOL086C'
p445
I708
sS'YLR017W'
p446
I15
sS'YHR110W'
p447
I6
sS'YBR041W'
p448
I8
sS'YGR193C'
p449
I10
sS'YIL142W'
p450
I25
sS'YBR185C'
p451
I7
sS'YLR406C'
p452
I94
sS'YCR044C'
p453
I5
sS'YNL219C'
p454
I4
sS'YDR037W'
p455
I61
sS'YER178W'
p456
I51
sS'YLR057W'
p457
I6
sS'YBR137W'
p458
I16
sS'YOR320C'
p459
I4
sS'YMR231W'
p460
I3
sS'YOL070C'
p461
I7
sS'YLR452C'
p462
I5
sS'YDR130C'
p463
I4
sS'YIL015W'
p464
I12
sS'YGL173C'
p465
I9
sS'YOL038W'
p466
I28
sS'YAR015W'
p467
I28
sS'YML114C'
p468
I6
sS'YHR201C'
p469
I13
sS'YDR427W'
p470
I10
sS'YGR008C'
p471
I7
sS'YKL211C'
p472
I8
sS'YLR079W'
p473
I12
sS'YGL123W'
p474
I443
sS'YKR066C'
p475
I7
sS'YMR268C'
p476
I3
sS'YML070W'
p477
I7
sS'YBR074W'
p478
I5
sS'YGR191W'
p479
I4
sS'YOR150W'
p480
I9
sS'YDR055W'
p481
I8
sS'YBL061C'
p482
I7
sS'YAL003W'
p483
I210
sS'YPR072W'
p484
I4
sS'YMR108W'
p485
I27
sS'YLR401C'
p486
I11
sS'YDR244W'
p487
I3
sS'YDL088C'
p488
I8
sS'YJR063W'
p489
I13
sS'YLR113W'
p490
I15
sS'YDL157C'
p491
I29
sS'YDR233C'
p492
I39
sS'YJL184W'
p493
I13
sS'YDL040C'
p494
I11
sS'YDL015C'
p495
I21
sS'YCR059C'
p496
I6
sS'YML041C'
p497
I3
sS'YCR004C'
p498
I18
sS'YER078C'
p499
I3
sS'YER130C'
p500
I5
sS'YDR115W'
p501
I6
sS'YDL192W'
p502
I92
sS'YER165W'
p503
I53
sS'YML038C'
p504
I6
sS'YCL059C'
p505
I18
sS'YKR071C'
p506
I6
sS'YGL112C'
p507
I10
sS'YOR233W'
p508
I3
sS'YNL070W'
p509
I19
sS'YBR127C'
p510
I25
sS'YPL235W'
p511
I14
sS'YBL050W'
p512
I11
sS'YLR350W'
p513
I11
sS'YGR280C'
p514
I19
sS'YJR014W'
p515
I40
sS'YGL190C'
p516
I4
sS'YBR110W'
p517
I6
sS'YDR144C'
p518
I8
sS'YGR202C'
p519
I3
sS'YKL120W'
p520
I25
sS'YJR041C'
p521
I4
sS'YKL175W'
p522
I8
sS'YKR028W'
p523
I3
sS'YFL046W'
p524
I5
sS'YHR169W'
p525
I9
sS'YHR005C'
p526
I10
sS'YMR286W'
p527
I8
sS'YMR011W'
p528
I12
sS'YKL137W'
p529
I13
sS'YNL059C'
p530
I7
sS'YFL026W'
p531
I27
sS'YDL102W'
p532
I4
sS'YER092W'
p533
I14
sS'YIL121W'
p534
I9
sS'YLR214W'
p535
I17
sS'YMR149W'
p536
I12
sS'YIR010W'
p537
I6
sS'YDR331W'
p538
I3
sS'YOR293W'
p539
I144
sS'YML056C'
p540
I31
sS'YGL029W'
p541
I26
sS'YFL004W'
p542
I17
sS'YDL128W'
p543
I1
sS'YPL098C'
p544
I24
sS'YMR153W'
p545
I5
sS'YMR124W'
p546
I5
sS'YJR070C'
p547
I29
sS'YMR033W'
p548
I8
sS'YPR103W'
p549
I30
sS'YGR262C'
p550
I6
sS'YDL111C'
p551
I12
sS'YLR049C'
p552
I10
sS'YDR202C'
p553
I6
sS'YLR203C'
p554
I6
sS'YGR215W'
p555
I19
sS'YHR192W'
p556
I5
sS'YCR082W'
p557
I23
sS'YDR300C'
p558
I11
sS'YJL158C'
p559
I63
sS'YGL087C'
p560
I14
sS'YGR172C'
p561
I11
sS'YDR465C'
p562
I9
sS'YLR276C'
p563
I16
sS'YKL079W'
p564
I2
sS'YFR044C'
p565
I26
sS'YGR105W'
p566
I19
sS'YIL103W'
p567
I6
sS'YFR033C'
p568
I14
sS'YHR050W'
p569
I5
sS'YJL177W'
p570
I55
sS'YNR022C'
p571
I19
sS'YBR125C'
p572
I5
sS'YBR221C'
p573
I35
sS'YGR074W'
p574
I7
sS'YNL166C'
p575
I6
sS'YGL098W'
p576
I3
sS'YPL158C'
p577
I9
sS'YJL121C'
p578
I22
sS'YKL008C'
p579
I11
sS'YJL167W'
p580
I30
sS'YDL213C'
p581
I20
sS'YIL145C'
p582
I15
sS'YKL195W'
p583
I11
sS'YLR378C'
p584
I16
sS'YLR194C'
p585
I7
sS'YKL179C'
p586
I11
sS'YJR089W'
p587
I1
sS'YJL145W'
p588
I9
sS'YDR377W'
p589
I12
sS'YLR314C'
p590
I19
sS'YKL040C'
p591
I11
sS'YPR114W'
p592
I16
sS'YLR249W'
p593
I123
sS'YNL004W'
p594
I10
sS'YOR327C'
p595
I26
sS'YOR265W'
p596
I24
sS'YOL139C'
p597
I71
sS'YBR207W'
p598
I10
sS'YLR321C'
p599
I7
sS'YNR055C'
p600
I15
sS'YDL006W'
p601
I4
sS'YIL014W'
p602
I1
sS'YHR200W'
p603
I33
sS'YDR184C'
p604
I5
sS'YKL210W'
p605
I10
sS'YNL221C'
p606
I7
sS'YER146W'
p607
I21
sS'YNL085W'
p608
I8
sS'YGL061C'
p609
I6
sS'YDR394W'
p610
I14
sS'YPL210C'
p611
I10
sS'YAR014C'
p612
I8
sS'YOR087W'
p613
I4
sS'YGL234W'
p614
I28
sS'YOL082W'
p615
I4
sS'YAL029C'
p616
I5
sS'YDR452W'
p617
I9
sS'YOR103C'
p618
I14
sS'YMR301C'
p619
I5
sS'YLR336C'
p620
I5
sS'YFR002W'
p621
I11
sS'YHR135C'
p622
I13
sS'YOR027W'
p623
I20
sS'YMR188C'
p624
I7
sS'YNL131W'
p625
I20
sS'YOR243C'
p626
I14
sS'YER022W'
p627
I5
sS'YDR513W'
p628
I21
sS'YKR070W'
p629
I10
sS'YMR205C'
p630
I13
sS'YGL225W'
p631
I29
sS'YCR005C'
p632
I22
sS'YNL022C'
p633
I7
sS'YKR087C'
p634
I5
sS'YGL078C'
p635
I14
sS'YOR232W'
p636
I23
sS'YGR281W'
p637
I5
sS'YLR089C'
p638
I8
sS'YPR145W'
p639
I33
sS'YJL063C'
p640
I14
sS'YEL042W'
p641
I15
sS'YHL013C'
p642
I11
sS'YGR009C'
p643
I5
sS'YBL033C'
p644
I1
sS'YGL105W'
p645
I60
sS'YDL076C'
p646
I5
sS'YDR120C'
p647
I6
sS'YER126C'
p648
I19
sS'YMR227C'
p649
I4
sS'YDR486C'
p650
I8
sS'YJL192C'
p651
I15
sS'YHR117W'
p652
I8
sS'YPL221W'
p653
I5
sS'YBL047C'
p654
I6
sS'YNL293W'
p655
I3
sS'YEL051W'
p656
I44
sS'YLL023C'
p657
I3
sS'YGR041W'
p658
I2
sS'YLR009W'
p659
I48
sS'YAR027W'
p660
I7
sS'YFL007W'
p661
I4
sS'YDR063W'
p662
I14
sS'YPL099C'
p663
I5
sS'YCR012W'
p664
I619
sS'YGL026C'
p665
I20
sS'YDR201W'
p666
I10
sS'YPR128C'
p667
I4
sS'YKL156W'
p668
I134
sS'YMR310C'
p669
I6
sS'YNL010W'
p670
I43
sS'YDR354W'
p671
I9
sS'YMR134W'
p672
I8
sS'YJL053W'
p673
I3
sS'YPR104C'
p674
I5
sS'YGR214W'
p675
I102
sS'YCR083W'
p676
I7
sS'YOR151C'
p677
I9
sS'YML028W'
p678
I183
sS'YOR168W'
p679
I24
sS'YDR052C'
p680
I4
sS'YNL189W'
p681
I11
sS'YPR173C'
p682
I18
sS'YJL031C'
p683
I8
sS'YML077W'
p684
I13
sS'YER013W'
p685
I2
sS'YMR092C'
p686
I10
sS'YLR143W'
p687
I4
sS'YLR043C'
p688
I77
sS'YJL008C'
p689
I21
sS'YDL018C'
p690
I9
sS'YBR035C'
p691
I12
sS'YGL241W'
p692
I2
sS'YPR073C'
p693
I10
sS'YML035C'
p694
I5
sS'YLR050C'
p695
I8
sS'YDR424C'
p696
I20
sS'YGR270W'
p697
I11
sS'YNL167C'
p698
I3
sS'YGL008C'
p699
I54
sS'YKL009W'
p700
I30
sS'YNL307C'
p701
I9
sS'YBL068W'
p702
I11
sS'YJR057W'
p703
I8
sS'YGL011C'
p704
I34
sS'YIL133C'
p705
I152
sS'YHR063C'
p706
I10
sS'YLR248W'
p707
I8
sS'YGL211W'
p708
I11
sS'YMR093W'
p709
I10
sS'YPL059W'
p710
I20
sS'YPL195W'
p711
I6
sS'YNL107W'
p712
I9
sS'YDR352W'
p713
I9
sS'YNR003C'
p714
I7
sS'YDR376W'
p715
I7
sS'YAL059W'
p716
I10
sS'YNL007C'
p717
I19
sS'YKL096W'
p718
I9
sS'YJR137C'
p719
I2
sS'YDR397C'
p720
I21
sS'YDR129C'
p721
I12
sS'YMR021C'
p722
I5
sS'YJR040W'
p723
I7
sS'YPR119W'
p724
I5
sS'YMR074C'
p725
I21
sS'YDR378C'
p726
I32
sS'YNL069C'
p727
I214
sS'YKR029C'
p728
I4
sS'YGL191W'
p729
I19
sS'YJL104W'
p730
I17
sS'YPL019C'
p731
I24
sS'YJL168C'
p732
I3
sS'YDL174C'
p733
I7
sS'YER091C'
p734
I9
sS'YDL103C'
p735
I3
sS'YMR010W'
p736
I5
sS'YBR011C'
p737
I118
sS'YML082W'
p738
I5
sS'YDR057W'
p739
I3
sS'YKL130C'
p740
I2
sS'YNL021W'
p741
I3
sS'YFR001W'
p742
I22
sS'YBR220C'
p743
I8
sS'YPL131W'
p744
I370
sS'YIL115C'
p745
I7
sS'YKR013W'
p746
I12
sS'YGR095C'
p747
I9
sS'YBR278W'
p748
I9
sS'YHR029C'
p749
I8
sS'YPL091W'
p750
I9
sS'YAL033W'
p751
I7
sS'YGR155W'
p752
I21
sS'YMR300C'
p753
I24
sS'YFR049W'
p754
I5
sS'YNL130C'
p755
I8
sS'YNR036C'
p756
I18
sS'YLR342W'
p757
I6
sS'YLR335W'
p758
I10
sS'YOR020C'
p759
I91
sS'YBL028C'
p760
I33
sS'YBR164C'
p761
I23
sS'YJR088C'
p762
I9
sS'YHR074W'
p763
I7
sS'YJL217W'
p764
I19
sS'YLR399C'
p765
I7
sS'YGR277C'
p766
I2
sS'YOR006C'
p767
I6
sS'YDL155W'
p768
I3
sS'YBR244W'
p769
I33
sS'YPL053C'
p770
I11
sS'YLR351C'
p771
I15
sS'YOL094C'
p772
I4
sS'YHR018C'
p773
I17
sS'YDR408C'
p774
I18
sS'YPL100W'
p775
I4
sS'YOL149W'
p776
I9
sS'YLR257W'
p777
I25
sS'YGL202W'
p778
I34
sS'YOR046C'
p779
I27
sS'YNL141W'
p780
I16
sS'YBL026W'
p781
I21
sS'YMR220W'
p782
I11
sS'YPR187W'
p783
I60
sS'YEL018W'
p784
I4
sS'YDR121W'
p785
I8
sS'YER125W'
p786
I4
sS'YDR432W'
p787
I16
sS'YGR195W'
p788
I9
sS'YPL211W'
p789
I30
sS'YOL061W'
p790
I14
sS'YER152C'
p791
I10
sS'YLR015W'
p792
I6
sS'YLR008C'
p793
I8
sS'YLL022C'
p794
I7
sS'YMR079W'
p795
I12
sS'YOL005C'
p796
I28
sS'YOR039W'
p797
I14
sS'YNL081C'
p798
I7
sS'YHR016C'
p799
I5
sS'YPL202C'
p800
I7
sS'YGL224C'
p801
I5
sS'YNL268W'
p802
I15
sS'YDR527W'
p803
I10
sS'YOL123W'
p804
I5
sS'YGR065C'
p805
I4
sS'YNL084C'
p806
I12
sS'YGR055W'
p807
I14
sS'YLR179C'
p808
I39
sS'YCL011C'
p809
I30
sS'YHR207C'
p810
I7
sS'YOR051C'
p811
I12
sS'YNL220W'
p812
I39
sS'YGR060W'
p813
I25
sS'YCL064C'
p814
I27
sS'YER174C'
p815
I13
sS'YML029W'
p816
I2
sS'YDR151C'
p817
I8
sS'YNL313C'
p818
I10
sS'YCR048W'
p819
I5
sS'YCR033W'
p820
I6
sS'YMR091C'
p821
I15
sS'YER012W'
p822
I21
sS'YBL067C'
p823
I5
sS'YDL135C'
p824
I23
sS'YPR023C'
p825
I6
sS'YCR093W'
p826
I2
sS'YLR144C'
p827
I5
sS'YPR058W'
p828
I9
sS'YDL020C'
p829
I8
sS'YDR168W'
p830
I16
sS'YML061C'
p831
I9
sS'YJL186W'
p832
I4
sS'YER023W'
p833
I41
sS'YBR069C'
p834
I13
sS'YGL040C'
p835
I17
sS'YKR084C'
p836
I7
sS'YDR512C'
p837
I5
sS'YLL031C'
p838
I2
sS'YLR033W'
p839
I9
sS'YLR088W'
p840
I9
sS'YNL156C'
p841
I7
sS'YGL110C'
p842
I6
sS'YDL051W'
p843
I43
sS'YBL102W'
p844
I12
sS'YPR056W'
p845
I6
sS'YGR282C'
p846
I64
sS'YOR236W'
p847
I12
sS'YPL183C'
p848
I7
sS'YER107C'
p849
I7
sS'YPR118W'
p850
I25
sS'YGR204W'
p851
I11
sS'YJL005W'
p852
I1
sS'YJL050W'
p853
I12
sS'YER177W'
p854
I107
sS'YDR248C'
p855
I5
sS'YJR016C'
p856
I57
sS'YDL202W'
p857
I2
sS'YDL100C'
p858
I47
sS'YFL008W'
p859
I2
sS'YDR337W'
p860
I4
sS'YOR251C'
p861
I9
sS'YJL061W'
p862
I5
sS'YLR216C'
p863
I36
sS'YPR147C'
p864
I3
sS'YGR063C'
p865
I14
sS'YDR441C'
p866
I10
sS'YPL094C'
p867
I31
sS'YCR026C'
p868
I1
sS'YOR101W'
p869
I10
sS'YLR290C'
p870
I7
sS'YER090W'
p871
I16
sS'YIL123W'
p872
I10
sS'YPR161C'
p873
I4
sS'YKL117W'
p874
I52
sS'YNL193W'
p875
I1
sS'YDR062W'
p876
I14
sS'YML058W'
p877
I53
sS'YGL027C'
p878
I7
sS'YOR165W'
p879
I8
sS'YHR190W'
p880
I11
sS'YKL157W'
p881
I7
sS'YKR002W'
p882
I6
sS'YBR003W'
p883
I2
sS'YPR105C'
p884
I6
sS'YPR129W'
p885
I8
sS'YGR260W'
p886
I11
sS'YDL099W'
p887
I8
sS'YKL057C'
p888
I4
sS'YJL109C'
p889
I6
sS'YLR274W'
p890
I3
sS'YBR247C'
p891
I13
sS'YLR185W'
p892
I205
sS'YDR463W'
p893
I5
sS'YIL154C'
p894
I1
sS'YOR007C'
p895
I56
sS'YBR165W'
p896
I4
sS'YKL004W'
p897
I9
sS'YOL148C'
p898
I6
sS'YFR031C'
p899
I5
sS'YPL154C'
p900
I18
sS'YHR019C'
p901
I47
sS'YOR367W'
p902
I13
sS'YDR281C'
p903
I10
sS'YGL203C'
p904
I8
sS'YPL101W'
p905
I5
sS'YLR258W'
p906
I4
sS'YNR015W'
p907
I5
sS'YIL078W'
p908
I52
sS'YOR047C'
p909
I3
sS'YGL009C'
p910
I42
sS'YEL040W'
p911
I18
sS'YBL092W'
p912
I508
sS'YDR368W'
p913
I9
sS'YBR101C'
p914
I22
sS'YLR147C'
p915
I2
sS'YJR050W'
p916
I6
sS'YGR161C'
p917
I5
sS'YLR192C'
p918
I36
sS'YNL006W'
p919
I4
sS'YGL210W'
p920
I3
sS'YDR088C'
p921
I4
sS'YNL066W'
p922
I7
sS'YPL112C'
p923
I6
sS'YKL013C'
p924
I27
sS'YNL124W'
p925
I3
sS'YIL094C'
p926
I44
sS'YIL016W'
p927
I17
sS'YML108W'
p928
I19
sS'YIL076W'
p929
I15
sS'YHR148W'
p930
I6
sS'YOL028C'
p931
I3
sS'YDR186C'
p932
I7
sS'YBL038W'
p933
I6
sS'YOR085W'
p934
I12
sS'YHL039W'
p935
I3
sS'YGR189C'
p936
I11
sS'YOR332W'
p937
I75
sS'YNL158W'
p938
I9
sS'YOR069W'
p939
I6
sS'YGR038W'
p940
I6
sS'YOL122C'
p941
I5
sS'YNL087W'
p942
I5
sS'YBR196C'
p943
I65
sS'YOR341W'
p944
I10
sS'YFR055W'
p945
I20
sS'YOR067C'
p946
I5
sS'YDR296W'
p947
I6
sS'YGL232W'
p948
I14
sS'YIL030C'
p949
I6
sS'YIL116W'
p950
I12
sS'YGR094W'
p951
I31
sS'YHR064C'
p952
I38
sS'YJR103W'
p953
I6
sS'YHR028C'
p954
I7
sS'YBR265W'
p955
I10
sS'YBL007C'
p956
I4
sS'YNR037C'
p957
I10
sS'YMR307W'
p958
I54
sS'YGL145W'
p959
I8
sS'YHR137W'
p960
I9
sS'YOR021C'
p961
I29
sS'YBR230C'
p962
I6
sS'YNL252C'
p963
I10
sS'YBR187W'
p964
I36
sS'YER133W'
p965
I24
sS'YMR198W'
p966
I6
sS'YOL006C'
p967
I6
sS'YCR003W'
p968
I4
sS'YBR068C'
p969
I17
sS'YER112W'
p970
I10
sS'YDR043C'
p971
I4
sS'YEL015W'
p972
I15
sS'YBL103C'
p973
I2
sS'YLR018C'
p974
I2
sS'YKR085C'
p975
I10
sS'YLR418C'
p976
I3
sS'YLR063W'
p977
I2
sS'YMR243C'
p978
I16
sS'YGL111W'
p979
I12
sS'YOR132W'
p980
I5
sS'YKR093W'
p981
I3
sS'YPL048W'
p982
I39
sS'YER082C'
p983
I15
sS'YKL212W'
p984
I9
sS'YGL167C'
p985
I5
sS'YHR115C'
p986
I4
sS'YER124C'
p987
I24
sS'YEL022W'
p988
I7
sS'YPL188W'
p989
I5
sS'YPR188C'
p990
I15
sS'YHR072W'
p991
I3
sS'YDL074C'
p992
I4
sS'YOR374W'
p993
I4
sS'YJL190C'
p994
I263
sS'YMR218C'
p995
I1
sS'YLR052W'
p996
I7
sS'YGL107C'
p997
I2
sS'YOR212W'
p998
I18
sS'YDR032C'
p999
I31
sS'YOL026C'
p1000
I14
sS'YPR166C'
p1001
I19
sS'YPL037C'
p1002
I115
sS'YER057C'
p1003
I30
sS'YOR122C'
p1004
I74
sS'YKL145W'
p1005
I23
sS'YJL111W'
p1006
I23
sS'YNL192W'
p1007
I9
sS'YLL010C'
p1008
I4
sS'YMR058W'
p1009
I29
sS'YDR061W'
p1010
I5
sS'YKL114C'
p1011
I9
sS'YML093W'
p1012
I11
sS'YJR077C'
p1013
I9
sS'YHR197W'
p1014
I8
sS'YBR002C'
p1015
I3
sS'YPR004C'
p1016
I9
sS'YDR276C'
p1017
I69
sS'YLR200W'
p1018
I12
sS'YKL154W'
p1019
I14
sS'YPL228W'
p1020
I5
sS'YOR131C'
p1021
I11
sS'YGL148W'
p1022
I40
sS'YMR116C'
p1023
I316
sS'YPL004C'
p1024
I13
sS'YOR164C'
p1025
I10
sS'YGL030W'
p1026
I647
sS'YGR283C'
p1027
I6
sS'YKL135C'
p1028
I5
sS'YJL033W'
p1029
I7
sS'YML075C'
p1030
I3
sS'YDR050C'
p1031
I596
sS'YGR061C'
p1032
I9
sS'YOR153W'
p1033
I59
sS'YDR105C'
p1034
I5
sS'YGL120C'
p1035
I14
sS'YLR045C'
p1036
I4
sS'YOL125W'
p1037
I6
sS'YPR022C'
p1038
I2
sS'YLR110C'
p1039
I757
sS'YIR038C'
p1040
I8
sS'YPL117C'
p1041
I19
sS'YEL071W'
p1042
I32
sS'YMR272C'
p1043
I5
sS'YML062C'
p1044
I5
sS'YPR108W'
p1045
I12
sS'YKL152C'
p1046
I996
sS'YBR106W'
p1047
I87
sS'YBL093C'
p1048
I10
sS'YKL054C'
p1049
I11
sS'YGR162W'
p1050
I18
sS'YDL165W'
p1051
I8
sS'YNL078W'
p1052
I7
sS'YJL124C'
p1053
I19
sS'YKL023W'
p1054
I7
sS'YJR051W'
p1055
I11
sS'YKL094W'
p1056
I9
sS'YNL259C'
p1057
I29
sS'YPR131C'
p1058
I4
sS'YKL143W'
p1059
I7
sS'YBR146W'
p1060
I11
sS'YFL034W'
p1061
I2
sS'YPL031C'
p1062
I6
sS'YKL012W'
p1063
I3
sS'YER080W'
p1064
I9
sS'YMR001C'
p1065
I3
sS'YLR191W'
p1066
I4
sS'YDR321W'
p1067
I29
sS'YNR001C'
p1068
I11
sS'YNL178W'
p1069
I526
sS'YDR147W'
p1070
I9
sS'YJL004C'
p1071
I7
sS'YMR193W'
p1072
I8
sS'YDR167W'
p1073
I11
sS'YJR017C'
p1074
I14
sS'YHR057C'
p1075
I15
sS'YMR183C'
p1076
I11
sS'YNL027W'
p1077
I5
sS'YDL205C'
p1078
I3
sS'YML080W'
p1079
I6
sS'YNL327W'
p1080
I5
sS'YLR291C'
p1081
I14
sS'YDR210W'
p1082
I30
sS'YML115C'
p1083
I5
sS'YJR113C'
p1084
I7
sS'YBR279W'
p1085
I5
sS'YIL117C'
p1086
I7
sS'YGL181W'
p1087
I5
sS'YOR340C'
p1088
I24
sS'YOL158C'
p1089
I14
sS'YOL103W'
p1090
I6
sS'YBR151W'
p1091
I14
sS'YCL025C'
p1092
I4
sS'YGL231C'
p1093
I22
sS'YGR157W'
p1094
I12
sS'YBR286W'
p1095
I38
sS'YDR297W'
p1096
I4
sS'YBL006C'
p1097
I9
sS'YLR340W'
p1098
I434
sS'YKL082C'
p1099
I21
sS'YGR108W'
p1100
I12
sS'YJR068W'
p1101
I10
sS'YBR231C'
p1102
I7
sS'YHR162W'
p1103
I90
sS'YBR246W'
p1104
I6
sS'YDL178W'
p1105
I7
sS'YOR004W'
p1106
I19
sS'YER095W'
p1107
I6
sS'YLR186W'
p1108
I18
sS'YDR462W'
p1109
I9
sS'YJL148W'
p1110
I32
sS'YGL093W'
p1111
I2
sS'YDR098C'
p1112
I20
sS'YGL200C'
p1113
I44
sS'YOR044W'
p1114
I2
sS'YLR259C'
p1115
I37
sS'YGR231C'
p1116
I15
sS'YPL157W'
p1117
I13
sS'YKL005C'
p1118
I4
sS'YDR280W'
p1119
I8
sS'YPL217C'
p1120
I9
sS'YBL024W'
p1121
I12
sS'YMR241W'
p1122
I31
sS'YPR189W'
p1123
I1
sS'YOR275C'
p1124
I4
sS'YDL075W'
p1125
I227
sS'YDR127W'
p1126
I5
sS'YOL018C'
p1127
I4
sS'YBR288C'
p1128
I4
sS'YOR220W'
p1129
I4
sS'YKR092C'
p1130
I14
sS'YOR259C'
p1131
I20
sS'YNL231C'
p1132
I16
sS'YNL264C'
p1133
I7
sS'YOR142W'
p1134
I10
sS'YDR434W'
p1135
I5
sS'YGL106W'
p1136
I36
sS'YOR375C'
p1137
I32
sS'YCR002C'
p1138
I13
sS'YDR033W'
p1139
I46
sS'YIL075C'
p1140
I9
sS'YOL145C'
p1141
I6
sS'YIL019W'
p1142
I10
sS'YIL020C'
p1143
I8
sS'YOL098C'
p1144
I5
sS'YOR353C'
p1145
I6
sS'YNR074C'
p1146
I6
sS'YOR099W'
p1147
I11
sS'YHL025W'
p1148
I8
sS'YFR010W'
p1149
I12
sS'YMR311C'
p1150
I12
sS'YNL222W'
p1151
I6
sS'YPR101W'
p1152
I4
sS'YGR037C'
p1153
I77
sS'YIL008W'
p1154
I14
sS'YBL039C'
p1155
I13
sS'YER143W'
p1156
I3
sS'YOR362C'
p1157
I24
sS'YDL153C'
p1158
I19
sS'YLR126C'
p1159
I7
sS'YDL053C'
p1160
I7
sS'YML074C'
p1161
I35
sS'YKR062W'
p1162
I4
sS'YMR119W'
p1163
I2
sS'YPR069C'
p1164
I37
sS'YGR261C'
p1165
I9
sS'YMR215W'
p1166
I9
sS'YDR051C'
p1167
I8
sS'YER010C'
p1168
I4
sS'YBR078W'
p1169
I75
sS'YLR440C'
p1170
I4
sS'YDL232W'
p1171
I20
sS'YDR158W'
p1172
I68
sS'YLR044C'
p1173
I467
sS'YLR166C'
p1174
I2
sS'YIR033W'
p1175
I5
sS'YDR496C'
p1176
I10
sS'YLR099C'
p1177
I9
sS'YGR117C'
p1178
I6
sS'YLR146C'
p1179
I6
sS'YDR240C'
p1180
I2
sS'YBR267W'
p1181
I14
sS'YDR429C'
p1182
I52
sS'YER118C'
p1183
I6
sS'YER021W'
p1184
I24
sS'YMR208W'
p1185
I4
sS'YER134C'
p1186
I7
sS'YEL052W'
p1187
I5
sS'YNL088W'
p1188
I7
sS'YEL009C'
p1189
I92
sS'YJL180C'
p1190
I4
sS'YHR103W'
p1191
I11
sS'YOR257W'
p1192
I12
sS'YGR002C'
p1193
I7
sS'YER129W'
p1194
I4
sS'YDR111C'
p1195
I2
sS'YGR253C'
p1196
I40
sS'YDR510W'
p1197
I73
sS'YKR082W'
p1198
I3
sS'YOL115W'
p1199
I3
sS'YOR042W'
p1200
I11
sS'YBR023C'
p1201
I2
sS'YPR045C'
p1202
I3
sS'YPR010C'
p1203
I17
sS'YPL231W'
p1204
I16
sS'YKL155C'
p1205
I2
sS'YMR071C'
p1206
I24
sS'YDR119W'
p1207
I6
sS'YIR035C'
p1208
I8
sS'YDR148C'
p1209
I7
sS'YPL181W'
p1210
I8
sS'YLR210W'
p1211
I3
sS'YNL026W'
p1212
I2
sS'YDR335W'
p1213
I4
sS'YHR081W'
p1214
I15
sS'YMR039C'
p1215
I9
sS'YHR181W'
p1216
I7
sS'YNL320W'
p1217
I5
sS'YDL179W'
p1218
I8
sS'YDR211W'
p1219
I14
sS'YOR125C'
p1220
I5
sS'YLL011W'
p1221
I12
sS'YCR077C'
p1222
I8
sS'YER056C'
p1223
I25
sS'YGL130W'
p1224
I7
sS'YLR437C'
p1225
I8
sS'YNL306W'
p1226
I15
sS'YLR429W'
p1227
I7
sS'YDR237W'
p1228
I6
sS'YOR297C'
p1229
I8
sS'YDR060W'
p1230
I9
sS'YKR048C'
p1231
I27
sS'YMR080C'
p1232
I5
sS'YGL187C'
p1233
I10
sS'YGL153W'
p1234
I10
sS'YCL033C'
p1235
I5
sS'YHR196W'
p1236
I11
sS'YML092C'
p1237
I29
sS'YOR167C'
p1238
I361
sS'YMR117C'
p1239
I2
sS'YDR257C'
p1240
I8
sS'YJR074W'
p1241
I7
sS'YLR100W'
p1242
I25
sS'YDL148C'
p1243
I10
sS'YAL012W'
p1244
I13
sS'YHR163W'
p1245
I26
sS'YCR071C'
p1246
I6
sS'YDR518W'
p1247
I7
sS'YDL226C'
p1248
I22
sS'YNR017W'
p1249
I18
sS'YNL168C'
p1250
I9
sS'YFR037C'
p1251
I10
sS'YHR077C'
p1252
I5
sS'YGR136W'
p1253
I14
sS'YPL135W'
p1254
I14
sS'YNL312W'
p1255
I9
sS'YDR041W'
p1256
I10
sS'YDR461W'
p1257
I36
sS'YNL113W'
p1258
I13
sS'YBR121C'
p1259
I38
sS'YLR229C'
p1260
I17
sS'YCL043C'
p1261
I33
sS'YNL079C'
p1262
I67
sS'YMR062C'
p1263
I13
sS'YMR015C'
p1264
I7
sS'YHR170W'
p1265
I14
sS'YJL125C'
p1266
I11
sS'YBL090W'
p1267
I3
sS'YKL068W'
p1268
I6
sS'YMR002W'
p1269
I17
sS'YDR260C'
p1270
I5
sS'YKL142W'
p1271
I20
sS'YPL049C'
p1272
I7
sS'YNL064C'
p1273
I81
sS'YNL122C'
p1274
I5
sS'YER081W'
p1275
I3
sS'YPL178W'
p1276
I9
sS'YDR373W'
p1277
I11
sS'YIR003W'
p1278
I2
sS'YNL008C'
p1279
I5
sS'YOR023C'
p1280
I4
sS'YIL096C'
p1281
I4
sS'YFR011C'
p1282
I6
sS'YIL074C'
p1283
I12
sS'YIL161W'
p1284
I5
sS'YOL144W'
p1285
I10
sS'YIL021W'
p1286
I11
sS'YHR039C'
p1287
I7
sS'YER131W'
p1288
I86
sS'YDL190C'
p1289
I4
sS'YML119W'
p1290
I6
sS'YNL225C'
p1291
I5
sS'YOR052C'
p1292
I7
sS'YLR243W'
p1293
I13
sS'YAL001C'
p1294
I4
sS'YCR009C'
p1295
I16
sS'YOR045W'
p1296
I23
sS'YDL046W'
p1297
I10
sS'YJR112W'
p1298
I9
sS'YBR252W'
p1299
I16
sS'YGR116W'
p1300
I9
sS'YIL110W'
p1301
I7
sS'YNL135C'
p1302
I94
sS'YJR101W'
p1303
I13
sS'YBR263W'
p1304
I21
sS'YMR305C'
p1305
I22
sS'YBL001C'
p1306
I34
sS'YNR035C'
p1307
I13
sS'YDR019C'
p1308
I9
sS'YJL085W'
p1309
I2
sS'YDL209C'
p1310
I3
sS'YDR224C'
p1311
I66
sS'YEL055C'
p1312
I6
sS'YBR053C'
p1313
I5
sS'YMR161W'
p1314
I3
sS'YNL207W'
p1315
I7
sS'YDR428C'
p1316
I6
sS'YBR082C'
p1317
I48
sS'YOR210W'
p1318
I49
sS'YER077C'
p1319
I1
sS'YGL246C'
p1320
I4
sS'YDR045C'
p1321
I10
sS'YPL232W'
p1322
I14
sS'YKR083C'
p1323
I9
sS'YMR209C'
p1324
I5
sS'YGR252W'
p1325
I5
sS'YDL003W'
p1326
I5
sS'YDL215C'
p1327
I2
sS'YDL078C'
p1328
I19
sS'YDR517W'
p1329
I5
sS'YGL043W'
p1330
I24
sS'YDR110W'
p1331
I4
sS'YLR061W'
p1332
I436
sS'YKL214C'
p1333
I9
sS'YOL088C'
p1334
I4
sS'YOR361C'
p1335
I25
sS'YOR221C'
p1336
I5
sS'YKR095W'
p1337
I3
sS'YMR223W'
p1338
I4
sS'YGR029W'
p1339
I8
sS'YOL064C'
p1340
I10
sS'YBL023C'
p1341
I2
sS'YMR298W'
p1342
I19
sS'YER151C'
p1343
I5
sS'YLR005W'
p1344
I4
sS'YLL027W'
p1345
I5
sS'YNL267W'
p1346
I5
sS'YCL001W'
p1347
I14
sS'YGR198W'
p1348
I5
sS'YAR007C'
p1349
I3
sS'YPL254W'
p1350
I6
sS'YML064C'
p1351
I6
sS'YER055C'
p1352
I109
sS'YOR124C'
p1353
I3
sS'YCR016W'
p1354
I16
sS'YGL238W'
p1355
I10
sS'YML031W'
p1356
I7
sS'YJL044C'
p1357
I7
sS'YGL186C'
p1358
I15
sS'YDR234W'
p1359
I6
sS'YGR218W'
p1360
I7
sS'YGR267C'
p1361
I30
sS'YGL091C'
p1362
I5
sS'YDL125C'
p1363
I24
sS'YGL022W'
p1364
I18
sS'YML079W'
p1365
I17
sS'YHR070W'
p1366
I6
sS'YDR229W'
p1367
I3
sS'YJR075W'
p1368
I13
sS'YPR124W'
p1369
I20
sS'YML001W'
p1370
I20
sS'YGR285C'
p1371
I91
sS'YNL232W'
p1372
I6
sS'YBR022W'
p1373
I6
sS'YMR214W'
p1374
I9
sS'YBR079C'
p1375
I24
sS'YDR261C'
p1376
I8
sS'YDR500C'
p1377
I189
sS'YGL032C'
p1378
I11
sS'YER048C'
p1379
I19
sS'YPR020W'
p1380
I11
sS'YML048W'
p1381
I13
sS'YNL112W'
p1382
I31
sS'YLR027C'
p1383
I34
sS'YDL132W'
p1384
I8
sS'YBL064C'
p1385
I5
sS'YGR245C'
p1386
I8
sS'YPL243W'
p1387
I9
sS'YDR497C'
p1388
I14
sS'YGR229C'
p1389
I6
sS'YLR293C'
p1390
I127
sS'YDL147W'
p1391
I13
sS'YBR104W'
p1392
I11
sS'YJL171C'
p1393
I5
sS'YBL091C'
p1394
I18
sS'YOR262W'
p1395
I6
sS'YMR014W'
p1396
I8
sS'YDL167C'
p1397
I4
sS'YPR133C'
p1398
I9
sS'YIL137C'
p1399
I5
sS'YPR110C'
p1400
I43
sS'YNL123W'
p1401
I9
sS'YDR372C'
p1402
I22
sS'YPL177C'
p1403
I4
sS'YEL056W'
p1404
I14
sS'YFL016C'
p1405
I3
sS'YDR451C'
p1406
I5
sS'YNL032W'
p1407
I10
sS'YNL041C'
p1408
I6
sS'YKR001C'
p1409
I18
sS'YJL006C'
p1410
I6
sS'YDR346C'
p1411
I20
sS'YBL082C'
p1412
I2
sS'YDL081C'
p1413
I473
sS'YOR281C'
p1414
I13
sS'YDR165W'
p1415
I14
sS'YFL018C'
p1416
I16
sS'YOR093C'
p1417
I1
sS'YGR207C'
p1418
I8
sS'YDR212W'
p1419
I16
sS'YLR170C'
p1420
I7
sS'YNL052W'
p1421
I15
sS'YDL207W'
p1422
I6
sS'YDR334W'
p1423
I4
sS'YGL213C'
p1424
I8
sS'YMR038C'
p1425
I19
sS'YNL071W'
p1426
I18
sS'YNR029C'
p1427
I2
sS'YBR122C'
p1428
I21
sS'YHR001W'
p1429
I5
sS'YDR477W'
p1430
I2
sS'YBR199W'
p1431
I10
sS'YOR342C'
p1432
I8
sS'YJR148W'
p1433
I39
sS'YBR253W'
p1434
I13
sS'YIL035C'
p1435
I11
sS'YJR082C'
p1436
I9
sS'YML121W'
p1437
I10
sS'YNL134C'
p1438
I3
sS'YNR061C'
p1439
I9
sS'YGL164C'
p1440
I3
sS'YHR154W'
p1441
I3
sS'YOR008C'
p1442
I6
sS'YKL010C'
p1443
I3
sS'YMR289W'
p1444
I2
sS'YOL012C'
p1445
I24
sS'YPL199C'
p1446
I22
sS'YJR133W'
p1447
I3
sS'YKL045W'
p1448
I4
sS'YIL157C'
p1449
I7
sS'YIL051C'
p1450
I115
sS'YDR365C'
p1451
I20
sS'YKL007W'
p1452
I9
sS'YFR034C'
p1453
I3
sS'YGL206C'
p1454
I4
sS'YDL225W'
p1455
I6
sS'YLR180W'
p1456
I30
sS'YKL058W'
p1457
I20
sS'YKL085W'
p1458
I11
sS'YJR124C'
p1459
I4
sS'YOR360C'
p1460
I5
sS'YOR335C'
p1461
I18
sS'YOL089C'
p1462
I3
sS'YDR416W'
p1463
I4
sS'YNL182C'
p1464
I6
sS'YLL026W'
p1465
I13
sS'YIL064W'
p1466
I8
sS'YDR097C'
p1467
I3
sS'YBL022C'
p1468
I3
sS'YPL215W'
p1469
I4
sS'YER156C'
p1470
I18
sS'YOR095C'
p1471
I18
sS'YEL038W'
p1472
I12
sS'YOR377W'
p1473
I4
sS'YGL172W'
p1474
I7
sS'YLR051C'
p1475
I9
sS'YDR388W'
p1476
I16
sS'YGR199W'
p1477
I3
sS'YPL208W'
p1478
I3
sS'YNL280C'
p1479
I9
sS'YDR007W'
p1480
I11
sS'YGL220W'
p1481
I21
sS'YPR089W'
p1482
I5
sS'YGR082W'
p1483
I14
sS'YKL104C'
p1484
I9
sS'YHR012W'
p1485
I9
sS'YHL027W'
p1486
I2
sS'YNL248C'
p1487
I12
sS'YMR024W'
p1488
I5
sS'YGR119C'
p1489
I12
sS'YGR035C'
p1490
I8
sS'YOL127W'
p1491
I573
sS'YNL224C'
p1492
I4
sS'YDR539W'
p1493
I6
sS'YBR025C'
p1494
I70
sS'YMR177W'
p1495
I2
sS'YOR187W'
p1496
I20
sS'YER016W'
p1497
I14
sS'YGR286C'
p1498
I3
sS'YCR037C'
p1499
I4
sS'YMR217W'
p1500
I37
sS'YOR239W'
p1501
I13
sS'YDR494W'
p1502
I6
sS'YLR026C'
p1503
I5
sS'YER035W'
p1504
I5
sS'YHR094C'
p1505
I7
sS'YMR277W'
p1506
I3
sS'YPL242C'
p1507
I6
sS'YBR067C'
p1508
I22
sS'YLR387C'
p1509
I7
sS'YDR100W'
p1510
I9
sS'YER049W'
p1511
I14
sS'YML117W'
p1512
I4
sS'YMR255W'
p1513
I17
sS'YMR239C'
p1514
I14
sS'YLR028C'
p1515
I13
sS'YER136W'
p1516
I16
sS'YML012W'
p1517
I50
sS'YOR217W'
p1518
I5
sS'YPL010W'
p1519
I38
sS'YCR057C'
p1520
I7
sS'YNL206C'
p1521
I8
sS'YMR197C'
p1522
I11
sS'YLR060W'
p1523
I34
sS'YIL063C'
p1524
I8
sS'YGR251W'
p1525
I6
sS'YNL045W'
p1526
I5
sS'YDR044W'
p1527
I6
sS'YKR080W'
p1528
I19
sS'YHR191C'
p1529
I12
sS'YDL002C'
p1530
I12
sS'YNL180C'
p1531
I9
sS'YIR037W'
p1532
I19
sS'YDR071C'
p1533
I25
sS'YDR162C'
p1534
I4
sS'YGL012W'
p1535
I28
sS'YML124C'
p1536
I17
sS'YKL160W'
p1537
I29
sS'YKR057W'
p1538
I208
sS'YNL040W'
p1539
I4
sS'YDR353W'
p1540
I31
sS'YMR139W'
p1541
I5
sS'YJL001W'
p1542
I26
sS'YJL049W'
p1543
I4
sS'YHR183W'
p1544
I41
sS'YPR143W'
p1545
I18
sS'YER094C'
p1546
I27
sS'YNL322C'
p1547
I16
sS'YGR208W'
p1548
I20
sS'YBR149W'
p1549
I8
sS'YKL119C'
p1550
I11
sS'YHR042W'
p1551
I7
sS'YBL058W'
p1552
I14
sS'YML030W'
p1553
I8
sS'YML065W'
p1554
I3
sS'YCR097W'
p1555
I9
sS'YER001W'
p1556
I10
sS'YPR165W'
p1557
I65
sS'YPR125W'
p1558
I2
sS'YHR049W'
p1559
I19
sS'YHR085W'
p1560
I7
sS'YDL126C'
p1561
I32
sS'YDR228C'
p1562
I3
sS'YMR260C'
p1563
I141
sS'YGR264C'
p1564
I16
sS'YML078W'
p1565
I24
sS'YDL208W'
p1566
I55
sS'YPL074W'
p1567
I4
sS'YJR025C'
p1568
I12
sS'YKL046C'
p1569
I12
sS'YDR339C'
p1570
I19
sS'YFL037W'
p1571
I19
sS'YJR132W'
p1572
I3
sS'YDL097C'
p1573
I16
sS'YHR161C'
p1574
I6
sS'YBR243C'
p1575
I2
sS'YLR181C'
p1576
I6
sS'YLR225C'
p1577
I5
sS'YNL111C'
p1578
I19
sS'YGR134W'
p1579
I5
sS'YNL075W'
p1580
I17
sS'YIL050W'
p1581
I10
sS'YLR309C'
p1582
I6
sS'YPR086W'
p1583
I7
sS'YJR125C'
p1584
I14
sS'YMR060C'
p1585
I2
sS'YJL012C'
p1586
I23
sS'YPL127C'
p1587
I11
sS'YJR003C'
p1588
I5
sS'YDL144C'
p1589
I5
sS'YFL028C'
p1590
I7
sS'YKR020W'
p1591
I4
sS'YDR308C'
p1592
I13
sS'YLR372W'
p1593
I26
sS'YNL062C'
p1594
I10
sS'YMR295C'
p1595
I15
sS'YER083C'
p1596
I5
sS'YLR238W'
p1597
I3
sS'YPL176C'
p1598
I4
sS'YDR324C'
p1599
I17
sS'YJL072C'
p1600
I3
sS'YOR112W'
p1601
I4
sS'YHR136C'
p1602
I13
sS'YDL168W'
p1603
I8
sS'YDR262W'
p1604
I11
sS'YKL144C'
p1605
I7
sS'YNL175C'
p1606
I22
sS'YDR084C'
p1607
I5
sS'YBR234C'
p1608
I18
sS'YOR061W'
p1609
I11
sS'YOR356W'
p1610
I2
sS'YGR152C'
p1611
I12
sS'YPR088C'
p1612
I24
sS'YGR083C'
p1613
I19
sS'YOL040C'
p1614
I464
sS'YCL035C'
p1615
I32
sS'YIL023C'
p1616
I1
sS'YOL146W'
p1617
I7
sS'YGL221C'
p1618
I14
sS'YHR144C'
p1619
I8
sS'YGR034W'
p1620
I137
sS'YDR182W'
p1621
I8
sS'YDR190C'
p1622
I15
sS'YNL290W'
p1623
I11
sS'YDR139C'
p1624
I24
sS'YMR314W'
p1625
I27
sS'YLR455W'
p1626
I6
sS'YNL247W'
p1627
I19
sS'YHR128W'
p1628
I31
sS'YMR184W'
p1629
I7
sS'YPL118W'
p1630
I9
sS'YLR241W'
p1631
I3
sS'YFR028C'
p1632
I11
sS'YOR043W'
p1633
I21
sS'YDR470C'
p1634
I3
sS'YIL034C'
p1635
I9
sS'YIL043C'
p1636
I54
sS'YDR292C'
p1637
I11
sS'YPL143W'
p1638
I203
sS'YNL137C'
p1639
I8
sS'YAL036C'
p1640
I17
sS'YCL028W'
p1641
I7
sS'YML120C'
p1642
I4
sS'YOR216C'
p1643
I3
sS'YHR208W'
p1644
I46
sS'YDL065C'
p1645
I10
sS'YGL244W'
p1646
I20
sS'YBL036C'
p1647
I20
sS'YNL229C'
p1648
I6
sS'YMR238W'
p1649
I9
sS'YHR068W'
p1650
I21
sS'YER071C'
p1651
I7
sS'YMR027W'
p1652
I14
sS'YKR081C'
p1653
I19
sS'YPL263C'
p1654
I9
sS'YGR001C'
p1655
I19
sS'YDL001W'
p1656
I5
sS'YBR039W'
p1657
I7
sS'YJL183W'
p1658
I14
sS'YPL218W'
p1659
I59
sS'YDR047W'
p1660
I19
sS'YOR254C'
p1661
I9
sS'YOR201C'
p1662
I7
sS'YOR276W'
p1663
I30
sS'YMR309C'
p1664
I5
sS'YOR089C'
p1665
I12
sS'YOL031C'
p1666
I4
sS'YBR071W'
p1667
I4
sS'YHR119W'
p1668
I3
sS'YOR230W'
p1669
I16
sS'YBR166C'
p1670
I12
sS'YJL166W'
p1671
I15
sS'YNL258C'
p1672
I8
sS'YKL216W'
p1673
I88
sS'YGR012W'
p1674
I5
sS'YGR234W'
p1675
I41
sS'YPL252C'
p1676
I13
sS'YOR094W'
p1677
I8
sS'YER157W'
p1678
I4
sS'YOL022C'
p1679
I11
sS'YCR090C'
p1680
I15
sS'YEL037C'
p1681
I13
sS'YDR389W'
p1682
I3
sS'YHR062C'
p1683
I4
sS'YNL305C'
p1684
I4
sS'YJR121W'
p1685
I26
sS'YLL014W'
p1686
I20
sS'YCL050C'
p1687
I29
sS'YGR047C'
p1688
I3
sS'YDL227C'
p1689
I6
sS'YER100W'
p1690
I16
sS'YAL060W'
p1691
I11
sS'YJL026W'
p1692
I22
sS'YER002W'
p1693
I22
sS'YDR272W'
p1694
I16
sS'YPR008W'
p1695
I5
sS'YGL020C'
p1696
I14
sS'YMR083W'
p1697
I54
sS'YOR294W'
p1698
I19
sS'YJL039C'
p1699
I4
sS'YLR038C'
p1700
I19
sS'YNL212W'
p1701
I3
sS'YCR036W'
p1702
I6
sS'YPR037C'
p1703
I9
sS'YDR502C'
p1704
I12
sS'YOR238W'
p1705
I4
sS'YER062C'
p1706
I6
sS'YDL047W'
p1707
I6
sS'YDR101C'
p1708
I6
sS'YML046W'
p1709
I5
sS'YDL130W'
p1710
I335
sS'YMR276W'
p1711
I16
sS'YEL002C'
p1712
I11
sS'YLR025W'
p1713
I21
sS'YCR069W'
p1714
I4
sS'YPL245W'
p1715
I5
sS'YBR066C'
p1716
I8
sS'YLR138W'
p1717
I3
sS'YDR341C'
p1718
I28
sS'YKL027W'
p1719
I4
sS'YJL173C'
p1720
I15
sS'YHR199C'
p1721
I11
sS'YDR152W'
p1722
I17
sS'YDL090C'
p1723
I3
sS'YMR061W'
p1724
I5
sS'YJR002W'
p1725
I13
sS'YDL145C'
p1726
I9
sS'YBL097W'
p1727
I1
sS'YKL127W'
p1728
I8
sS'YDR309C'
p1729
I2
sS'YNL061W'
p1730
I17
sS'YDR398W'
p1731
I6
sS'YGL103W'
p1732
I659
sS'YDR457W'
p1733
I1
sS'YKL056C'
p1734
I408
sS'YKL067W'
p1735
I25
sS'YMR005W'
p1736
I9
sS'YLR262C'
p1737
I14
sS'YOR207C'
p1738
I4
sS'YNL121C'
p1739
I8
sS'YDR087C'
p1740
I15
sS'YBR081C'
p1741
I2
sS'YDL237W'
p1742
I13
sS'YKL141W'
p1743
I15
sS'YDR072C'
p1744
I7
sS'YER044C'
p1745
I3
sS'YMR072W'
p1746
I23
sS'YJL200C'
p1747
I9
sS'YOR283W'
p1748
I8
sS'YBR249C'
p1749
I52
sS'YNL181W'
p1750
I2
sS'YKR056W'
p1751
I9
sS'YKL150W'
p1752
I11
sS'YIR036C'
p1753
I4
sS'YMR123W'
p1754
I20
sS'YDR238C'
p1755
I14
sS'YNL323W'
p1756
I6
sS'YOR128C'
p1757
I11
sS'YLR220W'
p1758
I9
sS'YLR172C'
p1759
I29
sS'YGR209C'
p1760
I92
sS'YPR113W'
p1761
I21
sS'YNL050C'
p1762
I9
sS'YBR251W'
p1763
I8
sS'YMR099C'
p1764
I16
sS'YIR008C'
p1765
I3
sS'YGR093W'
p1766
I6
sS'YIL040W'
p1767
I6
sS'YDR471W'
p1768
I100
sS'YGR135W'
p1769
I44
sS'YDL234C'
p1770
I2
sS'YHR003C'
p1771
I9
sS'YGL080W'
p1772
I13
sS'YLR449W'
p1773
I35
sS'YKL049C'
p1774
I7
sS'YDR293C'
p1775
I3
sS'YBL002W'
p1776
I58
sS'YNR038W'
p1777
I3
sS'YCL029C'
p1778
I2
sS'YHR152W'
p1779
I8
sS'YML123C'
p1780
I42
sS'YGR028W'
p1781
I6
sS'YJR024C'
p1782
I17
sS'YFL038C'
p1783
I39
sS'YBR242W'
p1784
I7
sS'YIL056W'
p1785
I3
sS'YBR142W'
p1786
I8
sS'YGR175C'
p1787
I21
sS'YDL095W'
p1788
I23
sS'YDR338C'
p1789
I2
sS'YNR012W'
p1790
I11
sS'YGL097W'
p1791
I8
sS'YJL151C'
p1792
I26
sS'YNL110C'
p1793
I25
sS'YDR367W'
p1794
I11
sS'YIL053W'
p1795
I160
sS'YKL001C'
p1796
I15
sS'YBR173C'
p1797
I11
sS'YIR022W'
p1798
I14
sS'YHR021C'
p1799
I331
sS'YGL253W'
p1800
I45
sS'YMR308C'
p1801
I11
sS'YIL088C'
p1802
I6
sS'YOR271C'
p1803
I25
sS'YNR041C'
p1804
I4
sS'YOL030W'
p1805
I10
sS'YOR337W'
p1806
I4
sS'YNL099C'
p1807
I9
sS'YGR048W'
p1808
I8
sS'YJR015W'
p1809
I9
sS'YGR024C'
p1810
I7
sS'YHR051W'
p1811
I13
sS'YHL003C'
p1812
I12
sS'YEL036C'
p1813
I7
sS'YHR010W'
p1814
I229
sS'YCL034W'
p1815
I5
sS'YJR104C'
p1816
I168
sS'YLL048C'
p1817
I4
sS'YPL124W'
p1818
I4
sS'YAL042W'
p1819
I23
sS'YLR304C'
p1820
I15
sS'YOR357C'
p1821
I12
sS'YFR038W'
p1822
I6
sS'YDR001C'
p1823
I6
sS'YGR080W'
p1824
I5
sS'YOL109W'
p1825
I250
sS'YBL011W'
p1826
I5
sS'YDR183W'
p1827
I6
sS'YIL039W'
p1828
I12
sS'YDR138W'
p1829
I2
sS'YGR122W'
p1830
I1
sS'YOR317W'
p1831
I8
sS'YGR033C'
p1832
I6
sS'YAL022C'
p1833
I5
sS'YJR144W'
p1834
I15
sS'YMR315W'
p1835
I11
sS'YLR328W'
p1836
I5
sS'YNL246W'
p1837
I5
sS'YDR384C'
p1838
I23
sS'YML007W'
p1839
I5
sS'YER063W'
p1840
I14
sS'YDR481C'
p1841
I8
sS'YER014W'
p1842
I1
sS'YMR171C'
p1843
I9
sS'YPR041W'
p1844
I36
sS'YJR032W'
p1845
I5
sS'YCR035C'
p1846
I8
sS'YEL003W'
p1847
I29
sS'YGL037C'
p1848
I13
sS'YBR058C'
p1849
I3
sS'YDR492W'
p1850
I2
sS'YLR071C'
p1851
I2
sS'YGR240C'
p1852
I28
sS'YEL058W'
p1853
I13
sS'YMR259C'
p1854
I3
sS'YJR001W'
p1855
I10
sS'YBR061C'
p1856
I7
sS'YOR145C'
p1857
I17
sS'YPR052C'
p1858
I41
sS'YPR025C'
p1859
I3
sS'YBR087W'
p1860
I9
sS'YER149C'
p1861
I4
sS'YOL027C'
p1862
I13
sS'YPR190C'
p1863
I3
sS'YOR215C'
p1864
I2
sS'YHR107C'
p1865
I8
sS'YAR002W'
p1866
I2
sS'YHR127W'
p1867
I9
sS'YMR237W'
p1868
I7
sS'YDL064W'
p1869
I16
sS'YDL031W'
p1870
I6
sS'YDR026C'
p1871
I5
sS'YLR066W'
p1872
I10
sS'YDR046C'
p1873
I13
sS'YOR253W'
p1874
I25
sS'YOR202W'
p1875
I9
sS'YMR195W'
p1876
I12
sS'YCR051W'
p1877
I17
sS'YER070W'
p1878
I10
sS'YPL262W'
p1879
I18
sS'YGR079W'
p1880
I8
sS'YGL129C'
p1881
I3
sS'YBL069W'
p1882
I6
sS'YKL151C'
p1883
I1
sS'YGL198W'
p1884
I10
sS'YDL086W'
p1885
I7
sS'YOR163W'
p1886
I15
sS'YLR093C'
p1887
I11
sS'YKL128C'
p1888
I9
sS'YJR065C'
p1889
I12
sS'YNL308C'
p1890
I15
sS'YPR074C'
p1891
I22
sS'YHR058C'
p1892
I3
sS'YJR049C'
p1893
I3
sS'YPR112C'
p1894
I7
sS'YML085C'
p1895
I20
sS'YML069W'
p1896
I14
sS'YPR169W'
p1897
I8
sS'YLR175W'
p1898
I59
sS'YGR279C'
p1899
I15
sS'YDR064W'
p1900
I530
sS'YBL056W'
p1901
I19
sS'YML067C'
p1902
I14
sS'YER052C'
p1903
I16
sS'YNL260C'
p1904
I5
sS'YLL015W'
p1905
I3
sS'YMR202W'
p1906
I43
sS'YER003C'
p1907
I28
sS'YER103W'
p1908
I3
sS'YBR208C'
p1909
I2
sS'YCL057W'
p1910
I8
sS'YLR413W'
p1911
I9
sS'YDL120W'
p1912
I11
sS'YPR063C'
p1913
I12
sS'YLR153C'
p1914
I14
sS'YEL063C'
p1915
I6
sS'YBL076C'
p1916
I40
sS'YMR113W'
p1917
I3
sS'YFR006W'
p1918
I8
sS'YMR297W'
p1919
I20
sS'YKR068C'
p1920
I11
sS'YDR005C'
p1921
I2
sS'YML021C'
p1922
I5
sS'YGL021W'
p1923
I5
sS'YDL173W'
p1924
I8
sS'YBR143C'
p1925
I46
sS'YDR086C'
p1926
I82
sS'YMR006C'
p1927
I5
sS'YAL016W'
p1928
I9
sS'YFL039C'
p1929
I76
sS'YJL134W'
p1930
I9
sS'YDR449C'
p1931
I8
sS'YLR367W'
p1932
I58
sS'YKL080W'
p1933
I29
sS'YLR183C'
p1934
I8
sS'YKL186C'
p1935
I8
sS'YBR109C'
p1936
I68
sS'YBR172C'
p1937
I3
sS'YHR045W'
p1938
I7
sS'YJL172W'
p1939
I7
sS'YJL010C'
p1940
I10
sS'YHR083W'
p1941
I5
sS'YGL233W'
p1942
I2
sS'YKR042W'
p1943
I20
sS'YNL051W'
p1944
I3
sS'YPL092W'
p1945
I8
sS'YHR146W'
p1946
I18
sS'YKL024C'
p1947
I26
sS'YGL196W'
p1948
I7
sS'YKL126W'
p1949
I10
sS'YJL129C'
p1950
I1
sS'YLR209C'
p1951
I5
sS'YBR189W'
p1952
I325
sS'YDR264C'
p1953
I10
sS'YNL035C'
p1954
I5
sS'YLR287C'
p1955
I10
sS'YPL061W'
p1956
I41
sS'YLR370C'
p1957
I8
sS'YNL177C'
p1958
I6
sS'YDR454C'
p1959
I61
sS'YIL009W'
p1960
I5
sS'YLR250W'
p1961
I17
sS'YOR070C'
p1962
I3
sS'YOL093W'
p1963
I7
sS'YOL042W'
p1964
I4
sS'YFR039C'
p1965
I5
sS'YBR236C'
p1966
I9
sS'YPL125W'
p1967
I2
sS'YIL070C'
p1968
I10
sS'YCL037C'
p1969
I7
sS'YHL020C'
p1970
I5
sS'YGR081C'
p1971
I9
sS'YDR289C'
p1972
I6
sS'YHR076W'
p1973
I6
sS'YOR354C'
p1974
I2
sS'YGL223C'
p1975
I5
sS'YBL016W'
p1976
I5
sS'YML131W'
p1977
I2
sS'YGR032W'
p1978
I4
sS'YGR125W'
p1979
I3
sS'YNR024W'
p1980
I12
sS'YIL038C'
p1981
I9
sS'YNR009W'
p1982
I6
sS'YPL043W'
p1983
I11
sS'YIL138C'
p1984
I30
sS'YBR256C'
p1985
I18
sS'YKL002W'
p1986
I12
sS'YDR328C'
p1987
I26
sS'YLR247C'
p1988
I3
sS'YDL235C'
p1989
I8
sS'YOR057W'
p1990
I5
sS'YLR345W'
p1991
I4
sS'YKL073W'
p1992
I2
sS'YGR103W'
p1993
I39
sS'YJL081C'
p1994
I8
sS'YIL041W'
p1995
I32
sS'YGR178C'
p1996
I16
sS'YNL155W'
p1997
I10
sS'YNL100W'
p1998
I8
sS'YPR171W'
p1999
I5
sS'YBR154C'
p2000
I32
sS'YGR284C'
p2001
I13
sS'YMR318C'
p2002
I31
sS'YGR181W'
p2003
I13
sS'YKR074W'
p2004
I16
sS'YHR108W'
p2005
I6
sS'YDL067C'
p2006
I15
sS'YOL020W'
p2007
I4
sS'YBR086C'
p2008
I4
sS'YDR135C'
p2009
I4
sS'YAR003W'
p2010
I10
sS'YMR256C'
p2011
I12
sS'YMR236W'
p2012
I19
sS'YOR127W'
p2013
I2
sS'YER148W'
p2014
I28
sS'YGL242C'
p2015
I16
sS'YHL015W'
p2016
I591
sS'YOR303W'
p2017
I15
sS'YOR252W'
p2018
I9
sS'YDR472W'
p2019
I8
sS'YER073W'
p2020
I37
sS'YMR229C'
p2021
I9
sS'YLR065C'
p2022
I20
sS'YGR007W'
p2023
I14
sS'YOR056C'
p2024
I9
sS'YDR013W'
p2025
I9
sS'YOR270C'
p2026
I16
sS'YHR020W'
p2027
I25
sS'YGL252C'
p2028
I8
sS'YLL043W'
p2029
I10
sS'YDR415C'
p2030
I8
sS'YGL161C'
p2031
I7
sS'YOL133W'
p2032
I14
sS'YGL058W'
p2033
I12
sS'YAL023C'
p2034
I10
sS'YNL263C'
p2035
I6
sS'YMR115W'
p2036
I3
sS'YOR096W'
p2037
I172
sS'YPL001W'
p2038
I3
sS'YPL250C'
p2039
I10
sS'YGR132C'
p2040
I14
sS'YER004W'
p2041
I12
sS'YGL119W'
p2042
I3
sS'YCR072C'
p2043
I6
sS'YKR016W'
p2044
I4
sS'YMR158W'
p2045
I10
sS'YMR203W'
p2046
I9
sS'YLL036C'
p2047
I3
sS'YJL024C'
p2048
I4
sS'YDR519W'
p2049
I19
sS'YDL029W'
p2050
I25
sS'YBL057C'
p2051
I19
sS'YBR073W'
p2052
I5
sS'YLR034C'
p2053
I2
sS'YER019W'
p2054
I5
sS'YMR263W'
p2055
I4
sS'YBR004C'
p2056
I2
sS'YDL121C'
p2057
I26
sS'YPR033C'
p2058
I18
sS'YLR129W'
p2059
I13
sS'YPR062W'
p2060
I44
sS'YBL041W'
p2061
I30
sS'YGR232W'
p2062
I10
sS'YBR026C'
p2063
I5
sS'YDL185W'
p2064
I26
sS'YBR091C'
p2065
I8
sS'YPR180W'
p2066
I4
sS'YEL013W'
p2067
I9
sS'YDL007W'
p2068
I23
sS'YGL056C'
p2069
I2
sS'YOR280C'
p2070
I5
sS'YML004C'
p2071
I20
sS'YCR043C'
p2072
I25
sS'YPL227C'
p2073
I10
sS'YDL010W'
p2074
I4
sS'YLL009C'
p2075
I7
sS'YML019W'
p2076
I7
sS'YPR024W'
p2077
I7
sS'YLR163C'
p2078
I8
sS'YOR245C'
p2079
I5
sS'YJL207C'
p2080
I2
sS'YDL198C'
p2081
I14
sS'YDR103W'
p2082
I3
sS'YKL167C'
p2083
I9
sS'YDL092W'
p2084
I18
sS'YKR043C'
p2085
I36
sS'YGR244C'
p2086
I8
sS'YJL011C'
p2087
I4
sS'YDL143W'
p2088
I29
sS'YKL138C'
p2089
I7
sS'YDL161W'
p2090
I5
sS'YNL056W'
p2091
I15
sS'YPL093W'
p2092
I12
sS'YPL028W'
p2093
I52
sS'YFL001W'
p2094
I3
sS'YKL025C'
p2095
I3
sS'YPR137W'
p2096
I14
sS'YGR173W'
p2097
I18
sS'YPL173W'
p2098
I4
sS'YKL125W'
p2099
I7
sS'YLR264W'
p2100
I184
sS'YKL170W'
p2101
I4
sS'YKR023W'
p2102
I4
sS'YNL036W'
p2103
I7
sS'YOR115C'
p2104
I11
sS'YMR296C'
p2105
I7
sS'YDR267C'
p2106
I9
sS'YLR286C'
p2107
I24
sS'YNL016W'
p2108
I11
sS'YJL208C'
p2109
I3
sS'YLR384C'
p2110
I3
sS'YLR421C'
p2111
I39
sS'YMR145C'
p2112
I7
sS'YDR161W'
p2113
I16
sS'YMR110C'
p2114
I3
sS'YJR064W'
p2115
I15
sS'YOR285W'
p2116
I36
sS'YJL002C'
p2117
I18
sS'YML022W'
p2118
I45
sS'YJR031C'
p2119
I3
sS'YPR159W'
p2120
I6
sS'YAL035W'
p2121
I29
sS'YHR059W'
p2122
I5
sS'YML053C'
p2123
I6
sS'YFL049W'
p2124
I3
sS'YKR018C'
p2125
I4
sS'YER099C'
p2126
I10
sS'YDL150W'
p2127
I7
sS'YOR171C'
p2128
I3
sS'YHR084W'
p2129
I4
sS'YKL003C'
p2130
I11
sS'YNL149C'
p2131
I46
sS'YGL095C'
p2132
I5
sS'YGR246C'
p2133
I4
sS'YLR359W'
p2134
I32
sS'YIL079C'
p2135
I6
sS'YLR199C'
p2136
I5
sS'YDR329C'
p2137
I5
sS'YGR142W'
p2138
I8
sS'YFR025C'
p2139
I9
sS'YLR195C'
p2140
I8
sS'YJL140W'
p2141
I23
sS'YDR311W'
p2142
I7
sS'YKL192C'
p2143
I26
sS'YKL185W'
p2144
I4
sS'YGL082W'
p2145
I2
sS'YDR310C'
p2146
I4
sS'YPL146C'
p2147
I22
sS'YNL138W'
p2148
I14
sS'YNL154C'
p2149
I10
sS'YPR098C'
p2150
I7
sS'YNL001W'
p2151
I6
sS'YDL236W'
p2152
I15
sS'YJL080C'
p2153
I13
sS'YFR009W'
p2154
I11
sS'YNL101W'
p2155
I4
sS'YGR179C'
p2156
I2
sS'YJR086W'
p2157
I15
sS'YKL065C'
p2158
I10
sS'YBR139W'
p2159
I7
sS'YDR448W'
p2160
I5
sS'YBR052C'
p2161
I23
sS'YFL023W'
p2162
I3
sS'YNL116W'
p2163
I6
sS'YDR092W'
p2164
I23
sS'YDR361C'
p2165
I18
sS'YBR171W'
p2166
I27
sS'YNL005C'
p2167
I4
sS'YJL157C'
p2168
I5
sS'YLR226W'
p2169
I7
sS'YKL181W'
p2170
I37
sS'YOL032W'
p2171
I4
sS'YHR027C'
p2172
I18
sS'YOR315W'
p2173
I4
sS'YLR333C'
p2174
I127
sS'YOR273C'
p2175
I3
sS'YBR200W'
p2176
I2
sS'YGL077C'
p2177
I7
sS'YPL204W'
p2178
I9
sS'YKL184W'
p2179
I10
sS'YDR412W'
p2180
I9
sS'YGL160W'
p2181
I2
sS'YOR091W'
p2182
I14
sS'YGR026W'
p2183
I14
sS'YML125C'
p2184
I17
sS'YBR157C'
p2185
I4
sS'YNL284C'
p2186
I12
sS'YFR041C'
p2187
I8
sS'YOL092W'
p2188
I18
sS'YOR355W'
p2189
I10
sS'YGR086C'
p2190
I46
sS'YPL106C'
p2191
I51
sS'YOL143C'
p2192
I53
sS'YBR237W'
p2193
I5
sS'YBR197C'
p2194
I4
sS'YHR147C'
p2195
I8
sS'YGR031W'
p2196
I6
sS'YGR124W'
p2197
I36
sS'YPL126W'
p2198
I6
sS'YBL017C'
p2199
I8
sS'YNL244C'
p2200
I106
sS'YJR142W'
p2201
I11
sS'YGL055W'
p2202
I17
sS'YPR181C'
p2203
I4
sS'YML005W'
p2204
I4
sS'YNL215W'
p2205
I10
sS'YDR529C'
p2206
I23
sS'YGR044C'
p2207
I8
sS'YOR204W'
p2208
I6
sS'YEL012W'
p2209
I6
sS'YBL040C'
p2210
I13
sS'YER123W'
p2211
I2
sS'YDR153C'
p2212
I8
sS'YPR043W'
p2213
I411
sS'YDR382W'
p2214
I483
sS'YDR483W'
p2215
I23
sS'YLL008W'
p2216
I11
sS'YDR505C'
p2217
I1
sS'YKL206C'
p2218
I8
sS'YLR022C'
p2219
I15
sS'YPL246C'
p2220
I13
sS'YOR246C'
p2221
I11
sS'YPL226W'
p2222
I15
sS'YLR073C'
p2223
I6
sS'YLR375W'
p2224
I5
sS'YGL039W'
p2225
I10
sS'YER183C'
p2226
I9
sS'YML018C'
p2227
I6
sS'YEL001C'
p2228
I31
sS'YOL021C'
p2229
I6
sS'YHR030C'
p2230
I3
sS'YMR319C'
p2231
I10
sS'YMR235C'
p2232
I36
sS'YKL018W'
p2233
I3
sS'YEL034W'
p2234
I98
sS'YNR050C'
p2235
I15
sS'YKR100C'
p2236
I11
sS'YCL017C'
p2237
I7
sS'YGR180C'
p2238
I30
sS'YOR260W'
p2239
I21
sS'YPL260W'
p2240
I10
sS'YML110C'
p2241
I11
sS'YNR016C'
p2242
I14
sS'YOL010W'
p2243
I10
sS'YLR064W'
p2244
I6
sS'YGL048C'
p2245
I33
sS'YKL081W'
p2246
I132
sS'YCR053W'
p2247
I23
sS'YER072W'
p2248
I115
sS'YKL106W'
p2249
I6
sS'YFL047W'
p2250
I3
sS'YNL330C'
p2251
I6
sS'YOR138C'
p2252
I2
sS'YPR029C'
p2253
I3
sS'YJL034W'
p2254
I49
sS'YLR420W'
p2255
I24
sS'YJR067C'
p2256
I3
sS'YDR075W'
p2257
I9
sS'YFL048C'
p2258
I4
sS'YGR220C'
p2259
I7
sS'YBR014C'
p2260
I9
sS'YML052W'
p2261
I10
sS'YPL012W'
p2262
I7
sS'YJR006W'
p2263
I3
sS'YOR176W'
p2264
I7
sS'YHR187W'
p2265
I5
sS'YDL108W'
p2266
I5
sS'YGR275W'
p2267
I9
sS'YJR069C'
p2268
I15
sS'YOR286W'
p2269
I11
sS'YBL089W'
p2270
I2
sS'YDL084W'
p2271
I62
sS'YMR120C'
p2272
I15
sS'YBL046W'
p2273
I4
sS'YOR143C'
p2274
I6
sS'YCL055W'
p2275
I3
sS'YER105C'
p2276
I5
sS'YBL054W'
p2277
I2
sS'YOR194C'
p2278
I14
sS'YER050C'
p2279
I6
sS'YCR008W'
p2280
I8
sS'YMR102C'
p2281
I1
sS'YMR200W'
p2282
I15
sS'YPR144C'
p2283
I2
sS'YDR175C'
p2284
I7
sS'YPR034W'
p2285
I5
sS'YOR189W'
p2286
I8
sS'YDL122W'
p2287
I5
sS'YMR264W'
p2288
I12
sS'YDR351W'
p2289
I6
sS'YBR046C'
p2290
I4
sS'YNL315C'
p2291
I11
sS'YOR299W'
p2292
I4
sS'YEL065W'
p2293
I12
sS'YJR045C'
p2294
I26
sS'YNR008W'
p2295
I4
sS'YOL124C'
p2296
I10
sS'YMR008C'
p2297
I1
sS'YJL136C'
p2298
I177
sS'YJL117W'
p2299
I25
sS'YDR080W'
p2300
I4
sS'YJR010W'
p2301
I3
sS'YHR165C'
p2302
I3
sS'YKL028W'
p2303
I11
sS'YIL126W'
p2304
I4
sS'YLR221C'
p2305
I24
sS'YIL109C'
p2306
I9
sS'YGR210C'
p2307
I13
sS'YDR362C'
p2308
I3
sS'YFL022C'
p2309
I29
sS'YJL156C'
p2310
I2
sS'YNL253W'
p2311
I4
sS'YNL115C'
p2312
I5
sS'YKL180W'
p2313
I145
sS'YKL166C'
p2314
I8
sS'YMR088C'
p2315
I5
sS'YGR211W'
p2316
I13
sS'YJL174W'
p2317
I9
sS'YDL093W'
p2318
I2
sS'YJL069C'
p2319
I12
sS'YFL017C'
p2320
I10
sS'YLR298C'
p2321
I4
sS'YHR047C'
p2322
I6
sS'YGL001C'
p2323
I5
sS'YJR058C'
p2324
I7
sS'YDL115C'
p2325
I9
sS'YLR285W'
p2326
I13
sS'YDR304C'
p2327
I34
sS'YDL219W'
p2328
I13
sS'YOR136W'
p2329
I13
sS'YDR266C'
p2330
I7
sS'YDR206W'
p2331
I5
sS'YDL005C'
p2332
I11
sS'YOR116C'
p2333
I5
sS'YFL013C'
p2334
I2
sS'YKL140W'
p2335
I4
sS'YOR076C'
p2336
I1
sS'YOL142W'
p2337
I12
sS'YOR326W'
p2338
I4
sS'YCL031C'
p2339
I9
sS'YIL027C'
p2340
I21
sS'YLR459W'
p2341
I4
sS'YNL243W'
p2342
I7
sS'YBR261C'
p2343
I10
sS'YJR143C'
p2344
I5
sS'YNR026C'
p2345
I4
sS'YLR190W'
p2346
I3
sS'YGR147C'
p2347
I15
sS'YDR002W'
p2348
I93
sS'YNL297C'
p2349
I2
sS'YGR030C'
p2350
I9
sS'YAL025C'
p2351
I21
sS'YBR126C'
p2352
I10
sS'YBR170C'
p2353
I5
sS'YGR130C'
p2354
I3
sS'YDR458C'
p2355
I6
sS'YJR118C'
p2356
I11
sS'YOR016C'
p2357
I13
sS'YDL217C'
p2358
I6
sS'YGR165W'
p2359
I7
sS'YOR344C'
p2360
I6
sS'YBR254C'
p2361
I7
sS'YIL047C'
p2362
I13
sS'YKL193C'
p2363
I1
sS'YNL153C'
p2364
I27
sS'YPR139C'
p2365
I5
sS'YGR101W'
p2366
I2
sS'YNL281W'
p2367
I41
sS'YPL078C'
p2368
I17
sS'YJR085C'
p2369
I33
sS'YER155C'
p2370
I7
sS'YKL075C'
p2371
I4
sS'YNL287W'
p2372
I13
sS'YCR095C'
p2373
I9
sS'YOL077C'
p2374
I28
sS'YDR137W'
p2375
I2
sS'YKL209C'
p2376
I8
sS'YBR084W'
p2377
I6
sS'YLR003C'
p2378
I8
sS'YIL010W'
p2379
I4
sS'YOR261C'
p2380
I22
sS'YNR051C'
p2381
I12
sS'YGR187C'
p2382
I15
sS'YDR056C'
p2383
I28
sS'YHL002W'
p2384
I3
sS'YHR122W'
p2385
I7
sS'YDR390C'
p2386
I7
sS'YPL267W'
p2387
I9
sS'YHL017W'
p2388
I5
sS'YBL032W'
p2389
I3
sS'YML111W'
p2390
I3
sS'YDR023W'
p2391
I68
sS'YHL034C'
p2392
I32
sS'YCR052W'
p2393
I6
sS'YLR332W'
p2394
I7
sS'YBR272C'
p2395
I6
sS'YDR298C'
p2396
I15
sS'YDR011W'
p2397
I5
sS'YOR272W'
p2398
I19
sS'YNR046W'
p2399
I19
sS'YOL059W'
p2400
I6
sS'YPR097W'
p2401
I4
sS'YGL068W'
p2402
I18
sS'YOL151W'
p2403
I9
sS'YHR026W'
p2404
I30
sS'YML063W'
p2405
I253
sS'YNL238W'
p2406
I5
sS'YOR090C'
p2407
I3
sS'YJL198W'
p2408
I12
sS'YPL207W'
p2409
I8
sS'YGR027C'
p2410
I344
sS'YNL289W'
p2411
I16
sS'YOR323C'
p2412
I31
sS'YLL041C'
p2413
I4
sS'YML106W'
p2414
I49
sS'YBR062C'
p2415
I7
sS'YER036C'
p2416
I31
sS'YCL054W'
p2417
I7
sS'YLR118C'
p2418
I14
sS'YER006W'
p2419
I16
sS'YER026C'
p2420
I17
sS'YLR182W'
p2421
I4
sS'YPR051W'
p2422
I8
sS'YBL105C'
p2423
I3
sS'YKR060W'
p2424
I7
sS'YLR150W'
p2425
I251
sS'YEL046C'
p2426
I13
sS'YBL055C'
p2427
I4
sS'YPR035W'
p2428
I69
sS'YDL189W'
p2429
I6
sS'YLL018C'
p2430
I32
sS'YPR060C'
p2431
I13
sS'YML008C'
p2432
I48
sS'YPR019W'
p2433
I8
sS'YDR174W'
p2434
I33
sS'YML073C'
p2435
I197
sS'YGL137W'
p2436
I10
sS'YGL101W'
p2437
I14
sS'YJR105W'
p2438
I25
sS'YCL009C'
p2439
I44
sS'YDL072C'
p2440
I18
sS'YER159C'
p2441
I17
sS'YEL048C'
p2442
I6
sS'YER122C'
p2443
I13
sS'YHR113W'
p2444
I9
sS'YMR212C'
p2445
I8
sS'YHL021C'
p2446
I3
sS'YOR234C'
p2447
I124
sS'YPR182W'
p2448
I9
sS'YJL196C'
p2449
I15
sS'YDR034C'
p2450
I2
sS'YGL054C'
p2451
I57
sS'YLR021W'
p2452
I15
sS'YLR058C'
p2453
I48
sS'YOR247W'
p2454
I26
sS'YLR074C'
p2455
I16
sS'YNL216W'
p2456
I4
sS'YKL207W'
p2457
I26
sS'YPL225W'
p2458
I46
sS'YDL043C'
p2459
I8
sS'YDL012C'
p2460
I7
sS'YPR148C'
p2461
I11
sS'YER031C'
p2462
I25
sS'YMR089C'
p2463
I8
sS'YDL066W'
p2464
I14
sS'YOR108W'
p2465
I12
sS'YBR198C'
p2466
I9
sS'YJL068C'
p2467
I8
sS'YKL112W'
p2468
I7
sS'YHR046C'
p2469
I11
sS'YDR156W'
p2470
I16
sS'YMR130W'
p2471
I5
sS'YHR179W'
p2472
I66
sS'YOR117W'
p2473
I19
sS'YNL049C'
p2474
I2
sS'YGL195W'
p2475
I5
sS'YKL172W'
p2476
I32
sS'YKR025W'
p2477
I17
sS'YMR290C'
p2478
I11
sS'YPR100W'
p2479
I14
sS'YLR206W'
p2480
I3
sS'YER088C'
p2481
I6
sS'YDR508C'
p2482
I15
sS'YPR028W'
p2483
I76
sS'YNL185C'
p2484
I7
sS'YCR067C'
p2485
I4
sS'YMR047C'
p2486
I4
sS'YPR107C'
p2487
I3
sS'YLR427W'
p2488
I3
sS'YOR287C'
p2489
I7
sS'YLR083C'
p2490
I3
sS'YGR274C'
p2491
I2
sS'YGR266W'
p2492
I4
sS'YBR015C'
p2493
I6
sS'YML055W'
p2494
I13
sS'YML088W'
p2495
I2
sS'YJR066W'
p2496
I2
sS'YPL013C'
p2497
I16
s.